Archive member included because of file (symbol)

/usr/local/popcorn/aarch64/lib/libc.a(sysconf.o)
                              build_aarch64/sqlite3.o (sysconf)
/usr/local/popcorn/aarch64/lib/libc.a(closedir.o)
                              build_aarch64/benchmark.o (closedir)
/usr/local/popcorn/aarch64/lib/libc.a(opendir.o)
                              build_aarch64/benchmark.o (opendir)
/usr/local/popcorn/aarch64/lib/libc.a(readdir.o)
                              build_aarch64/benchmark.o (readdir)
/usr/local/popcorn/aarch64/lib/libc.a(__libc_start_main.o)
                              /usr/local/popcorn/aarch64/lib/crt1.o (__libc_start_main)
/usr/local/popcorn/aarch64/lib/libc.a(getenv.o)
                              build_aarch64/sqlite3.o (getenv)
/usr/local/popcorn/aarch64/lib/libc.a(__errno_location.o)
                              build_aarch64/sqlite3.o (__errno_location)
/usr/local/popcorn/aarch64/lib/libc.a(exit.o)
                              build_aarch64/benchmark.o (exit)
/usr/local/popcorn/aarch64/lib/libc.a(fcntl.o)
                              build_aarch64/sqlite3.o (fcntl)
/usr/local/popcorn/aarch64/lib/libc.a(open.o)
                              build_aarch64/sqlite3.o (open)
/usr/local/popcorn/aarch64/lib/libc.a(libc.o)
                              /usr/local/popcorn/aarch64/lib/libc.a(__libc_start_main.o) (__hwcap)
/usr/local/popcorn/aarch64/lib/libc.a(syscall_ret.o)
                              /usr/local/popcorn/aarch64/lib/libc.a(fcntl.o) (__syscall_ret)
/usr/local/popcorn/aarch64/lib/libc.a(dlsym.o)
                              build_aarch64/sqlite3.o (dlsym)
/usr/local/popcorn/aarch64/lib/libc.a(dlclose.o)
                              build_aarch64/sqlite3.o (dlclose)
/usr/local/popcorn/aarch64/lib/libc.a(dlerror.o)
                              /usr/local/popcorn/aarch64/lib/libc.a(dlclose.o) (__dl_invalid_handle)
/usr/local/popcorn/aarch64/lib/libc.a(dlopen.o)
                              build_aarch64/sqlite3.o (dlopen)
/usr/local/popcorn/aarch64/lib/libc.a(sysinfo.o)
                              /usr/local/popcorn/aarch64/lib/libc.a(sysconf.o) (__lsysinfo)
/usr/local/popcorn/aarch64/lib/libc.a(utimes.o)
                              build_aarch64/sqlite3.o (utimes)
/usr/local/popcorn/aarch64/lib/libc.a(calloc.o)
                              build_aarch64/benchmark.o (calloc)
/usr/local/popcorn/aarch64/lib/libc.a(lite_malloc.o)
                              /usr/local/popcorn/aarch64/lib/libc.a(calloc.o) (__malloc0)
/usr/local/popcorn/aarch64/lib/libc.a(malloc.o)
                              build_aarch64/random.o (free)
/usr/local/popcorn/aarch64/lib/libc.a(popcorn_malloc.o)
                              /usr/local/popcorn/aarch64/lib/libc.a(calloc.o) (__popcorn_malloc0)
/usr/local/popcorn/aarch64/lib/libc.a(sqrt.o)
                              build_aarch64/histogram.o (sqrt)
/usr/local/popcorn/aarch64/lib/libc.a(getrlimit.o)
                              /usr/local/popcorn/aarch64/lib/libc.a(sysconf.o) (getrlimit)
/usr/local/popcorn/aarch64/lib/libc.a(madvise.o)
                              /usr/local/popcorn/aarch64/lib/libc.a(malloc.o) (__madvise)
/usr/local/popcorn/aarch64/lib/libc.a(mmap.o)
                              /usr/local/popcorn/aarch64/lib/libc.a(malloc.o) (__mmap)
/usr/local/popcorn/aarch64/lib/libc.a(mremap.o)
                              /usr/local/popcorn/aarch64/lib/libc.a(malloc.o) (__mremap)
/usr/local/popcorn/aarch64/lib/libc.a(munmap.o)
                              /usr/local/popcorn/aarch64/lib/libc.a(malloc.o) (__munmap)
/usr/local/popcorn/aarch64/lib/libc.a(fchmod.o)
                              build_aarch64/sqlite3.o (fchmod)
/usr/local/popcorn/aarch64/lib/libc.a(fstat.o)
                              build_aarch64/sqlite3.o (fstat)
/usr/local/popcorn/aarch64/lib/libc.a(futimesat.o)
                              /usr/local/popcorn/aarch64/lib/libc.a(utimes.o) (__futimesat)
/usr/local/popcorn/aarch64/lib/libc.a(lstat.o)
                              build_aarch64/sqlite3.o (lstat)
/usr/local/popcorn/aarch64/lib/libc.a(mkdir.o)
                              build_aarch64/sqlite3.o (mkdir)
/usr/local/popcorn/aarch64/lib/libc.a(stat.o)
                              build_aarch64/sqlite3.o (stat)
/usr/local/popcorn/aarch64/lib/libc.a(utimensat.o)
                              /usr/local/popcorn/aarch64/lib/libc.a(futimesat.o) (utimensat)
/usr/local/popcorn/aarch64/lib/libc.a(fflush.o)
                              build_aarch64/benchmark.o (fflush)
/usr/local/popcorn/aarch64/lib/libc.a(fprintf.o)
                              build_aarch64/benchmark.o (fprintf)
/usr/local/popcorn/aarch64/lib/libc.a(fputc.o)
                              build_aarch64/main.o (fputc)
/usr/local/popcorn/aarch64/lib/libc.a(fwrite.o)
                              build_aarch64/benchmark.o (fwrite)
/usr/local/popcorn/aarch64/lib/libc.a(ofl.o)
                              /usr/local/popcorn/aarch64/lib/libc.a(fflush.o) (__ofl_lock)
/usr/local/popcorn/aarch64/lib/libc.a(remove.o)
                              build_aarch64/benchmark.o (remove)
/usr/local/popcorn/aarch64/lib/libc.a(snprintf.o)
                              build_aarch64/benchmark.o (snprintf)
/usr/local/popcorn/aarch64/lib/libc.a(sscanf.o)
                              build_aarch64/main.o (sscanf)
/usr/local/popcorn/aarch64/lib/libc.a(stderr.o)
                              build_aarch64/benchmark.o (stderr)
/usr/local/popcorn/aarch64/lib/libc.a(stdout.o)
                              build_aarch64/benchmark.o (stdout)
/usr/local/popcorn/aarch64/lib/libc.a(vfprintf.o)
                              /usr/local/popcorn/aarch64/lib/libc.a(fprintf.o) (vfprintf)
/usr/local/popcorn/aarch64/lib/libc.a(vsnprintf.o)
                              /usr/local/popcorn/aarch64/lib/libc.a(dlerror.o) (vsnprintf)
/usr/local/popcorn/aarch64/lib/libc.a(vsscanf.o)
                              /usr/local/popcorn/aarch64/lib/libc.a(sscanf.o) (vsscanf)
/usr/local/popcorn/aarch64/lib/libc.a(memcmp.o)
                              build_aarch64/sqlite3.o (memcmp)
/usr/local/popcorn/aarch64/lib/libc.a(memcpy.o)
                              build_aarch64/sqlite3.o (memcpy)
/usr/local/popcorn/aarch64/lib/libc.a(memmove.o)
                              build_aarch64/sqlite3.o (memmove)
/usr/local/popcorn/aarch64/lib/libc.a(memset.o)
                              build_aarch64/histogram.o (memset)
/usr/local/popcorn/aarch64/lib/libc.a(strcat.o)
                              build_aarch64/benchmark.o (strcat)
/usr/local/popcorn/aarch64/lib/libc.a(strchr.o)
                              build_aarch64/benchmark.o (strchr)
/usr/local/popcorn/aarch64/lib/libc.a(strchrnul.o)
                              /usr/local/popcorn/aarch64/lib/libc.a(getenv.o) (__strchrnul)
/usr/local/popcorn/aarch64/lib/libc.a(strcmp.o)
                              build_aarch64/benchmark.o (strcmp)
/usr/local/popcorn/aarch64/lib/libc.a(strcpy.o)
                              build_aarch64/benchmark.o (strcpy)
/usr/local/popcorn/aarch64/lib/libc.a(strcspn.o)
                              build_aarch64/sqlite3.o (strcspn)
/usr/local/popcorn/aarch64/lib/libc.a(strlen.o)
                              build_aarch64/benchmark.o (strlen)
/usr/local/popcorn/aarch64/lib/libc.a(strncmp.o)
                              build_aarch64/main.o (strncmp)
/usr/local/popcorn/aarch64/lib/libc.a(strncpy.o)
                              build_aarch64/benchmark.o (strncpy)
/usr/local/popcorn/aarch64/lib/libc.a(strnlen.o)
                              /usr/local/popcorn/aarch64/lib/libc.a(vfprintf.o) (strnlen)
/usr/local/popcorn/aarch64/lib/libc.a(__lock.o)
                              /usr/local/popcorn/aarch64/lib/libc.a(lite_malloc.o) (__lock)
/usr/local/popcorn/aarch64/lib/libc.a(__syscall_cp.o)
                              /usr/local/popcorn/aarch64/lib/libc.a(fcntl.o) (__syscall_cp)
/usr/local/popcorn/aarch64/lib/libc.a(__wait.o)
                              /usr/local/popcorn/aarch64/lib/libc.a(malloc.o) (__wait)
/usr/local/popcorn/aarch64/lib/libc.a(pthread_create.o)
                              build_aarch64/sqlite3.o (pthread_create)
/usr/local/popcorn/aarch64/lib/libc.a(pthread_join.o)
                              build_aarch64/sqlite3.o (pthread_join)
/usr/local/popcorn/aarch64/lib/libc.a(pthread_mutex_destroy.o)
                              build_aarch64/sqlite3.o (pthread_mutex_destroy)
/usr/local/popcorn/aarch64/lib/libc.a(pthread_mutex_init.o)
                              build_aarch64/sqlite3.o (pthread_mutex_init)
/usr/local/popcorn/aarch64/lib/libc.a(pthread_mutex_lock.o)
                              build_aarch64/sqlite3.o (pthread_mutex_lock)
/usr/local/popcorn/aarch64/lib/libc.a(pthread_mutex_timedlock.o)
                              /usr/local/popcorn/aarch64/lib/libc.a(pthread_mutex_lock.o) (__pthread_mutex_timedlock)
/usr/local/popcorn/aarch64/lib/libc.a(pthread_mutex_trylock.o)
                              build_aarch64/sqlite3.o (pthread_mutex_trylock)
/usr/local/popcorn/aarch64/lib/libc.a(pthread_mutex_unlock.o)
                              build_aarch64/sqlite3.o (pthread_mutex_unlock)
/usr/local/popcorn/aarch64/lib/libc.a(pthread_mutexattr_destroy.o)
                              build_aarch64/sqlite3.o (pthread_mutexattr_destroy)
/usr/local/popcorn/aarch64/lib/libc.a(pthread_mutexattr_init.o)
                              build_aarch64/sqlite3.o (pthread_mutexattr_init)
/usr/local/popcorn/aarch64/lib/libc.a(pthread_mutexattr_settype.o)
                              build_aarch64/sqlite3.o (pthread_mutexattr_settype)
/usr/local/popcorn/aarch64/lib/libc.a(pthread_setcancelstate.o)
                              /usr/local/popcorn/aarch64/lib/libc.a(pthread_join.o) (__pthread_setcancelstate)
/usr/local/popcorn/aarch64/lib/libc.a(pthread_testcancel.o)
                              /usr/local/popcorn/aarch64/lib/libc.a(pthread_join.o) (__pthread_testcancel)
/usr/local/popcorn/aarch64/lib/libc.a(vmlock.o)
                              /usr/local/popcorn/aarch64/lib/libc.a(pthread_create.o) (__vm_lock)
/usr/local/popcorn/aarch64/lib/libc.a(gettimeofday.o)
                              build_aarch64/sqlite3.o (gettimeofday)
/usr/local/popcorn/aarch64/lib/libc.a(localtime.o)
                              build_aarch64/sqlite3.o (localtime)
/usr/local/popcorn/aarch64/lib/libc.a(localtime_r.o)
                              /usr/local/popcorn/aarch64/lib/libc.a(localtime.o) (__localtime_r)
/usr/local/popcorn/aarch64/lib/libc.a(time.o)
                              build_aarch64/sqlite3.o (time)
/usr/local/popcorn/aarch64/lib/libc.a(access.o)
                              build_aarch64/sqlite3.o (access)
/usr/local/popcorn/aarch64/lib/libc.a(close.o)
                              build_aarch64/sqlite3.o (close)
/usr/local/popcorn/aarch64/lib/libc.a(fchown.o)
                              build_aarch64/sqlite3.o (fchown)
/usr/local/popcorn/aarch64/lib/libc.a(fsync.o)
                              build_aarch64/sqlite3.o (fsync)
/usr/local/popcorn/aarch64/lib/libc.a(ftruncate.o)
                              build_aarch64/sqlite3.o (ftruncate)
/usr/local/popcorn/aarch64/lib/libc.a(getcwd.o)
                              build_aarch64/sqlite3.o (getcwd)
/usr/local/popcorn/aarch64/lib/libc.a(geteuid.o)
                              build_aarch64/sqlite3.o (geteuid)
/usr/local/popcorn/aarch64/lib/libc.a(getpid.o)
                              build_aarch64/sqlite3.o (getpid)
/usr/local/popcorn/aarch64/lib/libc.a(lseek.o)
                              build_aarch64/sqlite3.o (lseek)
/usr/local/popcorn/aarch64/lib/libc.a(read.o)
                              build_aarch64/sqlite3.o (read)
/usr/local/popcorn/aarch64/lib/libc.a(readlink.o)
                              build_aarch64/sqlite3.o (readlink)
/usr/local/popcorn/aarch64/lib/libc.a(rmdir.o)
                              build_aarch64/sqlite3.o (rmdir)
/usr/local/popcorn/aarch64/lib/libc.a(sleep.o)
                              build_aarch64/sqlite3.o (sleep)
/usr/local/popcorn/aarch64/lib/libc.a(unlink.o)
                              build_aarch64/sqlite3.o (unlink)
/usr/local/popcorn/aarch64/lib/libc.a(write.o)
                              build_aarch64/sqlite3.o (write)
/usr/local/popcorn/aarch64/lib/libc.a(__environ.o)
                              /usr/local/popcorn/aarch64/lib/libc.a(__libc_start_main.o) (__environ)
/usr/local/popcorn/aarch64/lib/libc.a(__init_tls.o)
                              /usr/local/popcorn/aarch64/lib/libc.a(pthread_create.o) (__copy_tls)
/usr/local/popcorn/aarch64/lib/libc.a(platform.o)
                              /usr/local/popcorn/aarch64/lib/libc.a(calloc.o) (popcorn_getnid)
/usr/local/popcorn/aarch64/lib/libc.a(strerror.o)
                              /usr/local/popcorn/aarch64/lib/libc.a(vfprintf.o) (strerror)
/usr/local/popcorn/aarch64/lib/libc.a(_Exit.o)
                              /usr/local/popcorn/aarch64/lib/libc.a(exit.o) (_Exit)
/usr/local/popcorn/aarch64/lib/libc.a(syscall.o)
                              /usr/local/popcorn/aarch64/lib/libc.a(__syscall_cp.o) (__syscall)
/usr/local/popcorn/aarch64/lib/libc.a(procfdname.o)
                              /usr/local/popcorn/aarch64/lib/libc.a(fchmod.o) (__procfdname)
/usr/local/popcorn/aarch64/lib/libc.a(__dlsym.o)
                              /usr/local/popcorn/aarch64/lib/libc.a(dlsym.o) (__dlsym)
/usr/local/popcorn/aarch64/lib/libc.a(__lctrans.o)
                              /usr/local/popcorn/aarch64/lib/libc.a(strerror.o) (__lctrans)
/usr/local/popcorn/aarch64/lib/libc.a(expand_heap.o)
                              /usr/local/popcorn/aarch64/lib/libc.a(lite_malloc.o) (__expand_heap)
/usr/local/popcorn/aarch64/lib/libc.a(__fpclassifyl.o)
                              /usr/local/popcorn/aarch64/lib/libc.a(vfprintf.o) (__fpclassifyl)
/usr/local/popcorn/aarch64/lib/libc.a(__signbitl.o)
                              /usr/local/popcorn/aarch64/lib/libc.a(vfprintf.o) (__signbitl)
/usr/local/popcorn/aarch64/lib/libc.a(frexpl.o)
                              /usr/local/popcorn/aarch64/lib/libc.a(vfprintf.o) (frexpl)
/usr/local/popcorn/aarch64/lib/libc.a(mprotect.o)
                              /usr/local/popcorn/aarch64/lib/libc.a(pthread_create.o) (__mprotect)
/usr/local/popcorn/aarch64/lib/libc.a(wctomb.o)
                              /usr/local/popcorn/aarch64/lib/libc.a(vfprintf.o) (wctomb)
/usr/local/popcorn/aarch64/lib/libc.a(block.o)
                              /usr/local/popcorn/aarch64/lib/libc.a(pthread_create.o) (__block_all_sigs)
/usr/local/popcorn/aarch64/lib/libc.a(__lockfile.o)
                              /usr/local/popcorn/aarch64/lib/libc.a(fflush.o) (__lockfile)
/usr/local/popcorn/aarch64/lib/libc.a(__overflow.o)
                              /usr/local/popcorn/aarch64/lib/libc.a(fputc.o) (__overflow)
/usr/local/popcorn/aarch64/lib/libc.a(__stdio_close.o)
                              /usr/local/popcorn/aarch64/lib/libc.a(stderr.o) (__stdio_close)
/usr/local/popcorn/aarch64/lib/libc.a(__stdio_seek.o)
                              /usr/local/popcorn/aarch64/lib/libc.a(stderr.o) (__stdio_seek)
/usr/local/popcorn/aarch64/lib/libc.a(__stdio_write.o)
                              /usr/local/popcorn/aarch64/lib/libc.a(stderr.o) (__stdio_write)
/usr/local/popcorn/aarch64/lib/libc.a(__stdout_write.o)
                              /usr/local/popcorn/aarch64/lib/libc.a(stdout.o) (__stdout_write)
/usr/local/popcorn/aarch64/lib/libc.a(__string_read.o)
                              /usr/local/popcorn/aarch64/lib/libc.a(vsscanf.o) (__string_read)
/usr/local/popcorn/aarch64/lib/libc.a(__towrite.o)
                              /usr/local/popcorn/aarch64/lib/libc.a(fwrite.o) (__towrite)
/usr/local/popcorn/aarch64/lib/libc.a(vfscanf.o)
                              /usr/local/popcorn/aarch64/lib/libc.a(vsscanf.o) (vfscanf)
/usr/local/popcorn/aarch64/lib/libc.a(memchr.o)
                              /usr/local/popcorn/aarch64/lib/libc.a(strnlen.o) (memchr)
/usr/local/popcorn/aarch64/lib/libc.a(stpcpy.o)
                              /usr/local/popcorn/aarch64/lib/libc.a(strcpy.o) (__stpcpy)
/usr/local/popcorn/aarch64/lib/libc.a(stpncpy.o)
                              /usr/local/popcorn/aarch64/lib/libc.a(strncpy.o) (__stpncpy)
/usr/local/popcorn/aarch64/lib/libc.a(strdup.o)
                              /usr/local/popcorn/aarch64/lib/libc.a(getcwd.o) (strdup)
/usr/local/popcorn/aarch64/lib/libc.a(__timedwait.o)
                              /usr/local/popcorn/aarch64/lib/libc.a(pthread_mutex_timedlock.o) (__timedwait)
/usr/local/popcorn/aarch64/lib/libc.a(__cleartid_exit_nostack.o)
                              /usr/local/popcorn/aarch64/lib/libc.a(pthread_create.o) (__cleartid_exit_nostack)
/usr/local/popcorn/aarch64/lib/libc.a(__set_thread_area.o)
                              /usr/local/popcorn/aarch64/lib/libc.a(__init_tls.o) (__set_thread_area)
/usr/local/popcorn/aarch64/lib/libc.a(__unmapself.o)
                              /usr/local/popcorn/aarch64/lib/libc.a(pthread_create.o) (__unmapself)
/usr/local/popcorn/aarch64/lib/libc.a(clone.o)
                              /usr/local/popcorn/aarch64/lib/libc.a(pthread_create.o) (__clone)
/usr/local/popcorn/aarch64/lib/libc.a(__secs_to_tm.o)
                              /usr/local/popcorn/aarch64/lib/libc.a(localtime_r.o) (__secs_to_tm)
/usr/local/popcorn/aarch64/lib/libc.a(__tz.o)
                              /usr/local/popcorn/aarch64/lib/libc.a(localtime_r.o) (__secs_to_zone)
/usr/local/popcorn/aarch64/lib/libc.a(__year_to_secs.o)
                              /usr/local/popcorn/aarch64/lib/libc.a(__tz.o) (__year_to_secs)
/usr/local/popcorn/aarch64/lib/libc.a(clock_gettime.o)
                              /usr/local/popcorn/aarch64/lib/libc.a(time.o) (__clock_gettime)
/usr/local/popcorn/aarch64/lib/libc.a(nanosleep.o)
                              /usr/local/popcorn/aarch64/lib/libc.a(sleep.o) (nanosleep)
/usr/local/popcorn/aarch64/lib/libc.a(floatscan.o)
                              /usr/local/popcorn/aarch64/lib/libc.a(vfscanf.o) (__floatscan)
/usr/local/popcorn/aarch64/lib/libc.a(intscan.o)
                              /usr/local/popcorn/aarch64/lib/libc.a(vfscanf.o) (__intscan)
/usr/local/popcorn/aarch64/lib/libc.a(shgetc.o)
                              /usr/local/popcorn/aarch64/lib/libc.a(vfscanf.o) (__shgetc)
/usr/local/popcorn/aarch64/lib/libc.a(fabs.o)
                              /usr/local/popcorn/aarch64/lib/libc.a(floatscan.o) (fabs)
/usr/local/popcorn/aarch64/lib/libc.a(copysignl.o)
                              /usr/local/popcorn/aarch64/lib/libc.a(floatscan.o) (copysignl)
/usr/local/popcorn/aarch64/lib/libc.a(fmodl.o)
                              /usr/local/popcorn/aarch64/lib/libc.a(floatscan.o) (fmodl)
/usr/local/popcorn/aarch64/lib/libc.a(scalbn.o)
                              /usr/local/popcorn/aarch64/lib/libc.a(floatscan.o) (scalbn)
/usr/local/popcorn/aarch64/lib/libc.a(scalbnl.o)
                              /usr/local/popcorn/aarch64/lib/libc.a(floatscan.o) (scalbnl)
/usr/local/popcorn/aarch64/lib/libc.a(mbrtowc.o)
                              /usr/local/popcorn/aarch64/lib/libc.a(vfscanf.o) (mbrtowc)
/usr/local/popcorn/aarch64/lib/libc.a(mbsinit.o)
                              /usr/local/popcorn/aarch64/lib/libc.a(vfscanf.o) (mbsinit)
/usr/local/popcorn/aarch64/lib/libc.a(wcrtomb.o)
                              /usr/local/popcorn/aarch64/lib/libc.a(wctomb.o) (wcrtomb)
/usr/local/popcorn/aarch64/lib/libc.a(__stdio_exit.o)
                              /usr/local/popcorn/aarch64/lib/libc.a(__towrite.o) (__stdio_exit_needed)
/usr/local/popcorn/aarch64/lib/libc.a(__uflow.o)
                              /usr/local/popcorn/aarch64/lib/libc.a(shgetc.o) (__uflow)
/usr/local/popcorn/aarch64/lib/libc.a(__map_file.o)
                              /usr/local/popcorn/aarch64/lib/libc.a(__tz.o) (__map_file)
/usr/local/popcorn/aarch64/lib/libc.a(__month_to_secs.o)
                              /usr/local/popcorn/aarch64/lib/libc.a(__tz.o) (__month_to_secs)
/usr/local/popcorn/aarch64/lib/libc.a(internal.o)
                              /usr/local/popcorn/aarch64/lib/libc.a(mbrtowc.o) (__fsmu8)
/usr/local/popcorn/aarch64/lib/libc.a(__toread.o)
                              /usr/local/popcorn/aarch64/lib/libc.a(__uflow.o) (__toread)
/usr/lib/gcc-cross/aarch64-linux-gnu/10/libgcc.a(addtf3.o)
                              build_aarch64/sqlite3.o (__addtf3)
/usr/lib/gcc-cross/aarch64-linux-gnu/10/libgcc.a(divtf3.o)
                              build_aarch64/sqlite3.o (__divtf3)
/usr/lib/gcc-cross/aarch64-linux-gnu/10/libgcc.a(eqtf2.o)
                              /usr/local/popcorn/aarch64/lib/libc.a(vfprintf.o) (__eqtf2)
/usr/lib/gcc-cross/aarch64-linux-gnu/10/libgcc.a(getf2.o)
                              build_aarch64/sqlite3.o (__getf2)
/usr/lib/gcc-cross/aarch64-linux-gnu/10/libgcc.a(letf2.o)
                              /usr/local/popcorn/aarch64/lib/libc.a(fmodl.o) (__letf2)
/usr/lib/gcc-cross/aarch64-linux-gnu/10/libgcc.a(multf3.o)
                              build_aarch64/sqlite3.o (__multf3)
/usr/lib/gcc-cross/aarch64-linux-gnu/10/libgcc.a(subtf3.o)
                              build_aarch64/sqlite3.o (__subtf3)
/usr/lib/gcc-cross/aarch64-linux-gnu/10/libgcc.a(unordtf2.o)
                              /usr/local/popcorn/aarch64/lib/libc.a(vfprintf.o) (__unordtf2)
/usr/lib/gcc-cross/aarch64-linux-gnu/10/libgcc.a(fixtfsi.o)
                              build_aarch64/sqlite3.o (__fixtfsi)
/usr/lib/gcc-cross/aarch64-linux-gnu/10/libgcc.a(fixunstfsi.o)
                              /usr/local/popcorn/aarch64/lib/libc.a(vfprintf.o) (__fixunstfsi)
/usr/lib/gcc-cross/aarch64-linux-gnu/10/libgcc.a(floatsitf.o)
                              build_aarch64/sqlite3.o (__floatsitf)
/usr/lib/gcc-cross/aarch64-linux-gnu/10/libgcc.a(floatunsitf.o)
                              /usr/local/popcorn/aarch64/lib/libc.a(vfprintf.o) (__floatunsitf)
/usr/lib/gcc-cross/aarch64-linux-gnu/10/libgcc.a(floatditf.o)
                              build_aarch64/sqlite3.o (__floatditf)
/usr/lib/gcc-cross/aarch64-linux-gnu/10/libgcc.a(extendsftf2.o)
                              /usr/local/popcorn/aarch64/lib/libc.a(floatscan.o) (__extendsftf2)
/usr/lib/gcc-cross/aarch64-linux-gnu/10/libgcc.a(extenddftf2.o)
                              build_aarch64/sqlite3.o (__extenddftf2)
/usr/lib/gcc-cross/aarch64-linux-gnu/10/libgcc.a(trunctfsf2.o)
                              /usr/local/popcorn/aarch64/lib/libc.a(vfscanf.o) (__trunctfsf2)
/usr/lib/gcc-cross/aarch64-linux-gnu/10/libgcc.a(trunctfdf2.o)
                              build_aarch64/sqlite3.o (__trunctfdf2)
/usr/lib/gcc-cross/aarch64-linux-gnu/10/libgcc.a(sfp-exceptions.o)
                              /usr/lib/gcc-cross/aarch64-linux-gnu/10/libgcc.a(addtf3.o) (__sfp_handle_exceptions)

Allocating common symbols
Common symbol       size              file

mal                 0x20000           /usr/local/popcorn/aarch64/lib/libc.a(popcorn_malloc.o)
__libc              0x70              /usr/local/popcorn/aarch64/lib/libc.a(libc.o)
__hwcap             0x8               /usr/local/popcorn/aarch64/lib/libc.a(libc.o)
__sysinfo           0x8               /usr/local/popcorn/aarch64/lib/libc.a(libc.o)

Discarded input sections

 .note.GNU-stack
                0x0000000000000000        0x0 0x1 build_aarch64/benchmark.o
 .note.GNU-stack
                0x0000000000000000        0x0 0x1 build_aarch64/histogram.o
 .note.GNU-stack
                0x0000000000000000        0x0 0x1 build_aarch64/main.o
 .note.GNU-stack
                0x0000000000000000        0x0 0x1 build_aarch64/random.o
 .note.GNU-stack
                0x0000000000000000        0x0 0x1 build_aarch64/raw.o
 .note.GNU-stack
                0x0000000000000000        0x0 0x1 build_aarch64/sqlite3.o
 .note.GNU-stack
                0x0000000000000000        0x0 0x1 build_aarch64/util.o
 .note.GNU-stack
                0x0000000000000000        0x0 0x1 /usr/local/popcorn/aarch64/lib/crt1.o
 .note.GNU-stack
                0x0000000000000000        0x0 0x1 /usr/local/popcorn/aarch64/lib/libc.a(sysconf.o)
 .note.GNU-stack
                0x0000000000000000        0x0 0x1 /usr/local/popcorn/aarch64/lib/libc.a(closedir.o)
 .note.GNU-stack
                0x0000000000000000        0x0 0x1 /usr/local/popcorn/aarch64/lib/libc.a(opendir.o)
 .note.GNU-stack
                0x0000000000000000        0x0 0x1 /usr/local/popcorn/aarch64/lib/libc.a(readdir.o)
 .note.GNU-stack
                0x0000000000000000        0x0 0x1 /usr/local/popcorn/aarch64/lib/libc.a(__libc_start_main.o)
 .note.GNU-stack
                0x0000000000000000        0x0 0x1 /usr/local/popcorn/aarch64/lib/libc.a(getenv.o)
 .note.GNU-stack
                0x0000000000000000        0x0 0x1 /usr/local/popcorn/aarch64/lib/libc.a(__errno_location.o)
 .note.GNU-stack
                0x0000000000000000        0x0 0x1 /usr/local/popcorn/aarch64/lib/libc.a(exit.o)
 .note.GNU-stack
                0x0000000000000000        0x0 0x1 /usr/local/popcorn/aarch64/lib/libc.a(fcntl.o)
 .note.GNU-stack
                0x0000000000000000        0x0 0x1 /usr/local/popcorn/aarch64/lib/libc.a(open.o)
 .note.GNU-stack
                0x0000000000000000        0x0 0x1 /usr/local/popcorn/aarch64/lib/libc.a(libc.o)
 .note.GNU-stack
                0x0000000000000000        0x0 0x1 /usr/local/popcorn/aarch64/lib/libc.a(syscall_ret.o)
 .note.GNU-stack
                0x0000000000000000        0x0 0x1 /usr/local/popcorn/aarch64/lib/libc.a(dlsym.o)
 .note.GNU-stack
                0x0000000000000000        0x0 0x1 /usr/local/popcorn/aarch64/lib/libc.a(dlclose.o)
 .note.GNU-stack
                0x0000000000000000        0x0 0x1 /usr/local/popcorn/aarch64/lib/libc.a(dlerror.o)
 .note.GNU-stack
                0x0000000000000000        0x0 0x1 /usr/local/popcorn/aarch64/lib/libc.a(dlopen.o)
 .note.GNU-stack
                0x0000000000000000        0x0 0x1 /usr/local/popcorn/aarch64/lib/libc.a(sysinfo.o)
 .note.GNU-stack
                0x0000000000000000        0x0 0x1 /usr/local/popcorn/aarch64/lib/libc.a(utimes.o)
 .note.GNU-stack
                0x0000000000000000        0x0 0x1 /usr/local/popcorn/aarch64/lib/libc.a(calloc.o)
 .note.GNU-stack
                0x0000000000000000        0x0 0x1 /usr/local/popcorn/aarch64/lib/libc.a(lite_malloc.o)
 .note.GNU-stack
                0x0000000000000000        0x0 0x1 /usr/local/popcorn/aarch64/lib/libc.a(malloc.o)
 .note.GNU-stack
                0x0000000000000000        0x0 0x1 /usr/local/popcorn/aarch64/lib/libc.a(popcorn_malloc.o)
 .note.GNU-stack
                0x0000000000000000        0x0 0x1 /usr/local/popcorn/aarch64/lib/libc.a(sqrt.o)
 .note.GNU-stack
                0x0000000000000000        0x0 0x1 /usr/local/popcorn/aarch64/lib/libc.a(getrlimit.o)
 .note.GNU-stack
                0x0000000000000000        0x0 0x1 /usr/local/popcorn/aarch64/lib/libc.a(madvise.o)
 .note.GNU-stack
                0x0000000000000000        0x0 0x1 /usr/local/popcorn/aarch64/lib/libc.a(mmap.o)
 .note.GNU-stack
                0x0000000000000000        0x0 0x1 /usr/local/popcorn/aarch64/lib/libc.a(mremap.o)
 .note.GNU-stack
                0x0000000000000000        0x0 0x1 /usr/local/popcorn/aarch64/lib/libc.a(munmap.o)
 .note.GNU-stack
                0x0000000000000000        0x0 0x1 /usr/local/popcorn/aarch64/lib/libc.a(fchmod.o)
 .note.GNU-stack
                0x0000000000000000        0x0 0x1 /usr/local/popcorn/aarch64/lib/libc.a(fstat.o)
 .note.GNU-stack
                0x0000000000000000        0x0 0x1 /usr/local/popcorn/aarch64/lib/libc.a(futimesat.o)
 .note.GNU-stack
                0x0000000000000000        0x0 0x1 /usr/local/popcorn/aarch64/lib/libc.a(lstat.o)
 .note.GNU-stack
                0x0000000000000000        0x0 0x1 /usr/local/popcorn/aarch64/lib/libc.a(mkdir.o)
 .note.GNU-stack
                0x0000000000000000        0x0 0x1 /usr/local/popcorn/aarch64/lib/libc.a(stat.o)
 .note.GNU-stack
                0x0000000000000000        0x0 0x1 /usr/local/popcorn/aarch64/lib/libc.a(utimensat.o)
 .note.GNU-stack
                0x0000000000000000        0x0 0x1 /usr/local/popcorn/aarch64/lib/libc.a(fflush.o)
 .note.GNU-stack
                0x0000000000000000        0x0 0x1 /usr/local/popcorn/aarch64/lib/libc.a(fprintf.o)
 .note.GNU-stack
                0x0000000000000000        0x0 0x1 /usr/local/popcorn/aarch64/lib/libc.a(fputc.o)
 .note.GNU-stack
                0x0000000000000000        0x0 0x1 /usr/local/popcorn/aarch64/lib/libc.a(fwrite.o)
 .note.GNU-stack
                0x0000000000000000        0x0 0x1 /usr/local/popcorn/aarch64/lib/libc.a(ofl.o)
 .note.GNU-stack
                0x0000000000000000        0x0 0x1 /usr/local/popcorn/aarch64/lib/libc.a(remove.o)
 .note.GNU-stack
                0x0000000000000000        0x0 0x1 /usr/local/popcorn/aarch64/lib/libc.a(snprintf.o)
 .note.GNU-stack
                0x0000000000000000        0x0 0x1 /usr/local/popcorn/aarch64/lib/libc.a(sscanf.o)
 .note.GNU-stack
                0x0000000000000000        0x0 0x1 /usr/local/popcorn/aarch64/lib/libc.a(stderr.o)
 .note.GNU-stack
                0x0000000000000000        0x0 0x1 /usr/local/popcorn/aarch64/lib/libc.a(stdout.o)
 .note.GNU-stack
                0x0000000000000000        0x0 0x1 /usr/local/popcorn/aarch64/lib/libc.a(vfprintf.o)
 .note.GNU-stack
                0x0000000000000000        0x0 0x1 /usr/local/popcorn/aarch64/lib/libc.a(vsnprintf.o)
 .note.GNU-stack
                0x0000000000000000        0x0 0x1 /usr/local/popcorn/aarch64/lib/libc.a(vsscanf.o)
 .note.GNU-stack
                0x0000000000000000        0x0 0x1 /usr/local/popcorn/aarch64/lib/libc.a(memcmp.o)
 .note.GNU-stack
                0x0000000000000000        0x0 0x1 /usr/local/popcorn/aarch64/lib/libc.a(memcpy.o)
 .note.GNU-stack
                0x0000000000000000        0x0 0x1 /usr/local/popcorn/aarch64/lib/libc.a(memmove.o)
 .note.GNU-stack
                0x0000000000000000        0x0 0x1 /usr/local/popcorn/aarch64/lib/libc.a(memset.o)
 .note.GNU-stack
                0x0000000000000000        0x0 0x1 /usr/local/popcorn/aarch64/lib/libc.a(strcat.o)
 .note.GNU-stack
                0x0000000000000000        0x0 0x1 /usr/local/popcorn/aarch64/lib/libc.a(strchr.o)
 .note.GNU-stack
                0x0000000000000000        0x0 0x1 /usr/local/popcorn/aarch64/lib/libc.a(strchrnul.o)
 .note.GNU-stack
                0x0000000000000000        0x0 0x1 /usr/local/popcorn/aarch64/lib/libc.a(strcmp.o)
 .note.GNU-stack
                0x0000000000000000        0x0 0x1 /usr/local/popcorn/aarch64/lib/libc.a(strcpy.o)
 .note.GNU-stack
                0x0000000000000000        0x0 0x1 /usr/local/popcorn/aarch64/lib/libc.a(strcspn.o)
 .note.GNU-stack
                0x0000000000000000        0x0 0x1 /usr/local/popcorn/aarch64/lib/libc.a(strlen.o)
 .note.GNU-stack
                0x0000000000000000        0x0 0x1 /usr/local/popcorn/aarch64/lib/libc.a(strncmp.o)
 .note.GNU-stack
                0x0000000000000000        0x0 0x1 /usr/local/popcorn/aarch64/lib/libc.a(strncpy.o)
 .note.GNU-stack
                0x0000000000000000        0x0 0x1 /usr/local/popcorn/aarch64/lib/libc.a(strnlen.o)
 .note.GNU-stack
                0x0000000000000000        0x0 0x1 /usr/local/popcorn/aarch64/lib/libc.a(__lock.o)
 .note.GNU-stack
                0x0000000000000000        0x0 0x1 /usr/local/popcorn/aarch64/lib/libc.a(__syscall_cp.o)
 .note.GNU-stack
                0x0000000000000000        0x0 0x1 /usr/local/popcorn/aarch64/lib/libc.a(__wait.o)
 .note.GNU-stack
                0x0000000000000000        0x0 0x1 /usr/local/popcorn/aarch64/lib/libc.a(pthread_create.o)
 .note.GNU-stack
                0x0000000000000000        0x0 0x1 /usr/local/popcorn/aarch64/lib/libc.a(pthread_join.o)
 .note.GNU-stack
                0x0000000000000000        0x0 0x1 /usr/local/popcorn/aarch64/lib/libc.a(pthread_mutex_destroy.o)
 .note.GNU-stack
                0x0000000000000000        0x0 0x1 /usr/local/popcorn/aarch64/lib/libc.a(pthread_mutex_init.o)
 .note.GNU-stack
                0x0000000000000000        0x0 0x1 /usr/local/popcorn/aarch64/lib/libc.a(pthread_mutex_lock.o)
 .note.GNU-stack
                0x0000000000000000        0x0 0x1 /usr/local/popcorn/aarch64/lib/libc.a(pthread_mutex_timedlock.o)
 .note.GNU-stack
                0x0000000000000000        0x0 0x1 /usr/local/popcorn/aarch64/lib/libc.a(pthread_mutex_trylock.o)
 .note.GNU-stack
                0x0000000000000000        0x0 0x1 /usr/local/popcorn/aarch64/lib/libc.a(pthread_mutex_unlock.o)
 .note.GNU-stack
                0x0000000000000000        0x0 0x1 /usr/local/popcorn/aarch64/lib/libc.a(pthread_mutexattr_destroy.o)
 .note.GNU-stack
                0x0000000000000000        0x0 0x1 /usr/local/popcorn/aarch64/lib/libc.a(pthread_mutexattr_init.o)
 .note.GNU-stack
                0x0000000000000000        0x0 0x1 /usr/local/popcorn/aarch64/lib/libc.a(pthread_mutexattr_settype.o)
 .note.GNU-stack
                0x0000000000000000        0x0 0x1 /usr/local/popcorn/aarch64/lib/libc.a(pthread_setcancelstate.o)
 .note.GNU-stack
                0x0000000000000000        0x0 0x1 /usr/local/popcorn/aarch64/lib/libc.a(pthread_testcancel.o)
 .note.GNU-stack
                0x0000000000000000        0x0 0x1 /usr/local/popcorn/aarch64/lib/libc.a(vmlock.o)
 .note.GNU-stack
                0x0000000000000000        0x0 0x1 /usr/local/popcorn/aarch64/lib/libc.a(gettimeofday.o)
 .note.GNU-stack
                0x0000000000000000        0x0 0x1 /usr/local/popcorn/aarch64/lib/libc.a(localtime.o)
 .note.GNU-stack
                0x0000000000000000        0x0 0x1 /usr/local/popcorn/aarch64/lib/libc.a(localtime_r.o)
 .note.GNU-stack
                0x0000000000000000        0x0 0x1 /usr/local/popcorn/aarch64/lib/libc.a(time.o)
 .note.GNU-stack
                0x0000000000000000        0x0 0x1 /usr/local/popcorn/aarch64/lib/libc.a(access.o)
 .note.GNU-stack
                0x0000000000000000        0x0 0x1 /usr/local/popcorn/aarch64/lib/libc.a(close.o)
 .note.GNU-stack
                0x0000000000000000        0x0 0x1 /usr/local/popcorn/aarch64/lib/libc.a(fchown.o)
 .note.GNU-stack
                0x0000000000000000        0x0 0x1 /usr/local/popcorn/aarch64/lib/libc.a(fsync.o)
 .note.GNU-stack
                0x0000000000000000        0x0 0x1 /usr/local/popcorn/aarch64/lib/libc.a(ftruncate.o)
 .note.GNU-stack
                0x0000000000000000        0x0 0x1 /usr/local/popcorn/aarch64/lib/libc.a(getcwd.o)
 .note.GNU-stack
                0x0000000000000000        0x0 0x1 /usr/local/popcorn/aarch64/lib/libc.a(geteuid.o)
 .note.GNU-stack
                0x0000000000000000        0x0 0x1 /usr/local/popcorn/aarch64/lib/libc.a(getpid.o)
 .note.GNU-stack
                0x0000000000000000        0x0 0x1 /usr/local/popcorn/aarch64/lib/libc.a(lseek.o)
 .note.GNU-stack
                0x0000000000000000        0x0 0x1 /usr/local/popcorn/aarch64/lib/libc.a(read.o)
 .note.GNU-stack
                0x0000000000000000        0x0 0x1 /usr/local/popcorn/aarch64/lib/libc.a(readlink.o)
 .note.GNU-stack
                0x0000000000000000        0x0 0x1 /usr/local/popcorn/aarch64/lib/libc.a(rmdir.o)
 .note.GNU-stack
                0x0000000000000000        0x0 0x1 /usr/local/popcorn/aarch64/lib/libc.a(sleep.o)
 .note.GNU-stack
                0x0000000000000000        0x0 0x1 /usr/local/popcorn/aarch64/lib/libc.a(unlink.o)
 .note.GNU-stack
                0x0000000000000000        0x0 0x1 /usr/local/popcorn/aarch64/lib/libc.a(write.o)
 .note.GNU-stack
                0x0000000000000000        0x0 0x1 /usr/local/popcorn/aarch64/lib/libc.a(__environ.o)
 .note.GNU-stack
                0x0000000000000000        0x0 0x1 /usr/local/popcorn/aarch64/lib/libc.a(__init_tls.o)
 .note.GNU-stack
                0x0000000000000000        0x0 0x1 /usr/local/popcorn/aarch64/lib/libc.a(platform.o)
 .note.GNU-stack
                0x0000000000000000        0x0 0x1 /usr/local/popcorn/aarch64/lib/libc.a(strerror.o)
 .note.GNU-stack
                0x0000000000000000        0x0 0x1 /usr/local/popcorn/aarch64/lib/libc.a(_Exit.o)
 .note.GNU-stack
                0x0000000000000000        0x0 0x1 /usr/local/popcorn/aarch64/lib/libc.a(syscall.o)
 .note.GNU-stack
                0x0000000000000000        0x0 0x1 /usr/local/popcorn/aarch64/lib/libc.a(procfdname.o)
 .note.GNU-stack
                0x0000000000000000        0x0 0x1 /usr/local/popcorn/aarch64/lib/libc.a(__dlsym.o)
 .note.GNU-stack
                0x0000000000000000        0x0 0x1 /usr/local/popcorn/aarch64/lib/libc.a(__lctrans.o)
 .note.GNU-stack
                0x0000000000000000        0x0 0x1 /usr/local/popcorn/aarch64/lib/libc.a(expand_heap.o)
 .note.GNU-stack
                0x0000000000000000        0x0 0x1 /usr/local/popcorn/aarch64/lib/libc.a(__fpclassifyl.o)
 .note.GNU-stack
                0x0000000000000000        0x0 0x1 /usr/local/popcorn/aarch64/lib/libc.a(__signbitl.o)
 .note.GNU-stack
                0x0000000000000000        0x0 0x1 /usr/local/popcorn/aarch64/lib/libc.a(frexpl.o)
 .note.GNU-stack
                0x0000000000000000        0x0 0x1 /usr/local/popcorn/aarch64/lib/libc.a(mprotect.o)
 .note.GNU-stack
                0x0000000000000000        0x0 0x1 /usr/local/popcorn/aarch64/lib/libc.a(wctomb.o)
 .note.GNU-stack
                0x0000000000000000        0x0 0x1 /usr/local/popcorn/aarch64/lib/libc.a(block.o)
 .note.GNU-stack
                0x0000000000000000        0x0 0x1 /usr/local/popcorn/aarch64/lib/libc.a(__lockfile.o)
 .note.GNU-stack
                0x0000000000000000        0x0 0x1 /usr/local/popcorn/aarch64/lib/libc.a(__overflow.o)
 .note.GNU-stack
                0x0000000000000000        0x0 0x1 /usr/local/popcorn/aarch64/lib/libc.a(__stdio_close.o)
 .note.GNU-stack
                0x0000000000000000        0x0 0x1 /usr/local/popcorn/aarch64/lib/libc.a(__stdio_seek.o)
 .note.GNU-stack
                0x0000000000000000        0x0 0x1 /usr/local/popcorn/aarch64/lib/libc.a(__stdio_write.o)
 .note.GNU-stack
                0x0000000000000000        0x0 0x1 /usr/local/popcorn/aarch64/lib/libc.a(__stdout_write.o)
 .note.GNU-stack
                0x0000000000000000        0x0 0x1 /usr/local/popcorn/aarch64/lib/libc.a(__string_read.o)
 .note.GNU-stack
                0x0000000000000000        0x0 0x1 /usr/local/popcorn/aarch64/lib/libc.a(__towrite.o)
 .note.GNU-stack
                0x0000000000000000        0x0 0x1 /usr/local/popcorn/aarch64/lib/libc.a(vfscanf.o)
 .note.GNU-stack
                0x0000000000000000        0x0 0x1 /usr/local/popcorn/aarch64/lib/libc.a(memchr.o)
 .note.GNU-stack
                0x0000000000000000        0x0 0x1 /usr/local/popcorn/aarch64/lib/libc.a(stpcpy.o)
 .note.GNU-stack
                0x0000000000000000        0x0 0x1 /usr/local/popcorn/aarch64/lib/libc.a(stpncpy.o)
 .note.GNU-stack
                0x0000000000000000        0x0 0x1 /usr/local/popcorn/aarch64/lib/libc.a(strdup.o)
 .note.GNU-stack
                0x0000000000000000        0x0 0x1 /usr/local/popcorn/aarch64/lib/libc.a(__timedwait.o)
 .note.GNU-stack
                0x0000000000000000        0x0 0x1 /usr/local/popcorn/aarch64/lib/libc.a(__cleartid_exit_nostack.o)
 .note.GNU-stack
                0x0000000000000000        0x0 0x1 /usr/local/popcorn/aarch64/lib/libc.a(__set_thread_area.o)
 .note.GNU-stack
                0x0000000000000000        0x0 0x1 /usr/local/popcorn/aarch64/lib/libc.a(__unmapself.o)
 .note.GNU-stack
                0x0000000000000000        0x0 0x1 /usr/local/popcorn/aarch64/lib/libc.a(clone.o)
 .note.GNU-stack
                0x0000000000000000        0x0 0x1 /usr/local/popcorn/aarch64/lib/libc.a(__secs_to_tm.o)
 .note.GNU-stack
                0x0000000000000000        0x0 0x1 /usr/local/popcorn/aarch64/lib/libc.a(__tz.o)
 .note.GNU-stack
                0x0000000000000000        0x0 0x1 /usr/local/popcorn/aarch64/lib/libc.a(__year_to_secs.o)
 .note.GNU-stack
                0x0000000000000000        0x0 0x1 /usr/local/popcorn/aarch64/lib/libc.a(clock_gettime.o)
 .note.GNU-stack
                0x0000000000000000        0x0 0x1 /usr/local/popcorn/aarch64/lib/libc.a(nanosleep.o)
 .note.GNU-stack
                0x0000000000000000        0x0 0x1 /usr/local/popcorn/aarch64/lib/libc.a(floatscan.o)
 .note.GNU-stack
                0x0000000000000000        0x0 0x1 /usr/local/popcorn/aarch64/lib/libc.a(intscan.o)
 .note.GNU-stack
                0x0000000000000000        0x0 0x1 /usr/local/popcorn/aarch64/lib/libc.a(shgetc.o)
 .note.GNU-stack
                0x0000000000000000        0x0 0x1 /usr/local/popcorn/aarch64/lib/libc.a(fabs.o)
 .note.GNU-stack
                0x0000000000000000        0x0 0x1 /usr/local/popcorn/aarch64/lib/libc.a(copysignl.o)
 .note.GNU-stack
                0x0000000000000000        0x0 0x1 /usr/local/popcorn/aarch64/lib/libc.a(fmodl.o)
 .note.GNU-stack
                0x0000000000000000        0x0 0x1 /usr/local/popcorn/aarch64/lib/libc.a(scalbn.o)
 .note.GNU-stack
                0x0000000000000000        0x0 0x1 /usr/local/popcorn/aarch64/lib/libc.a(scalbnl.o)
 .note.GNU-stack
                0x0000000000000000        0x0 0x1 /usr/local/popcorn/aarch64/lib/libc.a(mbrtowc.o)
 .note.GNU-stack
                0x0000000000000000        0x0 0x1 /usr/local/popcorn/aarch64/lib/libc.a(mbsinit.o)
 .note.GNU-stack
                0x0000000000000000        0x0 0x1 /usr/local/popcorn/aarch64/lib/libc.a(wcrtomb.o)
 .note.GNU-stack
                0x0000000000000000        0x0 0x1 /usr/local/popcorn/aarch64/lib/libc.a(__stdio_exit.o)
 .note.GNU-stack
                0x0000000000000000        0x0 0x1 /usr/local/popcorn/aarch64/lib/libc.a(__uflow.o)
 .note.GNU-stack
                0x0000000000000000        0x0 0x1 /usr/local/popcorn/aarch64/lib/libc.a(__map_file.o)
 .note.GNU-stack
                0x0000000000000000        0x0 0x1 /usr/local/popcorn/aarch64/lib/libc.a(__month_to_secs.o)
 .note.GNU-stack
                0x0000000000000000        0x0 0x1 /usr/local/popcorn/aarch64/lib/libc.a(internal.o)
 .note.GNU-stack
                0x0000000000000000        0x0 0x1 /usr/local/popcorn/aarch64/lib/libc.a(__toread.o)
 .note.GNU-stack
                0x0000000000000000        0x0 0x1 /usr/lib/gcc-cross/aarch64-linux-gnu/10/libgcc.a(addtf3.o)
 .note.GNU-stack
                0x0000000000000000        0x0 0x1 /usr/lib/gcc-cross/aarch64-linux-gnu/10/libgcc.a(divtf3.o)
 .note.GNU-stack
                0x0000000000000000        0x0 0x1 /usr/lib/gcc-cross/aarch64-linux-gnu/10/libgcc.a(eqtf2.o)
 .note.GNU-stack
                0x0000000000000000        0x0 0x1 /usr/lib/gcc-cross/aarch64-linux-gnu/10/libgcc.a(getf2.o)
 .note.GNU-stack
                0x0000000000000000        0x0 0x1 /usr/lib/gcc-cross/aarch64-linux-gnu/10/libgcc.a(letf2.o)
 .note.GNU-stack
                0x0000000000000000        0x0 0x1 /usr/lib/gcc-cross/aarch64-linux-gnu/10/libgcc.a(multf3.o)
 .note.GNU-stack
                0x0000000000000000        0x0 0x1 /usr/lib/gcc-cross/aarch64-linux-gnu/10/libgcc.a(subtf3.o)
 .note.GNU-stack
                0x0000000000000000        0x0 0x1 /usr/lib/gcc-cross/aarch64-linux-gnu/10/libgcc.a(unordtf2.o)
 .note.GNU-stack
                0x0000000000000000        0x0 0x1 /usr/lib/gcc-cross/aarch64-linux-gnu/10/libgcc.a(fixtfsi.o)
 .note.GNU-stack
                0x0000000000000000        0x0 0x1 /usr/lib/gcc-cross/aarch64-linux-gnu/10/libgcc.a(fixunstfsi.o)
 .note.GNU-stack
                0x0000000000000000        0x0 0x1 /usr/lib/gcc-cross/aarch64-linux-gnu/10/libgcc.a(floatsitf.o)
 .note.GNU-stack
                0x0000000000000000        0x0 0x1 /usr/lib/gcc-cross/aarch64-linux-gnu/10/libgcc.a(floatunsitf.o)
 .note.GNU-stack
                0x0000000000000000        0x0 0x1 /usr/lib/gcc-cross/aarch64-linux-gnu/10/libgcc.a(floatditf.o)
 .note.GNU-stack
                0x0000000000000000        0x0 0x1 /usr/lib/gcc-cross/aarch64-linux-gnu/10/libgcc.a(extendsftf2.o)
 .note.GNU-stack
                0x0000000000000000        0x0 0x1 /usr/lib/gcc-cross/aarch64-linux-gnu/10/libgcc.a(extenddftf2.o)
 .note.GNU-stack
                0x0000000000000000        0x0 0x1 /usr/lib/gcc-cross/aarch64-linux-gnu/10/libgcc.a(trunctfsf2.o)
 .note.GNU-stack
                0x0000000000000000        0x0 0x1 /usr/lib/gcc-cross/aarch64-linux-gnu/10/libgcc.a(trunctfdf2.o)
 .note.GNU-stack
                0x0000000000000000        0x0 0x1 /usr/lib/gcc-cross/aarch64-linux-gnu/10/libgcc.a(sfp-exceptions.o)

Memory map

 ** file header
                0x0000000000400000       0x40
 ** segment headers
                0x0000000000400040      0x118

.note.gnu.build-id
                0x0000000000400158       0x24
 ** note header
                0x0000000000400158       0x10
 ** zero fill   0x0000000000400168       0x14

.text           0x0000000000400180    0xf0fc0
 .text.exit     0x0000000000400180       0x24 0x4 /usr/local/popcorn/aarch64/lib/libc.a(exit.o)
                0x0000000000400180                exit
 .text          0x00000000004001a4        0x0 0x4 build_aarch64/benchmark.o
 .text.finished_single_op
                0x00000000004001a4      0x1c4 0x4 build_aarch64/benchmark.o
                0x00000000004001a4                finished_single_op
 .text.benchmark_init
                0x0000000000400368      0x118 0x4 build_aarch64/benchmark.o
                0x0000000000400368                benchmark_init
 .text.benchmark_fini
                0x0000000000400480       0x40 0x4 build_aarch64/benchmark.o
                0x0000000000400480                benchmark_fini
 .text.benchmark_run
                0x00000000004004c0      0x63c 0x4 build_aarch64/benchmark.o
                0x00000000004004c0                benchmark_run
 .text.benchmark_open
                0x0000000000400afc      0x1fc 0x4 build_aarch64/benchmark.o
                0x0000000000400afc                benchmark_open
 .text.benchmark_write
                0x0000000000400cf8      0x3f0 0x4 build_aarch64/benchmark.o
                0x0000000000400cf8                benchmark_write
 .text.benchmark_read
                0x00000000004010e8      0x24c 0x4 build_aarch64/benchmark.o
                0x00000000004010e8                benchmark_read
 .text          0x0000000000401334        0x0 0x4 build_aarch64/histogram.o
 .text.histogram_clear
                0x0000000000401334       0x30 0x4 build_aarch64/histogram.o
                0x0000000000401334                histogram_clear
 .text.histogram_add
                0x0000000000401364       0x80 0x4 build_aarch64/histogram.o
                0x0000000000401364                histogram_add
 .text.histogram_merge
                0x00000000004013e4       0xd4 0x4 build_aarch64/histogram.o
                0x00000000004013e4                histogram_merge
 .text.histogram_to_string
                0x00000000004014b8      0x3b4 0x4 build_aarch64/histogram.o
                0x00000000004014b8                histogram_to_string
 .text          0x000000000040186c        0x0 0x4 build_aarch64/main.o
 .text.init     0x000000000040186c       0x94 0x4 build_aarch64/main.o
                0x000000000040186c                init
 .text.print_usage
                0x0000000000401900      0x2f4 0x4 build_aarch64/main.o
                0x0000000000401900                print_usage
 .text.main     0x0000000000401bf4      0x420 0x4 build_aarch64/main.o
                0x0000000000401bf4                main
 .text          0x0000000000402014        0x0 0x4 build_aarch64/random.o
 .text.rand_init
                0x0000000000402014       0x24 0x4 build_aarch64/random.o
                0x0000000000402014                rand_init
 .text.rand_next
                0x0000000000402038       0x34 0x4 build_aarch64/random.o
                0x0000000000402038                rand_next
 .text.rand_uniform
                0x000000000040206c       0x3c 0x4 build_aarch64/random.o
                0x000000000040206c                rand_uniform
 .text.rand_gen_init
                0x00000000004020a8      0x168 0x4 build_aarch64/random.o
                0x00000000004020a8                rand_gen_init
 .text.rand_gen_generate
                0x0000000000402210       0x68 0x4 build_aarch64/random.o
                0x0000000000402210                rand_gen_generate
 .text          0x0000000000402278        0x0 0x4 build_aarch64/raw.o
 .text.raw_clear
                0x0000000000402278       0x4c 0x4 build_aarch64/raw.o
                0x0000000000402278                raw_clear
 .text.raw_add  0x00000000004022c4       0xbc 0x4 build_aarch64/raw.o
                0x00000000004022c4                raw_add
 .text.raw_to_string
                0x0000000000402380      0x108 0x4 build_aarch64/raw.o
                0x0000000000402380                raw_to_string
 .text.raw_print
                0x0000000000402488       0xac 0x4 build_aarch64/raw.o
                0x0000000000402488                raw_print
 .text          0x0000000000402534        0x0 0x4 build_aarch64/sqlite3.o
 .text.sqlite3_status64
                0x0000000000402534       0xe4 0x4 build_aarch64/sqlite3.o
                0x0000000000402534                sqlite3_status64
 .text.sqlite3_mutex_enter
                0x0000000000402618       0x14 0x4 build_aarch64/sqlite3.o
                0x0000000000402618                sqlite3_mutex_enter
 .text.sqlite3_mutex_leave
                0x000000000040262c       0x14 0x4 build_aarch64/sqlite3.o
                0x000000000040262c                sqlite3_mutex_leave
 .text.sqlite3_status
                0x0000000000402640       0xe8 0x4 build_aarch64/sqlite3.o
                0x0000000000402640                sqlite3_status
 .text.sqlite3_db_status
                0x0000000000402728      0x4d4 0x4 build_aarch64/sqlite3.o
                0x0000000000402728                sqlite3_db_status
 .text.sqlite3BtreeLeaveAll
                0x0000000000402bfc       0x10 0x4 build_aarch64/sqlite3.o
 .text.sqlite3_msize
                0x0000000000402c0c       0x24 0x4 build_aarch64/sqlite3.o
                0x0000000000402c0c                sqlite3_msize
 .text.sqlite3DeleteTrigger
                0x0000000000402c30      0x18c 0x4 build_aarch64/sqlite3.o
 .text.sqlite3VdbeClearObject
                0x0000000000402dbc      0x5b4 0x4 build_aarch64/sqlite3.o
 .text.sqlite3DbFree
                0x0000000000403370       0xf8 0x4 build_aarch64/sqlite3.o
 .text.sqlite3_vfs_find
                0x0000000000403468       0xb8 0x4 build_aarch64/sqlite3.o
                0x0000000000403468                sqlite3_vfs_find
 .text.sqlite3_initialize
                0x0000000000403520      0x940 0x4 build_aarch64/sqlite3.o
                0x0000000000403520                sqlite3_initialize
 .text.sqlite3_vfs_register
                0x0000000000403e60      0x108 0x4 build_aarch64/sqlite3.o
                0x0000000000403e60                sqlite3_vfs_register
 .text.sqlite3_vfs_unregister
                0x0000000000403f68       0xd4 0x4 build_aarch64/sqlite3.o
                0x0000000000403f68                sqlite3_vfs_unregister
 .text.sqlite3_mutex_alloc
                0x000000000040403c       0xc8 0x4 build_aarch64/sqlite3.o
                0x000000000040403c                sqlite3_mutex_alloc
 .text.sqlite3_mutex_free
                0x0000000000404104       0x14 0x4 build_aarch64/sqlite3.o
                0x0000000000404104                sqlite3_mutex_free
 .text.sqlite3_mutex_try
                0x0000000000404118       0x14 0x4 build_aarch64/sqlite3.o
                0x0000000000404118                sqlite3_mutex_try
 .text.sqlite3_release_memory
                0x000000000040412c        0x8 0x4 build_aarch64/sqlite3.o
                0x000000000040412c                sqlite3_release_memory
 .text.sqlite3_memory_alarm
                0x0000000000404134        0x8 0x4 build_aarch64/sqlite3.o
                0x0000000000404134                sqlite3_memory_alarm
 .text.sqlite3_soft_heap_limit64
                0x000000000040413c       0xe0 0x4 build_aarch64/sqlite3.o
                0x000000000040413c                sqlite3_soft_heap_limit64
 .text.sqlite3_memory_used
                0x000000000040421c       0x64 0x4 build_aarch64/sqlite3.o
                0x000000000040421c                sqlite3_memory_used
 .text.sqlite3_soft_heap_limit
                0x0000000000404280       0xb8 0x4 build_aarch64/sqlite3.o
                0x0000000000404280                sqlite3_soft_heap_limit
 .text.sqlite3_memory_highwater
                0x0000000000404338       0x74 0x4 build_aarch64/sqlite3.o
                0x0000000000404338                sqlite3_memory_highwater
 .text.sqlite3_malloc
                0x00000000004043ac       0x40 0x4 build_aarch64/sqlite3.o
                0x00000000004043ac                sqlite3_malloc
 .text.sqlite3Malloc
                0x00000000004043ec      0x1a4 0x4 build_aarch64/sqlite3.o
 .text.sqlite3_malloc64
                0x0000000000404590       0x38 0x4 build_aarch64/sqlite3.o
                0x0000000000404590                sqlite3_malloc64
 .text.sqlite3_free
                0x00000000004045c8       0xb4 0x4 build_aarch64/sqlite3.o
                0x00000000004045c8                sqlite3_free
 .text.sqlite3MallocSize
                0x000000000040467c        0xc 0x4 build_aarch64/sqlite3.o
 .text.sqlite3_realloc
                0x0000000000404688       0x40 0x4 build_aarch64/sqlite3.o
                0x0000000000404688                sqlite3_realloc
 .text.sqlite3Realloc
                0x00000000004046c8      0x2b0 0x4 build_aarch64/sqlite3.o
 .text.sqlite3_realloc64
                0x0000000000404978       0x40 0x4 build_aarch64/sqlite3.o
                0x0000000000404978                sqlite3_realloc64
 .text.sqlite3_str_vappendf
                0x00000000004049b8     0x1f18 0x4 build_aarch64/sqlite3.o
                0x00000000004049b8                sqlite3_str_vappendf
 .text.sqlite3_str_append
                0x00000000004068d0       0x38 0x4 build_aarch64/sqlite3.o
                0x00000000004068d0                sqlite3_str_append
 .text.sqlite3_str_appendchar
                0x0000000000406908       0x74 0x4 build_aarch64/sqlite3.o
                0x0000000000406908                sqlite3_str_appendchar
 .text.sqlite3_str_appendall
                0x000000000040697c       0x80 0x4 build_aarch64/sqlite3.o
                0x000000000040697c                sqlite3_str_appendall
 .text.sqlite3StrAccumEnlarge
                0x00000000004069fc      0x250 0x4 build_aarch64/sqlite3.o
 .text.enlargeAndAppend
                0x0000000000406c4c       0x60 0x4 build_aarch64/sqlite3.o
 .text.sqlite3Strlen30
                0x0000000000406cac       0x1c 0x4 build_aarch64/sqlite3.o
 .text.sqlite3_str_finish
                0x0000000000406cc8      0x100 0x4 build_aarch64/sqlite3.o
                0x0000000000406cc8                sqlite3_str_finish
 .text.sqlite3_str_errcode
                0x0000000000406dc8       0x14 0x4 build_aarch64/sqlite3.o
                0x0000000000406dc8                sqlite3_str_errcode
 .text.sqlite3_str_length
                0x0000000000406ddc        0xc 0x4 build_aarch64/sqlite3.o
                0x0000000000406ddc                sqlite3_str_length
 .text.sqlite3_str_value
                0x0000000000406de8       0x24 0x4 build_aarch64/sqlite3.o
                0x0000000000406de8                sqlite3_str_value
 .text.sqlite3_str_reset
                0x0000000000406e0c       0x44 0x4 build_aarch64/sqlite3.o
                0x0000000000406e0c                sqlite3_str_reset
 .text.sqlite3_str_new
                0x0000000000406e50       0x60 0x4 build_aarch64/sqlite3.o
                0x0000000000406e50                sqlite3_str_new
 .text.sqlite3_vmprintf
                0x0000000000406eb0       0x9c 0x4 build_aarch64/sqlite3.o
                0x0000000000406eb0                sqlite3_vmprintf
 .text.sqlite3_mprintf
                0x0000000000406f4c       0xec 0x4 build_aarch64/sqlite3.o
                0x0000000000406f4c                sqlite3_mprintf
 .text.sqlite3_vsnprintf
                0x0000000000407038       0x64 0x4 build_aarch64/sqlite3.o
                0x0000000000407038                sqlite3_vsnprintf
 .text.sqlite3_snprintf
                0x000000000040709c       0xac 0x4 build_aarch64/sqlite3.o
                0x000000000040709c                sqlite3_snprintf
 .text.sqlite3_log
                0x0000000000407148       0xf0 0x4 build_aarch64/sqlite3.o
                0x0000000000407148                sqlite3_log
 .text.sqlite3_str_appendf
                0x0000000000407238       0x68 0x4 build_aarch64/sqlite3.o
                0x0000000000407238                sqlite3_str_appendf
 .text.sqlite3_randomness
                0x00000000004072a0      0x2e4 0x4 build_aarch64/sqlite3.o
                0x00000000004072a0                sqlite3_randomness
 .text.sqlite3_stricmp
                0x0000000000407584       0x74 0x4 build_aarch64/sqlite3.o
                0x0000000000407584                sqlite3_stricmp
 .text.sqlite3_strnicmp
                0x00000000004075f8       0x80 0x4 build_aarch64/sqlite3.o
                0x00000000004075f8                sqlite3_strnicmp
 .text.sqlite3_os_init
                0x0000000000407678      0x180 0x4 build_aarch64/sqlite3.o
                0x0000000000407678                sqlite3_os_init
 .text.unixOpen
                0x00000000004077f8      0xa40 0x4 build_aarch64/sqlite3.o
 .text.unixDelete
                0x0000000000408238      0x148 0x4 build_aarch64/sqlite3.o
 .text.unixAccess
                0x0000000000408380       0x78 0x4 build_aarch64/sqlite3.o
 .text.unixFullPathname
                0x00000000004083f8      0x4bc 0x4 build_aarch64/sqlite3.o
 .text.unixDlOpen
                0x00000000004088b4        0xc 0x4 build_aarch64/sqlite3.o
 .text.unixDlError
                0x00000000004088c0       0x78 0x4 build_aarch64/sqlite3.o
 .text.unixDlSym
                0x0000000000408938        0xc 0x4 build_aarch64/sqlite3.o
 .text.unixDlClose
                0x0000000000408944        0x8 0x4 build_aarch64/sqlite3.o
 .text.unixRandomness
                0x000000000040894c      0x18c 0x4 build_aarch64/sqlite3.o
 .text.unixSleep
                0x0000000000408ad8       0x4c 0x4 build_aarch64/sqlite3.o
 .text.unixCurrentTime
                0x0000000000408b24       0x84 0x4 build_aarch64/sqlite3.o
 .text.unixGetLastError
                0x0000000000408ba8       0x18 0x4 build_aarch64/sqlite3.o
 .text.unixCurrentTimeInt64
                0x0000000000408bc0       0x70 0x4 build_aarch64/sqlite3.o
 .text.unixSetSystemCall
                0x0000000000408c30       0xdc 0x4 build_aarch64/sqlite3.o
 .text.unixGetSystemCall
                0x0000000000408d0c       0x64 0x4 build_aarch64/sqlite3.o
 .text.unixNextSystemCall
                0x0000000000408d70       0x9c 0x4 build_aarch64/sqlite3.o
 .text.sqlite3_os_end
                0x0000000000408e0c       0x10 0x4 build_aarch64/sqlite3.o
                0x0000000000408e0c                sqlite3_os_end
 .text.sqlite3_enable_shared_cache
                0x0000000000408e1c       0x10 0x4 build_aarch64/sqlite3.o
                0x0000000000408e1c                sqlite3_enable_shared_cache
 .text.sqlite3_backup_init
                0x0000000000408e2c      0x1f8 0x4 build_aarch64/sqlite3.o
                0x0000000000408e2c                sqlite3_backup_init
 .text.sqlite3ErrorWithMsg
                0x0000000000409024      0x260 0x4 build_aarch64/sqlite3.o
 .text.findBtree
                0x0000000000409284      0x240 0x4 build_aarch64/sqlite3.o
 .text.sqlite3_backup_step
                0x00000000004094c4      0x83c 0x4 build_aarch64/sqlite3.o
                0x00000000004094c4                sqlite3_backup_step
 .text.sqlite3BtreeBeginTrans
                0x0000000000409d00      0x9f4 0x4 build_aarch64/sqlite3.o
 .text.backupOnePage
                0x000000000040a6f4      0x254 0x4 build_aarch64/sqlite3.o
 .text.sqlite3ResetAllSchemasOfConnection
                0x000000000040a948       0x98 0x4 build_aarch64/sqlite3.o
 .text.sqlite3BtreeSetVersion
                0x000000000040a9e0      0x110 0x4 build_aarch64/sqlite3.o
 .text.sqlite3PagerCommitPhaseOne
                0x000000000040aaf0      0x748 0x4 build_aarch64/sqlite3.o
 .text.sqlite3BtreeCommitPhaseTwo
                0x000000000040b238      0x184 0x4 build_aarch64/sqlite3.o
 .text.sqlite3BtreeCommitPhaseOne
                0x000000000040b3bc      0x3d8 0x4 build_aarch64/sqlite3.o
 .text.sqlite3_backup_finish
                0x000000000040b794      0x1d8 0x4 build_aarch64/sqlite3.o
                0x000000000040b794                sqlite3_backup_finish
 .text.sqlite3BtreeRollback
                0x000000000040b96c      0x158 0x4 build_aarch64/sqlite3.o
 .text.sqlite3LeaveMutexAndCloseZombie
                0x000000000040bac4      0xb34 0x4 build_aarch64/sqlite3.o
 .text.sqlite3_backup_remaining
                0x000000000040c5f8        0x8 0x4 build_aarch64/sqlite3.o
                0x000000000040c5f8                sqlite3_backup_remaining
 .text.sqlite3_backup_pagecount
                0x000000000040c600        0x8 0x4 build_aarch64/sqlite3.o
                0x000000000040c600                sqlite3_backup_pagecount
 .text.sqlite3_expired
                0x000000000040c608       0x1c 0x4 build_aarch64/sqlite3.o
                0x000000000040c608                sqlite3_expired
 .text.sqlite3_finalize
                0x000000000040c624      0x22c 0x4 build_aarch64/sqlite3.o
                0x000000000040c624                sqlite3_finalize
 .text.invokeProfileCallback
                0x000000000040c850       0xc4 0x4 build_aarch64/sqlite3.o
 .text.sqlite3_reset
                0x000000000040c914       0xc8 0x4 build_aarch64/sqlite3.o
                0x000000000040c914                sqlite3_reset
 .text.sqlite3VdbeReset
                0x000000000040c9dc       0xa4 0x4 build_aarch64/sqlite3.o
 .text.sqlite3_clear_bindings
                0x000000000040ca80       0xe0 0x4 build_aarch64/sqlite3.o
                0x000000000040ca80                sqlite3_clear_bindings
 .text.sqlite3_value_blob
                0x000000000040cb60       0xd8 0x4 build_aarch64/sqlite3.o
                0x000000000040cb60                sqlite3_value_blob
 .text.sqlite3_value_text
                0x000000000040cc38       0x3c 0x4 build_aarch64/sqlite3.o
                0x000000000040cc38                sqlite3_value_text
 .text.sqlite3_value_bytes
                0x000000000040cc74       0x54 0x4 build_aarch64/sqlite3.o
                0x000000000040cc74                sqlite3_value_bytes
 .text.sqlite3_value_bytes16
                0x000000000040ccc8       0x54 0x4 build_aarch64/sqlite3.o
                0x000000000040ccc8                sqlite3_value_bytes16
 .text.sqlite3_value_double
                0x000000000040cd1c       0x38 0x4 build_aarch64/sqlite3.o
                0x000000000040cd1c                sqlite3_value_double
 .text.sqlite3_value_int
                0x000000000040cd54       0x54 0x4 build_aarch64/sqlite3.o
                0x000000000040cd54                sqlite3_value_int
 .text.sqlite3_value_int64
                0x000000000040cda8       0x34 0x4 build_aarch64/sqlite3.o
                0x000000000040cda8                sqlite3_value_int64
 .text.sqlite3_value_subtype
                0x000000000040cddc       0x18 0x4 build_aarch64/sqlite3.o
                0x000000000040cddc                sqlite3_value_subtype
 .text.sqlite3_value_pointer
                0x000000000040cdf4       0x5c 0x4 build_aarch64/sqlite3.o
                0x000000000040cdf4                sqlite3_value_pointer
 .text.sqlite3_value_text16
                0x000000000040ce50       0x3c 0x4 build_aarch64/sqlite3.o
                0x000000000040ce50                sqlite3_value_text16
 .text.sqlite3_value_text16be
                0x000000000040ce8c       0x3c 0x4 build_aarch64/sqlite3.o
                0x000000000040ce8c                sqlite3_value_text16be
 .text.sqlite3_value_text16le
                0x000000000040cec8       0x3c 0x4 build_aarch64/sqlite3.o
                0x000000000040cec8                sqlite3_value_text16le
 .text.sqlite3_value_type
                0x000000000040cf04       0x18 0x4 build_aarch64/sqlite3.o
                0x000000000040cf04                sqlite3_value_type
 .text.sqlite3_value_nochange
                0x000000000040cf1c       0x14 0x4 build_aarch64/sqlite3.o
                0x000000000040cf1c                sqlite3_value_nochange
 .text.sqlite3_value_dup
                0x000000000040cf30      0x218 0x4 build_aarch64/sqlite3.o
                0x000000000040cf30                sqlite3_value_dup
 .text.sqlite3_value_free
                0x000000000040d148      0x11c 0x4 build_aarch64/sqlite3.o
                0x000000000040d148                sqlite3_value_free
 .text.sqlite3_result_blob
                0x000000000040d264       0x60 0x4 build_aarch64/sqlite3.o
                0x000000000040d264                sqlite3_result_blob
 .text.sqlite3_result_blob64
                0x000000000040d2c4       0x88 0x4 build_aarch64/sqlite3.o
                0x000000000040d2c4                sqlite3_result_blob64
 .text.sqlite3_result_double
                0x000000000040d34c       0x7c 0x4 build_aarch64/sqlite3.o
                0x000000000040d34c                sqlite3_result_double
 .text.sqlite3_result_error
                0x000000000040d3c8       0x1c 0x4 build_aarch64/sqlite3.o
                0x000000000040d3c8                sqlite3_result_error
 .text.sqlite3VdbeMemSetStr
                0x000000000040d3e4      0x380 0x4 build_aarch64/sqlite3.o
 .text.sqlite3_result_error16
                0x000000000040d764       0x1c 0x4 build_aarch64/sqlite3.o
                0x000000000040d764                sqlite3_result_error16
 .text.sqlite3_result_int
                0x000000000040d780       0x2c 0x4 build_aarch64/sqlite3.o
                0x000000000040d780                sqlite3_result_int
 .text.sqlite3_result_int64
                0x000000000040d7ac       0x28 0x4 build_aarch64/sqlite3.o
                0x000000000040d7ac                sqlite3_result_int64
 .text.sqlite3_result_null
                0x000000000040d7d4       0x24 0x4 build_aarch64/sqlite3.o
                0x000000000040d7d4                sqlite3_result_null
 .text.sqlite3_result_pointer
                0x000000000040d7f8       0x8c 0x4 build_aarch64/sqlite3.o
                0x000000000040d7f8                sqlite3_result_pointer
 .text.sqlite3_result_subtype
                0x000000000040d884       0x18 0x4 build_aarch64/sqlite3.o
                0x000000000040d884                sqlite3_result_subtype
 .text.sqlite3_result_text
                0x000000000040d89c       0x60 0x4 build_aarch64/sqlite3.o
                0x000000000040d89c                sqlite3_result_text
 .text.sqlite3_result_text64
                0x000000000040d8fc       0x98 0x4 build_aarch64/sqlite3.o
                0x000000000040d8fc                sqlite3_result_text64
 .text.sqlite3_result_text16
                0x000000000040d994       0x60 0x4 build_aarch64/sqlite3.o
                0x000000000040d994                sqlite3_result_text16
 .text.sqlite3_result_text16be
                0x000000000040d9f4       0x60 0x4 build_aarch64/sqlite3.o
                0x000000000040d9f4                sqlite3_result_text16be
 .text.sqlite3_result_text16le
                0x000000000040da54       0x60 0x4 build_aarch64/sqlite3.o
                0x000000000040da54                sqlite3_result_text16le
 .text.sqlite3_result_value
                0x000000000040dab4      0x108 0x4 build_aarch64/sqlite3.o
                0x000000000040dab4                sqlite3_result_value
 .text.sqlite3_result_zeroblob
                0x000000000040dbbc       0x60 0x4 build_aarch64/sqlite3.o
                0x000000000040dbbc                sqlite3_result_zeroblob
 .text.sqlite3_result_zeroblob64
                0x000000000040dc1c       0x7c 0x4 build_aarch64/sqlite3.o
                0x000000000040dc1c                sqlite3_result_zeroblob64
 .text.sqlite3_result_error_code
                0x000000000040dc98       0xa0 0x4 build_aarch64/sqlite3.o
                0x000000000040dc98                sqlite3_result_error_code
 .text.sqlite3_result_error_toobig
                0x000000000040dd38       0x28 0x4 build_aarch64/sqlite3.o
                0x000000000040dd38                sqlite3_result_error_toobig
 .text.sqlite3_result_error_nomem
                0x000000000040dd60       0x88 0x4 build_aarch64/sqlite3.o
                0x000000000040dd60                sqlite3_result_error_nomem
 .text.sqlite3_step
                0x000000000040dde8     0x12d0 0x4 build_aarch64/sqlite3.o
                0x000000000040dde8                sqlite3_step
 .text.sqlite3_user_data
                0x000000000040f0b8        0xc 0x4 build_aarch64/sqlite3.o
                0x000000000040f0b8                sqlite3_user_data
 .text.sqlite3_context_db_handle
                0x000000000040f0c4        0xc 0x4 build_aarch64/sqlite3.o
                0x000000000040f0c4                sqlite3_context_db_handle
 .text.sqlite3_vtab_nochange
                0x000000000040f0d0       0x18 0x4 build_aarch64/sqlite3.o
                0x000000000040f0d0                sqlite3_vtab_nochange
 .text.sqlite3_aggregate_context
                0x000000000040f0e8       0x18 0x4 build_aarch64/sqlite3.o
                0x000000000040f0e8                sqlite3_aggregate_context
 .text.createAggContext
                0x000000000040f100       0xc4 0x4 build_aarch64/sqlite3.o
 .text.sqlite3_get_auxdata
                0x000000000040f1c4       0x44 0x4 build_aarch64/sqlite3.o
                0x000000000040f1c4                sqlite3_get_auxdata
 .text.sqlite3_set_auxdata
                0x000000000040f208      0x170 0x4 build_aarch64/sqlite3.o
                0x000000000040f208                sqlite3_set_auxdata
 .text.sqlite3DbMallocZero
                0x000000000040f378       0xd0 0x4 build_aarch64/sqlite3.o
 .text.sqlite3_aggregate_count
                0x000000000040f448        0xc 0x4 build_aarch64/sqlite3.o
                0x000000000040f448                sqlite3_aggregate_count
 .text.sqlite3_column_count
                0x000000000040f454        0xc 0x4 build_aarch64/sqlite3.o
                0x000000000040f454                sqlite3_column_count
 .text.sqlite3_data_count
                0x000000000040f460       0x1c 0x4 build_aarch64/sqlite3.o
                0x000000000040f460                sqlite3_data_count
 .text.sqlite3_column_blob
                0x000000000040f47c       0xdc 0x4 build_aarch64/sqlite3.o
                0x000000000040f47c                sqlite3_column_blob
 .text.sqlite3_column_bytes
                0x000000000040f558      0x128 0x4 build_aarch64/sqlite3.o
                0x000000000040f558                sqlite3_column_bytes
 .text.sqlite3_column_bytes16
                0x000000000040f680      0x128 0x4 build_aarch64/sqlite3.o
                0x000000000040f680                sqlite3_column_bytes16
 .text.sqlite3_column_double
                0x000000000040f7a8      0x11c 0x4 build_aarch64/sqlite3.o
                0x000000000040f7a8                sqlite3_column_double
 .text.sqlite3_column_int
                0x000000000040f8c4      0x118 0x4 build_aarch64/sqlite3.o
                0x000000000040f8c4                sqlite3_column_int
 .text.sqlite3_column_int64
                0x000000000040f9dc      0x118 0x4 build_aarch64/sqlite3.o
                0x000000000040f9dc                sqlite3_column_int64
 .text.sqlite3_column_text
                0x000000000040faf4      0x10c 0x4 build_aarch64/sqlite3.o
                0x000000000040faf4                sqlite3_column_text
 .text.sqlite3_column_value
                0x000000000040fc00       0xe4 0x4 build_aarch64/sqlite3.o
                0x000000000040fc00                sqlite3_column_value
 .text.sqlite3_column_text16
                0x000000000040fce4      0x10c 0x4 build_aarch64/sqlite3.o
                0x000000000040fce4                sqlite3_column_text16
 .text.sqlite3_column_type
                0x000000000040fdf0       0xdc 0x4 build_aarch64/sqlite3.o
                0x000000000040fdf0                sqlite3_column_type
 .text.sqlite3_column_name
                0x000000000040fecc      0x120 0x4 build_aarch64/sqlite3.o
                0x000000000040fecc                sqlite3_column_name
 .text.sqlite3_column_name16
                0x000000000040ffec      0x120 0x4 build_aarch64/sqlite3.o
                0x000000000040ffec                sqlite3_column_name16
 .text.sqlite3_column_decltype
                0x000000000041010c      0x120 0x4 build_aarch64/sqlite3.o
                0x000000000041010c                sqlite3_column_decltype
 .text.sqlite3_column_decltype16
                0x000000000041022c      0x120 0x4 build_aarch64/sqlite3.o
                0x000000000041022c                sqlite3_column_decltype16
 .text.sqlite3_bind_blob
                0x000000000041034c        0x8 0x4 build_aarch64/sqlite3.o
                0x000000000041034c                sqlite3_bind_blob
 .text.bindText
                0x0000000000410354      0x144 0x4 build_aarch64/sqlite3.o
 .text.sqlite3_bind_blob64
                0x0000000000410498       0x40 0x4 build_aarch64/sqlite3.o
                0x0000000000410498                sqlite3_bind_blob64
 .text.sqlite3_bind_double
                0x00000000004104d8       0xc4 0x4 build_aarch64/sqlite3.o
                0x00000000004104d8                sqlite3_bind_double
 .text.vdbeUnbind
                0x000000000041059c      0x208 0x4 build_aarch64/sqlite3.o
 .text.sqlite3_bind_int
                0x00000000004107a4       0x8c 0x4 build_aarch64/sqlite3.o
                0x00000000004107a4                sqlite3_bind_int
 .text.sqlite3_bind_int64
                0x0000000000410830       0x8c 0x4 build_aarch64/sqlite3.o
                0x0000000000410830                sqlite3_bind_int64
 .text.sqlite3_bind_null
                0x00000000004108bc       0x44 0x4 build_aarch64/sqlite3.o
                0x00000000004108bc                sqlite3_bind_null
 .text.sqlite3_bind_pointer
                0x0000000000410900       0xbc 0x4 build_aarch64/sqlite3.o
                0x0000000000410900                sqlite3_bind_pointer
 .text.sqlite3_bind_text
                0x00000000004109bc        0x8 0x4 build_aarch64/sqlite3.o
                0x00000000004109bc                sqlite3_bind_text
 .text.sqlite3_bind_text64
                0x00000000004109c4       0x4c 0x4 build_aarch64/sqlite3.o
                0x00000000004109c4                sqlite3_bind_text64
 .text.sqlite3_bind_text16
                0x0000000000410a10        0x8 0x4 build_aarch64/sqlite3.o
                0x0000000000410a10                sqlite3_bind_text16
 .text.sqlite3_bind_value
                0x0000000000410a18      0x23c 0x4 build_aarch64/sqlite3.o
                0x0000000000410a18                sqlite3_bind_value
 .text.sqlite3_bind_zeroblob
                0x0000000000410c54       0xcc 0x4 build_aarch64/sqlite3.o
                0x0000000000410c54                sqlite3_bind_zeroblob
 .text.sqlite3_bind_zeroblob64
                0x0000000000410d20      0x148 0x4 build_aarch64/sqlite3.o
                0x0000000000410d20                sqlite3_bind_zeroblob64
 .text.sqlite3_bind_parameter_count
                0x0000000000410e68        0xc 0x4 build_aarch64/sqlite3.o
                0x0000000000410e68                sqlite3_bind_parameter_count
 .text.sqlite3_bind_parameter_name
                0x0000000000410e74       0x4c 0x4 build_aarch64/sqlite3.o
                0x0000000000410e74                sqlite3_bind_parameter_name
 .text.sqlite3_bind_parameter_index
                0x0000000000410ec0       0xa0 0x4 build_aarch64/sqlite3.o
                0x0000000000410ec0                sqlite3_bind_parameter_index
 .text.sqlite3_transfer_bindings
                0x0000000000410f60      0x13c 0x4 build_aarch64/sqlite3.o
                0x0000000000410f60                sqlite3_transfer_bindings
 .text.sqlite3_db_handle
                0x000000000041109c        0xc 0x4 build_aarch64/sqlite3.o
                0x000000000041109c                sqlite3_db_handle
 .text.sqlite3_stmt_readonly
                0x00000000004110a8       0x18 0x4 build_aarch64/sqlite3.o
                0x00000000004110a8                sqlite3_stmt_readonly
 .text.sqlite3_stmt_busy
                0x00000000004110c0       0x30 0x4 build_aarch64/sqlite3.o
                0x00000000004110c0                sqlite3_stmt_busy
 .text.sqlite3_next_stmt
                0x00000000004110f0       0x78 0x4 build_aarch64/sqlite3.o
                0x00000000004110f0                sqlite3_next_stmt
 .text.sqlite3_stmt_status
                0x0000000000411168       0x9c 0x4 build_aarch64/sqlite3.o
                0x0000000000411168                sqlite3_stmt_status
 .text.sqlite3_sql
                0x0000000000411204        0xc 0x4 build_aarch64/sqlite3.o
                0x0000000000411204                sqlite3_sql
 .text.sqlite3_expanded_sql
                0x0000000000411210       0x78 0x4 build_aarch64/sqlite3.o
                0x0000000000411210                sqlite3_expanded_sql
 .text.sqlite3VdbeExpandSql
                0x0000000000411288      0x5a8 0x4 build_aarch64/sqlite3.o
 .text.sqlite3_value_numeric_type
                0x0000000000411830       0xbc 0x4 build_aarch64/sqlite3.o
                0x0000000000411830                sqlite3_value_numeric_type
 .text.sqlite3_blob_open
                0x00000000004118ec      0xaf8 0x4 build_aarch64/sqlite3.o
                0x00000000004118ec                sqlite3_blob_open
 .text.sqlite3LocateTable
                0x00000000004123e4      0xc2c 0x4 build_aarch64/sqlite3.o
 .text.sqlite3ErrorMsg
                0x0000000000413010      0x160 0x4 build_aarch64/sqlite3.o
 .text.sqlite3MPrintf
                0x0000000000413170      0x10c 0x4 build_aarch64/sqlite3.o
 .text.sqlite3VdbeMakeReady
                0x000000000041327c      0x400 0x4 build_aarch64/sqlite3.o
 .text.blobSeekToRow
                0x000000000041367c      0x1d0 0x4 build_aarch64/sqlite3.o
 .text.sqlite3_blob_close
                0x000000000041384c       0x78 0x4 build_aarch64/sqlite3.o
                0x000000000041384c                sqlite3_blob_close
 .text.sqlite3_blob_read
                0x00000000004138c4        0xc 0x4 build_aarch64/sqlite3.o
                0x00000000004138c4                sqlite3_blob_read
 .text.blobReadWrite
                0x00000000004138d0      0x2ec 0x4 build_aarch64/sqlite3.o
 .text.sqlite3BtreePayloadChecked
                0x0000000000413bbc       0x14 0x4 build_aarch64/sqlite3.o
 .text.sqlite3_blob_write
                0x0000000000413bd0        0xc 0x4 build_aarch64/sqlite3.o
                0x0000000000413bd0                sqlite3_blob_write
 .text.sqlite3BtreePutData
                0x0000000000413bdc      0x1d8 0x4 build_aarch64/sqlite3.o
 .text.sqlite3_blob_bytes
                0x0000000000413db4       0x1c 0x4 build_aarch64/sqlite3.o
                0x0000000000413db4                sqlite3_blob_bytes
 .text.sqlite3_blob_reopen
                0x0000000000413dd0      0x118 0x4 build_aarch64/sqlite3.o
                0x0000000000413dd0                sqlite3_blob_reopen
 .text.sqlite3_set_authorizer
                0x0000000000413ee8       0x7c 0x4 build_aarch64/sqlite3.o
                0x0000000000413ee8                sqlite3_set_authorizer
 .text.sqlite3_strglob
                0x0000000000413f64       0x10 0x4 build_aarch64/sqlite3.o
                0x0000000000413f64                sqlite3_strglob
 .text.patternCompare
                0x0000000000413f74      0x7c8 0x4 build_aarch64/sqlite3.o
 .text.sqlite3_strlike
                0x000000000041473c       0x10 0x4 build_aarch64/sqlite3.o
                0x000000000041473c                sqlite3_strlike
 .text.sqlite3_exec
                0x000000000041474c      0x888 0x4 build_aarch64/sqlite3.o
                0x000000000041474c                sqlite3_exec
 .text.sqlite3_prepare_v2
                0x0000000000414fd4       0x14 0x4 build_aarch64/sqlite3.o
                0x0000000000414fd4                sqlite3_prepare_v2
 .text.sqlite3_errmsg
                0x0000000000414fe8      0x1cc 0x4 build_aarch64/sqlite3.o
                0x0000000000414fe8                sqlite3_errmsg
 .text.sqlite3_load_extension
                0x00000000004151b4      0x810 0x4 build_aarch64/sqlite3.o
                0x00000000004151b4                sqlite3_load_extension
 .text.sqlite3_enable_load_extension
                0x00000000004159c4       0x64 0x4 build_aarch64/sqlite3.o
                0x00000000004159c4                sqlite3_enable_load_extension
 .text.sqlite3_auto_extension
                0x0000000000415a28      0x12c 0x4 build_aarch64/sqlite3.o
                0x0000000000415a28                sqlite3_auto_extension
 .text.sqlite3_cancel_auto_extension
                0x0000000000415b54       0xcc 0x4 build_aarch64/sqlite3.o
                0x0000000000415b54                sqlite3_cancel_auto_extension
 .text.sqlite3_reset_auto_extension
                0x0000000000415c20      0x134 0x4 build_aarch64/sqlite3.o
                0x0000000000415c20                sqlite3_reset_auto_extension
 .text.sqlite3_prepare
                0x0000000000415d54       0x14 0x4 build_aarch64/sqlite3.o
                0x0000000000415d54                sqlite3_prepare
 .text.sqlite3LockAndPrepare
                0x0000000000415d68      0xb20 0x4 build_aarch64/sqlite3.o
 .text.sqlite3_prepare_v3
                0x0000000000416888       0x1c 0x4 build_aarch64/sqlite3.o
                0x0000000000416888                sqlite3_prepare_v3
 .text.sqlite3_prepare16
                0x00000000004168a4       0x10 0x4 build_aarch64/sqlite3.o
                0x00000000004168a4                sqlite3_prepare16
 .text.sqlite3Prepare16
                0x00000000004168b4      0x2f0 0x4 build_aarch64/sqlite3.o
 .text.sqlite3_prepare16_v2
                0x0000000000416ba4       0x10 0x4 build_aarch64/sqlite3.o
                0x0000000000416ba4                sqlite3_prepare16_v2
 .text.sqlite3_prepare16_v3
                0x0000000000416bb4       0x10 0x4 build_aarch64/sqlite3.o
                0x0000000000416bb4                sqlite3_prepare16_v3
 .text.sqlite3_get_table
                0x0000000000416bc4      0x358 0x4 build_aarch64/sqlite3.o
                0x0000000000416bc4                sqlite3_get_table
 .text.sqlite3_get_table_cb
                0x0000000000416f1c      0x240 0x4 build_aarch64/sqlite3.o
 .text.sqlite3_free_table
                0x000000000041715c      0x1a4 0x4 build_aarch64/sqlite3.o
                0x000000000041715c                sqlite3_free_table
 .text.sqlite3_create_module
                0x0000000000417300        0x8 0x4 build_aarch64/sqlite3.o
                0x0000000000417300                sqlite3_create_module
 .text.createModule
                0x0000000000417308      0x1ec 0x4 build_aarch64/sqlite3.o
 .text.sqlite3_create_module_v2
                0x00000000004174f4        0x4 0x4 build_aarch64/sqlite3.o
                0x00000000004174f4                sqlite3_create_module_v2
 .text.sqlite3_declare_vtab
                0x00000000004174f8      0x44c 0x4 build_aarch64/sqlite3.o
                0x00000000004174f8                sqlite3_declare_vtab
 .text.sqlite3RunParser
                0x0000000000417944      0xa70 0x4 build_aarch64/sqlite3.o
 .text.sqlite3_vtab_on_conflict
                0x00000000004183b4       0x18 0x4 build_aarch64/sqlite3.o
                0x00000000004183b4                sqlite3_vtab_on_conflict
 .text.sqlite3_vtab_config
                0x00000000004183cc      0x130 0x4 build_aarch64/sqlite3.o
                0x00000000004183cc                sqlite3_vtab_config
 .text.sqlite3_vtab_collation
                0x00000000004184fc       0xac 0x4 build_aarch64/sqlite3.o
                0x00000000004184fc                sqlite3_vtab_collation
 .text.sqlite3_keyword_name
                0x00000000004185a8       0x48 0x4 build_aarch64/sqlite3.o
                0x00000000004185a8                sqlite3_keyword_name
 .text.sqlite3_keyword_count
                0x00000000004185f0        0x8 0x4 build_aarch64/sqlite3.o
                0x00000000004185f0                sqlite3_keyword_count
 .text.sqlite3_keyword_check
                0x00000000004185f8       0xec 0x4 build_aarch64/sqlite3.o
                0x00000000004185f8                sqlite3_keyword_check
 .text.sqlite3KeywordCode
                0x00000000004186e4       0xf4 0x4 build_aarch64/sqlite3.o
 .text.sqlite3_complete
                0x00000000004187d8      0x9d0 0x4 build_aarch64/sqlite3.o
                0x00000000004187d8                sqlite3_complete
 .text.sqlite3_complete16
                0x00000000004191a8      0x1b8 0x4 build_aarch64/sqlite3.o
                0x00000000004191a8                sqlite3_complete16
 .text.sqlite3_libversion
                0x0000000000419360        0xc 0x4 build_aarch64/sqlite3.o
                0x0000000000419360                sqlite3_libversion
 .text.sqlite3_libversion_number
                0x000000000041936c        0xc 0x4 build_aarch64/sqlite3.o
                0x000000000041936c                sqlite3_libversion_number
 .text.sqlite3_threadsafe
                0x0000000000419378        0x8 0x4 build_aarch64/sqlite3.o
                0x0000000000419378                sqlite3_threadsafe
 .text.sqlite3_shutdown
                0x0000000000419380       0xd0 0x4 build_aarch64/sqlite3.o
                0x0000000000419380                sqlite3_shutdown
 .text.sqlite3_config
                0x0000000000419450      0x784 0x4 build_aarch64/sqlite3.o
                0x0000000000419450                sqlite3_config
 .text.sqlite3_db_mutex
                0x0000000000419bd4        0x8 0x4 build_aarch64/sqlite3.o
                0x0000000000419bd4                sqlite3_db_mutex
 .text.sqlite3_db_release_memory
                0x0000000000419bdc       0xd4 0x4 build_aarch64/sqlite3.o
                0x0000000000419bdc                sqlite3_db_release_memory
 .text.sqlite3_db_cacheflush
                0x0000000000419cb0      0x164 0x4 build_aarch64/sqlite3.o
                0x0000000000419cb0                sqlite3_db_cacheflush
 .text.sqlite3_db_config
                0x0000000000419e14      0x2bc 0x4 build_aarch64/sqlite3.o
                0x0000000000419e14                sqlite3_db_config
 .text.setupLookaside
                0x000000000041a0d0      0x228 0x4 build_aarch64/sqlite3.o
 .text.sqlite3_last_insert_rowid
                0x000000000041a2f8        0x8 0x4 build_aarch64/sqlite3.o
                0x000000000041a2f8                sqlite3_last_insert_rowid
 .text.sqlite3_set_last_insert_rowid
                0x000000000041a300       0x58 0x4 build_aarch64/sqlite3.o
                0x000000000041a300                sqlite3_set_last_insert_rowid
 .text.sqlite3_changes
                0x000000000041a358        0x8 0x4 build_aarch64/sqlite3.o
                0x000000000041a358                sqlite3_changes
 .text.sqlite3_total_changes
                0x000000000041a360        0x8 0x4 build_aarch64/sqlite3.o
                0x000000000041a360                sqlite3_total_changes
 .text.sqlite3_close
                0x000000000041a368        0x8 0x4 build_aarch64/sqlite3.o
                0x000000000041a368                sqlite3_close
 .text.sqlite3Close
                0x000000000041a370      0x348 0x4 build_aarch64/sqlite3.o
 .text.sqlite3_close_v2
                0x000000000041a6b8        0x8 0x4 build_aarch64/sqlite3.o
                0x000000000041a6b8                sqlite3_close_v2
 .text.sqlite3_busy_handler
                0x000000000041a6c0       0x70 0x4 build_aarch64/sqlite3.o
                0x000000000041a6c0                sqlite3_busy_handler
 .text.sqlite3_progress_handler
                0x000000000041a730       0x7c 0x4 build_aarch64/sqlite3.o
                0x000000000041a730                sqlite3_progress_handler
 .text.sqlite3_busy_timeout
                0x000000000041a7ac       0xd4 0x4 build_aarch64/sqlite3.o
                0x000000000041a7ac                sqlite3_busy_timeout
 .text.sqliteDefaultBusyCallback
                0x000000000041a880       0x4c 0x4 build_aarch64/sqlite3.o
 .text.sqlite3_interrupt
                0x000000000041a8cc        0xc 0x4 build_aarch64/sqlite3.o
                0x000000000041a8cc                sqlite3_interrupt
 .text.sqlite3_create_function
                0x000000000041a8d8       0xe0 0x4 build_aarch64/sqlite3.o
                0x000000000041a8d8                sqlite3_create_function
 .text.createFunctionApi
                0x000000000041a9b8      0x234 0x4 build_aarch64/sqlite3.o
 .text.sqlite3_create_function_v2
                0x000000000041abec       0x28 0x4 build_aarch64/sqlite3.o
                0x000000000041abec                sqlite3_create_function_v2
 .text.sqlite3_create_window_function
                0x000000000041ac14       0x38 0x4 build_aarch64/sqlite3.o
                0x000000000041ac14                sqlite3_create_window_function
 .text.sqlite3_create_function16
                0x000000000041ac4c      0x170 0x4 build_aarch64/sqlite3.o
                0x000000000041ac4c                sqlite3_create_function16
 .text.sqlite3CreateFunc
                0x000000000041adbc      0x2b4 0x4 build_aarch64/sqlite3.o
 .text.sqlite3_overload_function
                0x000000000041b070       0xd4 0x4 build_aarch64/sqlite3.o
                0x000000000041b070                sqlite3_overload_function
 .text.sqlite3FindFunction
                0x000000000041b144      0x4e0 0x4 build_aarch64/sqlite3.o
 .text.sqlite3InvalidFunction
                0x000000000041b624       0xec 0x4 build_aarch64/sqlite3.o
 .text.sqlite3_trace
                0x000000000041b710       0x70 0x4 build_aarch64/sqlite3.o
                0x000000000041b710                sqlite3_trace
 .text.sqlite3_trace_v2
                0x000000000041b780       0x74 0x4 build_aarch64/sqlite3.o
                0x000000000041b780                sqlite3_trace_v2
 .text.sqlite3_profile
                0x000000000041b7f4       0x6c 0x4 build_aarch64/sqlite3.o
                0x000000000041b7f4                sqlite3_profile
 .text.sqlite3_commit_hook
                0x000000000041b860       0x6c 0x4 build_aarch64/sqlite3.o
                0x000000000041b860                sqlite3_commit_hook
 .text.sqlite3_update_hook
                0x000000000041b8cc       0x6c 0x4 build_aarch64/sqlite3.o
                0x000000000041b8cc                sqlite3_update_hook
 .text.sqlite3_rollback_hook
                0x000000000041b938       0x6c 0x4 build_aarch64/sqlite3.o
                0x000000000041b938                sqlite3_rollback_hook
 .text.sqlite3_wal_autocheckpoint
                0x000000000041b9a4       0x9c 0x4 build_aarch64/sqlite3.o
                0x000000000041b9a4                sqlite3_wal_autocheckpoint
 .text.sqlite3_wal_hook
                0x000000000041ba40       0x6c 0x4 build_aarch64/sqlite3.o
                0x000000000041ba40                sqlite3_wal_hook
 .text.sqlite3WalDefaultHook
                0x000000000041baac       0x64 0x4 build_aarch64/sqlite3.o
 .text.sqlite3_wal_checkpoint_v2
                0x000000000041bb10      0x234 0x4 build_aarch64/sqlite3.o
                0x000000000041bb10                sqlite3_wal_checkpoint_v2
 .text.sqlite3Checkpoint
                0x000000000041bd44      0x1b4 0x4 build_aarch64/sqlite3.o
 .text.sqlite3_wal_checkpoint
                0x000000000041bef8       0x10 0x4 build_aarch64/sqlite3.o
                0x000000000041bef8                sqlite3_wal_checkpoint
 .text.sqlite3_errmsg16
                0x000000000041bf08      0x214 0x4 build_aarch64/sqlite3.o
                0x000000000041bf08                sqlite3_errmsg16
 .text.sqlite3_errcode
                0x000000000041c11c       0xb4 0x4 build_aarch64/sqlite3.o
                0x000000000041c11c                sqlite3_errcode
 .text.sqlite3_extended_errcode
                0x000000000041c1d0       0xb0 0x4 build_aarch64/sqlite3.o
                0x000000000041c1d0                sqlite3_extended_errcode
 .text.sqlite3_system_errno
                0x000000000041c280        0xc 0x4 build_aarch64/sqlite3.o
                0x000000000041c280                sqlite3_system_errno
 .text.sqlite3_errstr
                0x000000000041c28c       0x74 0x4 build_aarch64/sqlite3.o
                0x000000000041c28c                sqlite3_errstr
 .text.sqlite3_limit
                0x000000000041c300       0x3c 0x4 build_aarch64/sqlite3.o
                0x000000000041c300                sqlite3_limit
 .text.sqlite3_open
                0x000000000041c33c        0xc 0x4 build_aarch64/sqlite3.o
                0x000000000041c33c                sqlite3_open
 .text.openDatabase
                0x000000000041c348      0xc28 0x4 build_aarch64/sqlite3.o
 .text.sqlite3_open_v2
                0x000000000041cf70        0x4 0x4 build_aarch64/sqlite3.o
                0x000000000041cf70                sqlite3_open_v2
 .text.sqlite3_open16
                0x000000000041cf74      0x200 0x4 build_aarch64/sqlite3.o
                0x000000000041cf74                sqlite3_open16
 .text.sqlite3_create_collation
                0x000000000041d174       0xb4 0x4 build_aarch64/sqlite3.o
                0x000000000041d174                sqlite3_create_collation
 .text.sqlite3_create_collation_v2
                0x000000000041d228       0xb8 0x4 build_aarch64/sqlite3.o
                0x000000000041d228                sqlite3_create_collation_v2
 .text.createCollation
                0x000000000041d2e0      0x2d0 0x4 build_aarch64/sqlite3.o
 .text.sqlite3_create_collation16
                0x000000000041d5b0      0x150 0x4 build_aarch64/sqlite3.o
                0x000000000041d5b0                sqlite3_create_collation16
 .text.sqlite3_collation_needed
                0x000000000041d700       0x60 0x4 build_aarch64/sqlite3.o
                0x000000000041d700                sqlite3_collation_needed
 .text.sqlite3_collation_needed16
                0x000000000041d760       0x60 0x4 build_aarch64/sqlite3.o
                0x000000000041d760                sqlite3_collation_needed16
 .text.sqlite3_global_recover
                0x000000000041d7c0        0x8 0x4 build_aarch64/sqlite3.o
                0x000000000041d7c0                sqlite3_global_recover
 .text.sqlite3_get_autocommit
                0x000000000041d7c8        0x8 0x4 build_aarch64/sqlite3.o
                0x000000000041d7c8                sqlite3_get_autocommit
 .text.sqlite3_thread_cleanup
                0x000000000041d7d0        0x4 0x4 build_aarch64/sqlite3.o
                0x000000000041d7d0                sqlite3_thread_cleanup
 .text.sqlite3_table_column_metadata
                0x000000000041d7d4      0x3fc 0x4 build_aarch64/sqlite3.o
                0x000000000041d7d4                sqlite3_table_column_metadata
 .text.sqlite3Init
                0x000000000041dbd0       0xd4 0x4 build_aarch64/sqlite3.o
 .text.sqlite3FindTable
                0x000000000041dca4      0x1ac 0x4 build_aarch64/sqlite3.o
 .text.sqlite3_sleep
                0x000000000041de50       0xbc 0x4 build_aarch64/sqlite3.o
                0x000000000041de50                sqlite3_sleep
 .text.sqlite3_extended_result_codes
                0x000000000041df0c       0x70 0x4 build_aarch64/sqlite3.o
                0x000000000041df0c                sqlite3_extended_result_codes
 .text.sqlite3_file_control
                0x000000000041df7c      0x280 0x4 build_aarch64/sqlite3.o
                0x000000000041df7c                sqlite3_file_control
 .text.sqlite3_test_control
                0x000000000041e1fc      0xde8 0x4 build_aarch64/sqlite3.o
                0x000000000041e1fc                sqlite3_test_control
 .text.sqlite3BtreeSetPageSize
                0x000000000041efe4      0x140 0x4 build_aarch64/sqlite3.o
 .text.sqlite3_uri_parameter
                0x000000000041f124       0x90 0x4 build_aarch64/sqlite3.o
                0x000000000041f124                sqlite3_uri_parameter
 .text.sqlite3_uri_boolean
                0x000000000041f1b4       0x98 0x4 build_aarch64/sqlite3.o
                0x000000000041f1b4                sqlite3_uri_boolean
 .text.sqlite3_uri_int64
                0x000000000041f24c       0x98 0x4 build_aarch64/sqlite3.o
                0x000000000041f24c                sqlite3_uri_int64
 .text.sqlite3DecOrHexToI64
                0x000000000041f2e4      0x10c 0x4 build_aarch64/sqlite3.o
 .text.sqlite3_db_filename
                0x000000000041f3f0      0x140 0x4 build_aarch64/sqlite3.o
                0x000000000041f3f0                sqlite3_db_filename
 .text.sqlite3_db_readonly
                0x000000000041f530      0x12c 0x4 build_aarch64/sqlite3.o
                0x000000000041f530                sqlite3_db_readonly
 .text.sqlite3_compileoption_used
                0x000000000041f65c      0x2f4 0x4 build_aarch64/sqlite3.o
                0x000000000041f65c                sqlite3_compileoption_used
 .text.sqlite3_compileoption_get
                0x000000000041f950       0x20 0x4 build_aarch64/sqlite3.o
                0x000000000041f950                sqlite3_compileoption_get
 .text.sqlite3_sourceid
                0x000000000041f970        0xc 0x4 build_aarch64/sqlite3.o
                0x000000000041f970                sqlite3_sourceid
 .text.pthreadMutexInit
                0x000000000041f97c        0x8 0x4 build_aarch64/sqlite3.o
 .text.pthreadMutexEnd
                0x000000000041f984        0x8 0x4 build_aarch64/sqlite3.o
 .text.pthreadMutexAlloc
                0x000000000041f98c       0xb0 0x4 build_aarch64/sqlite3.o
 .text.pthreadMutexFree
                0x000000000041fa3c       0xb8 0x4 build_aarch64/sqlite3.o
 .text.pthreadMutexEnter
                0x000000000041faf4        0x4 0x4 build_aarch64/sqlite3.o
 .text.pthreadMutexTry
                0x000000000041faf8       0x20 0x4 build_aarch64/sqlite3.o
 .text.pthreadMutexLeave
                0x000000000041fb18        0x4 0x4 build_aarch64/sqlite3.o
 .text.noopMutexInit
                0x000000000041fb1c        0x8 0x4 build_aarch64/sqlite3.o
 .text.noopMutexEnd
                0x000000000041fb24        0x8 0x4 build_aarch64/sqlite3.o
 .text.noopMutexAlloc
                0x000000000041fb2c        0x8 0x4 build_aarch64/sqlite3.o
 .text.noopMutexFree
                0x000000000041fb34        0x4 0x4 build_aarch64/sqlite3.o
 .text.noopMutexEnter
                0x000000000041fb38        0x4 0x4 build_aarch64/sqlite3.o
 .text.noopMutexTry
                0x000000000041fb3c        0x8 0x4 build_aarch64/sqlite3.o
 .text.noopMutexLeave
                0x000000000041fb44        0x4 0x4 build_aarch64/sqlite3.o
 .text.measureAllocationSize
                0x000000000041fb48       0x60 0x4 build_aarch64/sqlite3.o
 .text.dbReallocFinish
                0x000000000041fba8      0x150 0x4 build_aarch64/sqlite3.o
 .text.dbMallocRawFinish
                0x000000000041fcf8       0x60 0x4 build_aarch64/sqlite3.o
 .text.strAccumFinishRealloc
                0x000000000041fd58       0xf8 0x4 build_aarch64/sqlite3.o
 .text.posixIoFinderImpl
                0x000000000041fe50        0xc 0x4 build_aarch64/sqlite3.o
 .text.unixClose
                0x000000000041fe5c      0x3e8 0x4 build_aarch64/sqlite3.o
 .text.unixRead
                0x0000000000420244      0x144 0x4 build_aarch64/sqlite3.o
 .text.unixWrite
                0x0000000000420388       0xf8 0x4 build_aarch64/sqlite3.o
 .text.unixTruncate
                0x0000000000420480       0xcc 0x4 build_aarch64/sqlite3.o
 .text.unixSync
                0x000000000042054c      0x10c 0x4 build_aarch64/sqlite3.o
 .text.unixFileSize
                0x0000000000420658       0x64 0x4 build_aarch64/sqlite3.o
 .text.unixLock
                0x00000000004206bc      0x534 0x4 build_aarch64/sqlite3.o
 .text.unixUnlock
                0x0000000000420bf0      0x3f8 0x4 build_aarch64/sqlite3.o
 .text.unixCheckReservedLock
                0x0000000000420fe8      0x104 0x4 build_aarch64/sqlite3.o
 .text.unixFileControl
                0x00000000004210ec      0x2b8 0x4 build_aarch64/sqlite3.o
 .text.unixSectorSize
                0x00000000004213a4       0x34 0x4 build_aarch64/sqlite3.o
 .text.unixDeviceCharacteristics
                0x00000000004213d8       0x34 0x4 build_aarch64/sqlite3.o
 .text.unixShmMap
                0x000000000042140c      0x6fc 0x4 build_aarch64/sqlite3.o
 .text.unixShmLock
                0x0000000000421b08      0x268 0x4 build_aarch64/sqlite3.o
 .text.unixShmBarrier
                0x0000000000421d70       0x48 0x4 build_aarch64/sqlite3.o
 .text.unixShmUnmap
                0x0000000000421db8      0x17c 0x4 build_aarch64/sqlite3.o
 .text.unixFetch
                0x0000000000421f34        0xc 0x4 build_aarch64/sqlite3.o
 .text.unixUnfetch
                0x0000000000421f40        0x8 0x4 build_aarch64/sqlite3.o
 .text.verifyDbFile
                0x0000000000421f48       0xcc 0x4 build_aarch64/sqlite3.o
 .text.posixOpen
                0x0000000000422014        0x4 0x4 build_aarch64/sqlite3.o
 .text.openDirectory
                0x0000000000422018      0x1a0 0x4 build_aarch64/sqlite3.o
 .text.unixGetpagesize
                0x00000000004221b8       0x18 0x4 build_aarch64/sqlite3.o
 .text.robust_open
                0x00000000004221d0      0x13c 0x4 build_aarch64/sqlite3.o
 .text.unixGetTempname
                0x000000000042230c      0x16c 0x4 build_aarch64/sqlite3.o
 .text.unixLockSharedMemory
                0x0000000000422478      0x1a0 0x4 build_aarch64/sqlite3.o
 .text.unixShmPurge
                0x0000000000422618      0x30c 0x4 build_aarch64/sqlite3.o
 .text.nolockClose
                0x0000000000422924      0x128 0x4 build_aarch64/sqlite3.o
 .text.nolockLock
                0x0000000000422a4c        0x8 0x4 build_aarch64/sqlite3.o
 .text.nolockUnlock
                0x0000000000422a54        0x8 0x4 build_aarch64/sqlite3.o
 .text.nolockCheckReservedLock
                0x0000000000422a5c        0xc 0x4 build_aarch64/sqlite3.o
 .text.dotlockClose
                0x0000000000422a68      0x1f8 0x4 build_aarch64/sqlite3.o
 .text.dotlockLock
                0x0000000000422c60       0xb4 0x4 build_aarch64/sqlite3.o
 .text.dotlockUnlock
                0x0000000000422d14       0x80 0x4 build_aarch64/sqlite3.o
 .text.dotlockCheckReservedLock
                0x0000000000422d94       0x40 0x4 build_aarch64/sqlite3.o
 .text.nolockIoFinderImpl
                0x0000000000422dd4        0xc 0x4 build_aarch64/sqlite3.o
 .text.dotlockIoFinderImpl
                0x0000000000422de0        0xc 0x4 build_aarch64/sqlite3.o
 .text.btreeEnterAll
                0x0000000000422dec       0x90 0x4 build_aarch64/sqlite3.o
 .text.btreeLeaveAll
                0x0000000000422e7c       0x7c 0x4 build_aarch64/sqlite3.o
 .text.sqlite3ErrorFinish
                0x0000000000422ef8       0x8c 0x4 build_aarch64/sqlite3.o
 .text.sqlite3OpenTempDatabase
                0x0000000000422f84       0xe4 0x4 build_aarch64/sqlite3.o
 .text.sqlite3BtreeOpen
                0x0000000000423068     0x14e8 0x4 build_aarch64/sqlite3.o
 .text.pageReinit
                0x0000000000424550       0x28 0x4 build_aarch64/sqlite3.o
 .text.btreeInvokeBusyHandler
                0x0000000000424578       0x70 0x4 build_aarch64/sqlite3.o
 .text.sqlite3PagerSetPagesize
                0x00000000004245e8      0x188 0x4 build_aarch64/sqlite3.o
 .text.sqlite3PagerClose
                0x0000000000424770      0x36c 0x4 build_aarch64/sqlite3.o
 .text.pagerStress
                0x0000000000424adc      0x188 0x4 build_aarch64/sqlite3.o
 .text.subjournalPageIfRequired
                0x0000000000424c64      0x2c4 0x4 build_aarch64/sqlite3.o
 .text.pagerWalFrames
                0x0000000000424f28      0xe80 0x4 build_aarch64/sqlite3.o
 .text.syncJournal
                0x0000000000425da8      0x274 0x4 build_aarch64/sqlite3.o
 .text.pager_write_pagelist
                0x000000000042601c      0x1c0 0x4 build_aarch64/sqlite3.o
 .text.memjrnlClose
                0x00000000004261dc       0xe4 0x4 build_aarch64/sqlite3.o
 .text.memjrnlRead
                0x00000000004262c0       0xfc 0x4 build_aarch64/sqlite3.o
 .text.memjrnlWrite
                0x00000000004263bc      0x348 0x4 build_aarch64/sqlite3.o
 .text.memjrnlTruncate
                0x0000000000426704      0x10c 0x4 build_aarch64/sqlite3.o
 .text.memjrnlSync
                0x0000000000426810        0x8 0x4 build_aarch64/sqlite3.o
 .text.memjrnlFileSize
                0x0000000000426818       0x10 0x4 build_aarch64/sqlite3.o
 .text.sqlite3BitvecSet
                0x0000000000426828      0x308 0x4 build_aarch64/sqlite3.o
 .text.sqlite3WalFindFrame
                0x0000000000426b30      0x1d8 0x4 build_aarch64/sqlite3.o
 .text.walIndexAppend
                0x0000000000426d08      0x25c 0x4 build_aarch64/sqlite3.o
 .text.walTryBeginRead
                0x0000000000426f64      0x900 0x4 build_aarch64/sqlite3.o
 .text.walIndexReadHdr
                0x0000000000427864      0x8e8 0x4 build_aarch64/sqlite3.o
 .text.walIndexTryHdr
                0x000000000042814c      0x1bc 0x4 build_aarch64/sqlite3.o
 .text.walIndexPageRealloc
                0x0000000000428308      0x13c 0x4 build_aarch64/sqlite3.o
 .text.walDecodeFrame
                0x0000000000428444       0xf8 0x4 build_aarch64/sqlite3.o
 .text.walEncodeFrame
                0x000000000042853c      0x11c 0x4 build_aarch64/sqlite3.o
 .text.backupUpdate
                0x0000000000428658       0xcc 0x4 build_aarch64/sqlite3.o
 .text.writeJournalHdr
                0x0000000000428724      0x18c 0x4 build_aarch64/sqlite3.o
 .text.pcache1Free
                0x00000000004288b0      0x1a4 0x4 build_aarch64/sqlite3.o
 .text.getPageError
                0x0000000000428a54        0xc 0x4 build_aarch64/sqlite3.o
 .text.getPageNormal
                0x0000000000428a60      0x3dc 0x4 build_aarch64/sqlite3.o
 .text.readDbPage
                0x0000000000428e3c       0xe4 0x4 build_aarch64/sqlite3.o
 .text.pcacheFetchFinishWithInit
                0x0000000000428f20       0x60 0x4 build_aarch64/sqlite3.o
 .text.sqlite3PagerRollback
                0x0000000000428f80      0x118 0x4 build_aarch64/sqlite3.o
 .text.pager_end_transaction
                0x0000000000429098      0x878 0x4 build_aarch64/sqlite3.o
 .text.pager_unlock
                0x0000000000429910      0x2ac 0x4 build_aarch64/sqlite3.o
 .text.sqlite3PagerSavepoint
                0x0000000000429bbc      0x73c 0x4 build_aarch64/sqlite3.o
 .text.pager_playback
                0x000000000042a2f8      0x77c 0x4 build_aarch64/sqlite3.o
 .text.sqlite3BitvecDestroy
                0x000000000042aa74       0xd4 0x4 build_aarch64/sqlite3.o
 .text.pager_playback_one_page
                0x000000000042ab48      0x524 0x4 build_aarch64/sqlite3.o
 .text.readJournalHdr
                0x000000000042b06c      0x234 0x4 build_aarch64/sqlite3.o
 .text.pagerUndoCallback
                0x000000000042b2a0      0x19c 0x4 build_aarch64/sqlite3.o
 .text.sqlite3PcacheDirtyList
                0x000000000042b43c      0x21c 0x4 build_aarch64/sqlite3.o
 .text.sqlite3PcacheRelease
                0x000000000042b658       0xf4 0x4 build_aarch64/sqlite3.o
 .text.readMasterJournal
                0x000000000042b74c      0x1bc 0x4 build_aarch64/sqlite3.o
 .text.pager_reset
                0x000000000042b908      0x15c 0x4 build_aarch64/sqlite3.o
 .text.btreeInitPage
                0x000000000042ba64      0x414 0x4 build_aarch64/sqlite3.o
 .text.cellSizePtr
                0x000000000042be78       0xd4 0x4 build_aarch64/sqlite3.o
 .text.btreeParseCellPtr
                0x000000000042bf4c      0x170 0x4 build_aarch64/sqlite3.o
 .text.cellSizePtrNoPayload
                0x000000000042c0bc       0x1c 0x4 build_aarch64/sqlite3.o
 .text.btreeParseCellPtrNoPayload
                0x000000000042c0d8       0x40 0x4 build_aarch64/sqlite3.o
 .text.btreeParseCellPtrIndex
                0x000000000042c118       0x84 0x4 build_aarch64/sqlite3.o
 .text.btreeParseCellAdjustSizeForOverflow
                0x000000000042c19c       0x4c 0x4 build_aarch64/sqlite3.o
 .text.sqlite3GetVarint
                0x000000000042c1e8      0x1a4 0x4 build_aarch64/sqlite3.o
 .text.pcache1Alloc
                0x000000000042c38c      0x184 0x4 build_aarch64/sqlite3.o
 .text.sqlite3WalClose
                0x000000000042c510      0x408 0x4 build_aarch64/sqlite3.o
 .text.sqlite3WalCheckpoint
                0x000000000042c918      0xfec 0x4 build_aarch64/sqlite3.o
 .text.btreeLockCarefully
                0x000000000042d904       0xfc 0x4 build_aarch64/sqlite3.o
 .text.unlockBtreeMutex
                0x000000000042da00       0x38 0x4 build_aarch64/sqlite3.o
 .text.newDatabase
                0x000000000042da38      0x214 0x4 build_aarch64/sqlite3.o
 .text.sqlite3PagerSharedLock
                0x000000000042dc4c      0x864 0x4 build_aarch64/sqlite3.o
 .text.releasePageOne
                0x000000000042e4b0       0x9c 0x4 build_aarch64/sqlite3.o
 .text.pagerOpenWal
                0x000000000042e54c      0x34c 0x4 build_aarch64/sqlite3.o
 .text.pagerOpenSavepoint
                0x000000000042e898      0x188 0x4 build_aarch64/sqlite3.o
 .text.pagerWriteLargeSector
                0x000000000042ea20      0x37c 0x4 build_aarch64/sqlite3.o
 .text.pager_write
                0x000000000042ed9c      0x428 0x4 build_aarch64/sqlite3.o
 .text.pagerAddPageToRollbackJournal
                0x000000000042f1c4      0x200 0x4 build_aarch64/sqlite3.o
 .text.btreeEndTransaction
                0x000000000042f3c4      0x1f0 0x4 build_aarch64/sqlite3.o
 .text.incrVacuumStep
                0x000000000042f5b4      0x3c4 0x4 build_aarch64/sqlite3.o
 .text.saveCursorsOnList
                0x000000000042f978       0xc0 0x4 build_aarch64/sqlite3.o
 .text.btreeReleaseAllCursorPages
                0x000000000042fa38       0xbc 0x4 build_aarch64/sqlite3.o
 .text.saveCursorKey
                0x000000000042faf4      0x114 0x4 build_aarch64/sqlite3.o
 .text.getCellInfo
                0x000000000042fc08       0x54 0x4 build_aarch64/sqlite3.o
 .text.accessPayload
                0x000000000042fc5c      0x440 0x4 build_aarch64/sqlite3.o
 .text.getOverflowPage
                0x000000000043009c      0x1fc 0x4 build_aarch64/sqlite3.o
 .text.ptrmapGet
                0x0000000000430298      0x1a8 0x4 build_aarch64/sqlite3.o
 .text.allocateBtreePage
                0x0000000000430440     0x1160 0x4 build_aarch64/sqlite3.o
 .text.relocatePage
                0x00000000004315a0      0x920 0x4 build_aarch64/sqlite3.o
 .text.setChildPtrmaps
                0x0000000000431ec0      0x150 0x4 build_aarch64/sqlite3.o
 .text.ptrmapPut
                0x0000000000432010      0x234 0x4 build_aarch64/sqlite3.o
 .text.sqlite3PcacheMove
                0x0000000000432244       0xf8 0x4 build_aarch64/sqlite3.o
 .text.sqlite3BtreeTripAllCursors
                0x000000000043233c      0x1e0 0x4 build_aarch64/sqlite3.o
 .text.freeP4   0x000000000043251c      0x1e8 0x4 build_aarch64/sqlite3.o
 .text.freeP4FuncCtx
                0x0000000000432704      0x200 0x4 build_aarch64/sqlite3.o
 .text.freeP4Mem
                0x0000000000432904      0x110 0x4 build_aarch64/sqlite3.o
 .text.apiOomError
                0x0000000000432a14       0x34 0x4 build_aarch64/sqlite3.o
 .text.sqlite3VdbeHalt
                0x0000000000432a48     0x17cc 0x4 build_aarch64/sqlite3.o
 .text.sqlite3VdbeTransferError
                0x0000000000434214      0x164 0x4 build_aarch64/sqlite3.o
 .text.sqlite3RollbackAll
                0x0000000000434378      0x174 0x4 build_aarch64/sqlite3.o
 .text.sqlite3VdbeFrameRestore
                0x00000000004344ec      0x110 0x4 build_aarch64/sqlite3.o
 .text.sqlite3VdbeFreeCursor
                0x00000000004345fc      0x170 0x4 build_aarch64/sqlite3.o
 .text.sqlite3BtreeClose
                0x000000000043476c      0x3a8 0x4 build_aarch64/sqlite3.o
 .text.sqlite3BtreeCloseCursor
                0x0000000000434b14      0x1fc 0x4 build_aarch64/sqlite3.o
 .text.sqlite3VdbeSorterReset
                0x0000000000434d10      0xb94 0x4 build_aarch64/sqlite3.o
 .text.vdbePmaReaderClear
                0x00000000004358a4       0x44 0x4 build_aarch64/sqlite3.o
 .text.vdbeMergeEngineFree
                0x00000000004358e8       0xf4 0x4 build_aarch64/sqlite3.o
 .text.vdbeSorterJoinThread
                0x00000000004359dc       0xf4 0x4 build_aarch64/sqlite3.o
 .text.vdbeIncrFree
                0x0000000000435ad0       0x58 0x4 build_aarch64/sqlite3.o
 .text.sqlite3OsCloseFree
                0x0000000000435b28       0xc8 0x4 build_aarch64/sqlite3.o
 .text.sqlite3VtabRollback
                0x0000000000435bf0      0x184 0x4 build_aarch64/sqlite3.o
 .text.sqlite3VdbeError
                0x0000000000435d74      0x134 0x4 build_aarch64/sqlite3.o
 .text.vdbeLeave
                0x0000000000435ea8       0xa4 0x4 build_aarch64/sqlite3.o
 .text.sqlite3VtabCommit
                0x0000000000435f4c      0x184 0x4 build_aarch64/sqlite3.o
 .text.vdbeCloseStatement
                0x00000000004360d0      0x23c 0x4 build_aarch64/sqlite3.o
 .text.sqlite3BtreeSavepoint
                0x000000000043630c      0x110 0x4 build_aarch64/sqlite3.o
 .text.vdbeMemClear
                0x000000000043641c      0x124 0x4 build_aarch64/sqlite3.o
 .text.vdbeMemClearExternAndSetNull
                0x0000000000436540      0x188 0x4 build_aarch64/sqlite3.o
 .text.sqlite3VdbeMemGrow
                0x00000000004366c8      0x39c 0x4 build_aarch64/sqlite3.o
 .text.valueBytes
                0x0000000000436a64       0x28 0x4 build_aarch64/sqlite3.o
 .text.valueToText
                0x0000000000436a8c      0x1b4 0x4 build_aarch64/sqlite3.o
 .text.sqlite3VdbeMemStringify
                0x0000000000436c40      0x10c 0x4 build_aarch64/sqlite3.o
 .text.sqlite3VdbeMemTranslate
                0x0000000000436d4c      0x6fc 0x4 build_aarch64/sqlite3.o
 .text.vdbeMemAddTerminator
                0x0000000000437448       0x60 0x4 build_aarch64/sqlite3.o
 .text.memRealValue
                0x00000000004374a8       0x38 0x4 build_aarch64/sqlite3.o
 .text.sqlite3AtoF
                0x00000000004374e0      0x580 0x4 build_aarch64/sqlite3.o
 .text.doubleToInt64
                0x0000000000437a60       0x38 0x4 build_aarch64/sqlite3.o
 .text.memIntValue
                0x0000000000437a98       0x38 0x4 build_aarch64/sqlite3.o
 .text.sqlite3Atoi64
                0x0000000000437ad0      0x290 0x4 build_aarch64/sqlite3.o
 .text.vdbeReleaseAndSetInt64
                0x0000000000437d60       0x50 0x4 build_aarch64/sqlite3.o
 .text.sqlite3NoopDestructor
                0x0000000000437db0        0x4 0x4 build_aarch64/sqlite3.o
 .text.sqlite3VdbeExec
                0x0000000000437db4     0xcff8 0x4 build_aarch64/sqlite3.o
 .text.sqlite3VdbeMemCast
                0x0000000000444dac      0x17c 0x4 build_aarch64/sqlite3.o
 .text.sqlite3MemCompare
                0x0000000000444f28      0x174 0x4 build_aarch64/sqlite3.o
 .text.sqlite3VdbeSerialGet
                0x000000000044509c      0x198 0x4 build_aarch64/sqlite3.o
 .text.sqlite3BtreeCursor
                0x0000000000445234      0x1a8 0x4 build_aarch64/sqlite3.o
 .text.sqlite3BtreeCreateTable
                0x00000000004453dc      0x77c 0x4 build_aarch64/sqlite3.o
 .text.sqlite3BtreeMovetoUnpacked
                0x0000000000445b58      0x680 0x4 build_aarch64/sqlite3.o
 .text.sqlite3BtreeNext
                0x00000000004461d8      0x148 0x4 build_aarch64/sqlite3.o
 .text.sqlite3BtreePrevious
                0x0000000000446320       0x40 0x4 build_aarch64/sqlite3.o
 .text.sqlite3VdbeRecordUnpack
                0x0000000000446360      0x1a4 0x4 build_aarch64/sqlite3.o
 .text.sqlite3BtreeLast
                0x0000000000446504      0x164 0x4 build_aarch64/sqlite3.o
 .text.sqlite3BtreeInsert
                0x0000000000446668      0x948 0x4 build_aarch64/sqlite3.o
 .text.sqlite3BtreeDelete
                0x0000000000446fb0      0x658 0x4 build_aarch64/sqlite3.o
 .text.sqlite3BtreeFirst
                0x0000000000447608      0x120 0x4 build_aarch64/sqlite3.o
 .text.sqlite3BtreeClearTable
                0x0000000000447728      0x134 0x4 build_aarch64/sqlite3.o
 .text.sqlite3SchemaClear
                0x000000000044785c      0x5d8 0x4 build_aarch64/sqlite3.o
 .text.sqlite3InitOne
                0x0000000000447e34      0x83c 0x4 build_aarch64/sqlite3.o
 .text.sqlite3InitCallback
                0x0000000000448670      0x4a8 0x4 build_aarch64/sqlite3.o
 .text.sqlite3AnalysisLoad
                0x0000000000448b18      0x22c 0x4 build_aarch64/sqlite3.o
 .text.sqlite3VdbeMemSetRowSet
                0x0000000000448d44      0x15c 0x4 build_aarch64/sqlite3.o
 .text.sqlite3VdbeFrameMemDel
                0x0000000000448ea0       0x14 0x4 build_aarch64/sqlite3.o
 .text.sqlite3PagerSetJournalMode
                0x0000000000448eb4      0x1c4 0x4 build_aarch64/sqlite3.o
 .text.out2PrereleaseWithClear
                0x0000000000449078       0x4c 0x4 build_aarch64/sqlite3.o
 .text.vdbeClrCopy
                0x00000000004490c4       0x6c 0x4 build_aarch64/sqlite3.o
 .text.computeNumericType
                0x0000000000449130       0x58 0x4 build_aarch64/sqlite3.o
 .text.sqlite3VdbeMemNumerify
                0x0000000000449188       0xb0 0x4 build_aarch64/sqlite3.o
 .text.vdbeCompareMemString
                0x0000000000449238      0x1d0 0x4 build_aarch64/sqlite3.o
 .text.sqlite3BlobCompare
                0x0000000000449408       0xe0 0x4 build_aarch64/sqlite3.o
 .text.handleDeferredMoveto
                0x00000000004494e8       0x8c 0x4 build_aarch64/sqlite3.o
 .text.handleMovedCursor
                0x0000000000449574      0x154 0x4 build_aarch64/sqlite3.o
 .text.btreeMoveto
                0x00000000004496c8      0x1b0 0x4 build_aarch64/sqlite3.o
 .text.vdbeMemFromBtreeResize
                0x0000000000449878       0xd4 0x4 build_aarch64/sqlite3.o
 .text.serialGet
                0x000000000044994c       0x4c 0x4 build_aarch64/sqlite3.o
 .text.putVarint64
                0x0000000000449998      0x120 0x4 build_aarch64/sqlite3.o
 .text.moveToRoot
                0x0000000000449ab8      0x2e4 0x4 build_aarch64/sqlite3.o
 .text.getAndInitPage
                0x0000000000449d9c      0x1dc 0x4 build_aarch64/sqlite3.o
 .text.vdbeRecordCompareInt
                0x0000000000449f78      0x128 0x4 build_aarch64/sqlite3.o
 .text.vdbeRecordCompareString
                0x000000000044a0a0      0x1a4 0x4 build_aarch64/sqlite3.o
 .text.sqlite3VdbeRecordCompare
                0x000000000044a244        0x8 0x4 build_aarch64/sqlite3.o
 .text.sqlite3VdbeRecordCompareWithSkip
                0x000000000044a24c      0x728 0x4 build_aarch64/sqlite3.o
 .text.btreeNext
                0x000000000044a974      0x424 0x4 build_aarch64/sqlite3.o
 .text.btreePrevious
                0x000000000044ad98      0x378 0x4 build_aarch64/sqlite3.o
 .text.btreeOverwriteCell
                0x000000000044b110      0x220 0x4 build_aarch64/sqlite3.o
 .text.clearCell
                0x000000000044b330      0x2a8 0x4 build_aarch64/sqlite3.o
 .text.dropCell
                0x000000000044b5d8      0x154 0x4 build_aarch64/sqlite3.o
 .text.insertCell
                0x000000000044b72c      0x360 0x4 build_aarch64/sqlite3.o
 .text.balance  0x000000000044ba8c     0x2770 0x4 build_aarch64/sqlite3.o
 .text.btreeOverwriteContent
                0x000000000044e1fc      0x1b0 0x4 build_aarch64/sqlite3.o
 .text.freePage2
                0x000000000044e3ac      0x700 0x4 build_aarch64/sqlite3.o
 .text.freeSpace
                0x000000000044eaac      0x324 0x4 build_aarch64/sqlite3.o
 .text.pageFindSlot
                0x000000000044edd0      0x148 0x4 build_aarch64/sqlite3.o
 .text.defragmentPage
                0x000000000044ef18      0x398 0x4 build_aarch64/sqlite3.o
 .text.rebuildPage
                0x000000000044f2b0      0x16c 0x4 build_aarch64/sqlite3.o
 .text.computeCellSize
                0x000000000044f41c       0x3c 0x4 build_aarch64/sqlite3.o
 .text.vdbeSorterSort
                0x000000000044f458      0x3d0 0x4 build_aarch64/sqlite3.o
 .text.vdbeSorterFlushPMA
                0x000000000044f828      0x1c4 0x4 build_aarch64/sqlite3.o
 .text.vdbeSorterSetupMerge
                0x000000000044f9ec     0x4c78 0x4 build_aarch64/sqlite3.o
 .text.vdbeSorterCompareInt
                0x0000000000454664      0x180 0x4 build_aarch64/sqlite3.o
 .text.vdbeSorterCompareText
                0x00000000004547e4      0x1e4 0x4 build_aarch64/sqlite3.o
 .text.vdbeSorterCompare
                0x00000000004549c8       0x68 0x4 build_aarch64/sqlite3.o
 .text.vdbeSorterListToPMA
                0x0000000000454a30      0x524 0x4 build_aarch64/sqlite3.o
 .text.vdbeSorterFlushThread
                0x0000000000454f54       0x30 0x4 build_aarch64/sqlite3.o
 .text.vdbeSorterOpenTempFile
                0x0000000000454f84      0x16c 0x4 build_aarch64/sqlite3.o
 .text.vdbePmaReaderIncrInit
                0x00000000004550f0       0xe8 0x4 build_aarch64/sqlite3.o
 .text.vdbePmaReaderIncrMergeInit
                0x00000000004551d8      0x118 0x4 build_aarch64/sqlite3.o
 .text.vdbeMergeEngineInit
                0x00000000004552f0      0x17c 0x4 build_aarch64/sqlite3.o
 .text.vdbeMergeEngineLevel0
                0x000000000045546c      0x58c 0x4 build_aarch64/sqlite3.o
 .text.vdbePmaReaderSeek
                0x00000000004559f8      0x120 0x4 build_aarch64/sqlite3.o
 .text.vdbePmaReadVarint
                0x0000000000455b18       0xd0 0x4 build_aarch64/sqlite3.o
 .text.vdbePmaReaderNext
                0x0000000000455be8      0x5c8 0x4 build_aarch64/sqlite3.o
 .text.vdbePmaReadBlob
                0x00000000004561b0      0x1a0 0x4 build_aarch64/sqlite3.o
 .text.vdbeIncrPopulate
                0x0000000000456350      0x3a0 0x4 build_aarch64/sqlite3.o
 .text.vdbeIncrPopulateThread
                0x00000000004566f0       0x30 0x4 build_aarch64/sqlite3.o
 .text.vdbeMergeEngineStep
                0x0000000000456720      0x174 0x4 build_aarch64/sqlite3.o
 .text.vdbePmaReaderBgIncrInit
                0x0000000000456894       0x38 0x4 build_aarch64/sqlite3.o
 .text.clearDatabasePage
                0x00000000004568cc      0x3cc 0x4 build_aarch64/sqlite3.o
 .text.corruptSchema
                0x0000000000456c98      0x1dc 0x4 build_aarch64/sqlite3.o
 .text.sqlite3GetInt32
                0x0000000000456e74      0x258 0x4 build_aarch64/sqlite3.o
 .text.sqlite3HashFind
                0x00000000004570cc       0xf8 0x4 build_aarch64/sqlite3.o
 .text.analysisLoader
                0x00000000004571c4      0x2dc 0x4 build_aarch64/sqlite3.o
 .text.decodeIntArray
                0x00000000004574a0      0x2d4 0x4 build_aarch64/sqlite3.o
 .text.sqlite3HashInsert
                0x0000000000457774      0x698 0x4 build_aarch64/sqlite3.o
 .text.sqlite3ExprDeleteNN
                0x0000000000457e0c      0x1b0 0x4 build_aarch64/sqlite3.o
 .text.sqlite3WindowDelete
                0x0000000000457fbc       0x8c 0x4 build_aarch64/sqlite3.o
 .text.clearSelect
                0x0000000000458048      0x23c 0x4 build_aarch64/sqlite3.o
 .text.sqlite3SrcListDelete
                0x0000000000458284      0x324 0x4 build_aarch64/sqlite3.o
 .text.exprListDeleteNN
                0x00000000004585a8      0x16c 0x4 build_aarch64/sqlite3.o
 .text.tableOfTrigger
                0x0000000000458714      0x100 0x4 build_aarch64/sqlite3.o
 .text.checkList
                0x0000000000458814      0x448 0x4 build_aarch64/sqlite3.o
 .text.checkAppendMsg
                0x0000000000458c5c      0x118 0x4 build_aarch64/sqlite3.o
 .text.checkTreePage
                0x0000000000458d74      0x98c 0x4 build_aarch64/sqlite3.o
 .text.sqlite3RowSetDelete
                0x0000000000459700       0x54 0x4 build_aarch64/sqlite3.o
 .text.rowSetTreeToList
                0x0000000000459754       0x6c 0x4 build_aarch64/sqlite3.o
 .text.rowSetNDeepTree
                0x00000000004597c0       0x7c 0x4 build_aarch64/sqlite3.o
 .text.execSql  0x000000000045983c      0x1e0 0x4 build_aarch64/sqlite3.o
 .text.sqlite3BtreeSetPagerFlags
                0x0000000000459a1c      0x128 0x4 build_aarch64/sqlite3.o
 .text.execSqlF
                0x0000000000459b44      0x158 0x4 build_aarch64/sqlite3.o
 .text.vtabCallConstructor
                0x0000000000459c9c      0x6b4 0x4 build_aarch64/sqlite3.o
 .text.sqlite3GetToken
                0x000000000045a350      0x774 0x4 build_aarch64/sqlite3.o
 .text.growOp3  0x000000000045aac4       0x94 0x4 build_aarch64/sqlite3.o
 .text.growOpArray
                0x000000000045ab58      0x1b0 0x4 build_aarch64/sqlite3.o
 .text.vdbeChangeP4Full
                0x000000000045ad08      0x1f8 0x4 build_aarch64/sqlite3.o
 .text.resolveP2Values
                0x000000000045af00      0x138 0x4 build_aarch64/sqlite3.o
 .text.accessPayloadChecked
                0x000000000045b038      0x160 0x4 build_aarch64/sqlite3.o
 .text.sqlite3VtabCreateModule
                0x000000000045b198      0x130 0x4 build_aarch64/sqlite3.o
 .text.pragmaVtabConnect
                0x000000000045b2c8      0x2cc 0x4 build_aarch64/sqlite3.o
 .text.pragmaVtabBestIndex
                0x000000000045b594       0xe8 0x4 build_aarch64/sqlite3.o
 .text.pragmaVtabDisconnect
                0x000000000045b67c       0xb0 0x4 build_aarch64/sqlite3.o
 .text.pragmaVtabOpen
                0x000000000045b72c       0x58 0x4 build_aarch64/sqlite3.o
 .text.pragmaVtabClose
                0x000000000045b784       0xb4 0x4 build_aarch64/sqlite3.o
 .text.pragmaVtabFilter
                0x000000000045b838      0x2fc 0x4 build_aarch64/sqlite3.o
 .text.pragmaVtabNext
                0x000000000045bb34       0x58 0x4 build_aarch64/sqlite3.o
 .text.pragmaVtabEof
                0x000000000045bb8c       0x10 0x4 build_aarch64/sqlite3.o
 .text.pragmaVtabColumn
                0x000000000045bb9c       0x98 0x4 build_aarch64/sqlite3.o
 .text.pragmaVtabRowid
                0x000000000045bc34       0x10 0x4 build_aarch64/sqlite3.o
 .text.pragmaVtabCursorClear
                0x000000000045bc44      0x160 0x4 build_aarch64/sqlite3.o
 .text.sqlite3VtabUnlockList
                0x000000000045bda4       0x94 0x4 build_aarch64/sqlite3.o
 .text.sqlite3CollapseDatabaseArray
                0x000000000045be38       0xec 0x4 build_aarch64/sqlite3.o
 .text.deleteTable
                0x000000000045bf24      0x34c 0x4 build_aarch64/sqlite3.o
 .text.sqlite3VdbeSetNumCols
                0x000000000045c270      0x2e0 0x4 build_aarch64/sqlite3.o
 .text.sqlite3DeleteTriggerStep
                0x000000000045c550      0x220 0x4 build_aarch64/sqlite3.o
 .text.sqlite3ExprCollSeq
                0x000000000045c770      0x188 0x4 build_aarch64/sqlite3.o
 .text.sqlite3FindCollSeq
                0x000000000045c8f8      0x388 0x4 build_aarch64/sqlite3.o
 .text.sqlite3GetCollSeq
                0x000000000045cc80      0x4c4 0x4 build_aarch64/sqlite3.o
 .text.yy_reduce
                0x000000000045d144     0xdcb8 0x4 build_aarch64/sqlite3.o
 .text.yy_destructor
                0x000000000046adfc      0x328 0x4 build_aarch64/sqlite3.o
 .text.sqlite3Savepoint
                0x000000000046b124      0x400 0x4 build_aarch64/sqlite3.o
 .text.sqlite3StartTable
                0x000000000046b524     0x135c 0x4 build_aarch64/sqlite3.o
 .text.sqlite3EndTable
                0x000000000046c880     0x1940 0x4 build_aarch64/sqlite3.o
 .text.sqlite3AddDefaultValue
                0x000000000046e1c0      0x260 0x4 build_aarch64/sqlite3.o
 .text.tokenExpr
                0x000000000046e420      0x250 0x4 build_aarch64/sqlite3.o
 .text.sqlite3AddPrimaryKey
                0x000000000046e670      0x34c 0x4 build_aarch64/sqlite3.o
 .text.sqlite3CreateIndex
                0x000000000046e9bc     0x253c 0x4 build_aarch64/sqlite3.o
 .text.sqlite3CreateForeignKey
                0x0000000000470ef8      0x66c 0x4 build_aarch64/sqlite3.o
 .text.sqlite3DropTable
                0x0000000000471564     0x16e0 0x4 build_aarch64/sqlite3.o
 .text.sqlite3Select
                0x0000000000472c44     0x9780 0x4 build_aarch64/sqlite3.o
 .text.sqlite3SrcListAppendFromTerm
                0x000000000047c3c4      0x418 0x4 build_aarch64/sqlite3.o
 .text.sqlite3SelectNew
                0x000000000047c7dc      0x258 0x4 build_aarch64/sqlite3.o
 .text.sqlite3ExprListAppend
                0x000000000047ca34      0x158 0x4 build_aarch64/sqlite3.o
 .text.sqlite3ExprListSetName
                0x000000000047cb8c      0x238 0x4 build_aarch64/sqlite3.o
 .text.sqlite3ExprAlloc
                0x000000000047cdc4      0x1f8 0x4 build_aarch64/sqlite3.o
 .text.sqlite3SrcListAppend
                0x000000000047cfbc      0x48c 0x4 build_aarch64/sqlite3.o
 .text.sqlite3JoinType
                0x000000000047d448      0x18c 0x4 build_aarch64/sqlite3.o
 .text.sqlite3DeleteFrom
                0x000000000047d5d4     0x1974 0x4 build_aarch64/sqlite3.o
 .text.sqlite3Update
                0x000000000047ef48     0x42f8 0x4 build_aarch64/sqlite3.o
 .text.sqlite3ExprListAppendVector
                0x0000000000483240      0x3b4 0x4 build_aarch64/sqlite3.o
 .text.sqlite3Insert
                0x00000000004835f4     0x52e8 0x4 build_aarch64/sqlite3.o
 .text.sqlite3IdListAppend
                0x00000000004888dc      0x520 0x4 build_aarch64/sqlite3.o
 .text.sqlite3Pragma
                0x0000000000488dfc     0x6350 0x4 build_aarch64/sqlite3.o
 .text.sqlite3Analyze
                0x000000000048f14c      0xa00 0x4 build_aarch64/sqlite3.o
 .text.sqlite3VtabFinishParse
                0x000000000048fb4c      0x75c 0x4 build_aarch64/sqlite3.o
 .text.sqlite3WithAdd
                0x00000000004902a8      0x374 0x4 build_aarch64/sqlite3.o
 .text.sqlite3WindowAlloc
                0x000000000049061c      0x1b8 0x4 build_aarch64/sqlite3.o
 .text.sqlite3OpenTable
                0x00000000004907d4      0x314 0x4 build_aarch64/sqlite3.o
 .text.sqlite3TableLock
                0x0000000000490ae8      0x250 0x4 build_aarch64/sqlite3.o
 .text.sqlite3KeyInfoOfIndex
                0x0000000000490d38      0x3b0 0x4 build_aarch64/sqlite3.o
 .text.sqlite3ExprCodeTarget
                0x00000000004910e8     0x3274 0x4 build_aarch64/sqlite3.o
 .text.codeInteger
                0x000000000049435c      0x48c 0x4 build_aarch64/sqlite3.o
 .text.sqlite3ExprCodeTemp
                0x00000000004947e8      0x12c 0x4 build_aarch64/sqlite3.o
 .text.codeCompare
                0x0000000000494914      0x1ec 0x4 build_aarch64/sqlite3.o
 .text.sqlite3ExprCodeAtInit
                0x0000000000494b00      0x108 0x4 build_aarch64/sqlite3.o
 .text.sqlite3ExprCodeExprList
                0x0000000000494c08      0x254 0x4 build_aarch64/sqlite3.o
 .text.sqlite3VtabOverloadFunction
                0x0000000000494e5c      0x1d8 0x4 build_aarch64/sqlite3.o
 .text.sqlite3CodeSubselect
                0x0000000000495034      0xea8 0x4 build_aarch64/sqlite3.o
 .text.sqlite3ExprCodeIN
                0x0000000000495edc     0x1708 0x4 build_aarch64/sqlite3.o
 .text.sqlite3ExprIfFalse
                0x00000000004975e4      0x944 0x4 build_aarch64/sqlite3.o
 .text.sqlite3ExprCodeGetColumnOfTable
                0x0000000000497f28      0x2c0 0x4 build_aarch64/sqlite3.o
 .text.valueFromExpr
                0x00000000004981e8      0xd84 0x4 build_aarch64/sqlite3.o
 .text.sqlite3ExprAffinity
                0x0000000000498f6c      0x1fc 0x4 build_aarch64/sqlite3.o
 .text.exprNodeIsConstant
                0x0000000000499168      0x168 0x4 build_aarch64/sqlite3.o
 .text.sqlite3SelectWalkFail
                0x00000000004992d0       0x10 0x4 build_aarch64/sqlite3.o
 .text.walkExpr
                0x00000000004992e0      0x280 0x4 build_aarch64/sqlite3.o
 .text.sqlite3WalkSelect
                0x0000000000499560      0x128 0x4 build_aarch64/sqlite3.o
 .text.sqlite3WalkSelectExpr
                0x0000000000499688      0x148 0x4 build_aarch64/sqlite3.o
 .text.sqlite3ExprCompare
                0x00000000004997d0      0x788 0x4 build_aarch64/sqlite3.o
 .text.sqlite3WindowCompare
                0x0000000000499f58      0x1a4 0x4 build_aarch64/sqlite3.o
 .text.exprDup  0x000000000049a0fc      0x3f8 0x4 build_aarch64/sqlite3.o
 .text.dupedExprSize
                0x000000000049a4f4       0xe0 0x4 build_aarch64/sqlite3.o
 .text.sqlite3SelectDup
                0x000000000049a5d4      0x440 0x4 build_aarch64/sqlite3.o
 .text.sqlite3ExprListDup
                0x000000000049aa14      0x394 0x4 build_aarch64/sqlite3.o
 .text.sqlite3WindowDup
                0x000000000049ada8      0x278 0x4 build_aarch64/sqlite3.o
 .text.sqlite3SrcListDup
                0x000000000049b020      0x508 0x4 build_aarch64/sqlite3.o
 .text.sqlite3IdListDup
                0x000000000049b528      0x350 0x4 build_aarch64/sqlite3.o
 .text.sqlite3VdbeExplain
                0x000000000049b878      0x22c 0x4 build_aarch64/sqlite3.o
 .text.exprINAffinity
                0x000000000049baa4      0x234 0x4 build_aarch64/sqlite3.o
 .text.sqlite3ExprIsInteger
                0x000000000049bcd8       0x80 0x4 build_aarch64/sqlite3.o
 .text.sqlite3SetHasNullFlag
                0x000000000049bd58      0x184 0x4 build_aarch64/sqlite3.o
 .text.sqlite3ExprCheckIN
                0x000000000049bedc       0xd8 0x4 build_aarch64/sqlite3.o
 .text.sqlite3FindInIndex
                0x000000000049bfb4      0xb58 0x4 build_aarch64/sqlite3.o
 .text.sqlite3ExprIfTrue
                0x000000000049cb0c      0x954 0x4 build_aarch64/sqlite3.o
 .text.sqlite3CheckObjectName
                0x000000000049d460      0x1dc 0x4 build_aarch64/sqlite3.o
 .text.sqlite3ResultSetOfSelect
                0x000000000049d63c      0x1a4 0x4 build_aarch64/sqlite3.o
 .text.sqlite3TableAffinity
                0x000000000049d7e0      0x1e4 0x4 build_aarch64/sqlite3.o
 .text.sqlite3NestedParse
                0x000000000049d9c4      0x1ec 0x4 build_aarch64/sqlite3.o
 .text.sqlite3ResolveExprNames
                0x000000000049dbb0       0xfc 0x4 build_aarch64/sqlite3.o
 .text.resolveExprStep
                0x000000000049dcac     0x1954 0x4 build_aarch64/sqlite3.o
 .text.resolveSelectStep
                0x000000000049f600      0xcbc 0x4 build_aarch64/sqlite3.o
 .text.sqlite3MatchSpanName
                0x00000000004a02bc      0x1b8 0x4 build_aarch64/sqlite3.o
 .text.resolveAlias
                0x00000000004a0474      0x23c 0x4 build_aarch64/sqlite3.o
 .text.incrAggDepth
                0x00000000004a06b0       0x24 0x4 build_aarch64/sqlite3.o
 .text.sqlite3AuthReadCol
                0x00000000004a06d4      0x108 0x4 build_aarch64/sqlite3.o
 .text.exprSrcCount
                0x00000000004a07dc       0x74 0x4 build_aarch64/sqlite3.o
 .text.sqlite3SelectPrep
                0x00000000004a0850      0x110 0x4 build_aarch64/sqlite3.o
 .text.resolveOrderGroupBy
                0x00000000004a0960      0x2ac 0x4 build_aarch64/sqlite3.o
 .text.sqlite3ExprWalkNoop
                0x00000000004a0c0c        0x8 0x4 build_aarch64/sqlite3.o
 .text.convertCompoundSelectToSubquery
                0x00000000004a0c14      0x220 0x4 build_aarch64/sqlite3.o
 .text.selectExpander
                0x00000000004a0e34     0x1e38 0x4 build_aarch64/sqlite3.o
 .text.selectPopWith
                0x00000000004a2c6c       0x34 0x4 build_aarch64/sqlite3.o
 .text.sqlite3SrcListAssignCursors
                0x00000000004a2ca0       0x90 0x4 build_aarch64/sqlite3.o
 .text.sqlite3ExpandSubquery
                0x00000000004a2d30      0x230 0x4 build_aarch64/sqlite3.o
 .text.sqlite3ViewGetColumnNames
                0x00000000004a2f60      0x414 0x4 build_aarch64/sqlite3.o
 .text.sqlite3ColumnsFromExprList
                0x00000000004a3374      0x70c 0x4 build_aarch64/sqlite3.o
 .text.sqlite3SelectAddColumnTypeAndCollation
                0x00000000004a3a80      0x30c 0x4 build_aarch64/sqlite3.o
 .text.columnTypeImpl
                0x00000000004a3d8c      0x134 0x4 build_aarch64/sqlite3.o
 .text.setJoinExpr
                0x00000000004a3ec0       0xa4 0x4 build_aarch64/sqlite3.o
 .text.sqlite3ExprAnd
                0x00000000004a3f64      0x1d4 0x4 build_aarch64/sqlite3.o
 .text.sqlite3SelectWalkNoop
                0x00000000004a4138        0x8 0x4 build_aarch64/sqlite3.o
 .text.selectAddSubqueryTypeInfo
                0x00000000004a4140       0x90 0x4 build_aarch64/sqlite3.o
 .text.sqlite3ResolveOrderGroupBy
                0x00000000004a41d0       0xf8 0x4 build_aarch64/sqlite3.o
 .text.identPut
                0x00000000004a42c8      0x154 0x4 build_aarch64/sqlite3.o
 .text.renameUnmapExprCb
                0x00000000004a441c       0x34 0x4 build_aarch64/sqlite3.o
 .text.sqlite3FixSrcList
                0x00000000004a4450      0x184 0x4 build_aarch64/sqlite3.o
 .text.sqlite3RefillIndex
                0x00000000004a45d4      0xb24 0x4 build_aarch64/sqlite3.o
 .text.sqlite3FixSelect
                0x00000000004a50f8      0x194 0x4 build_aarch64/sqlite3.o
 .text.sqlite3FixExpr
                0x00000000004a528c      0x100 0x4 build_aarch64/sqlite3.o
 .text.sqlite3GenerateIndexKey
                0x00000000004a538c      0x608 0x4 build_aarch64/sqlite3.o
 .text.sqlite3UniqueConstraint
                0x00000000004a5994      0x4a4 0x4 build_aarch64/sqlite3.o
 .text.sqlite3IndexAffinityStr
                0x00000000004a5e38      0x124 0x4 build_aarch64/sqlite3.o
 .text.sqlite3FkReferences
                0x00000000004a5f5c      0x100 0x4 build_aarch64/sqlite3.o
 .text.sqlite3DropTriggerPtr
                0x00000000004a605c      0x3e4 0x4 build_aarch64/sqlite3.o
 .text.destroyRootPage
                0x00000000004a6440      0x26c 0x4 build_aarch64/sqlite3.o
 .text.unsetJoinExpr
                0x00000000004a66ac       0xbc 0x4 build_aarch64/sqlite3.o
 .text.pushDownWhereTerms
                0x00000000004a6768      0x194 0x4 build_aarch64/sqlite3.o
 .text.computeLimitRegisters
                0x00000000004a68fc      0x690 0x4 build_aarch64/sqlite3.o
 .text.sqlite3WhereBegin
                0x00000000004a6f8c     0x2c24 0x4 build_aarch64/sqlite3.o
 .text.selectInnerLoop
                0x00000000004a9bb0     0x1460 0x4 build_aarch64/sqlite3.o
 .text.sqlite3WhereEnd
                0x00000000004ab010      0xad8 0x4 build_aarch64/sqlite3.o
 .text.updateAccumulator
                0x00000000004abae8      0x694 0x4 build_aarch64/sqlite3.o
 .text.finalizeAggFunctions
                0x00000000004ac17c      0x100 0x4 build_aarch64/sqlite3.o
 .text.resetAccumulator
                0x00000000004ac27c      0x320 0x4 build_aarch64/sqlite3.o
 .text.selectWindowRewriteExprCb
                0x00000000004ac59c      0x174 0x4 build_aarch64/sqlite3.o
 .text.selectWindowRewriteSelectCb
                0x00000000004ac710       0x40 0x4 build_aarch64/sqlite3.o
 .text.impliesNotNullRow
                0x00000000004ac750       0xa4 0x4 build_aarch64/sqlite3.o
 .text.sqlite3SrcListEnlarge
                0x00000000004ac7f4      0x204 0x4 build_aarch64/sqlite3.o
 .text.substSelect
                0x00000000004ac9f8      0x1a0 0x4 build_aarch64/sqlite3.o
 .text.substExpr
                0x00000000004acb98      0x25c 0x4 build_aarch64/sqlite3.o
 .text.generateWithRecursiveQuery
                0x00000000004acdf4      0x9f0 0x4 build_aarch64/sqlite3.o
 .text.multiSelectOrderBy
                0x00000000004ad7e4     0x15a8 0x4 build_aarch64/sqlite3.o
 .text.multiSelectCollSeq
                0x00000000004aed8c       0x78 0x4 build_aarch64/sqlite3.o
 .text.multiSelectOrderByKeyInfo
                0x00000000004aee04      0x244 0x4 build_aarch64/sqlite3.o
 .text.generateOutputSubroutine
                0x00000000004af048      0xae0 0x4 build_aarch64/sqlite3.o
 .text.findConstInWhere
                0x00000000004afb28      0x41c 0x4 build_aarch64/sqlite3.o
 .text.propagateConstantExprRewrite
                0x00000000004aff44       0xdc 0x4 build_aarch64/sqlite3.o
 .text.binCollFunc
                0x00000000004b0020       0xd8 0x4 build_aarch64/sqlite3.o
 .text.heightOfSelect
                0x00000000004b00f8      0x16c 0x4 build_aarch64/sqlite3.o
 .text.sqlite3WhereSplit
                0x00000000004b0264       0xac 0x4 build_aarch64/sqlite3.o
 .text.wherePathSolver
                0x00000000004b0310      0xb5c 0x4 build_aarch64/sqlite3.o
 .text.sqlite3WhereExplainOneScan
                0x00000000004b0e6c      0x598 0x4 build_aarch64/sqlite3.o
 .text.sqlite3WhereCodeOneLoopStart
                0x00000000004b1404     0x41a0 0x4 build_aarch64/sqlite3.o
 .text.whereInfoFree
                0x00000000004b55a4      0x4e4 0x4 build_aarch64/sqlite3.o
 .text.whereClauseInsert
                0x00000000004b5a88      0x280 0x4 build_aarch64/sqlite3.o
 .text.exprAnalyze
                0x00000000004b5d08     0x2f2c 0x4 build_aarch64/sqlite3.o
 .text.exprSelectUsage
                0x00000000004b8c34      0x28c 0x4 build_aarch64/sqlite3.o
 .text.sqlite3WhereExprUsageNN
                0x00000000004b8ec0      0x1a4 0x4 build_aarch64/sqlite3.o
 .text.exprMightBeIndexed2
                0x00000000004b9064      0x15c 0x4 build_aarch64/sqlite3.o
 .text.whereCombineDisjuncts
                0x00000000004b91c0      0x140 0x4 build_aarch64/sqlite3.o
 .text.exprNodeIsDeterministic
                0x00000000004b9300       0x28 0x4 build_aarch64/sqlite3.o
 .text.whereScanNext
                0x00000000004b9328      0x38c 0x4 build_aarch64/sqlite3.o
 .text.sqlite3IndexAffinityOk
                0x00000000004b96b4       0xf0 0x4 build_aarch64/sqlite3.o
 .text.whereLoopAddVirtual
                0x00000000004b97a4      0x8b4 0x4 build_aarch64/sqlite3.o
 .text.whereLoopAddBtree
                0x00000000004ba058      0x8d0 0x4 build_aarch64/sqlite3.o
 .text.whereLoopAddOr
                0x00000000004ba928      0x534 0x4 build_aarch64/sqlite3.o
 .text.whereLoopResize
                0x00000000004bae5c      0x1d8 0x4 build_aarch64/sqlite3.o
 .text.whereLoopAddVirtualOne
                0x00000000004bb034      0x6e4 0x4 build_aarch64/sqlite3.o
 .text.whereLoopInsert
                0x00000000004bb718      0x938 0x4 build_aarch64/sqlite3.o
 .text.whereLoopFindLesser
                0x00000000004bc050       0xe4 0x4 build_aarch64/sqlite3.o
 .text.whereUsablePartialIndex
                0x00000000004bc134       0xe4 0x4 build_aarch64/sqlite3.o
 .text.whereLoopOutputAdjust
                0x00000000004bc218      0x180 0x4 build_aarch64/sqlite3.o
 .text.whereLoopAddBtreeIndex
                0x00000000004bc398      0xaec 0x4 build_aarch64/sqlite3.o
 .text.sqlite3ExprImpliesExpr
                0x00000000004bce84       0xe8 0x4 build_aarch64/sqlite3.o
 .text.exprIdxCover
                0x00000000004bcf6c       0x74 0x4 build_aarch64/sqlite3.o
 .text.whereRangeVectorLen
                0x00000000004bcfe0      0x280 0x4 build_aarch64/sqlite3.o
 .text.wherePathSatisfiesOrderBy
                0x00000000004bd260      0x904 0x4 build_aarch64/sqlite3.o
 .text.explainAppendTerm
                0x00000000004bdb64      0x424 0x4 build_aarch64/sqlite3.o
 .text.codeEqualityTerm
                0x00000000004bdf88      0xb08 0x4 build_aarch64/sqlite3.o
 .text.codeExprOrVector
                0x00000000004bea90      0x29c 0x4 build_aarch64/sqlite3.o
 .text.updateRangeAffinityStr
                0x00000000004bed2c      0x1f0 0x4 build_aarch64/sqlite3.o
 .text.whereIndexExprTransNode
                0x00000000004bef1c       0x5c 0x4 build_aarch64/sqlite3.o
 .text.sqlite3WhereClauseClear
                0x00000000004bef78       0xc8 0x4 build_aarch64/sqlite3.o
 .text.windowCodeRowExprStep
                0x00000000004bf040     0x13b4 0x4 build_aarch64/sqlite3.o
 .text.windowPartitionCache
                0x00000000004c03f4      0x734 0x4 build_aarch64/sqlite3.o
 .text.windowCheckIntValue
                0x00000000004c0b28      0x374 0x4 build_aarch64/sqlite3.o
 .text.windowInitAccum
                0x00000000004c0e9c      0x3d4 0x4 build_aarch64/sqlite3.o
 .text.windowAggStep
                0x00000000004c1270      0x96c 0x4 build_aarch64/sqlite3.o
 .text.windowAggFinal
                0x00000000004c1bdc      0x518 0x4 build_aarch64/sqlite3.o
 .text.windowReturnOneRow
                0x00000000004c20f4      0xb08 0x4 build_aarch64/sqlite3.o
 .text.windowReturnRows
                0x00000000004c2bfc      0x328 0x4 build_aarch64/sqlite3.o
 .text.codeDistinct
                0x00000000004c2f24      0x1f4 0x4 build_aarch64/sqlite3.o
 .text.pushOntoSorter
                0x00000000004c3118      0xdc4 0x4 build_aarch64/sqlite3.o
 .text.havingToWhereExprCb
                0x00000000004c3edc      0x110 0x4 build_aarch64/sqlite3.o
 .text.exprNodeIsConstantOrGroupBy
                0x00000000004c3fec       0xfc 0x4 build_aarch64/sqlite3.o
 .text.analyzeAggregate
                0x00000000004c40e8      0x504 0x4 build_aarch64/sqlite3.o
 .text.analyzeAggregatesInSelect
                0x00000000004c45ec       0x14 0x4 build_aarch64/sqlite3.o
 .text.analyzeAggregatesInSelectEnd
                0x00000000004c4600       0x10 0x4 build_aarch64/sqlite3.o
 .text.sqlite3MaterializeView
                0x00000000004c4610      0x2b0 0x4 build_aarch64/sqlite3.o
 .text.sqlite3OpenTableAndIndices
                0x00000000004c48c0      0x3e4 0x4 build_aarch64/sqlite3.o
 .text.sqlite3VtabMakeWritable
                0x00000000004c4ca4       0xe0 0x4 build_aarch64/sqlite3.o
 .text.sqlite3GenerateRowDelete
                0x00000000004c4d84      0xcb8 0x4 build_aarch64/sqlite3.o
 .text.sqlite3FkOldmask
                0x00000000004c5a3c      0x244 0x4 build_aarch64/sqlite3.o
 .text.sqlite3FkCheck
                0x00000000004c5c80      0x84c 0x4 build_aarch64/sqlite3.o
 .text.sqlite3GenerateRowIndexDelete
                0x00000000004c64cc      0x1a0 0x4 build_aarch64/sqlite3.o
 .text.sqlite3FkActions
                0x00000000004c666c     0x161c 0x4 build_aarch64/sqlite3.o
 .text.codeRowTrigger
                0x00000000004c7c88      0xe6c 0x4 build_aarch64/sqlite3.o
 .text.targetSrcList
                0x00000000004c8af4      0x234 0x4 build_aarch64/sqlite3.o
 .text.sqlite3FkLocateIndex
                0x00000000004c8d28      0x3b4 0x4 build_aarch64/sqlite3.o
 .text.fkLookupParent
                0x00000000004c90dc      0xf1c 0x4 build_aarch64/sqlite3.o
 .text.fkScanChildren
                0x00000000004c9ff8      0xaf4 0x4 build_aarch64/sqlite3.o
 .text.exprTableRegister
                0x00000000004caaec      0x118 0x4 build_aarch64/sqlite3.o
 .text.autoIncrementEnd
                0x00000000004cac04      0x208 0x4 build_aarch64/sqlite3.o
 .text.sqlite3GenerateConstraintChecks
                0x00000000004cae0c     0x2888 0x4 build_aarch64/sqlite3.o
 .text.sqlite3CompleteInsertion
                0x00000000004cd694      0x4d0 0x4 build_aarch64/sqlite3.o
 .text.checkConstraintExprNode
                0x00000000004cdb64       0x40 0x4 build_aarch64/sqlite3.o
 .text.autoIncBegin
                0x00000000004cdba4      0x16c 0x4 build_aarch64/sqlite3.o
 .text.xferCompatibleIndex
                0x00000000004cdd10      0x16c 0x4 build_aarch64/sqlite3.o
 .text.exprSetHeight
                0x00000000004cde7c      0x1e8 0x4 build_aarch64/sqlite3.o
 .text.returnSingleInt
                0x00000000004ce064      0x1fc 0x4 build_aarch64/sqlite3.o
 .text.getSafetyLevel
                0x00000000004ce260      0x198 0x4 build_aarch64/sqlite3.o
 .text.sqlite3VdbeMultiLoad
                0x00000000004ce3f8      0x264 0x4 build_aarch64/sqlite3.o
 .text.integrityCheckResultRow
                0x00000000004ce65c      0x13c 0x4 build_aarch64/sqlite3.o
 .text.likeFunc
                0x00000000004ce798      0x2fc 0x4 build_aarch64/sqlite3.o
 .text.triggerStepAllocate
                0x00000000004cea94      0x398 0x4 build_aarch64/sqlite3.o
 .text.attachFunc
                0x00000000004cee2c      0x9e8 0x4 build_aarch64/sqlite3.o
 .text.codeAttach
                0x00000000004cf814      0x8d8 0x4 build_aarch64/sqlite3.o
 .text.sqlite3ParseUri
                0x00000000004d00ec      0x74c 0x4 build_aarch64/sqlite3.o
 .text.sqlite3SchemaGet
                0x00000000004d0838      0x164 0x4 build_aarch64/sqlite3.o
 .text.detachFunc
                0x00000000004d099c      0x268 0x4 build_aarch64/sqlite3.o
 .text.reindexTable
                0x00000000004d0c04      0x178 0x4 build_aarch64/sqlite3.o
 .text.analyzeDatabase
                0x00000000004d0d7c      0x280 0x4 build_aarch64/sqlite3.o
 .text.analyzeTable
                0x00000000004d0ffc      0x2a4 0x4 build_aarch64/sqlite3.o
 .text.openStatTable
                0x00000000004d12a0      0x36c 0x4 build_aarch64/sqlite3.o
 .text.analyzeOneTable
                0x00000000004d160c     0x158c 0x4 build_aarch64/sqlite3.o
 .text.statInit
                0x00000000004d2b98      0x26c 0x4 build_aarch64/sqlite3.o
 .text.stat4Destructor
                0x00000000004d2e04        0xc 0x4 build_aarch64/sqlite3.o
 .text.statPush
                0x00000000004d2e10      0x16c 0x4 build_aarch64/sqlite3.o
 .text.statGet  0x00000000004d2f7c      0x1cc 0x4 build_aarch64/sqlite3.o
 .text.isSystemTable
                0x00000000004d3148      0x1bc 0x4 build_aarch64/sqlite3.o
 .text.loadExt  0x00000000004d3304      0x1d4 0x4 build_aarch64/sqlite3.o
 .text.compileoptionusedFunc
                0x00000000004d34d8       0x98 0x4 build_aarch64/sqlite3.o
 .text.compileoptiongetFunc
                0x00000000004d3570       0xd0 0x4 build_aarch64/sqlite3.o
 .text.versionFunc
                0x00000000004d3640       0x6c 0x4 build_aarch64/sqlite3.o
 .text.trimFunc
                0x00000000004d36ac      0x4ac 0x4 build_aarch64/sqlite3.o
 .text.minmaxFunc
                0x00000000004d3b58       0xe8 0x4 build_aarch64/sqlite3.o
 .text.minmaxStep
                0x00000000004d3c40      0x1cc 0x4 build_aarch64/sqlite3.o
 .text.minMaxFinalize
                0x00000000004d3e0c       0x80 0x4 build_aarch64/sqlite3.o
 .text.minMaxValue
                0x00000000004d3e8c       0x5c 0x4 build_aarch64/sqlite3.o
 .text.typeofFunc
                0x00000000004d3ee8       0x8c 0x4 build_aarch64/sqlite3.o
 .text.lengthFunc
                0x00000000004d3f74      0x1a0 0x4 build_aarch64/sqlite3.o
 .text.instrFunc
                0x00000000004d4114      0x2c0 0x4 build_aarch64/sqlite3.o
 .text.printfFunc
                0x00000000004d43d4      0x134 0x4 build_aarch64/sqlite3.o
 .text.unicodeFunc
                0x00000000004d4508      0x100 0x4 build_aarch64/sqlite3.o
 .text.charFunc
                0x00000000004d4608      0x2d8 0x4 build_aarch64/sqlite3.o
 .text.absFunc  0x00000000004d48e0      0x1e4 0x4 build_aarch64/sqlite3.o
 .text.roundFunc
                0x00000000004d4ac4      0x2d4 0x4 build_aarch64/sqlite3.o
 .text.upperFunc
                0x00000000004d4d98      0x1fc 0x4 build_aarch64/sqlite3.o
 .text.lowerFunc
                0x00000000004d4f94      0x1f0 0x4 build_aarch64/sqlite3.o
 .text.hexFunc  0x00000000004d5184      0x1c4 0x4 build_aarch64/sqlite3.o
 .text.randomFunc
                0x00000000004d5348       0x64 0x4 build_aarch64/sqlite3.o
 .text.randomBlob
                0x00000000004d53ac      0x17c 0x4 build_aarch64/sqlite3.o
 .text.nullifFunc
                0x00000000004d5528       0x58 0x4 build_aarch64/sqlite3.o
 .text.sourceidFunc
                0x00000000004d5580       0x6c 0x4 build_aarch64/sqlite3.o
 .text.errlogFunc
                0x00000000004d55ec       0xb8 0x4 build_aarch64/sqlite3.o
 .text.quoteFunc
                0x00000000004d56a4      0x514 0x4 build_aarch64/sqlite3.o
 .text.last_insert_rowid
                0x00000000004d5bb8       0x30 0x4 build_aarch64/sqlite3.o
 .text.changes  0x00000000004d5be8       0x30 0x4 build_aarch64/sqlite3.o
 .text.total_changes
                0x00000000004d5c18       0x30 0x4 build_aarch64/sqlite3.o
 .text.replaceFunc
                0x00000000004d5c48      0x62c 0x4 build_aarch64/sqlite3.o
 .text.zeroblobFunc
                0x00000000004d6274       0xf4 0x4 build_aarch64/sqlite3.o
 .text.substrFunc
                0x00000000004d6368      0x3b4 0x4 build_aarch64/sqlite3.o
 .text.sumStep  0x00000000004d671c      0x15c 0x4 build_aarch64/sqlite3.o
 .text.sumFinalize
                0x00000000004d6878      0x128 0x4 build_aarch64/sqlite3.o
 .text.sumInverse
                0x00000000004d69a0      0x110 0x4 build_aarch64/sqlite3.o
 .text.totalFinalize
                0x00000000004d6ab0       0xac 0x4 build_aarch64/sqlite3.o
 .text.avgFinalize
                0x00000000004d6b5c       0xbc 0x4 build_aarch64/sqlite3.o
 .text.countStep
                0x00000000004d6c18       0x70 0x4 build_aarch64/sqlite3.o
 .text.countFinalize
                0x00000000004d6c88       0x78 0x4 build_aarch64/sqlite3.o
 .text.countInverse
                0x00000000004d6d00       0x70 0x4 build_aarch64/sqlite3.o
 .text.groupConcatStep
                0x00000000004d6d70      0x2a0 0x4 build_aarch64/sqlite3.o
 .text.groupConcatFinalize
                0x00000000004d7010      0x140 0x4 build_aarch64/sqlite3.o
 .text.groupConcatValue
                0x00000000004d7150      0x128 0x4 build_aarch64/sqlite3.o
 .text.groupConcatInverse
                0x00000000004d7278      0x164 0x4 build_aarch64/sqlite3.o
 .text.renameColumnFunc
                0x00000000004d73dc      0xfd0 0x4 build_aarch64/sqlite3.o
 .text.renameTableFunc
                0x00000000004d83ac      0xad4 0x4 build_aarch64/sqlite3.o
 .text.renameTableTest
                0x00000000004d8e80      0x65c 0x4 build_aarch64/sqlite3.o
 .text.renameColumnExprCb
                0x00000000004d94dc       0xcc 0x4 build_aarch64/sqlite3.o
 .text.renameColumnSelectCb
                0x00000000004d95a8        0x8 0x4 build_aarch64/sqlite3.o
 .text.renameResolveTrigger
                0x00000000004d95b0      0x7c0 0x4 build_aarch64/sqlite3.o
 .text.renameWalkTrigger
                0x00000000004d9d70      0x168 0x4 build_aarch64/sqlite3.o
 .text.renameEditSql
                0x00000000004d9ed8      0x394 0x4 build_aarch64/sqlite3.o
 .text.renameParseCleanup
                0x00000000004da26c      0x26c 0x4 build_aarch64/sqlite3.o
 .text.renameTableExprCb
                0x00000000004da4d8       0x6c 0x4 build_aarch64/sqlite3.o
 .text.renameTableSelectCb
                0x00000000004da544       0x98 0x4 build_aarch64/sqlite3.o
 .text.row_numberStepFunc
                0x00000000004da5dc       0x40 0x4 build_aarch64/sqlite3.o
 .text.row_numberValueFunc
                0x00000000004da61c       0x78 0x4 build_aarch64/sqlite3.o
 .text.noopStepFunc
                0x00000000004da694        0x4 0x4 build_aarch64/sqlite3.o
 .text.dense_rankStepFunc
                0x00000000004da698       0x3c 0x4 build_aarch64/sqlite3.o
 .text.dense_rankValueFunc
                0x00000000004da6d4       0x80 0x4 build_aarch64/sqlite3.o
 .text.rankStepFunc
                0x00000000004da754       0x50 0x4 build_aarch64/sqlite3.o
 .text.rankValueFunc
                0x00000000004da7a4       0x78 0x4 build_aarch64/sqlite3.o
 .text.percent_rankStepFunc
                0x00000000004da81c       0xa0 0x4 build_aarch64/sqlite3.o
 .text.percent_rankValueFunc
                0x00000000004da8bc      0x11c 0x4 build_aarch64/sqlite3.o
 .text.cume_distStepFunc
                0x00000000004da9d8       0x98 0x4 build_aarch64/sqlite3.o
 .text.cume_distValueFunc
                0x00000000004daa70       0xbc 0x4 build_aarch64/sqlite3.o
 .text.ntileStepFunc
                0x00000000004dab2c      0x11c 0x4 build_aarch64/sqlite3.o
 .text.ntileValueFunc
                0x00000000004dac48      0x110 0x4 build_aarch64/sqlite3.o
 .text.last_valueStepFunc
                0x00000000004dad58       0xe8 0x4 build_aarch64/sqlite3.o
 .text.last_valueFinalizeFunc
                0x00000000004dae40       0x64 0x4 build_aarch64/sqlite3.o
 .text.last_valueValueFunc
                0x00000000004daea4       0x58 0x4 build_aarch64/sqlite3.o
 .text.last_valueInvFunc
                0x00000000004daefc       0x5c 0x4 build_aarch64/sqlite3.o
 .text.noopValueFunc
                0x00000000004daf58        0x4 0x4 build_aarch64/sqlite3.o
 .text.juliandayFunc
                0x00000000004daf5c      0x23c 0x4 build_aarch64/sqlite3.o
 .text.dateFunc
                0x00000000004db198      0x200 0x4 build_aarch64/sqlite3.o
 .text.timeFunc
                0x00000000004db398      0x2a0 0x4 build_aarch64/sqlite3.o
 .text.datetimeFunc
                0x00000000004db638       0xa8 0x4 build_aarch64/sqlite3.o
 .text.strftimeFunc
                0x00000000004db6e0      0x808 0x4 build_aarch64/sqlite3.o
 .text.ctimeFunc
                0x00000000004dbee8        0xc 0x4 build_aarch64/sqlite3.o
 .text.ctimestampFunc
                0x00000000004dbef4        0xc 0x4 build_aarch64/sqlite3.o
 .text.cdateFunc
                0x00000000004dbf00        0xc 0x4 build_aarch64/sqlite3.o
 .text.isDate   0x00000000004dbf0c      0xfa4 0x4 build_aarch64/sqlite3.o
 .text.computeJD
                0x00000000004dceb0      0x19c 0x4 build_aarch64/sqlite3.o
 .text.parseHhMmSs
                0x00000000004dd04c      0x1e4 0x4 build_aarch64/sqlite3.o
 .text.getDigits
                0x00000000004dd230      0x128 0x4 build_aarch64/sqlite3.o
 .text.localtimeOffset
                0x00000000004dd358      0x458 0x4 build_aarch64/sqlite3.o
 .text.computeYMD_HMS
                0x00000000004dd7b0      0x250 0x4 build_aarch64/sqlite3.o
 .text.sqlite3MemMalloc
                0x00000000004dda00       0x50 0x4 build_aarch64/sqlite3.o
 .text.sqlite3MemFree
                0x00000000004dda50        0x8 0x4 build_aarch64/sqlite3.o
 .text.sqlite3MemRealloc
                0x00000000004dda58       0x5c 0x4 build_aarch64/sqlite3.o
 .text.sqlite3MemSize
                0x00000000004ddab4        0x8 0x4 build_aarch64/sqlite3.o
 .text.sqlite3MemRoundup
                0x00000000004ddabc        0xc 0x4 build_aarch64/sqlite3.o
 .text.sqlite3MemInit
                0x00000000004ddac8        0x8 0x4 build_aarch64/sqlite3.o
 .text.sqlite3MemShutdown
                0x00000000004ddad0        0x4 0x4 build_aarch64/sqlite3.o
 .text.pcache1Init
                0x00000000004ddad4       0xf4 0x4 build_aarch64/sqlite3.o
 .text.pcache1Shutdown
                0x00000000004ddbc8       0x24 0x4 build_aarch64/sqlite3.o
 .text.pcache1Create
                0x00000000004ddbec      0x10c 0x4 build_aarch64/sqlite3.o
 .text.pcache1Cachesize
                0x00000000004ddcf8      0x1cc 0x4 build_aarch64/sqlite3.o
 .text.pcache1Pagecount
                0x00000000004ddec4        0x8 0x4 build_aarch64/sqlite3.o
 .text.pcache1Fetch
                0x00000000004ddecc       0x78 0x4 build_aarch64/sqlite3.o
 .text.pcache1Unpin
                0x00000000004ddf44       0xd0 0x4 build_aarch64/sqlite3.o
 .text.pcache1Rekey
                0x00000000004de014       0x64 0x4 build_aarch64/sqlite3.o
 .text.pcache1Truncate
                0x00000000004de078      0x140 0x4 build_aarch64/sqlite3.o
 .text.pcache1Destroy
                0x00000000004de1b8      0x468 0x4 build_aarch64/sqlite3.o
 .text.pcache1Shrink
                0x00000000004de620      0x1a4 0x4 build_aarch64/sqlite3.o
 .text.pcache1ResizeHash
                0x00000000004de7c4      0x188 0x4 build_aarch64/sqlite3.o
 .text.pcache1FetchStage2
                0x00000000004de94c      0x3a4 0x4 build_aarch64/sqlite3.o
 .text.nocaseCollatingFunc
                0x00000000004decf0       0x90 0x4 build_aarch64/sqlite3.o
 .text          0x00000000004ded80        0x0 0x4 build_aarch64/util.o
 .text.now_micros
                0x00000000004ded80       0x34 0x4 build_aarch64/util.o
                0x00000000004ded80                now_micros
 .text.starts_with
                0x00000000004dedb4       0x64 0x4 build_aarch64/util.o
                0x00000000004dedb4                starts_with
 .text.trim_space
                0x00000000004dee18       0xc4 0x4 build_aarch64/util.o
                0x00000000004dee18                trim_space
 .text          0x00000000004deedc       0x1c 0x4 /usr/local/popcorn/aarch64/lib/crt1.o
                0x00000000004deedc                _start
 .text._start_c
                0x00000000004deef8       0x30 0x4 /usr/local/popcorn/aarch64/lib/crt1.o
                0x00000000004deef8                _start_c
 .text          0x00000000004def28        0x0 0x4 /usr/local/popcorn/aarch64/lib/libc.a(sysconf.o)
 .text.sysconf  0x00000000004def28      0x1cc 0x4 /usr/local/popcorn/aarch64/lib/libc.a(sysconf.o)
                0x00000000004def28                sysconf
 .text          0x00000000004df0f4        0x0 0x4 /usr/local/popcorn/aarch64/lib/libc.a(closedir.o)
 .text.closedir
                0x00000000004df0f4       0x34 0x4 /usr/local/popcorn/aarch64/lib/libc.a(closedir.o)
                0x00000000004df0f4                closedir
 .text          0x00000000004df128        0x0 0x4 /usr/local/popcorn/aarch64/lib/libc.a(opendir.o)
 .text.opendir  0x00000000004df128       0x54 0x4 /usr/local/popcorn/aarch64/lib/libc.a(opendir.o)
                0x00000000004df128                opendir
 .text          0x00000000004df17c        0x0 0x4 /usr/local/popcorn/aarch64/lib/libc.a(readdir.o)
 .text.readdir  0x00000000004df17c       0xa4 0x4 /usr/local/popcorn/aarch64/lib/libc.a(readdir.o)
                0x00000000004df17c                readdir
                0x00000000004df17c                readdir64
 .text          0x00000000004df220        0x0 0x4 /usr/local/popcorn/aarch64/lib/libc.a(__libc_start_main.o)
 .text.dummy    0x00000000004df220        0x4 0x4 /usr/local/popcorn/aarch64/lib/libc.a(__libc_start_main.o)
                0x00000000004df220                _init
 .text.dummy1   0x00000000004df224        0x4 0x4 /usr/local/popcorn/aarch64/lib/libc.a(__libc_start_main.o)
                0x00000000004df224                __init_ssp
 .text.__init_libc
                0x00000000004df228      0x1e0 0x4 /usr/local/popcorn/aarch64/lib/libc.a(__libc_start_main.o)
                0x00000000004df228                __init_libc
 .text.libc_start_init
                0x00000000004df408       0x4c 0x4 /usr/local/popcorn/aarch64/lib/libc.a(__libc_start_main.o)
                0x00000000004df408                __libc_start_init
 .text.__libc_start_main
                0x00000000004df454       0x50 0x4 /usr/local/popcorn/aarch64/lib/libc.a(__libc_start_main.o)
                0x00000000004df454                __libc_start_main
 .text          0x00000000004df4a4        0x0 0x4 /usr/local/popcorn/aarch64/lib/libc.a(getenv.o)
 .text.getenv   0x00000000004df4a4       0x8c 0x4 /usr/local/popcorn/aarch64/lib/libc.a(getenv.o)
                0x00000000004df4a4                getenv
 .text          0x00000000004df530        0x0 0x4 /usr/local/popcorn/aarch64/lib/libc.a(__errno_location.o)
 .text.__errno_location
                0x00000000004df530        0xc 0x4 /usr/local/popcorn/aarch64/lib/libc.a(__errno_location.o)
                0x00000000004df530                __errno_location
 .text          0x00000000004df53c        0x0 0x4 /usr/local/popcorn/aarch64/lib/libc.a(exit.o)
 .text.libc_exit_fini
                0x00000000004df53c       0x48 0x4 /usr/local/popcorn/aarch64/lib/libc.a(exit.o)
                0x00000000004df53c                __libc_exit_fini
 .text.dummy    0x00000000004df584        0x4 0x4 /usr/local/popcorn/aarch64/lib/libc.a(exit.o)
                0x00000000004df584                __funcs_on_exit
                0x00000000004df584                _fini
 .text          0x00000000004df588        0x0 0x4 /usr/local/popcorn/aarch64/lib/libc.a(fcntl.o)
 .text.fcntl    0x00000000004df588      0x224 0x4 /usr/local/popcorn/aarch64/lib/libc.a(fcntl.o)
                0x00000000004df588                fcntl
 .text          0x00000000004df7ac        0x0 0x4 /usr/local/popcorn/aarch64/lib/libc.a(open.o)
 .text.open     0x00000000004df7ac      0x108 0x4 /usr/local/popcorn/aarch64/lib/libc.a(open.o)
                0x00000000004df7ac                open
                0x00000000004df7ac                open64
 .text          0x00000000004df8b4        0x0 0x4 /usr/local/popcorn/aarch64/lib/libc.a(libc.o)
 .text          0x00000000004df8b4        0x0 0x4 /usr/local/popcorn/aarch64/lib/libc.a(syscall_ret.o)
 .text.__syscall_ret
                0x00000000004df8b4       0x30 0x4 /usr/local/popcorn/aarch64/lib/libc.a(syscall_ret.o)
                0x00000000004df8b4                __syscall_ret
 .text          0x00000000004df8e4        0x0 0x4 /usr/local/popcorn/aarch64/lib/libc.a(dlsym.o)
 .text.dlsym    0x00000000004df8f0        0x8 0x10 /usr/local/popcorn/aarch64/lib/libc.a(dlsym.o)
                0x00000000004df8f0                dlsym
 .text          0x00000000004df8f8        0x0 0x4 /usr/local/popcorn/aarch64/lib/libc.a(dlclose.o)
 .text.dlclose  0x00000000004df8f8        0x4 0x4 /usr/local/popcorn/aarch64/lib/libc.a(dlclose.o)
                0x00000000004df8f8                dlclose
 .text          0x00000000004df8fc        0x0 0x4 /usr/local/popcorn/aarch64/lib/libc.a(dlerror.o)
 .text.dlerror  0x00000000004df8fc       0x34 0x4 /usr/local/popcorn/aarch64/lib/libc.a(dlerror.o)
                0x00000000004df8fc                dlerror
 .text.__dl_thread_cleanup
                0x00000000004df930       0x24 0x4 /usr/local/popcorn/aarch64/lib/libc.a(dlerror.o)
                0x00000000004df930                __dl_thread_cleanup
 .text.__dl_vseterr
                0x00000000004df954       0xbc 0x4 /usr/local/popcorn/aarch64/lib/libc.a(dlerror.o)
                0x00000000004df954                __dl_vseterr
 .text.__dl_seterr
                0x00000000004dfa10       0x74 0x4 /usr/local/popcorn/aarch64/lib/libc.a(dlerror.o)
                0x00000000004dfa10                __dl_seterr
 .text.stub_invalid_handle
                0x00000000004dfa84       0x24 0x4 /usr/local/popcorn/aarch64/lib/libc.a(dlerror.o)
                0x00000000004dfa84                __dl_invalid_handle
 .text          0x00000000004dfaa8        0x0 0x4 /usr/local/popcorn/aarch64/lib/libc.a(dlopen.o)
 .text.stub_dlopen
                0x00000000004dfaa8       0x20 0x4 /usr/local/popcorn/aarch64/lib/libc.a(dlopen.o)
                0x00000000004dfaa8                dlopen
 .text          0x00000000004dfac8        0x0 0x4 /usr/local/popcorn/aarch64/lib/libc.a(sysinfo.o)
 .text.__lsysinfo
                0x00000000004dfac8       0x1c 0x4 /usr/local/popcorn/aarch64/lib/libc.a(sysinfo.o)
                0x00000000004dfac8                __lsysinfo
                0x00000000004dfac8                sysinfo
 .text          0x00000000004dfae4        0x0 0x4 /usr/local/popcorn/aarch64/lib/libc.a(utimes.o)
 .text.utimes   0x00000000004dfae4       0x14 0x4 /usr/local/popcorn/aarch64/lib/libc.a(utimes.o)
                0x00000000004dfae4                utimes
 .text          0x00000000004dfaf8        0x0 0x4 /usr/local/popcorn/aarch64/lib/libc.a(calloc.o)
 .text.calloc   0x00000000004dfaf8       0x48 0x4 /usr/local/popcorn/aarch64/lib/libc.a(calloc.o)
                0x00000000004dfaf8                calloc
 .text.popcorn_calloc
                0x00000000004dfb40       0x4c 0x4 /usr/local/popcorn/aarch64/lib/libc.a(calloc.o)
                0x00000000004dfb40                popcorn_calloc
 .text.popcorn_calloc_cur
                0x00000000004dfb8c       0x64 0x4 /usr/local/popcorn/aarch64/lib/libc.a(calloc.o)
                0x00000000004dfb8c                popcorn_calloc_cur
 .text          0x00000000004dfbf0        0x0 0x4 /usr/local/popcorn/aarch64/lib/libc.a(lite_malloc.o)
 .text.__simple_malloc
                0x00000000004dfbf0      0x110 0x4 /usr/local/popcorn/aarch64/lib/libc.a(lite_malloc.o)
 .text          0x00000000004dfd00        0x0 0x4 /usr/local/popcorn/aarch64/lib/libc.a(malloc.o)
 .text.__init_malloc
                0x00000000004dfd00       0x14 0x4 /usr/local/popcorn/aarch64/lib/libc.a(malloc.o)
 .text.malloc   0x00000000004dfd14      0x61c 0x4 /usr/local/popcorn/aarch64/lib/libc.a(malloc.o)
                0x00000000004dfd14                malloc
 .text.alloc_rev
                0x00000000004e0330       0xc8 0x4 /usr/local/popcorn/aarch64/lib/libc.a(malloc.o)
 .text.lock_bin
                0x00000000004e03f8       0xc8 0x4 /usr/local/popcorn/aarch64/lib/libc.a(malloc.o)
 .text.unbin    0x00000000004e04c0       0x9c 0x4 /usr/local/popcorn/aarch64/lib/libc.a(malloc.o)
 .text.unlock_bin
                0x00000000004e055c       0x74 0x4 /usr/local/popcorn/aarch64/lib/libc.a(malloc.o)
 .text.__malloc0
                0x00000000004e05d0      0x128 0x4 /usr/local/popcorn/aarch64/lib/libc.a(malloc.o)
                0x00000000004e05d0                __malloc0
 .text.realloc  0x00000000004e06f8      0x258 0x4 /usr/local/popcorn/aarch64/lib/libc.a(malloc.o)
                0x00000000004e06f8                realloc
 .text.free     0x00000000004e0950      0x500 0x4 /usr/local/popcorn/aarch64/lib/libc.a(malloc.o)
                0x00000000004e0950                free
 .text.alloc_fwd
                0x00000000004e0e50       0xc8 0x4 /usr/local/popcorn/aarch64/lib/libc.a(malloc.o)
 .text          0x00000000004e0f18        0x0 0x4 /usr/local/popcorn/aarch64/lib/libc.a(popcorn_malloc.o)
 .text.__init_malloc
                0x00000000004e0f18       0x14 0x4 /usr/local/popcorn/aarch64/lib/libc.a(popcorn_malloc.o)
 .text.popcorn_malloc
                0x00000000004e0f2c      0xa9c 0x4 /usr/local/popcorn/aarch64/lib/libc.a(popcorn_malloc.o)
                0x00000000004e0f2c                popcorn_malloc
 .text.lock_bin
                0x00000000004e19c8       0xd4 0x4 /usr/local/popcorn/aarch64/lib/libc.a(popcorn_malloc.o)
 .text.unbin    0x00000000004e1a9c       0xa0 0x4 /usr/local/popcorn/aarch64/lib/libc.a(popcorn_malloc.o)
 .text.unlock_bin
                0x00000000004e1b3c       0x80 0x4 /usr/local/popcorn/aarch64/lib/libc.a(popcorn_malloc.o)
 .text.__popcorn_malloc0
                0x00000000004e1bbc      0x128 0x4 /usr/local/popcorn/aarch64/lib/libc.a(popcorn_malloc.o)
                0x00000000004e1bbc                __popcorn_malloc0
 .text.popcorn_malloc_cur
                0x00000000004e1ce4       0x28 0x4 /usr/local/popcorn/aarch64/lib/libc.a(popcorn_malloc.o)
                0x00000000004e1ce4                popcorn_malloc_cur
 .text.popcorn_realloc
                0x00000000004e1d0c      0x270 0x4 /usr/local/popcorn/aarch64/lib/libc.a(popcorn_malloc.o)
                0x00000000004e1d0c                popcorn_realloc
 .text.popcorn_free
                0x00000000004e1f7c      0x788 0x4 /usr/local/popcorn/aarch64/lib/libc.a(popcorn_malloc.o)
                0x00000000004e1f7c                popcorn_free
 .text.alloc_fwd
                0x00000000004e2704       0xe4 0x4 /usr/local/popcorn/aarch64/lib/libc.a(popcorn_malloc.o)
 .text.popcorn_realloc_cur
                0x00000000004e27e8       0x30 0x4 /usr/local/popcorn/aarch64/lib/libc.a(popcorn_malloc.o)
                0x00000000004e27e8                popcorn_realloc_cur
 .text          0x00000000004e2818        0x0 0x4 /usr/local/popcorn/aarch64/lib/libc.a(sqrt.o)
 .text.sqrt     0x00000000004e2818        0x8 0x4 /usr/local/popcorn/aarch64/lib/libc.a(sqrt.o)
                0x00000000004e2818                sqrt
 .text          0x00000000004e2820        0x0 0x4 /usr/local/popcorn/aarch64/lib/libc.a(getrlimit.o)
 .text.getrlimit
                0x00000000004e2820       0xe4 0x4 /usr/local/popcorn/aarch64/lib/libc.a(getrlimit.o)
                0x00000000004e2820                getrlimit
                0x00000000004e2820                getrlimit64
 .text          0x00000000004e2904        0x0 0x4 /usr/local/popcorn/aarch64/lib/libc.a(madvise.o)
 .text.__madvise
                0x00000000004e2904       0x20 0x4 /usr/local/popcorn/aarch64/lib/libc.a(madvise.o)
                0x00000000004e2904                __madvise
                0x00000000004e2904                madvise
 .text          0x00000000004e2924        0x0 0x4 /usr/local/popcorn/aarch64/lib/libc.a(mmap.o)
 .text.dummy    0x00000000004e2924        0x4 0x4 /usr/local/popcorn/aarch64/lib/libc.a(mmap.o)
 .text.__mmap   0x00000000004e2928       0xbc 0x4 /usr/local/popcorn/aarch64/lib/libc.a(mmap.o)
                0x00000000004e2928                __mmap
                0x00000000004e2928                mmap
                0x00000000004e2928                mmap64
 .text          0x00000000004e29e4        0x0 0x4 /usr/local/popcorn/aarch64/lib/libc.a(mremap.o)
 .text.dummy    0x00000000004e29e4        0x4 0x4 /usr/local/popcorn/aarch64/lib/libc.a(mremap.o)
 .text.__mremap
                0x00000000004e29e8      0x104 0x4 /usr/local/popcorn/aarch64/lib/libc.a(mremap.o)
                0x00000000004e29e8                __mremap
                0x00000000004e29e8                mremap
 .text          0x00000000004e2aec        0x0 0x4 /usr/local/popcorn/aarch64/lib/libc.a(munmap.o)
 .text.dummy    0x00000000004e2aec        0x4 0x4 /usr/local/popcorn/aarch64/lib/libc.a(munmap.o)
 .text.__munmap
                0x00000000004e2af0       0x38 0x4 /usr/local/popcorn/aarch64/lib/libc.a(munmap.o)
                0x00000000004e2af0                __munmap
                0x00000000004e2af0                munmap
 .text          0x00000000004e2b28        0x0 0x4 /usr/local/popcorn/aarch64/lib/libc.a(fchmod.o)
 .text.fchmod   0x00000000004e2b28       0x88 0x4 /usr/local/popcorn/aarch64/lib/libc.a(fchmod.o)
                0x00000000004e2b28                fchmod
 .text          0x00000000004e2bb0        0x0 0x4 /usr/local/popcorn/aarch64/lib/libc.a(fstat.o)
 .text.copy_stat
                0x00000000004e2bb0       0x5c 0x4 /usr/local/popcorn/aarch64/lib/libc.a(fstat.o)
                0x00000000004e2bb0                copy_stat
 .text.fstat    0x00000000004e2c0c      0x20c 0x4 /usr/local/popcorn/aarch64/lib/libc.a(fstat.o)
                0x00000000004e2c0c                fstat
                0x00000000004e2c0c                fstat64
 .text          0x00000000004e2e18        0x0 0x4 /usr/local/popcorn/aarch64/lib/libc.a(futimesat.o)
 .text.__futimesat
                0x00000000004e2e18       0x88 0x4 /usr/local/popcorn/aarch64/lib/libc.a(futimesat.o)
                0x00000000004e2e18                __futimesat
                0x00000000004e2e18                futimesat
 .text          0x00000000004e2ea0        0x0 0x4 /usr/local/popcorn/aarch64/lib/libc.a(lstat.o)
 .text.lstat    0x00000000004e2ea0       0x54 0x4 /usr/local/popcorn/aarch64/lib/libc.a(lstat.o)
                0x00000000004e2ea0                lstat
                0x00000000004e2ea0                lstat64
 .text          0x00000000004e2ef4        0x0 0x4 /usr/local/popcorn/aarch64/lib/libc.a(mkdir.o)
 .text.mkdir    0x00000000004e2ef4       0x2c 0x4 /usr/local/popcorn/aarch64/lib/libc.a(mkdir.o)
                0x00000000004e2ef4                mkdir
 .text          0x00000000004e2f20        0x0 0x4 /usr/local/popcorn/aarch64/lib/libc.a(stat.o)
 .text.stat     0x00000000004e2f20       0x54 0x4 /usr/local/popcorn/aarch64/lib/libc.a(stat.o)
                0x00000000004e2f20                stat
                0x00000000004e2f20                stat64
 .text          0x00000000004e2f74        0x0 0x4 /usr/local/popcorn/aarch64/lib/libc.a(utimensat.o)
 .text.utimensat
                0x00000000004e2f74       0x28 0x4 /usr/local/popcorn/aarch64/lib/libc.a(utimensat.o)
                0x00000000004e2f74                utimensat
 .text          0x00000000004e2f9c        0x0 0x4 /usr/local/popcorn/aarch64/lib/libc.a(fflush.o)
 .text.fflush   0x00000000004e2f9c      0x15c 0x4 /usr/local/popcorn/aarch64/lib/libc.a(fflush.o)
                0x00000000004e2f9c                fflush
                0x00000000004e2f9c                fflush_unlocked
 .text          0x00000000004e30f8        0x0 0x4 /usr/local/popcorn/aarch64/lib/libc.a(fprintf.o)
 .text.fprintf  0x00000000004e30f8       0x68 0x4 /usr/local/popcorn/aarch64/lib/libc.a(fprintf.o)
                0x00000000004e30f8                fprintf
 .text          0x00000000004e3160        0x0 0x4 /usr/local/popcorn/aarch64/lib/libc.a(fputc.o)
 .text.fputc    0x00000000004e3160       0xd4 0x4 /usr/local/popcorn/aarch64/lib/libc.a(fputc.o)
                0x00000000004e3160                fputc
 .text          0x00000000004e3234        0x0 0x4 /usr/local/popcorn/aarch64/lib/libc.a(fwrite.o)
 .text.__fwritex
                0x00000000004e3234       0xf8 0x4 /usr/local/popcorn/aarch64/lib/libc.a(fwrite.o)
                0x00000000004e3234                __fwritex
 .text.fwrite   0x00000000004e332c       0x9c 0x4 /usr/local/popcorn/aarch64/lib/libc.a(fwrite.o)
                0x00000000004e332c                fwrite
                0x00000000004e332c                fwrite_unlocked
 .text          0x00000000004e33c8        0x0 0x4 /usr/local/popcorn/aarch64/lib/libc.a(ofl.o)
 .text.__ofl_lock
                0x00000000004e33c8       0x24 0x4 /usr/local/popcorn/aarch64/lib/libc.a(ofl.o)
                0x00000000004e33c8                __ofl_lock
 .text.__ofl_unlock
                0x00000000004e33ec        0xc 0x4 /usr/local/popcorn/aarch64/lib/libc.a(ofl.o)
                0x00000000004e33ec                __ofl_unlock
 .text          0x00000000004e33f8        0x0 0x4 /usr/local/popcorn/aarch64/lib/libc.a(remove.o)
 .text.remove   0x00000000004e33f8       0x44 0x4 /usr/local/popcorn/aarch64/lib/libc.a(remove.o)
                0x00000000004e33f8                remove
 .text          0x00000000004e343c        0x0 0x4 /usr/local/popcorn/aarch64/lib/libc.a(snprintf.o)
 .text.snprintf
                0x00000000004e343c       0x68 0x4 /usr/local/popcorn/aarch64/lib/libc.a(snprintf.o)
                0x00000000004e343c                snprintf
 .text          0x00000000004e34a4        0x0 0x4 /usr/local/popcorn/aarch64/lib/libc.a(sscanf.o)
 .text.sscanf   0x00000000004e34a4       0x68 0x4 /usr/local/popcorn/aarch64/lib/libc.a(sscanf.o)
                0x00000000004e34a4                __isoc99_sscanf
                0x00000000004e34a4                sscanf
 .text          0x00000000004e350c        0x0 0x4 /usr/local/popcorn/aarch64/lib/libc.a(stderr.o)
 .text          0x00000000004e350c        0x0 0x4 /usr/local/popcorn/aarch64/lib/libc.a(stdout.o)
 .text          0x00000000004e350c        0x0 0x4 /usr/local/popcorn/aarch64/lib/libc.a(vfprintf.o)
 .text.vfprintf
                0x00000000004e350c      0x18c 0x4 /usr/local/popcorn/aarch64/lib/libc.a(vfprintf.o)
                0x00000000004e350c                vfprintf
 .text.printf_core
                0x00000000004e3698     0x1b80 0x4 /usr/local/popcorn/aarch64/lib/libc.a(vfprintf.o)
 .text.pop_arg  0x00000000004e5218      0x26c 0x4 /usr/local/popcorn/aarch64/lib/libc.a(vfprintf.o)
 .text.pad      0x00000000004e5484       0xd8 0x4 /usr/local/popcorn/aarch64/lib/libc.a(vfprintf.o)
 .text          0x00000000004e555c        0x0 0x4 /usr/local/popcorn/aarch64/lib/libc.a(vsnprintf.o)
 .text.vsnprintf
                0x00000000004e555c       0xd0 0x4 /usr/local/popcorn/aarch64/lib/libc.a(vsnprintf.o)
                0x00000000004e555c                vsnprintf
 .text.sn_write
                0x00000000004e562c       0xd8 0x4 /usr/local/popcorn/aarch64/lib/libc.a(vsnprintf.o)
 .text          0x00000000004e5704        0x0 0x4 /usr/local/popcorn/aarch64/lib/libc.a(vsscanf.o)
 .text.vsscanf  0x00000000004e5704       0x78 0x4 /usr/local/popcorn/aarch64/lib/libc.a(vsscanf.o)
                0x00000000004e5704                __isoc99_vsscanf
                0x00000000004e5704                vsscanf
 .text.do_read  0x00000000004e577c        0x4 0x4 /usr/local/popcorn/aarch64/lib/libc.a(vsscanf.o)
 .text          0x00000000004e5780        0x0 0x4 /usr/local/popcorn/aarch64/lib/libc.a(memcmp.o)
 .text.memcmp   0x00000000004e5780       0x34 0x4 /usr/local/popcorn/aarch64/lib/libc.a(memcmp.o)
                0x00000000004e5780                memcmp
 .text          0x00000000004e57b4        0x0 0x4 /usr/local/popcorn/aarch64/lib/libc.a(memcpy.o)
 .text.memcpy   0x00000000004e57b4      0x400 0x4 /usr/local/popcorn/aarch64/lib/libc.a(memcpy.o)
                0x00000000004e57b4                memcpy
 .text          0x00000000004e5bb4        0x0 0x4 /usr/local/popcorn/aarch64/lib/libc.a(memmove.o)
 .text.memmove  0x00000000004e5bb4      0x204 0x4 /usr/local/popcorn/aarch64/lib/libc.a(memmove.o)
                0x00000000004e5bb4                memmove
 .text          0x00000000004e5db8        0x0 0x4 /usr/local/popcorn/aarch64/lib/libc.a(memset.o)
 .text.memset   0x00000000004e5db8      0x140 0x4 /usr/local/popcorn/aarch64/lib/libc.a(memset.o)
                0x00000000004e5db8                memset
 .text          0x00000000004e5ef8        0x0 0x4 /usr/local/popcorn/aarch64/lib/libc.a(strcat.o)
 .text.strcat   0x00000000004e5ef8       0x34 0x4 /usr/local/popcorn/aarch64/lib/libc.a(strcat.o)
                0x00000000004e5ef8                strcat
 .text          0x00000000004e5f2c        0x0 0x4 /usr/local/popcorn/aarch64/lib/libc.a(strchr.o)
 .text.strchr   0x00000000004e5f2c       0x2c 0x4 /usr/local/popcorn/aarch64/lib/libc.a(strchr.o)
                0x00000000004e5f2c                strchr
 .text          0x00000000004e5f58        0x0 0x4 /usr/local/popcorn/aarch64/lib/libc.a(strchrnul.o)
 .text.__strchrnul
                0x00000000004e5f58       0xd4 0x4 /usr/local/popcorn/aarch64/lib/libc.a(strchrnul.o)
                0x00000000004e5f58                __strchrnul
                0x00000000004e5f58                strchrnul
 .text          0x00000000004e602c        0x0 0x4 /usr/local/popcorn/aarch64/lib/libc.a(strcmp.o)
 .text.strcmp   0x00000000004e602c       0x28 0x4 /usr/local/popcorn/aarch64/lib/libc.a(strcmp.o)
                0x00000000004e602c                strcmp
 .text          0x00000000004e6054        0x0 0x4 /usr/local/popcorn/aarch64/lib/libc.a(strcpy.o)
 .text.strcpy   0x00000000004e6054       0x24 0x4 /usr/local/popcorn/aarch64/lib/libc.a(strcpy.o)
                0x00000000004e6054                strcpy
 .text          0x00000000004e6078        0x0 0x4 /usr/local/popcorn/aarch64/lib/libc.a(strcspn.o)
 .text.strcspn  0x00000000004e6078       0xc0 0x4 /usr/local/popcorn/aarch64/lib/libc.a(strcspn.o)
                0x00000000004e6078                strcspn
 .text          0x00000000004e6138        0x0 0x4 /usr/local/popcorn/aarch64/lib/libc.a(strlen.o)
 .text.strlen   0x00000000004e6138       0x74 0x4 /usr/local/popcorn/aarch64/lib/libc.a(strlen.o)
                0x00000000004e6138                strlen
 .text          0x00000000004e61ac        0x0 0x4 /usr/local/popcorn/aarch64/lib/libc.a(strncmp.o)
 .text.strncmp  0x00000000004e61ac       0x48 0x4 /usr/local/popcorn/aarch64/lib/libc.a(strncmp.o)
                0x00000000004e61ac                strncmp
 .text          0x00000000004e61f4        0x0 0x4 /usr/local/popcorn/aarch64/lib/libc.a(strncpy.o)
 .text.strncpy  0x00000000004e61f4       0x24 0x4 /usr/local/popcorn/aarch64/lib/libc.a(strncpy.o)
                0x00000000004e61f4                strncpy
 .text          0x00000000004e6218        0x0 0x4 /usr/local/popcorn/aarch64/lib/libc.a(strnlen.o)
 .text.strnlen  0x00000000004e6218       0x38 0x4 /usr/local/popcorn/aarch64/lib/libc.a(strnlen.o)
                0x00000000004e6218                strnlen
 .text          0x00000000004e6250        0x0 0x4 /usr/local/popcorn/aarch64/lib/libc.a(__lock.o)
 .text.__lock   0x00000000004e6250       0x60 0x4 /usr/local/popcorn/aarch64/lib/libc.a(__lock.o)
                0x00000000004e6250                __lock
 .text.__unlock
                0x00000000004e62b0       0x54 0x4 /usr/local/popcorn/aarch64/lib/libc.a(__lock.o)
                0x00000000004e62b0                __unlock
 .text          0x00000000004e6304        0x0 0x4 /usr/local/popcorn/aarch64/lib/libc.a(__syscall_cp.o)
 .text.sccp     0x00000000004e6304        0x4 0x4 /usr/local/popcorn/aarch64/lib/libc.a(__syscall_cp.o)
                0x00000000004e6304                __syscall_cp_c
 .text.__syscall_cp
                0x00000000004e6308        0x4 0x4 /usr/local/popcorn/aarch64/lib/libc.a(__syscall_cp.o)
                0x00000000004e6308                __syscall_cp
 .text          0x00000000004e630c        0x0 0x4 /usr/local/popcorn/aarch64/lib/libc.a(__wait.o)
 .text.__wait   0x00000000004e630c       0xc4 0x4 /usr/local/popcorn/aarch64/lib/libc.a(__wait.o)
                0x00000000004e630c                __wait
 .text          0x00000000004e63d0        0x0 0x4 /usr/local/popcorn/aarch64/lib/libc.a(pthread_create.o)
 .text.dummy_0  0x00000000004e63d0        0x4 0x4 /usr/local/popcorn/aarch64/lib/libc.a(pthread_create.o)
                0x00000000004e63d0                __acquire_ptc
                0x00000000004e63d0                __do_orphaned_stdio_locks
                0x00000000004e63d0                __pthread_tsd_run_dtors
                0x00000000004e63d0                __release_ptc
 .text.__pthread_exit
                0x00000000004e63d4      0x1b0 0x4 /usr/local/popcorn/aarch64/lib/libc.a(pthread_create.o)
                0x00000000004e63d4                __pthread_exit
                0x00000000004e63d4                pthread_exit
 .text.__do_cleanup_push
                0x00000000004e6584       0x14 0x4 /usr/local/popcorn/aarch64/lib/libc.a(pthread_create.o)
                0x00000000004e6584                __do_cleanup_push
 .text.__do_cleanup_pop
                0x00000000004e6598       0x10 0x4 /usr/local/popcorn/aarch64/lib/libc.a(pthread_create.o)
                0x00000000004e6598                __do_cleanup_pop
 .text.__pthread_create
                0x00000000004e65a8      0x558 0x4 /usr/local/popcorn/aarch64/lib/libc.a(pthread_create.o)
                0x00000000004e65a8                __pthread_create
                0x00000000004e65a8                pthread_create
 .text.start_c11
                0x00000000004e6b00       0x1c 0x4 /usr/local/popcorn/aarch64/lib/libc.a(pthread_create.o)
 .text.start    0x00000000004e6b1c       0x88 0x4 /usr/local/popcorn/aarch64/lib/libc.a(pthread_create.o)
 .text          0x00000000004e6ba4        0x0 0x4 /usr/local/popcorn/aarch64/lib/libc.a(pthread_join.o)
 .text.__pthread_timedjoin_np
                0x00000000004e6ba4       0xf8 0x4 /usr/local/popcorn/aarch64/lib/libc.a(pthread_join.o)
                0x00000000004e6ba4                __pthread_timedjoin_np
                0x00000000004e6ba4                pthread_timedjoin_np
 .text.__pthread_join
                0x00000000004e6c9c        0x8 0x4 /usr/local/popcorn/aarch64/lib/libc.a(pthread_join.o)
                0x00000000004e6c9c                __pthread_join
                0x00000000004e6c9c                pthread_join
 .text.__pthread_tryjoin_np
                0x00000000004e6ca4       0x28 0x4 /usr/local/popcorn/aarch64/lib/libc.a(pthread_join.o)
                0x00000000004e6ca4                __pthread_tryjoin_np
                0x00000000004e6ca4                pthread_tryjoin_np
 .text          0x00000000004e6ccc        0x0 0x4 /usr/local/popcorn/aarch64/lib/libc.a(pthread_mutex_destroy.o)
 .text.pthread_mutex_destroy
                0x00000000004e6ccc        0x8 0x4 /usr/local/popcorn/aarch64/lib/libc.a(pthread_mutex_destroy.o)
                0x00000000004e6ccc                pthread_mutex_destroy
 .text          0x00000000004e6cd4        0x0 0x4 /usr/local/popcorn/aarch64/lib/libc.a(pthread_mutex_init.o)
 .text.pthread_mutex_init
                0x00000000004e6cd4       0x40 0x4 /usr/local/popcorn/aarch64/lib/libc.a(pthread_mutex_init.o)
                0x00000000004e6cd4                pthread_mutex_init
 .text          0x00000000004e6d14        0x0 0x4 /usr/local/popcorn/aarch64/lib/libc.a(pthread_mutex_lock.o)
 .text.__pthread_mutex_lock
                0x00000000004e6d14       0x48 0x4 /usr/local/popcorn/aarch64/lib/libc.a(pthread_mutex_lock.o)
                0x00000000004e6d14                __pthread_mutex_lock
                0x00000000004e6d14                pthread_mutex_lock
 .text          0x00000000004e6d5c        0x0 0x4 /usr/local/popcorn/aarch64/lib/libc.a(pthread_mutex_timedlock.o)
 .text.__pthread_mutex_timedlock
                0x00000000004e6d5c      0x154 0x4 /usr/local/popcorn/aarch64/lib/libc.a(pthread_mutex_timedlock.o)
                0x00000000004e6d5c                __pthread_mutex_timedlock
                0x00000000004e6d5c                pthread_mutex_timedlock
 .text          0x00000000004e6eb0        0x0 0x4 /usr/local/popcorn/aarch64/lib/libc.a(pthread_mutex_trylock.o)
 .text.__pthread_mutex_trylock_owner
                0x00000000004e6eb0      0x130 0x4 /usr/local/popcorn/aarch64/lib/libc.a(pthread_mutex_trylock.o)
                0x00000000004e6eb0                __pthread_mutex_trylock_owner
 .text.__pthread_mutex_trylock
                0x00000000004e6fe0       0x4c 0x4 /usr/local/popcorn/aarch64/lib/libc.a(pthread_mutex_trylock.o)
                0x00000000004e6fe0                __pthread_mutex_trylock
                0x00000000004e6fe0                pthread_mutex_trylock
 .text          0x00000000004e702c        0x0 0x4 /usr/local/popcorn/aarch64/lib/libc.a(pthread_mutex_unlock.o)
 .text.__pthread_mutex_unlock
                0x00000000004e702c      0x13c 0x4 /usr/local/popcorn/aarch64/lib/libc.a(pthread_mutex_unlock.o)
                0x00000000004e702c                __pthread_mutex_unlock
                0x00000000004e702c                pthread_mutex_unlock
 .text          0x00000000004e7168        0x0 0x4 /usr/local/popcorn/aarch64/lib/libc.a(pthread_mutexattr_destroy.o)
 .text.pthread_mutexattr_destroy
                0x00000000004e7168        0x8 0x4 /usr/local/popcorn/aarch64/lib/libc.a(pthread_mutexattr_destroy.o)
                0x00000000004e7168                pthread_mutexattr_destroy
 .text          0x00000000004e7170        0x0 0x4 /usr/local/popcorn/aarch64/lib/libc.a(pthread_mutexattr_init.o)
 .text.pthread_mutexattr_init
                0x00000000004e7170        0xc 0x4 /usr/local/popcorn/aarch64/lib/libc.a(pthread_mutexattr_init.o)
                0x00000000004e7170                pthread_mutexattr_init
 .text          0x00000000004e717c        0x0 0x4 /usr/local/popcorn/aarch64/lib/libc.a(pthread_mutexattr_settype.o)
 .text.pthread_mutexattr_settype
                0x00000000004e717c       0x2c 0x4 /usr/local/popcorn/aarch64/lib/libc.a(pthread_mutexattr_settype.o)
                0x00000000004e717c                pthread_mutexattr_settype
 .text          0x00000000004e71a8        0x0 0x4 /usr/local/popcorn/aarch64/lib/libc.a(pthread_setcancelstate.o)
 .text.__pthread_setcancelstate
                0x00000000004e71a8       0x30 0x4 /usr/local/popcorn/aarch64/lib/libc.a(pthread_setcancelstate.o)
                0x00000000004e71a8                __pthread_setcancelstate
                0x00000000004e71a8                pthread_setcancelstate
 .text          0x00000000004e71d8        0x0 0x4 /usr/local/popcorn/aarch64/lib/libc.a(pthread_testcancel.o)
 .text.__pthread_testcancel
                0x00000000004e71d8        0x4 0x4 /usr/local/popcorn/aarch64/lib/libc.a(pthread_testcancel.o)
                0x00000000004e71d8                __pthread_testcancel
                0x00000000004e71d8                pthread_testcancel
 .text.dummy    0x00000000004e71dc        0x4 0x4 /usr/local/popcorn/aarch64/lib/libc.a(pthread_testcancel.o)
                0x00000000004e71dc                __testcancel
 .text          0x00000000004e71e0        0x0 0x4 /usr/local/popcorn/aarch64/lib/libc.a(vmlock.o)
 .text.__vm_wait
                0x00000000004e71e0       0x44 0x4 /usr/local/popcorn/aarch64/lib/libc.a(vmlock.o)
                0x00000000004e71e0                __vm_wait
 .text.__vm_lock
                0x00000000004e7224       0x1c 0x4 /usr/local/popcorn/aarch64/lib/libc.a(vmlock.o)
                0x00000000004e7224                __vm_lock
 .text.__vm_unlock
                0x00000000004e7240       0x68 0x4 /usr/local/popcorn/aarch64/lib/libc.a(vmlock.o)
                0x00000000004e7240                __vm_unlock
 .text          0x00000000004e72a8        0x0 0x4 /usr/local/popcorn/aarch64/lib/libc.a(gettimeofday.o)
 .text.gettimeofday
                0x00000000004e72a8       0x60 0x4 /usr/local/popcorn/aarch64/lib/libc.a(gettimeofday.o)
                0x00000000004e72a8                gettimeofday
 .text          0x00000000004e7308        0x0 0x4 /usr/local/popcorn/aarch64/lib/libc.a(localtime.o)
 .text.localtime
                0x00000000004e7308        0xc 0x4 /usr/local/popcorn/aarch64/lib/libc.a(localtime.o)
                0x00000000004e7308                localtime
 .text          0x00000000004e7314        0x0 0x4 /usr/local/popcorn/aarch64/lib/libc.a(localtime_r.o)
 .text.__localtime_r
                0x00000000004e7314       0x88 0x4 /usr/local/popcorn/aarch64/lib/libc.a(localtime_r.o)
                0x00000000004e7314                __localtime_r
                0x00000000004e7314                localtime_r
 .text          0x00000000004e739c        0x0 0x4 /usr/local/popcorn/aarch64/lib/libc.a(time.o)
 .text.time     0x00000000004e739c       0x3c 0x4 /usr/local/popcorn/aarch64/lib/libc.a(time.o)
                0x00000000004e739c                time
 .text          0x00000000004e73d8        0x0 0x4 /usr/local/popcorn/aarch64/lib/libc.a(access.o)
 .text.access   0x00000000004e73d8       0x30 0x4 /usr/local/popcorn/aarch64/lib/libc.a(access.o)
                0x00000000004e73d8                access
 .text          0x00000000004e7408        0x0 0x4 /usr/local/popcorn/aarch64/lib/libc.a(close.o)
 .text.dummy    0x00000000004e7408        0x4 0x4 /usr/local/popcorn/aarch64/lib/libc.a(close.o)
                0x00000000004e7408                __aio_close
 .text.close    0x00000000004e740c       0x44 0x4 /usr/local/popcorn/aarch64/lib/libc.a(close.o)
                0x00000000004e740c                close
 .text          0x00000000004e7450        0x0 0x4 /usr/local/popcorn/aarch64/lib/libc.a(fchown.o)
 .text.fchown   0x00000000004e7450       0x98 0x4 /usr/local/popcorn/aarch64/lib/libc.a(fchown.o)
                0x00000000004e7450                fchown
 .text          0x00000000004e74e8        0x0 0x4 /usr/local/popcorn/aarch64/lib/libc.a(fsync.o)
 .text.fsync    0x00000000004e74e8       0x34 0x4 /usr/local/popcorn/aarch64/lib/libc.a(fsync.o)
                0x00000000004e74e8                fsync
 .text          0x00000000004e751c        0x0 0x4 /usr/local/popcorn/aarch64/lib/libc.a(ftruncate.o)
 .text.ftruncate
                0x00000000004e751c       0x20 0x4 /usr/local/popcorn/aarch64/lib/libc.a(ftruncate.o)
                0x00000000004e751c                ftruncate
                0x00000000004e751c                ftruncate64
 .text          0x00000000004e753c        0x0 0x4 /usr/local/popcorn/aarch64/lib/libc.a(getcwd.o)
 .text.getcwd   0x00000000004e753c       0x88 0x4 /usr/local/popcorn/aarch64/lib/libc.a(getcwd.o)
                0x00000000004e753c                getcwd
 .text          0x00000000004e75c4        0x0 0x4 /usr/local/popcorn/aarch64/lib/libc.a(geteuid.o)
 .text.geteuid  0x00000000004e75c4        0xc 0x4 /usr/local/popcorn/aarch64/lib/libc.a(geteuid.o)
                0x00000000004e75c4                geteuid
 .text          0x00000000004e75d0        0x0 0x4 /usr/local/popcorn/aarch64/lib/libc.a(getpid.o)
 .text.getpid   0x00000000004e75d0        0xc 0x4 /usr/local/popcorn/aarch64/lib/libc.a(getpid.o)
                0x00000000004e75d0                getpid
 .text          0x00000000004e75dc        0x0 0x4 /usr/local/popcorn/aarch64/lib/libc.a(lseek.o)
 .text.lseek    0x00000000004e75dc       0x14 0x4 /usr/local/popcorn/aarch64/lib/libc.a(lseek.o)
                0x00000000004e75dc                lseek
                0x00000000004e75dc                lseek64
 .text          0x00000000004e75f0        0x0 0x4 /usr/local/popcorn/aarch64/lib/libc.a(read.o)
 .text.read     0x00000000004e75f0       0x30 0x4 /usr/local/popcorn/aarch64/lib/libc.a(read.o)
                0x00000000004e75f0                read
 .text          0x00000000004e7620        0x0 0x4 /usr/local/popcorn/aarch64/lib/libc.a(readlink.o)
 .text.readlink
                0x00000000004e7620       0x1c 0x4 /usr/local/popcorn/aarch64/lib/libc.a(readlink.o)
                0x00000000004e7620                readlink
 .text          0x00000000004e763c        0x0 0x4 /usr/local/popcorn/aarch64/lib/libc.a(rmdir.o)
 .text.rmdir    0x00000000004e763c       0x28 0x4 /usr/local/popcorn/aarch64/lib/libc.a(rmdir.o)
                0x00000000004e763c                rmdir
 .text          0x00000000004e7664        0x0 0x4 /usr/local/popcorn/aarch64/lib/libc.a(sleep.o)
 .text.sleep    0x00000000004e7664       0x38 0x4 /usr/local/popcorn/aarch64/lib/libc.a(sleep.o)
                0x00000000004e7664                sleep
 .text          0x00000000004e769c        0x0 0x4 /usr/local/popcorn/aarch64/lib/libc.a(unlink.o)
 .text.unlink   0x00000000004e769c       0x28 0x4 /usr/local/popcorn/aarch64/lib/libc.a(unlink.o)
                0x00000000004e769c                unlink
 .text          0x00000000004e76c4        0x0 0x4 /usr/local/popcorn/aarch64/lib/libc.a(write.o)
 .text.write    0x00000000004e76c4       0x30 0x4 /usr/local/popcorn/aarch64/lib/libc.a(write.o)
                0x00000000004e76c4                write
 .text          0x00000000004e76f4        0x0 0x4 /usr/local/popcorn/aarch64/lib/libc.a(__environ.o)
 .text          0x00000000004e76f4        0x0 0x4 /usr/local/popcorn/aarch64/lib/libc.a(__init_tls.o)
 .text.__init_tp
                0x00000000004e76f4       0x70 0x4 /usr/local/popcorn/aarch64/lib/libc.a(__init_tls.o)
                0x00000000004e76f4                __init_tp
 .text.__copy_tls
                0x00000000004e7764       0x9c 0x4 /usr/local/popcorn/aarch64/lib/libc.a(__init_tls.o)
                0x00000000004e7764                __copy_tls
 .text.static_init_tls
                0x00000000004e7800      0x144 0x4 /usr/local/popcorn/aarch64/lib/libc.a(__init_tls.o)
                0x00000000004e7800                __init_tls
 .text          0x00000000004e7944        0x0 0x4 /usr/local/popcorn/aarch64/lib/libc.a(platform.o)
 .text.popcorn_getnid
                0x00000000004e7944       0x34 0x4 /usr/local/popcorn/aarch64/lib/libc.a(platform.o)
                0x00000000004e7944                popcorn_getnid
 .text.popcorn_getthreadinfo
                0x00000000004e7978       0x1c 0x4 /usr/local/popcorn/aarch64/lib/libc.a(platform.o)
                0x00000000004e7978                popcorn_getthreadinfo
 .text.popcorn_getnodeinfo
                0x00000000004e7994       0x90 0x4 /usr/local/popcorn/aarch64/lib/libc.a(platform.o)
                0x00000000004e7994                popcorn_getnodeinfo
 .text          0x00000000004e7a24        0x0 0x4 /usr/local/popcorn/aarch64/lib/libc.a(strerror.o)
 .text.__strerror_l
                0x00000000004e7a24       0x64 0x4 /usr/local/popcorn/aarch64/lib/libc.a(strerror.o)
                0x00000000004e7a24                __strerror_l
                0x00000000004e7a24                strerror_l
 .text.strerror
                0x00000000004e7a88        0xc 0x4 /usr/local/popcorn/aarch64/lib/libc.a(strerror.o)
                0x00000000004e7a88                strerror
 .text          0x00000000004e7a94        0x0 0x4 /usr/local/popcorn/aarch64/lib/libc.a(_Exit.o)
 .text._Exit    0x00000000004e7a94       0x20 0x4 /usr/local/popcorn/aarch64/lib/libc.a(_Exit.o)
                0x00000000004e7a94                _Exit
 .text          0x00000000004e7ab4        0x0 0x4 /usr/local/popcorn/aarch64/lib/libc.a(syscall.o)
 .text.__syscall
                0x00000000004e7ac0       0x28 0x10 /usr/local/popcorn/aarch64/lib/libc.a(syscall.o)
                0x00000000004e7ac0                __syscall
 .text          0x00000000004e7ae8        0x0 0x4 /usr/local/popcorn/aarch64/lib/libc.a(procfdname.o)
 .text.__procfdname
                0x00000000004e7ae8       0x98 0x4 /usr/local/popcorn/aarch64/lib/libc.a(procfdname.o)
                0x00000000004e7ae8                __procfdname
 .text          0x00000000004e7b80        0x0 0x4 /usr/local/popcorn/aarch64/lib/libc.a(__dlsym.o)
 .text.stub_dlsym
                0x00000000004e7b80       0x20 0x4 /usr/local/popcorn/aarch64/lib/libc.a(__dlsym.o)
                0x00000000004e7b80                __dlsym
 .text          0x00000000004e7ba0        0x0 0x4 /usr/local/popcorn/aarch64/lib/libc.a(__lctrans.o)
 .text.dummy    0x00000000004e7ba0        0x4 0x4 /usr/local/popcorn/aarch64/lib/libc.a(__lctrans.o)
                0x00000000004e7ba0                __lctrans_impl
 .text.__lctrans
                0x00000000004e7ba4        0x4 0x4 /usr/local/popcorn/aarch64/lib/libc.a(__lctrans.o)
                0x00000000004e7ba4                __lctrans
 .text.__lctrans_cur
                0x00000000004e7ba8       0x10 0x4 /usr/local/popcorn/aarch64/lib/libc.a(__lctrans.o)
                0x00000000004e7ba8                __lctrans_cur
 .text          0x00000000004e7bb8        0x0 0x4 /usr/local/popcorn/aarch64/lib/libc.a(expand_heap.o)
 .text.__expand_heap
                0x00000000004e7bb8      0x1b4 0x4 /usr/local/popcorn/aarch64/lib/libc.a(expand_heap.o)
                0x00000000004e7bb8                __expand_heap
 .text.__expand_heap_node
                0x00000000004e7d6c      0x238 0x4 /usr/local/popcorn/aarch64/lib/libc.a(expand_heap.o)
                0x00000000004e7d6c                __expand_heap_node
 .text.popcorn_get_arena
                0x00000000004e7fa4      0x12c 0x4 /usr/local/popcorn/aarch64/lib/libc.a(expand_heap.o)
                0x00000000004e7fa4                popcorn_get_arena
 .text          0x00000000004e80d0        0x0 0x4 /usr/local/popcorn/aarch64/lib/libc.a(__fpclassifyl.o)
 .text.__fpclassifyl
                0x00000000004e80d0       0x50 0x4 /usr/local/popcorn/aarch64/lib/libc.a(__fpclassifyl.o)
                0x00000000004e80d0                __fpclassifyl
 .text          0x00000000004e8120        0x0 0x4 /usr/local/popcorn/aarch64/lib/libc.a(__signbitl.o)
 .text.__signbitl
                0x00000000004e8120       0x14 0x4 /usr/local/popcorn/aarch64/lib/libc.a(__signbitl.o)
                0x00000000004e8120                __signbitl
 .text          0x00000000004e8134        0x0 0x4 /usr/local/popcorn/aarch64/lib/libc.a(frexpl.o)
 .text.frexpl   0x00000000004e8134       0xb4 0x4 /usr/local/popcorn/aarch64/lib/libc.a(frexpl.o)
                0x00000000004e8134                frexpl
 .text          0x00000000004e81e8        0x0 0x4 /usr/local/popcorn/aarch64/lib/libc.a(mprotect.o)
 .text.__mprotect
                0x00000000004e81e8       0x44 0x4 /usr/local/popcorn/aarch64/lib/libc.a(mprotect.o)
                0x00000000004e81e8                __mprotect
                0x00000000004e81e8                mprotect
 .text          0x00000000004e822c        0x0 0x4 /usr/local/popcorn/aarch64/lib/libc.a(wctomb.o)
 .text.wctomb   0x00000000004e822c       0x1c 0x4 /usr/local/popcorn/aarch64/lib/libc.a(wctomb.o)
                0x00000000004e822c                wctomb
 .text          0x00000000004e8248        0x0 0x4 /usr/local/popcorn/aarch64/lib/libc.a(block.o)
 .text.__block_all_sigs
                0x00000000004e8248       0x20 0x4 /usr/local/popcorn/aarch64/lib/libc.a(block.o)
                0x00000000004e8248                __block_all_sigs
 .text.__block_app_sigs
                0x00000000004e8268       0x20 0x4 /usr/local/popcorn/aarch64/lib/libc.a(block.o)
                0x00000000004e8268                __block_app_sigs
 .text.__restore_sigs
                0x00000000004e8288       0x1c 0x4 /usr/local/popcorn/aarch64/lib/libc.a(block.o)
                0x00000000004e8288                __restore_sigs
 .text          0x00000000004e82a4        0x0 0x4 /usr/local/popcorn/aarch64/lib/libc.a(__lockfile.o)
 .text.__lockfile
                0x00000000004e82a4       0x70 0x4 /usr/local/popcorn/aarch64/lib/libc.a(__lockfile.o)
                0x00000000004e82a4                __lockfile
 .text.__unlockfile
                0x00000000004e8314       0x4c 0x4 /usr/local/popcorn/aarch64/lib/libc.a(__lockfile.o)
                0x00000000004e8314                __unlockfile
 .text          0x00000000004e8360        0x0 0x4 /usr/local/popcorn/aarch64/lib/libc.a(__overflow.o)
 .text.__overflow
                0x00000000004e8360       0xa4 0x4 /usr/local/popcorn/aarch64/lib/libc.a(__overflow.o)
                0x00000000004e8360                __overflow
 .text          0x00000000004e8404        0x0 0x4 /usr/local/popcorn/aarch64/lib/libc.a(__stdio_close.o)
 .text.dummy    0x00000000004e8404        0x4 0x4 /usr/local/popcorn/aarch64/lib/libc.a(__stdio_close.o)
 .text.__stdio_close
                0x00000000004e8408       0x28 0x4 /usr/local/popcorn/aarch64/lib/libc.a(__stdio_close.o)
                0x00000000004e8408                __stdio_close
 .text          0x00000000004e8430        0x0 0x4 /usr/local/popcorn/aarch64/lib/libc.a(__stdio_seek.o)
 .text.__stdio_seek
                0x00000000004e8430       0x14 0x4 /usr/local/popcorn/aarch64/lib/libc.a(__stdio_seek.o)
                0x00000000004e8430                __stdio_seek
 .text          0x00000000004e8444        0x0 0x4 /usr/local/popcorn/aarch64/lib/libc.a(__stdio_write.o)
 .text.__stdio_write
                0x00000000004e8444      0x12c 0x4 /usr/local/popcorn/aarch64/lib/libc.a(__stdio_write.o)
                0x00000000004e8444                __stdio_write
 .text          0x00000000004e8570        0x0 0x4 /usr/local/popcorn/aarch64/lib/libc.a(__stdout_write.o)
 .text.__stdout_write
                0x00000000004e8570       0x68 0x4 /usr/local/popcorn/aarch64/lib/libc.a(__stdout_write.o)
                0x00000000004e8570                __stdout_write
 .text          0x00000000004e85d8        0x0 0x4 /usr/local/popcorn/aarch64/lib/libc.a(__string_read.o)
 .text.__string_read
                0x00000000004e85d8       0x84 0x4 /usr/local/popcorn/aarch64/lib/libc.a(__string_read.o)
                0x00000000004e85d8                __string_read
 .text          0x00000000004e865c        0x0 0x4 /usr/local/popcorn/aarch64/lib/libc.a(__towrite.o)
 .text.__towrite
                0x00000000004e865c       0x4c 0x4 /usr/local/popcorn/aarch64/lib/libc.a(__towrite.o)
                0x00000000004e865c                __towrite
 .text.__towrite_needs_stdio_exit
                0x00000000004e86a8        0x4 0x4 /usr/local/popcorn/aarch64/lib/libc.a(__towrite.o)
                0x00000000004e86a8                __towrite_needs_stdio_exit
 .text          0x00000000004e86ac        0x0 0x4 /usr/local/popcorn/aarch64/lib/libc.a(vfscanf.o)
 .text.vfscanf  0x00000000004e86ac      0xcb4 0x4 /usr/local/popcorn/aarch64/lib/libc.a(vfscanf.o)
                0x00000000004e86ac                __isoc99_vfscanf
                0x00000000004e86ac                vfscanf
 .text          0x00000000004e9360        0x0 0x4 /usr/local/popcorn/aarch64/lib/libc.a(memchr.o)
 .text.memchr   0x00000000004e9360       0xa8 0x4 /usr/local/popcorn/aarch64/lib/libc.a(memchr.o)
                0x00000000004e9360                memchr
 .text          0x00000000004e9408        0x0 0x4 /usr/local/popcorn/aarch64/lib/libc.a(stpcpy.o)
 .text.__stpcpy
                0x00000000004e9408       0x88 0x4 /usr/local/popcorn/aarch64/lib/libc.a(stpcpy.o)
                0x00000000004e9408                __stpcpy
                0x00000000004e9408                stpcpy
 .text          0x00000000004e9490        0x0 0x4 /usr/local/popcorn/aarch64/lib/libc.a(stpncpy.o)
 .text.__stpncpy
                0x00000000004e9490       0xdc 0x4 /usr/local/popcorn/aarch64/lib/libc.a(stpncpy.o)
                0x00000000004e9490                __stpncpy
                0x00000000004e9490                stpncpy
 .text          0x00000000004e956c        0x0 0x4 /usr/local/popcorn/aarch64/lib/libc.a(strdup.o)
 .text.__strdup
                0x00000000004e956c       0x3c 0x4 /usr/local/popcorn/aarch64/lib/libc.a(strdup.o)
                0x00000000004e956c                __strdup
                0x00000000004e956c                strdup
 .text          0x00000000004e95a8        0x0 0x4 /usr/local/popcorn/aarch64/lib/libc.a(__timedwait.o)
 .text.__timedwait_cp
                0x00000000004e95a8      0x114 0x4 /usr/local/popcorn/aarch64/lib/libc.a(__timedwait.o)
                0x00000000004e95a8                __timedwait_cp
 .text.__timedwait
                0x00000000004e96bc       0x70 0x4 /usr/local/popcorn/aarch64/lib/libc.a(__timedwait.o)
                0x00000000004e96bc                __timedwait
 .text          0x00000000004e972c        0x0 0x4 /usr/local/popcorn/aarch64/lib/libc.a(__cleartid_exit_nostack.o)
 .text.__cleartid_exit_nostack
                0x00000000004e972c       0x28 0x1 /usr/local/popcorn/aarch64/lib/libc.a(__cleartid_exit_nostack.o)
                0x00000000004e972c                __cleartid_exit_nostack
 .text          0x00000000004e9754        0x0 0x4 /usr/local/popcorn/aarch64/lib/libc.a(__set_thread_area.o)
 .text.__set_thread_area
                0x00000000004e9760        0xc 0x10 /usr/local/popcorn/aarch64/lib/libc.a(__set_thread_area.o)
                0x00000000004e9760                __set_thread_area
 .text          0x00000000004e976c        0x0 0x4 /usr/local/popcorn/aarch64/lib/libc.a(__unmapself.o)
 .text.__unmapself
                0x00000000004e9770       0x10 0x10 /usr/local/popcorn/aarch64/lib/libc.a(__unmapself.o)
                0x00000000004e9770                __unmapself
 .text          0x00000000004e9780        0x0 0x4 /usr/local/popcorn/aarch64/lib/libc.a(clone.o)
 .text.__clone  0x00000000004e9780       0x38 0x10 /usr/local/popcorn/aarch64/lib/libc.a(clone.o)
                0x00000000004e9780                __clone
 .text          0x00000000004e97b8        0x0 0x4 /usr/local/popcorn/aarch64/lib/libc.a(__secs_to_tm.o)
 .text.__secs_to_tm
                0x00000000004e97b8      0x2bc 0x4 /usr/local/popcorn/aarch64/lib/libc.a(__secs_to_tm.o)
                0x00000000004e97b8                __secs_to_tm
 .text          0x00000000004e9a74        0x0 0x4 /usr/local/popcorn/aarch64/lib/libc.a(__tz.o)
 .text.__secs_to_zone
                0x00000000004e9a74      0x484 0x4 /usr/local/popcorn/aarch64/lib/libc.a(__tz.o)
                0x00000000004e9a74                __secs_to_zone
 .text.rule_to_secs
                0x00000000004e9ef8      0x154 0x4 /usr/local/popcorn/aarch64/lib/libc.a(__tz.o)
 .text.__tzset  0x00000000004ea04c       0x30 0x4 /usr/local/popcorn/aarch64/lib/libc.a(__tz.o)
                0x00000000004ea04c                __tzset
                0x00000000004ea04c                tzset
 .text.__tm_to_tzname
                0x00000000004ea07c       0xa8 0x4 /usr/local/popcorn/aarch64/lib/libc.a(__tz.o)
                0x00000000004ea07c                __tm_to_tzname
 .text.do_tzset
                0x00000000004ea124      0x634 0x4 /usr/local/popcorn/aarch64/lib/libc.a(__tz.o)
 .text.getname  0x00000000004ea758       0xa0 0x4 /usr/local/popcorn/aarch64/lib/libc.a(__tz.o)
 .text.getoff   0x00000000004ea7f8      0x120 0x4 /usr/local/popcorn/aarch64/lib/libc.a(__tz.o)
 .text.getrule  0x00000000004ea918      0x194 0x4 /usr/local/popcorn/aarch64/lib/libc.a(__tz.o)
 .text          0x00000000004eaaac        0x0 0x4 /usr/local/popcorn/aarch64/lib/libc.a(__year_to_secs.o)
 .text.__year_to_secs
                0x00000000004eaaac      0x16c 0x4 /usr/local/popcorn/aarch64/lib/libc.a(__year_to_secs.o)
                0x00000000004eaaac                __year_to_secs
 .text          0x00000000004eac18        0x0 0x4 /usr/local/popcorn/aarch64/lib/libc.a(clock_gettime.o)
 .text.__clock_gettime
                0x00000000004eac18       0x70 0x4 /usr/local/popcorn/aarch64/lib/libc.a(clock_gettime.o)
                0x00000000004eac18                __clock_gettime
                0x00000000004eac18                clock_gettime
 .text          0x00000000004eac88        0x0 0x4 /usr/local/popcorn/aarch64/lib/libc.a(nanosleep.o)
 .text.nanosleep
                0x00000000004eac88       0x34 0x4 /usr/local/popcorn/aarch64/lib/libc.a(nanosleep.o)
                0x00000000004eac88                nanosleep
 .text          0x00000000004eacbc        0x0 0x4 /usr/local/popcorn/aarch64/lib/libc.a(floatscan.o)
 .text.__floatscan
                0x00000000004eacbc     0x18d0 0x4 /usr/local/popcorn/aarch64/lib/libc.a(floatscan.o)
                0x00000000004eacbc                __floatscan
 .text.scanexp  0x00000000004ec58c      0x250 0x4 /usr/local/popcorn/aarch64/lib/libc.a(floatscan.o)
 .text          0x00000000004ec7dc        0x0 0x4 /usr/local/popcorn/aarch64/lib/libc.a(intscan.o)
 .text.__intscan
                0x00000000004ec7dc      0x6f4 0x4 /usr/local/popcorn/aarch64/lib/libc.a(intscan.o)
                0x00000000004ec7dc                __intscan
 .text          0x00000000004eced0        0x0 0x4 /usr/local/popcorn/aarch64/lib/libc.a(shgetc.o)
 .text.__shlim  0x00000000004eced0       0x2c 0x4 /usr/local/popcorn/aarch64/lib/libc.a(shgetc.o)
                0x00000000004eced0                __shlim
 .text.__shgetc
                0x00000000004ecefc       0xdc 0x4 /usr/local/popcorn/aarch64/lib/libc.a(shgetc.o)
                0x00000000004ecefc                __shgetc
 .text          0x00000000004ecfd8        0x0 0x4 /usr/local/popcorn/aarch64/lib/libc.a(fabs.o)
 .text.fabs     0x00000000004ecfd8        0x8 0x4 /usr/local/popcorn/aarch64/lib/libc.a(fabs.o)
                0x00000000004ecfd8                fabs
 .text          0x00000000004ecfe0        0x0 0x4 /usr/local/popcorn/aarch64/lib/libc.a(copysignl.o)
 .text.copysignl
                0x00000000004ecfe0       0x2c 0x4 /usr/local/popcorn/aarch64/lib/libc.a(copysignl.o)
                0x00000000004ecfe0                copysignl
 .text          0x00000000004ed00c        0x0 0x4 /usr/local/popcorn/aarch64/lib/libc.a(fmodl.o)
 .text.fmodl    0x00000000004ed00c      0x224 0x4 /usr/local/popcorn/aarch64/lib/libc.a(fmodl.o)
                0x00000000004ed00c                fmodl
 .text          0x00000000004ed230        0x0 0x4 /usr/local/popcorn/aarch64/lib/libc.a(scalbn.o)
 .text.scalbn   0x00000000004ed230       0x98 0x4 /usr/local/popcorn/aarch64/lib/libc.a(scalbn.o)
                0x00000000004ed230                scalbn
 .text          0x00000000004ed2c8        0x0 0x4 /usr/local/popcorn/aarch64/lib/libc.a(scalbnl.o)
 .text.scalbnl  0x00000000004ed2c8       0xd4 0x4 /usr/local/popcorn/aarch64/lib/libc.a(scalbnl.o)
                0x00000000004ed2c8                scalbnl
 .text          0x00000000004ed39c        0x0 0x4 /usr/local/popcorn/aarch64/lib/libc.a(mbrtowc.o)
 .text.mbrtowc  0x00000000004ed39c      0x148 0x4 /usr/local/popcorn/aarch64/lib/libc.a(mbrtowc.o)
                0x00000000004ed39c                mbrtowc
 .text          0x00000000004ed4e4        0x0 0x4 /usr/local/popcorn/aarch64/lib/libc.a(mbsinit.o)
 .text.mbsinit  0x00000000004ed4e4       0x1c 0x4 /usr/local/popcorn/aarch64/lib/libc.a(mbsinit.o)
                0x00000000004ed4e4                mbsinit
 .text          0x00000000004ed500        0x0 0x4 /usr/local/popcorn/aarch64/lib/libc.a(wcrtomb.o)
 .text.wcrtomb  0x00000000004ed500      0x108 0x4 /usr/local/popcorn/aarch64/lib/libc.a(wcrtomb.o)
                0x00000000004ed500                wcrtomb
 .text          0x00000000004ed608        0x0 0x4 /usr/local/popcorn/aarch64/lib/libc.a(__stdio_exit.o)
 .text.__stdio_exit
                0x00000000004ed608       0x48 0x4 /usr/local/popcorn/aarch64/lib/libc.a(__stdio_exit.o)
                0x00000000004ed608                __stdio_exit
                0x00000000004ed608                __stdio_exit_needed
 .text.close_file
                0x00000000004ed650       0x74 0x4 /usr/local/popcorn/aarch64/lib/libc.a(__stdio_exit.o)
 .text          0x00000000004ed6c4        0x0 0x4 /usr/local/popcorn/aarch64/lib/libc.a(__uflow.o)
 .text.__uflow  0x00000000004ed6c4       0x4c 0x4 /usr/local/popcorn/aarch64/lib/libc.a(__uflow.o)
                0x00000000004ed6c4                __uflow
 .text          0x00000000004ed710        0x0 0x4 /usr/local/popcorn/aarch64/lib/libc.a(__map_file.o)
 .text.__map_file
                0x00000000004ed710       0xa0 0x4 /usr/local/popcorn/aarch64/lib/libc.a(__map_file.o)
                0x00000000004ed710                __map_file
 .text          0x00000000004ed7b0        0x0 0x4 /usr/local/popcorn/aarch64/lib/libc.a(__month_to_secs.o)
 .text.__month_to_secs
                0x00000000004ed7b0       0x28 0x4 /usr/local/popcorn/aarch64/lib/libc.a(__month_to_secs.o)
                0x00000000004ed7b0                __month_to_secs
 .text          0x00000000004ed7d8        0x0 0x4 /usr/local/popcorn/aarch64/lib/libc.a(internal.o)
 .text          0x00000000004ed7d8        0x0 0x4 /usr/local/popcorn/aarch64/lib/libc.a(__toread.o)
 .text.__toread
                0x00000000004ed7d8       0x84 0x4 /usr/local/popcorn/aarch64/lib/libc.a(__toread.o)
                0x00000000004ed7d8                __toread
 .text.__toread_needs_stdio_exit
                0x00000000004ed85c        0x4 0x4 /usr/local/popcorn/aarch64/lib/libc.a(__toread.o)
                0x00000000004ed85c                __toread_needs_stdio_exit
 .text          0x00000000004ed860      0xb84 0x10 /usr/lib/gcc-cross/aarch64-linux-gnu/10/libgcc.a(addtf3.o)
                0x00000000004ed860                __addtf3
 .text          0x00000000004ee3f0      0x964 0x10 /usr/lib/gcc-cross/aarch64-linux-gnu/10/libgcc.a(divtf3.o)
                0x00000000004ee3f0                __divtf3
 .text          0x00000000004eed60      0x104 0x10 /usr/lib/gcc-cross/aarch64-linux-gnu/10/libgcc.a(eqtf2.o)
                0x00000000004eed60                __eqtf2
                0x00000000004eed60                __netf2
 .text          0x00000000004eee70      0x140 0x10 /usr/lib/gcc-cross/aarch64-linux-gnu/10/libgcc.a(getf2.o)
                0x00000000004eee70                __getf2
                0x00000000004eee70                __gttf2
 .text          0x00000000004eefb0      0x138 0x10 /usr/lib/gcc-cross/aarch64-linux-gnu/10/libgcc.a(letf2.o)
                0x00000000004eefb0                __letf2
                0x00000000004eefb0                __lttf2
 .text          0x00000000004ef0f0      0x818 0x10 /usr/lib/gcc-cross/aarch64-linux-gnu/10/libgcc.a(multf3.o)
                0x00000000004ef0f0                __multf3
 .text          0x00000000004ef910      0xb18 0x10 /usr/lib/gcc-cross/aarch64-linux-gnu/10/libgcc.a(subtf3.o)
                0x00000000004ef910                __subtf3
 .text          0x00000000004f0430       0xc4 0x10 /usr/lib/gcc-cross/aarch64-linux-gnu/10/libgcc.a(unordtf2.o)
                0x00000000004f0430                __unordtf2
 .text          0x00000000004f0500       0xf0 0x10 /usr/lib/gcc-cross/aarch64-linux-gnu/10/libgcc.a(fixtfsi.o)
                0x00000000004f0500                __fixtfsi
 .text          0x00000000004f05f0       0xdc 0x10 /usr/lib/gcc-cross/aarch64-linux-gnu/10/libgcc.a(fixunstfsi.o)
                0x00000000004f05f0                __fixunstfsi
 .text          0x00000000004f06d0       0x78 0x10 /usr/lib/gcc-cross/aarch64-linux-gnu/10/libgcc.a(floatsitf.o)
                0x00000000004f06d0                __floatsitf
 .text          0x00000000004f0750       0x64 0x10 /usr/lib/gcc-cross/aarch64-linux-gnu/10/libgcc.a(floatunsitf.o)
                0x00000000004f0750                __floatunsitf
 .text          0x00000000004f07c0       0xc0 0x10 /usr/lib/gcc-cross/aarch64-linux-gnu/10/libgcc.a(floatditf.o)
                0x00000000004f07c0                __floatditf
 .text          0x00000000004f0880      0x134 0x10 /usr/lib/gcc-cross/aarch64-linux-gnu/10/libgcc.a(extendsftf2.o)
                0x00000000004f0880                __extendsftf2
 .text          0x00000000004f09c0      0x150 0x10 /usr/lib/gcc-cross/aarch64-linux-gnu/10/libgcc.a(extenddftf2.o)
                0x00000000004f09c0                __extenddftf2
 .text          0x00000000004f0b10      0x2a8 0x10 /usr/lib/gcc-cross/aarch64-linux-gnu/10/libgcc.a(trunctfsf2.o)
                0x00000000004f0b10                __trunctfsf2
 .text          0x00000000004f0dc0      0x310 0x10 /usr/lib/gcc-cross/aarch64-linux-gnu/10/libgcc.a(trunctfdf2.o)
                0x00000000004f0dc0                __trunctfdf2
 .text          0xffffffffffffffff       0x70 0x10 /usr/lib/gcc-cross/aarch64-linux-gnu/10/libgcc.a(sfp-exceptions.o)
                0x00000000004f10d0                __sfp_handle_exceptions

.rodata         0x00000000004f1140     0xdc8c
 ** merge constants
                0x00000000004f1140      0x170
 .rodata.benchmark__str_long_op___
                0x00000000004f12b0       0x1a 0x1 build_aarch64/benchmark.o
                0x00000000004f12b0                benchmark__str_long_op___
 .rodata.benchmark__str_1_
                0x00000000004f12ca        0x1 0x1 build_aarch64/benchmark.o
                0x00000000004f12ca                benchmark__str_1_
 .rodata.benchmark__str_2_____finish
                0x00000000004f12cb       0x19 0x1 build_aarch64/benchmark.o
                0x00000000004f12cb                benchmark__str_2_____finish
 .rodata.benchmark__str_3_dbbench_sq
                0x00000000004f12e4       0x10 0x1 build_aarch64/benchmark.o
                0x00000000004f12e4                benchmark__str_3_dbbench_sq
 .rodata.benchmark__str_4_fillseq_
                0x00000000004f12f4        0x8 0x1 build_aarch64/benchmark.o
                0x00000000004f12f4                benchmark__str_4_fillseq_
 .rodata.benchmark__str_5_fillseqbat
                0x00000000004f12fc        0xd 0x1 build_aarch64/benchmark.o
                0x00000000004f12fc                benchmark__str_5_fillseqbat
 .rodata.benchmark__str_6_fillrandom
                0x00000000004f1309        0xb 0x1 build_aarch64/benchmark.o
                0x00000000004f1309                benchmark__str_6_fillrandom
 .rodata.benchmark__str_7_fillrandba
                0x00000000004f1314        0xe 0x1 build_aarch64/benchmark.o
                0x00000000004f1314                benchmark__str_7_fillrandba
 .rodata.benchmark__str_8_overwrite_
                0x00000000004f1322        0xa 0x1 build_aarch64/benchmark.o
                0x00000000004f1322                benchmark__str_8_overwrite_
 .rodata.benchmark__str_9_overwriteb
                0x00000000004f132c        0xf 0x1 build_aarch64/benchmark.o
                0x00000000004f132c                benchmark__str_9_overwriteb
 .rodata.benchmark__str_10_fillrandsy
                0x00000000004f133b        0xd 0x1 build_aarch64/benchmark.o
                0x00000000004f133b                benchmark__str_10_fillrandsy
 .rodata.benchmark__str_11_fillseqsyn
                0x00000000004f1348        0xc 0x1 build_aarch64/benchmark.o
                0x00000000004f1348                benchmark__str_11_fillseqsyn
 .rodata.benchmark__str_12_fillrand10
                0x00000000004f1354        0xd 0x1 build_aarch64/benchmark.o
                0x00000000004f1354                benchmark__str_12_fillrand10
 .rodata.benchmark__str_13_fillseq100
                0x00000000004f1361        0xc 0x1 build_aarch64/benchmark.o
                0x00000000004f1361                benchmark__str_13_fillseq100
 .rodata.benchmark__str_14_readseq_
                0x00000000004f136d        0x8 0x1 build_aarch64/benchmark.o
                0x00000000004f136d                benchmark__str_14_readseq_
 .rodata.benchmark__str_15_readrandom
                0x00000000004f1375        0xb 0x1 build_aarch64/benchmark.o
                0x00000000004f1375                benchmark__str_15_readrandom
 .rodata.benchmark__str_16_readrand10
                0x00000000004f1380        0xd 0x1 build_aarch64/benchmark.o
                0x00000000004f1380                benchmark__str_16_readrand10
 .rodata.benchmark__str_17_unknown_be
                0x00000000004f138d       0x18 0x1 build_aarch64/benchmark.o
                0x00000000004f138d                benchmark__str_17_unknown_be
 .rodata.benchmark__str_18__sdbbench_
                0x00000000004f13a5       0x18 0x1 build_aarch64/benchmark.o
                0x00000000004f13a5                benchmark__str_18__sdbbench_
 .rodata.benchmark__str_19_open_error
                0x00000000004f13bd       0x10 0x1 build_aarch64/benchmark.o
                0x00000000004f13bd                benchmark__str_19_open_error
 .rodata.benchmark__str_20_PRAGMA_cac
                0x00000000004f13cd       0x17 0x1 build_aarch64/benchmark.o
                0x00000000004f13cd                benchmark__str_20_PRAGMA_cac
 .rodata.benchmark__str_21_PRAGMA_pag
                0x00000000004f13e4       0x16 0x1 build_aarch64/benchmark.o
                0x00000000004f13e4                benchmark__str_21_PRAGMA_pag
 .rodata.benchmark__str_22_PRAGMA_jou
                0x00000000004f13fa       0x1a 0x1 build_aarch64/benchmark.o
                0x00000000004f13fa                benchmark__str_22_PRAGMA_jou
 .rodata.benchmark__str_23_PRAGMA_wal
                0x00000000004f1414       0x21 0x1 build_aarch64/benchmark.o
                0x00000000004f1414                benchmark__str_23_PRAGMA_wal
 .rodata.benchmark__str_24_PRAGMA_loc
                0x00000000004f1435       0x20 0x1 build_aarch64/benchmark.o
                0x00000000004f1435                benchmark__str_24_PRAGMA_loc
 .rodata.benchmark__str_25_CREATE_TAB
                0x00000000004f1455       0x3c 0x1 build_aarch64/benchmark.o
                0x00000000004f1455                benchmark__str_25_CREATE_TAB
 .rodata.benchmark__str_26_skipping__
                0x00000000004f1491       0x25 0x1 build_aarch64/benchmark.o
                0x00000000004f1491                benchmark__str_26_skipping__
 .rodata.benchmark__str_27___d_ops__
                0x00000000004f14b6        0x9 0x1 build_aarch64/benchmark.o
                0x00000000004f14b6                benchmark__str_27___d_ops__
 .rodata.benchmark__str_28_REPLACE_IN
                0x00000000004f14bf       0x2d 0x1 build_aarch64/benchmark.o
                0x00000000004f14bf                benchmark__str_28_REPLACE_IN
 .rodata.benchmark__str_29_BEGIN_TRAN
                0x00000000004f14ec       0x12 0x1 build_aarch64/benchmark.o
                0x00000000004f14ec                benchmark__str_29_BEGIN_TRAN
 .rodata.benchmark__str_30_END_TRANSA
                0x00000000004f14fe       0x10 0x1 build_aarch64/benchmark.o
                0x00000000004f14fe                benchmark__str_30_END_TRANSA
 .rodata.benchmark__str_31_PRAGMA_syn
                0x00000000004f150e       0x1a 0x1 build_aarch64/benchmark.o
                0x00000000004f150e                benchmark__str_31_PRAGMA_syn
 .rodata.benchmark__str_32_PRAGMA_syn
                0x00000000004f1528       0x19 0x1 build_aarch64/benchmark.o
                0x00000000004f1528                benchmark__str_32_PRAGMA_syn
 .rodata.benchmark__str_33__016d_
                0x00000000004f1541        0x6 0x1 build_aarch64/benchmark.o
                0x00000000004f1541                benchmark__str_33__016d_
 .rodata.benchmark__str_34_SELECT___F
                0x00000000004f1547       0x21 0x1 build_aarch64/benchmark.o
                0x00000000004f1547                benchmark__str_34_SELECT___F
 .rodata.benchmark__str_35_sqlite3_er
                0x00000000004f1568       0x1c 0x1 build_aarch64/benchmark.o
                0x00000000004f1568                benchmark__str_35_sqlite3_er
 .rodata.benchmark__str_36_Keys______
                0x00000000004f1584       0x1b 0x1 build_aarch64/benchmark.o
                0x00000000004f1584                benchmark__str_36_Keys______
 .rodata.benchmark__str_37_Values____
                0x00000000004f159f       0x1b 0x1 build_aarch64/benchmark.o
                0x00000000004f159f                benchmark__str_37_Values____
 .rodata.benchmark__str_38_Entries___
                0x00000000004f15ba       0x10 0x1 build_aarch64/benchmark.o
                0x00000000004f15ba                benchmark__str_38_Entries___
 .rodata.benchmark__str_39_RawSize___
                0x00000000004f15ca       0x21 0x1 build_aarch64/benchmark.o
                0x00000000004f15ca                benchmark__str_39_RawSize___
 .rodata.benchmark__str_40___________
                0x00000000004f15eb       0x32 0x1 build_aarch64/benchmark.o
                0x00000000004f15eb                benchmark__str_40___________
 .rodata.benchmark__str_41_SQLite____
                0x00000000004f161d       0x18 0x1 build_aarch64/benchmark.o
                0x00000000004f161d                benchmark__str_41_SQLite____
 .rodata.benchmark__str_42_3_25_2_
                0x00000000004f1635        0x7 0x1 build_aarch64/benchmark.o
                0x00000000004f1635                benchmark__str_42_3_25_2_
 .rodata.benchmark__str_43__6_1f_MB_s
                0x00000000004f163c        0xb 0x1 build_aarch64/benchmark.o
                0x00000000004f163c                benchmark__str_43__6_1f_MB_s
 .rodata.benchmark__str_44___
                0x00000000004f1647        0x2 0x1 build_aarch64/benchmark.o
                0x00000000004f1647                benchmark__str_44___
 .rodata.benchmark__str_45___12s____1
                0x00000000004f1649       0x1f 0x1 build_aarch64/benchmark.o
                0x00000000004f1649                benchmark__str_45___12s____1
 .rodata.benchmark__str_46_Microsecon
                0x00000000004f1668       0x19 0x1 build_aarch64/benchmark.o
                0x00000000004f1668                benchmark__str_46_Microsecon
 .rodata.benchmark__str_47_SQL_error_
                0x00000000004f1681        0xf 0x1 build_aarch64/benchmark.o
                0x00000000004f1681                benchmark__str_47_SQL_error_
 .rodata.benchmark__str_48_SQL_step_e
                0x00000000004f1690       0x1d 0x1 build_aarch64/benchmark.o
                0x00000000004f1690                benchmark__str_48_SQL_step_e
 .rodata.histogram_c_bucket_limit
                0x00000000004f16b0      0x4d0 0x8 build_aarch64/histogram.o
 .rodata.histogram__str_1_Count____0
                0x00000000004f1b80       0x2a 0x1 build_aarch64/histogram.o
                0x00000000004f1b80                histogram__str_1_Count____0
 .rodata.histogram__str_2_Min____4f_
                0x00000000004f1baa       0x24 0x1 build_aarch64/histogram.o
                0x00000000004f1baa                histogram__str_2_Min____4f_
 .rodata.histogram__str_3___________
                0x00000000004f1bce       0x38 0x1 build_aarch64/histogram.o
                0x00000000004f1bce                histogram__str_3___________
 .rodata.histogram__str_4____7_0f___
                0x00000000004f1c06       0x27 0x1 build_aarch64/histogram.o
                0x00000000004f1c06                histogram__str_4____7_0f___
 .rodata.main__str_fillseq_fi
                0x00000000004f1c2d       0xa2 0x1 build_aarch64/main.o
                0x00000000004f1c2d                main__str_fillseq_fi
 .rodata.main__str_1_Usage___s_
                0x00000000004f1ccf       0x17 0x1 build_aarch64/main.o
                0x00000000004f1ccf                main__str_1_Usage___s_
 .rodata.main__str_2_SQLite3_be
                0x00000000004f1ce6       0x18 0x1 build_aarch64/main.o
                0x00000000004f1ce6                main__str_2_SQLite3_be
 .rodata.main__str_3__OPTION___
                0x00000000004f1cfe        0xa 0x1 build_aarch64/main.o
                0x00000000004f1cfe                main__str_3__OPTION___
 .rodata.main__str_4_____benchm
                0x00000000004f1d08       0x2b 0x1 build_aarch64/main.o
                0x00000000004f1d08                main__str_4_____benchm
 .rodata.main__str_5_____histog
                0x00000000004f1d33       0x27 0x1 build_aarch64/main.o
                0x00000000004f1d33                main__str_5_____histog
 .rodata.main__str_6_____raw__0
                0x00000000004f1d5a       0x21 0x1 build_aarch64/main.o
                0x00000000004f1d5a                main__str_6_____raw__0
 .rodata.main__str_7_____compre
                0x00000000004f1d7b       0x30 0x1 build_aarch64/main.o
                0x00000000004f1d7b                main__str_7_____compre
 .rodata.main__str_8_____use_ex
                0x00000000004f1dab       0x31 0x1 build_aarch64/main.o
                0x00000000004f1dab                main__str_8_____use_ex
 .rodata.main__str_9_____num_IN
                0x00000000004f1ddc       0x21 0x1 build_aarch64/main.o
                0x00000000004f1ddc                main__str_9_____num_IN
 .rodata.main__str_10_____reads_
                0x00000000004f1dfd       0x21 0x1 build_aarch64/main.o
                0x00000000004f1dfd                main__str_10_____reads_
 .rodata.main__str_11_____value_
                0x00000000004f1e1e       0x20 0x1 build_aarch64/main.o
                0x00000000004f1e1e                main__str_11_____value_
 .rodata.main__str_12_____no_tra
                0x00000000004f1e3e       0x29 0x1 build_aarch64/main.o
                0x00000000004f1e3e                main__str_12_____no_tra
 .rodata.main__str_13_____page_s
                0x00000000004f1e67       0x1e 0x1 build_aarch64/main.o
                0x00000000004f1e67                main__str_13_____page_s
 .rodata.main__str_14_____num_pa
                0x00000000004f1e85       0x24 0x1 build_aarch64/main.o
                0x00000000004f1e85                main__str_14_____num_pa
 .rodata.main__str_15_____WAL_en
                0x00000000004f1ea9       0x23 0x1 build_aarch64/main.o
                0x00000000004f1ea9                main__str_15_____WAL_en
 .rodata.main__str_16_____db_PAT
                0x00000000004f1ecc       0x36 0x1 build_aarch64/main.o
                0x00000000004f1ecc                main__str_16_____db_PAT
 .rodata.main__str_17_____help__
                0x00000000004f1f02       0x1b 0x1 build_aarch64/main.o
                0x00000000004f1f02                main__str_17_____help__
 .rodata.main__str_19__BENCH___
                0x00000000004f1f1d        0x9 0x1 build_aarch64/main.o
                0x00000000004f1f1d                main__str_19__BENCH___
 .rodata.main__str_20___fillseq_
                0x00000000004f1f26       0x40 0x1 build_aarch64/main.o
                0x00000000004f1f26                main__str_20___fillseq_
 .rodata.main__str_21___fillseqs
                0x00000000004f1f66       0x47 0x1 build_aarch64/main.o
                0x00000000004f1f66                main__str_21___fillseqs
 .rodata.main__str_22___fillseqb
                0x00000000004f1fad       0x4b 0x1 build_aarch64/main.o
                0x00000000004f1fad                main__str_22___fillseqb
 .rodata.main__str_23___fillrand
                0x00000000004f1ff8       0x3f 0x1 build_aarch64/main.o
                0x00000000004f1ff8                main__str_23___fillrand
 .rodata.main__str_24___fillrand
                0x00000000004f2037       0x44 0x1 build_aarch64/main.o
                0x00000000004f2037                main__str_24___fillrand
 .rodata.main__str_25___fillrand
                0x00000000004f207b       0x48 0x1 build_aarch64/main.o
                0x00000000004f207b                main__str_25___fillrand
 .rodata.main__str_26___overwrit
                0x00000000004f20c3       0x42 0x1 build_aarch64/main.o
                0x00000000004f20c3                main__str_26___overwrit
 .rodata.main__str_27___fillrand
                0x00000000004f2105       0x47 0x1 build_aarch64/main.o
                0x00000000004f2105                main__str_27___fillrand
 .rodata.main__str_28___fillseq1
                0x00000000004f214c       0x4a 0x1 build_aarch64/main.o
                0x00000000004f214c                main__str_28___fillseq1
 .rodata.main__str_29___readseq_
                0x00000000004f2196       0x25 0x1 build_aarch64/main.o
                0x00000000004f2196                main__str_29___readseq_
 .rodata.main__str_30___readrand
                0x00000000004f21bb       0x2b 0x1 build_aarch64/main.o
                0x00000000004f21bb                main__str_30___readrand
 .rodata.main__str_31___readrand
                0x00000000004f21e6       0x4a 0x1 build_aarch64/main.o
                0x00000000004f21e6                main__str_31___readrand
 .rodata.main__str_32____
                0x00000000004f2230        0x3 0x1 build_aarch64/main.o
                0x00000000004f2230                main__str_32____
 .rodata.main__str_33___benchmar
                0x00000000004f2233        0xe 0x1 build_aarch64/main.o
                0x00000000004f2233                main__str_33___benchmar
 .rodata.main__str_34___histogra
                0x00000000004f2241       0x11 0x1 build_aarch64/main.o
                0x00000000004f2241                main__str_34___histogra
 .rodata.main__str_35___raw__d_c
                0x00000000004f2252        0xb 0x1 build_aarch64/main.o
                0x00000000004f2252                main__str_35___raw__d_c
 .rodata.main__str_36___compress
                0x00000000004f225d       0x1a 0x1 build_aarch64/main.o
                0x00000000004f225d                main__str_36___compress
 .rodata.main__str_37___use_exis
                0x00000000004f2277       0x17 0x1 build_aarch64/main.o
                0x00000000004f2277                main__str_37___use_exis
 .rodata.main__str_38___num__d_c
                0x00000000004f228e        0xb 0x1 build_aarch64/main.o
                0x00000000004f228e                main__str_38___num__d_c
 .rodata.main__str_39___reads__d
                0x00000000004f2299        0xd 0x1 build_aarch64/main.o
                0x00000000004f2299                main__str_39___reads__d
 .rodata.main__str_40___value_si
                0x00000000004f22a6       0x12 0x1 build_aarch64/main.o
                0x00000000004f22a6                main__str_40___value_si
 .rodata.main__str_41___no_trans
                0x00000000004f22b8       0x11 0x1 build_aarch64/main.o
                0x00000000004f22b8                main__str_41___no_trans
 .rodata.main__str_42___page_siz
                0x00000000004f22c9       0x11 0x1 build_aarch64/main.o
                0x00000000004f22c9                main__str_42___page_siz
 .rodata.main__str_43___num_page
                0x00000000004f22da       0x11 0x1 build_aarch64/main.o
                0x00000000004f22da                main__str_43___num_page
 .rodata.main__str_44___WAL_enab
                0x00000000004f22eb       0x13 0x1 build_aarch64/main.o
                0x00000000004f22eb                main__str_44___WAL_enab
 .rodata.main__str_45___db__
                0x00000000004f22fe        0x6 0x1 build_aarch64/main.o
                0x00000000004f22fe                main__str_45___db__
 .rodata.main__str_46___help_
                0x00000000004f2304        0x7 0x1 build_aarch64/main.o
                0x00000000004f2304                main__str_46___help_
 .rodata.main__str_47_Invalid_fl
                0x00000000004f230b       0x13 0x1 build_aarch64/main.o
                0x00000000004f230b                main__str_47_Invalid_fl
 .rodata.raw__str_1___4f__
                0x00000000004f231e        0x6 0x1 build_aarch64/raw.o
                0x00000000004f231e                raw__str_1___4f__
 .rodata.raw__str_2_num_time__
                0x00000000004f2324        0xa 0x1 build_aarch64/raw.o
                0x00000000004f2324                raw__str_2_num_time__
 .rodata.raw__str_3__d___4f__
                0x00000000004f232e        0x9 0x1 build_aarch64/raw.o
                0x00000000004f232e                raw__str_3__d___4f__
 .rodata.raw__str_4_realloc_fa
                0x00000000004f2337       0x10 0x1 build_aarch64/raw.o
                0x00000000004f2337                raw__str_4_realloc_fa
 .rodata.sqlite3_db_status
                0x00000000004f2347        0xd 0x1 build_aarch64/sqlite3.o
 ** merge constants
                0x00000000004f2360      0x3c0
 .rodata.sqlite3_str_vappendf
                0x00000000004f2720       0xcf 0x2 build_aarch64/sqlite3.o
 .rodata.sqlite3_step
                0x00000000004f27ef       0x10 0x1 build_aarch64/sqlite3.o
 .rodata.sqlite3_bind_value
                0x00000000004f27ff        0x4 0x1 build_aarch64/sqlite3.o
 .rodata.sqlite3_complete
                0x00000000004f2804       0xc2 0x2 build_aarch64/sqlite3.o
 .rodata.sqlite3_config
                0x00000000004f28c6       0x36 0x2 build_aarch64/sqlite3.o
 .rodata.sqlite3_db_config
                0x00000000004f28fc        0xa 0x1 build_aarch64/sqlite3.o
 .rodata.sqlite3_file_control
                0x00000000004f2906       0x1d 0x1 build_aarch64/sqlite3.o
 .rodata.sqlite3_test_control
                0x00000000004f2924       0x2a 0x2 build_aarch64/sqlite3.o
 .rodata.unixFileControl
                0x00000000004f294e       0x14 0x1 build_aarch64/sqlite3.o
 .rodata.freeP4
                0x00000000004f2962        0xb 0x1 build_aarch64/sqlite3.o
 ** merge constants
                0x00000000004f2970       0x20
 .rodata.sqlite3VdbeExec
                0x00000000004f2990      0x15c 0x2 build_aarch64/sqlite3.o
 .rodata.sqlite3VdbeMemCast
                0x00000000004f2aec        0x5 0x1 build_aarch64/sqlite3.o
 .rodata.sqlite3VdbeSerialGet
                0x00000000004f2af1        0xc 0x1 build_aarch64/sqlite3.o
 .rodata.vdbeRecordCompareInt
                0x00000000004f2afd        0xa 0x1 build_aarch64/sqlite3.o
 .rodata.sqlite3VdbeRecordCompareWithSkip
                0x00000000004f2b07        0x6 0x1 build_aarch64/sqlite3.o
 .rodata.sqlite3GetToken
                0x00000000004f2b0e       0x3a 0x2 build_aarch64/sqlite3.o
 .rodata.resolveP2Values
                0x00000000004f2b48        0xb 0x1 build_aarch64/sqlite3.o
 .rodata.sqlite3ExprCollSeq
                0x00000000004f2b53        0x7 0x1 build_aarch64/sqlite3.o
 .rodata.yy_reduce
                0x00000000004f2b5a      0x26a 0x2 build_aarch64/sqlite3.o
 .rodata.yy_destructor
                0x00000000004f2dc4       0x67 0x1 build_aarch64/sqlite3.o
 .rodata.sqlite3Select
                0x00000000004f2e2b        0x6 0x1 build_aarch64/sqlite3.o
 .rodata.sqlite3Pragma
                0x00000000004f2e32       0x50 0x2 build_aarch64/sqlite3.o
 .rodata.sqlite3ExprCodeTarget
                0x00000000004f2e82      0x12e 0x2 build_aarch64/sqlite3.o
 .rodata.sqlite3ExprIfFalse
                0x00000000004f2fb0       0x91 0x1 build_aarch64/sqlite3.o
 .rodata.valueFromExpr
                0x00000000004f3042       0x70 0x2 build_aarch64/sqlite3.o
 .rodata.exprNodeIsConstant
                0x00000000004f30b2       0x18 0x1 build_aarch64/sqlite3.o
 .rodata.sqlite3ExprIfTrue
                0x00000000004f30ca       0x91 0x1 build_aarch64/sqlite3.o
 .rodata.resolveExprStep
                0x00000000004f315c      0x114 0x2 build_aarch64/sqlite3.o
 .rodata.selectInnerLoop
                0x00000000004f3270       0x1c 0x2 build_aarch64/sqlite3.o
 .rodata.impliesNotNullRow
                0x00000000004f328c       0x8c 0x1 build_aarch64/sqlite3.o
 .rodata.generateOutputSubroutine
                0x00000000004f3318        0x4 0x1 build_aarch64/sqlite3.o
 .rodata.sqlite3WhereCodeOneLoopStart
                0x00000000004f331c       0x12 0x1 build_aarch64/sqlite3.o
 .rodata.updateRangeAffinityStr
                0x00000000004f332e       0x12 0x1 build_aarch64/sqlite3.o
 .rodata.sqlite3GenerateConstraintChecks
                0x00000000004f3340        0xa 0x1 build_aarch64/sqlite3.o
 .rodata.getSafetyLevel
                0x00000000004f334a        0x4 0x1 build_aarch64/sqlite3.o
 .rodata.quoteFunc
                0x00000000004f334e        0x4 0x1 build_aarch64/sqlite3.o
 .rodata.strftimeFunc
                0x00000000004f3352       0x83 0x1 build_aarch64/sqlite3.o
 .rodata.isDate
                0x00000000004f33d6       0x9a 0x2 build_aarch64/sqlite3.o
 .rodata.sqlite3_version
                0x00000000004f3470        0x7 0x1 build_aarch64/sqlite3.o
                0x00000000004f3470                sqlite3_version
 .rodata.sqlite3one
                0x00000000004f3478        0x4 0x4 build_aarch64/sqlite3.o
                0x00000000004f3478                sqlite3one
 .rodata.sqlite3__str___
                0x00000000004f347c        0x2 0x1 build_aarch64/sqlite3.o
                0x00000000004f347c                sqlite3__str___
 .rodata.sqlite3_c_fmtinfo
                0x00000000004f347e       0x8a 0x1 build_aarch64/sqlite3.o
 ** merge strings
                0x00000000004f3508       0xa4
 .rodata.sqlite3_c_aPrefix
                0x00000000004f35ac        0x7 0x1 build_aarch64/sqlite3.o
 .rodata.sqlite3__str_1_NaN_
                0x00000000004f35b3        0x4 0x1 build_aarch64/sqlite3.o
                0x00000000004f35b3                sqlite3__str_1_NaN_
 .rodata.sqlite3__str_3_
                0x00000000004f35b7        0x1 0x1 build_aarch64/sqlite3.o
                0x00000000004f35b7                sqlite3__str_3_
 .rodata.sqlite3__str_4_NULL_
                0x00000000004f35b8        0x5 0x1 build_aarch64/sqlite3.o
                0x00000000004f35b8                sqlite3__str_4_NULL_
 .rodata.sqlite3__str_5__NULL__
                0x00000000004f35bd        0x7 0x1 build_aarch64/sqlite3.o
                0x00000000004f35bd                sqlite3__str_5__NULL__
 .rodata.sqlite3__str_6___
                0x00000000004f35c4        0x2 0x1 build_aarch64/sqlite3.o
                0x00000000004f35c4                sqlite3__str_6___
 .rodata.sqlite3_c_sqlite3UpperToLower
                0x00000000004f35c6      0x100 0x1 build_aarch64/sqlite3.o
 .rodata.sqlite3__str_7_unix_
                0x00000000004f36c6        0x5 0x1 build_aarch64/sqlite3.o
                0x00000000004f36c6                sqlite3__str_7_unix_
 .rodata.sqlite3_c_posixIoFinder
                0x00000000004f36d0        0x8 0x8 build_aarch64/sqlite3.o
 .rodata.sqlite3__str_8_unix_none_
                0x00000000004f36d8        0xa 0x1 build_aarch64/sqlite3.o
                0x00000000004f36d8                sqlite3__str_8_unix_none_
 .rodata.sqlite3_c_nolockIoFinder
                0x00000000004f36e8        0x8 0x8 build_aarch64/sqlite3.o
 .rodata.sqlite3__str_9_unix_dotfi
                0x00000000004f36f0        0xd 0x1 build_aarch64/sqlite3.o
                0x00000000004f36f0                sqlite3__str_9_unix_dotfi
 .rodata.sqlite3_c_dotlockIoFinder
                0x00000000004f3700        0x8 0x8 build_aarch64/sqlite3.o
 .rodata.sqlite3__str_10_unix_excl_
                0x00000000004f3708        0xa 0x1 build_aarch64/sqlite3.o
                0x00000000004f3708                sqlite3__str_10_unix_excl_
 .rodata.sqlite3__str_11_source_and
                0x00000000004f3712       0x28 0x1 build_aarch64/sqlite3.o
                0x00000000004f3712                sqlite3__str_11_source_and
 ** merge constants
                0x00000000004f373a       0x40
 .rodata.sqlite3__str_12_string_or_
                0x00000000004f377a       0x17 0x1 build_aarch64/sqlite3.o
                0x00000000004f377a                sqlite3__str_12_string_or_
 .rodata.sqlite3__str_13_cannot_ope
                0x00000000004f3791       0x1e 0x1 build_aarch64/sqlite3.o
                0x00000000004f3791                sqlite3__str_13_cannot_ope
 .rodata.sqlite3__str_14_cannot_ope
                0x00000000004f37af       0x24 0x1 build_aarch64/sqlite3.o
                0x00000000004f37af                sqlite3__str_14_cannot_ope
 .rodata.sqlite3__str_15_cannot_ope
                0x00000000004f37d3       0x15 0x1 build_aarch64/sqlite3.o
                0x00000000004f37d3                sqlite3__str_15_cannot_ope
 .rodata.sqlite3__str_16_no_such_co
                0x00000000004f37e8       0x15 0x1 build_aarch64/sqlite3.o
                0x00000000004f37e8                sqlite3__str_16_no_such_co
 .rodata.sqlite3__str_17_foreign_ke
                0x00000000004f37fd        0xc 0x1 build_aarch64/sqlite3.o
                0x00000000004f37fd                sqlite3__str_17_foreign_ke
 .rodata.sqlite3__str_18_indexed_
                0x00000000004f3809        0x8 0x1 build_aarch64/sqlite3.o
                0x00000000004f3809                sqlite3__str_18_indexed_
 .rodata.sqlite3__str_19_cannot_ope
                0x00000000004f3811       0x22 0x1 build_aarch64/sqlite3.o
                0x00000000004f3811                sqlite3__str_19_cannot_ope
 .rodata.sqlite3__str_20__s_
                0x00000000004f3833        0x3 0x1 build_aarch64/sqlite3.o
                0x00000000004f3833                sqlite3__str_20__s_
 .rodata.sqlite3_c_globInfo
                0x00000000004f3836        0x4 0x1 build_aarch64/sqlite3.o
 .rodata.sqlite3_c_likeInfoNorm
                0x00000000004f383a        0x4 0x1 build_aarch64/sqlite3.o
 .rodata.sqlite3_c_sqlite3CtypeMap
                0x00000000004f383e      0x100 0x1 build_aarch64/sqlite3.o
 .rodata.sqlite3_c_sqlite3_vtab_on_conflict_aMap
                0x00000000004f393e        0x5 0x1 build_aarch64/sqlite3.o
 .rodata.sqlite3_c_zKWText
                0x00000000004f3943      0x265 0x1 build_aarch64/sqlite3.o
 .rodata.sqlite3_c_aKWOffset
                0x00000000004f3ba8      0x110 0x2 build_aarch64/sqlite3.o
 .rodata.sqlite3_c_aKWLen
                0x00000000004f3cb8       0x88 0x1 build_aarch64/sqlite3.o
 .rodata.sqlite3_c_sqlite3_complete_trans
                0x00000000004f3d40       0x40 0x1 build_aarch64/sqlite3.o
 .rodata.sqlite3__str_21_create_
                0x00000000004f3d80        0x7 0x1 build_aarch64/sqlite3.o
                0x00000000004f3d80                sqlite3__str_21_create_
 .rodata.sqlite3__str_22_trigger_
                0x00000000004f3d87        0x8 0x1 build_aarch64/sqlite3.o
                0x00000000004f3d87                sqlite3__str_22_trigger_
 .rodata.sqlite3__str_23_temp_
                0x00000000004f3d8f        0x5 0x1 build_aarch64/sqlite3.o
                0x00000000004f3d8f                sqlite3__str_23_temp_
 .rodata.sqlite3__str_24_temporary_
                0x00000000004f3d94        0xa 0x1 build_aarch64/sqlite3.o
                0x00000000004f3d94                sqlite3__str_24_temporary_
 .rodata.sqlite3__str_25_end_
                0x00000000004f3d9e        0x4 0x1 build_aarch64/sqlite3.o
                0x00000000004f3d9e                sqlite3__str_25_end_
 .rodata.sqlite3__str_26_explain_
                0x00000000004f3da2        0x8 0x1 build_aarch64/sqlite3.o
                0x00000000004f3da2                sqlite3__str_26_explain_
 .rodata.sqlite3_c_sqlite3_db_config_aFlagOp
                0x00000000004f3dac       0x40 0x4 build_aarch64/sqlite3.o
 .rodata.sqlite3__str_27_unknown_da
                0x00000000004f3dec       0x15 0x1 build_aarch64/sqlite3.o
                0x00000000004f3dec                sqlite3__str_27_unknown_da
 .rodata.sqlite3_c_sqlite3_errmsg16_outOfMem
                0x00000000004f3e02       0x1c 0x2 build_aarch64/sqlite3.o
 .rodata.sqlite3_c_sqlite3_errmsg16_misuse
                0x00000000004f3e1e       0x44 0x2 build_aarch64/sqlite3.o
 .rodata.sqlite3_c_aHardLimit
                0x00000000004f3e64       0x30 0x4 build_aarch64/sqlite3.o
 .rodata.sqlite3__str_28_
                0x00000000004f3e94        0x3 0x1 build_aarch64/sqlite3.o
                0x00000000004f3e94                sqlite3__str_28_
 .rodata.sqlite3__str_29_INTEGER_
                0x00000000004f3e97        0x8 0x1 build_aarch64/sqlite3.o
                0x00000000004f3e97                sqlite3__str_29_INTEGER_
 .rodata.sqlite3__str_30_no_such_ta
                0x00000000004f3e9f       0x1c 0x1 build_aarch64/sqlite3.o
                0x00000000004f3e9f                sqlite3__str_30_no_such_ta
 .rodata.sqlite3__str_31_SQLITE__
                0x00000000004f3ebb        0x8 0x1 build_aarch64/sqlite3.o
                0x00000000004f3ebb                sqlite3__str_31_SQLITE__
 .rodata.sqlite3__str_32_2018_09_25
                0x00000000004f3ec3       0x55 0x1 build_aarch64/sqlite3.o
                0x00000000004f3ec3                sqlite3__str_32_2018_09_25
 .rodata.sqlite3_c_sqlite3DefaultMutex_sMutex
                0x00000000004f3f18       0x48 0x8 build_aarch64/sqlite3.o
 .rodata.sqlite3_c_sqlite3NoopMutex_sMutex
                0x00000000004f3f60       0x48 0x8 build_aarch64/sqlite3.o
 .rodata.sqlite3_c_posixIoMethods
                0x00000000004f3fa8       0x98 0x8 build_aarch64/sqlite3.o
 .rodata.sqlite3__str_33_cannot_fst
                0x00000000004f4040       0x18 0x1 build_aarch64/sqlite3.o
                0x00000000004f4040                sqlite3__str_33_cannot_fst
 .rodata.sqlite3__str_34_file_unlin
                0x00000000004f4058       0x1d 0x1 build_aarch64/sqlite3.o
                0x00000000004f4058                sqlite3__str_34_file_unlin
 .rodata.sqlite3__str_35_multiple_l
                0x00000000004f4075       0x1b 0x1 build_aarch64/sqlite3.o
                0x00000000004f4075                sqlite3__str_35_multiple_l
 .rodata.sqlite3__str_36_file_renam
                0x00000000004f4090       0x1c 0x1 build_aarch64/sqlite3.o
                0x00000000004f4090                sqlite3__str_36_file_renam
 .rodata.sqlite3__str_37_open_
                0x00000000004f40ac        0x5 0x1 build_aarch64/sqlite3.o
                0x00000000004f40ac                sqlite3__str_37_open_
 .rodata.sqlite3__str_38_close_
                0x00000000004f40b1        0x6 0x1 build_aarch64/sqlite3.o
                0x00000000004f40b1                sqlite3__str_38_close_
 .rodata.sqlite3__str_39_access_
                0x00000000004f40b7        0x7 0x1 build_aarch64/sqlite3.o
                0x00000000004f40b7                sqlite3__str_39_access_
 .rodata.sqlite3__str_40_getcwd_
                0x00000000004f40be        0x7 0x1 build_aarch64/sqlite3.o
                0x00000000004f40be                sqlite3__str_40_getcwd_
 .rodata.sqlite3__str_41_stat_
                0x00000000004f40c5        0x5 0x1 build_aarch64/sqlite3.o
                0x00000000004f40c5                sqlite3__str_41_stat_
 .rodata.sqlite3__str_42_fstat_
                0x00000000004f40ca        0x6 0x1 build_aarch64/sqlite3.o
                0x00000000004f40ca                sqlite3__str_42_fstat_
 .rodata.sqlite3__str_43_ftruncate_
                0x00000000004f40d0        0xa 0x1 build_aarch64/sqlite3.o
                0x00000000004f40d0                sqlite3__str_43_ftruncate_
 .rodata.sqlite3__str_44_fcntl_
                0x00000000004f40da        0x6 0x1 build_aarch64/sqlite3.o
                0x00000000004f40da                sqlite3__str_44_fcntl_
 .rodata.sqlite3__str_45_read_
                0x00000000004f40e0        0x5 0x1 build_aarch64/sqlite3.o
                0x00000000004f40e0                sqlite3__str_45_read_
 .rodata.sqlite3__str_46_pread_
                0x00000000004f40e5        0x6 0x1 build_aarch64/sqlite3.o
                0x00000000004f40e5                sqlite3__str_46_pread_
 .rodata.sqlite3__str_47_pread64_
                0x00000000004f40eb        0x8 0x1 build_aarch64/sqlite3.o
                0x00000000004f40eb                sqlite3__str_47_pread64_
 .rodata.sqlite3__str_48_write_
                0x00000000004f40f3        0x6 0x1 build_aarch64/sqlite3.o
                0x00000000004f40f3                sqlite3__str_48_write_
 .rodata.sqlite3__str_49_pwrite_
                0x00000000004f40f9        0x7 0x1 build_aarch64/sqlite3.o
                0x00000000004f40f9                sqlite3__str_49_pwrite_
 .rodata.sqlite3__str_50_pwrite64_
                0x00000000004f4100        0x9 0x1 build_aarch64/sqlite3.o
                0x00000000004f4100                sqlite3__str_50_pwrite64_
 .rodata.sqlite3__str_51_fchmod_
                0x00000000004f4109        0x7 0x1 build_aarch64/sqlite3.o
                0x00000000004f4109                sqlite3__str_51_fchmod_
 .rodata.sqlite3__str_52_fallocate_
                0x00000000004f4110        0xa 0x1 build_aarch64/sqlite3.o
                0x00000000004f4110                sqlite3__str_52_fallocate_
 .rodata.sqlite3__str_53_unlink_
                0x00000000004f411a        0x7 0x1 build_aarch64/sqlite3.o
                0x00000000004f411a                sqlite3__str_53_unlink_
 .rodata.sqlite3__str_54_openDirect
                0x00000000004f4121        0xe 0x1 build_aarch64/sqlite3.o
                0x00000000004f4121                sqlite3__str_54_openDirect
 .rodata.sqlite3__str_55_mkdir_
                0x00000000004f412f        0x6 0x1 build_aarch64/sqlite3.o
                0x00000000004f412f                sqlite3__str_55_mkdir_
 .rodata.sqlite3__str_56_rmdir_
                0x00000000004f4135        0x6 0x1 build_aarch64/sqlite3.o
                0x00000000004f4135                sqlite3__str_56_rmdir_
 .rodata.sqlite3__str_57_fchown_
                0x00000000004f413b        0x7 0x1 build_aarch64/sqlite3.o
                0x00000000004f413b                sqlite3__str_57_fchown_
 .rodata.sqlite3__str_58_geteuid_
                0x00000000004f4142        0x8 0x1 build_aarch64/sqlite3.o
                0x00000000004f4142                sqlite3__str_58_geteuid_
 .rodata.sqlite3__str_59_mmap_
                0x00000000004f414a        0x5 0x1 build_aarch64/sqlite3.o
                0x00000000004f414a                sqlite3__str_59_mmap_
 .rodata.sqlite3__str_60_munmap_
                0x00000000004f414f        0x7 0x1 build_aarch64/sqlite3.o
                0x00000000004f414f                sqlite3__str_60_munmap_
 .rodata.sqlite3__str_61_mremap_
                0x00000000004f4156        0x7 0x1 build_aarch64/sqlite3.o
                0x00000000004f4156                sqlite3__str_61_mremap_
 .rodata.sqlite3__str_62_getpagesiz
                0x00000000004f415d        0xc 0x1 build_aarch64/sqlite3.o
                0x00000000004f415d                sqlite3__str_62_getpagesiz
 .rodata.sqlite3__str_63_readlink_
                0x00000000004f4169        0x9 0x1 build_aarch64/sqlite3.o
                0x00000000004f4169                sqlite3__str_63_readlink_
 .rodata.sqlite3__str_64_lstat_
                0x00000000004f4172        0x6 0x1 build_aarch64/sqlite3.o
                0x00000000004f4172                sqlite3__str_64_lstat_
 .rodata.sqlite3__str_65_ioctl_
                0x00000000004f4178        0x6 0x1 build_aarch64/sqlite3.o
                0x00000000004f4178                sqlite3__str_65_ioctl_
 .rodata.sqlite3__str_66_attempt_to
                0x00000000004f417e       0x2b 0x1 build_aarch64/sqlite3.o
                0x00000000004f417e                sqlite3__str_66_attempt_to
 .rodata.sqlite3__str_67__dev_null_
                0x00000000004f41a9        0xa 0x1 build_aarch64/sqlite3.o
                0x00000000004f41a9                sqlite3__str_67__dev_null_
 .rodata.sqlite3__str_68_os_unix_c_
                0x00000000004f41b3       0x1f 0x1 build_aarch64/sqlite3.o
                0x00000000004f41b3                sqlite3__str_68_os_unix_c_
 .rodata.sqlite3__str_69_cannot_ope
                0x00000000004f41d2       0x11 0x1 build_aarch64/sqlite3.o
                0x00000000004f41d2                sqlite3__str_69_cannot_ope
 .rodata.sqlite3__str_70__s_at_line
                0x00000000004f41e3       0x19 0x1 build_aarch64/sqlite3.o
                0x00000000004f41e3                sqlite3__str_70__s_at_line
 .rodata.sqlite3__str_71_full_fsync
                0x00000000004f41fc        0xb 0x1 build_aarch64/sqlite3.o
                0x00000000004f41fc                sqlite3__str_71_full_fsync
 .rodata.sqlite3__str_72__s_etilqs_
                0x00000000004f4207       0x11 0x1 build_aarch64/sqlite3.o
                0x00000000004f4207                sqlite3__str_72__s_etilqs_
 .rodata.sqlite3__str_73__var_tmp_
                0x00000000004f4218        0x9 0x1 build_aarch64/sqlite3.o
                0x00000000004f4218                sqlite3__str_73__var_tmp_
 .rodata.sqlite3__str_74__usr_tmp_
                0x00000000004f4221        0x9 0x1 build_aarch64/sqlite3.o
                0x00000000004f4221                sqlite3__str_74__usr_tmp_
 .rodata.sqlite3__str_75__tmp_
                0x00000000004f422a        0x5 0x1 build_aarch64/sqlite3.o
                0x00000000004f422a                sqlite3__str_75__tmp_
 .rodata.sqlite3__str_76_SQLITE_TMP
                0x00000000004f422f        0xe 0x1 build_aarch64/sqlite3.o
                0x00000000004f422f                sqlite3__str_76_SQLITE_TMP
 .rodata.sqlite3__str_77_TMPDIR_
                0x00000000004f423d        0x7 0x1 build_aarch64/sqlite3.o
                0x00000000004f423d                sqlite3__str_77_TMPDIR_
 .rodata.sqlite3__str_78__s_shm_
                0x00000000004f4244        0x7 0x1 build_aarch64/sqlite3.o
                0x00000000004f4244                sqlite3__str_78__s_shm_
 .rodata.sqlite3__str_79_readonly_s
                0x00000000004f424b        0xd 0x1 build_aarch64/sqlite3.o
                0x00000000004f424b                sqlite3__str_79_readonly_s
 .rodata.sqlite3__str_80_modeof_
                0x00000000004f4258        0x7 0x1 build_aarch64/sqlite3.o
                0x00000000004f4258                sqlite3__str_80_modeof_
 .rodata.sqlite3__str_81_psow_
                0x00000000004f425f        0x5 0x1 build_aarch64/sqlite3.o
                0x00000000004f425f                sqlite3__str_81_psow_
 .rodata.sqlite3_c_nolockIoMethods
                0x00000000004f4268       0x98 0x8 build_aarch64/sqlite3.o
 .rodata.sqlite3_c_dotlockIoMethods
                0x00000000004f4300       0x98 0x8 build_aarch64/sqlite3.o
 .rodata.sqlite3__str_82__s_lock_
                0x00000000004f4398        0x8 0x1 build_aarch64/sqlite3.o
                0x00000000004f4398                sqlite3__str_82__s_lock_
 .rodata.sqlite3__str_83_fsync_
                0x00000000004f43a0        0x6 0x1 build_aarch64/sqlite3.o
                0x00000000004f43a0                sqlite3__str_83_fsync_
 .rodata.sqlite3__str_84__dev_urand
                0x00000000004f43a6        0xd 0x1 build_aarch64/sqlite3.o
                0x00000000004f43a6                sqlite3__str_84__dev_urand
 .rodata.sqlite3__str_85_unknown_da
                0x00000000004f43b3       0x14 0x1 build_aarch64/sqlite3.o
                0x00000000004f43b3                sqlite3__str_85_unknown_da
 .rodata.sqlite3__str_86_unable_to_
                0x00000000004f43c7       0x46 0x1 build_aarch64/sqlite3.o
                0x00000000004f43c7                sqlite3__str_86_unable_to_
 .rodata.sqlite3__str_87__memory__
                0x00000000004f440d        0x9 0x1 build_aarch64/sqlite3.o
                0x00000000004f440d                sqlite3__str_87__memory__
 .rodata.sqlite3__str_88__journal__
                0x00000000004f4416        0xa 0x1 build_aarch64/sqlite3.o
                0x00000000004f4416                sqlite3__str_88__journal__
 .rodata.sqlite3__str_89__wal__
                0x00000000004f4420        0x6 0x1 build_aarch64/sqlite3.o
                0x00000000004f4420                sqlite3__str_89__wal__
 .rodata.sqlite3__str_90_nolock_
                0x00000000004f4426        0x7 0x1 build_aarch64/sqlite3.o
                0x00000000004f4426                sqlite3__str_90_nolock_
 .rodata.sqlite3__str_91_immutable_
                0x00000000004f442d        0xa 0x1 build_aarch64/sqlite3.o
                0x00000000004f442d                sqlite3__str_91_immutable_
 .rodata.sqlite3_c_MemJournalMethods
                0x00000000004f4438       0x98 0x8 build_aarch64/sqlite3.o
 .rodata.sqlite3__str_92_recovered_
                0x00000000004f44d0       0x25 0x1 build_aarch64/sqlite3.o
                0x00000000004f44d0                sqlite3__str_92_recovered_
 .rodata.sqlite3__str_93_database_c
                0x00000000004f44f5       0x14 0x1 build_aarch64/sqlite3.o
                0x00000000004f44f5                sqlite3__str_93_database_c
 .rodata.sqlite3__str_94_cannot_lim
                0x00000000004f4509       0x1a 0x1 build_aarch64/sqlite3.o
                0x00000000004f4509                sqlite3__str_94_cannot_lim
 .rodata.sqlite3_c_aJournalMagic
                0x00000000004f4523        0x8 0x1 build_aarch64/sqlite3.o
 .rodata.sqlite3_c_syncJournal_zerobyte
                0x00000000004f452b        0x1 0x1 build_aarch64/sqlite3.o
 .rodata.sqlite3__str_95_recovered_
                0x00000000004f452c       0x1b 0x1 build_aarch64/sqlite3.o
                0x00000000004f452c                sqlite3__str_95_recovered_
 .rodata.sqlite3_c_zeroJournalHdr_zeroHdr
                0x00000000004f4547       0x1c 0x1 build_aarch64/sqlite3.o
 .rodata.sqlite3__str_96_destinatio
                0x00000000004f4563       0x1f 0x1 build_aarch64/sqlite3.o
                0x00000000004f4563                sqlite3__str_96_destinatio
 .rodata.sqlite3_c_zMagicHeader
                0x00000000004f4582       0x10 0x1 build_aarch64/sqlite3.o
 .rodata.sqlite3__str_97_____
                0x00000000004f4592        0x4 0x1 build_aarch64/sqlite3.o
                0x00000000004f4592                sqlite3__str_97_____
 .rodata.sqlite3__str_98_API_called
                0x00000000004f4596       0x2d 0x1 build_aarch64/sqlite3.o
                0x00000000004f4596                sqlite3__str_98_API_called
 .rodata.sqlite3__str_99_FOREIGN_KE
                0x00000000004f45c3       0x1e 0x1 build_aarch64/sqlite3.o
                0x00000000004f45c3                sqlite3__str_99_FOREIGN_KE
 .rodata.sqlite3__str_100__s_mjXXXXX
                0x00000000004f45e1       0x10 0x1 build_aarch64/sqlite3.o
                0x00000000004f45e1                sqlite3__str_100__s_mjXXXXX
 .rodata.sqlite3__str_101_MJ_delete_
                0x00000000004f45f1        0xe 0x1 build_aarch64/sqlite3.o
                0x00000000004f45f1                sqlite3__str_101_MJ_delete_
 .rodata.sqlite3__str_102_MJ_collide
                0x00000000004f45ff        0xf 0x1 build_aarch64/sqlite3.o
                0x00000000004f45ff                sqlite3__str_102_MJ_collide
 .rodata.sqlite3__str_103__mj_06X9_0
                0x00000000004f460e        0xd 0x1 build_aarch64/sqlite3.o
                0x00000000004f460e                sqlite3__str_103__mj_06X9_0
 .rodata.sqlite3_c_sqlite3Utf8Trans1
                0x00000000004f461b       0x40 0x1 build_aarch64/sqlite3.o
 .rodata.sqlite3__str_104__lld_
                0x00000000004f465b        0x5 0x1 build_aarch64/sqlite3.o
                0x00000000004f465b                sqlite3__str_104__lld_
 .rodata.sqlite3__str_105____15g_
                0x00000000004f4660        0x7 0x1 build_aarch64/sqlite3.o
                0x00000000004f4660                sqlite3__str_105____15g_
 .rodata.sqlite3__str_106_9223372036
                0x00000000004f4667       0x13 0x1 build_aarch64/sqlite3.o
                0x00000000004f4667                sqlite3__str_106_9223372036
 .rodata.sqlite3__str_107_API_called
                0x00000000004f467a       0x28 0x1 build_aarch64/sqlite3.o
                0x00000000004f467a                sqlite3__str_107_API_called
 .rodata.sqlite3__str_108___2x_
                0x00000000004f46a2        0x5 0x1 build_aarch64/sqlite3.o
                0x00000000004f46a2                sqlite3__str_108___2x_
 .rodata.sqlite3_c_sqlite3OpcodeName_azName
                0x00000000004f46a8      0x570 0x8 build_aarch64/sqlite3.o
 .rodata.sqlite3__str_109_Savepoint_
                0x00000000004f4c18        0xa 0x1 build_aarch64/sqlite3.o
                0x00000000004f4c18                sqlite3__str_109_Savepoint_
 .rodata.sqlite3__str_110_AutoCommit
                0x00000000004f4c22        0xb 0x1 build_aarch64/sqlite3.o
                0x00000000004f4c22                sqlite3__str_110_AutoCommit
 .rodata.sqlite3__str_111_Transactio
                0x00000000004f4c2d        0xc 0x1 build_aarch64/sqlite3.o
                0x00000000004f4c2d                sqlite3__str_111_Transactio
 .rodata.sqlite3__str_112_SorterNext
                0x00000000004f4c39        0xb 0x1 build_aarch64/sqlite3.o
                0x00000000004f4c39                sqlite3__str_112_SorterNext
 .rodata.sqlite3__str_113_Prev_
                0x00000000004f4c44        0x5 0x1 build_aarch64/sqlite3.o
                0x00000000004f4c44                sqlite3__str_113_Prev_
 .rodata.sqlite3__str_114_Next_
                0x00000000004f4c49        0x5 0x1 build_aarch64/sqlite3.o
                0x00000000004f4c49                sqlite3__str_114_Next_
 .rodata.sqlite3__str_115_Checkpoint
                0x00000000004f4c4e        0xb 0x1 build_aarch64/sqlite3.o
                0x00000000004f4c4e                sqlite3__str_115_Checkpoint
 .rodata.sqlite3__str_116_JournalMod
                0x00000000004f4c59        0xc 0x1 build_aarch64/sqlite3.o
                0x00000000004f4c59                sqlite3__str_116_JournalMod
 .rodata.sqlite3__str_117_Vacuum_
                0x00000000004f4c65        0x7 0x1 build_aarch64/sqlite3.o
                0x00000000004f4c65                sqlite3__str_117_Vacuum_
 .rodata.sqlite3__str_118_VFilter_
                0x00000000004f4c6c        0x8 0x1 build_aarch64/sqlite3.o
                0x00000000004f4c6c                sqlite3__str_118_VFilter_
 .rodata.sqlite3__str_119_VUpdate_
                0x00000000004f4c74        0x8 0x1 build_aarch64/sqlite3.o
                0x00000000004f4c74                sqlite3__str_119_VUpdate_
 .rodata.sqlite3__str_120_Goto_
                0x00000000004f4c7c        0x5 0x1 build_aarch64/sqlite3.o
                0x00000000004f4c7c                sqlite3__str_120_Goto_
 .rodata.sqlite3__str_121_Gosub_
                0x00000000004f4c81        0x6 0x1 build_aarch64/sqlite3.o
                0x00000000004f4c81                sqlite3__str_121_Gosub_
 .rodata.sqlite3__str_122_InitCorout
                0x00000000004f4c87        0xe 0x1 build_aarch64/sqlite3.o
                0x00000000004f4c87                sqlite3__str_122_InitCorout
 .rodata.sqlite3__str_123_Yield_
                0x00000000004f4c95        0x6 0x1 build_aarch64/sqlite3.o
                0x00000000004f4c95                sqlite3__str_123_Yield_
 .rodata.sqlite3__str_124_MustBeInt_
                0x00000000004f4c9b        0xa 0x1 build_aarch64/sqlite3.o
                0x00000000004f4c9b                sqlite3__str_124_MustBeInt_
 .rodata.sqlite3__str_125_Jump_
                0x00000000004f4ca5        0x5 0x1 build_aarch64/sqlite3.o
                0x00000000004f4ca5                sqlite3__str_125_Jump_
 .rodata.sqlite3__str_126_Once_
                0x00000000004f4caa        0x5 0x1 build_aarch64/sqlite3.o
                0x00000000004f4caa                sqlite3__str_126_Once_
 .rodata.sqlite3__str_127_If_
                0x00000000004f4caf        0x3 0x1 build_aarch64/sqlite3.o
                0x00000000004f4caf                sqlite3__str_127_If_
 .rodata.sqlite3__str_128_Not_
                0x00000000004f4cb2        0x4 0x1 build_aarch64/sqlite3.o
                0x00000000004f4cb2                sqlite3__str_128_Not_
 .rodata.sqlite3__str_129_IfNot_
                0x00000000004f4cb6        0x6 0x1 build_aarch64/sqlite3.o
                0x00000000004f4cb6                sqlite3__str_129_IfNot_
 .rodata.sqlite3__str_130_IfNullRow_
                0x00000000004f4cbc        0xa 0x1 build_aarch64/sqlite3.o
                0x00000000004f4cbc                sqlite3__str_130_IfNullRow_
 .rodata.sqlite3__str_131_SeekLT_
                0x00000000004f4cc6        0x7 0x1 build_aarch64/sqlite3.o
                0x00000000004f4cc6                sqlite3__str_131_SeekLT_
 .rodata.sqlite3__str_132_SeekLE_
                0x00000000004f4ccd        0x7 0x1 build_aarch64/sqlite3.o
                0x00000000004f4ccd                sqlite3__str_132_SeekLE_
 .rodata.sqlite3__str_133_SeekGE_
                0x00000000004f4cd4        0x7 0x1 build_aarch64/sqlite3.o
                0x00000000004f4cd4                sqlite3__str_133_SeekGE_
 .rodata.sqlite3__str_134_SeekGT_
                0x00000000004f4cdb        0x7 0x1 build_aarch64/sqlite3.o
                0x00000000004f4cdb                sqlite3__str_134_SeekGT_
 .rodata.sqlite3__str_135_IfNoHope_
                0x00000000004f4ce2        0x9 0x1 build_aarch64/sqlite3.o
                0x00000000004f4ce2                sqlite3__str_135_IfNoHope_
 .rodata.sqlite3__str_136_NoConflict
                0x00000000004f4ceb        0xb 0x1 build_aarch64/sqlite3.o
                0x00000000004f4ceb                sqlite3__str_136_NoConflict
 .rodata.sqlite3__str_137_NotFound_
                0x00000000004f4cf6        0x9 0x1 build_aarch64/sqlite3.o
                0x00000000004f4cf6                sqlite3__str_137_NotFound_
 .rodata.sqlite3__str_138_Found_
                0x00000000004f4cff        0x6 0x1 build_aarch64/sqlite3.o
                0x00000000004f4cff                sqlite3__str_138_Found_
 .rodata.sqlite3__str_139_SeekRowid_
                0x00000000004f4d05        0xa 0x1 build_aarch64/sqlite3.o
                0x00000000004f4d05                sqlite3__str_139_SeekRowid_
 .rodata.sqlite3__str_140_NotExists_
                0x00000000004f4d0f        0xa 0x1 build_aarch64/sqlite3.o
                0x00000000004f4d0f                sqlite3__str_140_NotExists_
 .rodata.sqlite3__str_141_Last_
                0x00000000004f4d19        0x5 0x1 build_aarch64/sqlite3.o
                0x00000000004f4d19                sqlite3__str_141_Last_
 .rodata.sqlite3__str_142_IfSmaller_
                0x00000000004f4d1e        0xa 0x1 build_aarch64/sqlite3.o
                0x00000000004f4d1e                sqlite3__str_142_IfSmaller_
 .rodata.sqlite3__str_143_SorterSort
                0x00000000004f4d28        0xb 0x1 build_aarch64/sqlite3.o
                0x00000000004f4d28                sqlite3__str_143_SorterSort
 .rodata.sqlite3__str_144_Sort_
                0x00000000004f4d33        0x5 0x1 build_aarch64/sqlite3.o
                0x00000000004f4d33                sqlite3__str_144_Sort_
 .rodata.sqlite3__str_145_Rewind_
                0x00000000004f4d38        0x7 0x1 build_aarch64/sqlite3.o
                0x00000000004f4d38                sqlite3__str_145_Rewind_
 .rodata.sqlite3__str_146_IdxLE_
                0x00000000004f4d3f        0x6 0x1 build_aarch64/sqlite3.o
                0x00000000004f4d3f                sqlite3__str_146_IdxLE_
 .rodata.sqlite3__str_147_IdxGT_
                0x00000000004f4d45        0x6 0x1 build_aarch64/sqlite3.o
                0x00000000004f4d45                sqlite3__str_147_IdxGT_
 .rodata.sqlite3__str_148_IdxLT_
                0x00000000004f4d4b        0x6 0x1 build_aarch64/sqlite3.o
                0x00000000004f4d4b                sqlite3__str_148_IdxLT_
 .rodata.sqlite3__str_149_IdxGE_
                0x00000000004f4d51        0x6 0x1 build_aarch64/sqlite3.o
                0x00000000004f4d51                sqlite3__str_149_IdxGE_
 .rodata.sqlite3__str_150_RowSetRead
                0x00000000004f4d57        0xb 0x1 build_aarch64/sqlite3.o
                0x00000000004f4d57                sqlite3__str_150_RowSetRead
 .rodata.sqlite3__str_151_RowSetTest
                0x00000000004f4d62        0xb 0x1 build_aarch64/sqlite3.o
                0x00000000004f4d62                sqlite3__str_151_RowSetTest
 .rodata.sqlite3__str_152_Or_
                0x00000000004f4d6d        0x3 0x1 build_aarch64/sqlite3.o
                0x00000000004f4d6d                sqlite3__str_152_Or_
 .rodata.sqlite3__str_153_And_
                0x00000000004f4d70        0x4 0x1 build_aarch64/sqlite3.o
                0x00000000004f4d70                sqlite3__str_153_And_
 .rodata.sqlite3__str_154_Program_
                0x00000000004f4d74        0x8 0x1 build_aarch64/sqlite3.o
                0x00000000004f4d74                sqlite3__str_154_Program_
 .rodata.sqlite3__str_155_FkIfZero_
                0x00000000004f4d7c        0x9 0x1 build_aarch64/sqlite3.o
                0x00000000004f4d7c                sqlite3__str_155_FkIfZero_
 .rodata.sqlite3__str_156_IfPos_
                0x00000000004f4d85        0x6 0x1 build_aarch64/sqlite3.o
                0x00000000004f4d85                sqlite3__str_156_IfPos_
 .rodata.sqlite3__str_157_IfNotZero_
                0x00000000004f4d8b        0xa 0x1 build_aarch64/sqlite3.o
                0x00000000004f4d8b                sqlite3__str_157_IfNotZero_
 .rodata.sqlite3__str_158_DecrJumpZe
                0x00000000004f4d95        0xd 0x1 build_aarch64/sqlite3.o
                0x00000000004f4d95                sqlite3__str_158_DecrJumpZe
 .rodata.sqlite3__str_159_IsNull_
                0x00000000004f4da2        0x7 0x1 build_aarch64/sqlite3.o
                0x00000000004f4da2                sqlite3__str_159_IsNull_
 .rodata.sqlite3__str_160_NotNull_
                0x00000000004f4da9        0x8 0x1 build_aarch64/sqlite3.o
                0x00000000004f4da9                sqlite3__str_160_NotNull_
 .rodata.sqlite3__str_161_Ne_
                0x00000000004f4db1        0x3 0x1 build_aarch64/sqlite3.o
                0x00000000004f4db1                sqlite3__str_161_Ne_
 .rodata.sqlite3__str_162_Eq_
                0x00000000004f4db4        0x3 0x1 build_aarch64/sqlite3.o
                0x00000000004f4db4                sqlite3__str_162_Eq_
 .rodata.sqlite3__str_163_Gt_
                0x00000000004f4db7        0x3 0x1 build_aarch64/sqlite3.o
                0x00000000004f4db7                sqlite3__str_163_Gt_
 .rodata.sqlite3__str_164_Le_
                0x00000000004f4dba        0x3 0x1 build_aarch64/sqlite3.o
                0x00000000004f4dba                sqlite3__str_164_Le_
 .rodata.sqlite3__str_165_Lt_
                0x00000000004f4dbd        0x3 0x1 build_aarch64/sqlite3.o
                0x00000000004f4dbd                sqlite3__str_165_Lt_
 .rodata.sqlite3__str_166_Ge_
                0x00000000004f4dc0        0x3 0x1 build_aarch64/sqlite3.o
                0x00000000004f4dc0                sqlite3__str_166_Ge_
 .rodata.sqlite3__str_167_ElseNotEq_
                0x00000000004f4dc3        0xa 0x1 build_aarch64/sqlite3.o
                0x00000000004f4dc3                sqlite3__str_167_ElseNotEq_
 .rodata.sqlite3__str_168_IncrVacuum
                0x00000000004f4dcd        0xb 0x1 build_aarch64/sqlite3.o
                0x00000000004f4dcd                sqlite3__str_168_IncrVacuum
 .rodata.sqlite3__str_169_VNext_
                0x00000000004f4dd8        0x6 0x1 build_aarch64/sqlite3.o
                0x00000000004f4dd8                sqlite3__str_169_VNext_
 .rodata.sqlite3__str_170_Init_
                0x00000000004f4dde        0x5 0x1 build_aarch64/sqlite3.o
                0x00000000004f4dde                sqlite3__str_170_Init_
 .rodata.sqlite3__str_171_PureFunc0_
                0x00000000004f4de3        0xa 0x1 build_aarch64/sqlite3.o
                0x00000000004f4de3                sqlite3__str_171_PureFunc0_
 .rodata.sqlite3__str_172_Function0_
                0x00000000004f4ded        0xa 0x1 build_aarch64/sqlite3.o
                0x00000000004f4ded                sqlite3__str_172_Function0_
 .rodata.sqlite3__str_173_PureFunc_
                0x00000000004f4df7        0x9 0x1 build_aarch64/sqlite3.o
                0x00000000004f4df7                sqlite3__str_173_PureFunc_
 .rodata.sqlite3__str_174_Function_
                0x00000000004f4e00        0x9 0x1 build_aarch64/sqlite3.o
                0x00000000004f4e00                sqlite3__str_174_Function_
 .rodata.sqlite3__str_175_Return_
                0x00000000004f4e09        0x7 0x1 build_aarch64/sqlite3.o
                0x00000000004f4e09                sqlite3__str_175_Return_
 .rodata.sqlite3__str_176_EndCorouti
                0x00000000004f4e10        0xd 0x1 build_aarch64/sqlite3.o
                0x00000000004f4e10                sqlite3__str_176_EndCorouti
 .rodata.sqlite3__str_177_HaltIfNull
                0x00000000004f4e1d        0xb 0x1 build_aarch64/sqlite3.o
                0x00000000004f4e1d                sqlite3__str_177_HaltIfNull
 .rodata.sqlite3__str_178_Halt_
                0x00000000004f4e28        0x5 0x1 build_aarch64/sqlite3.o
                0x00000000004f4e28                sqlite3__str_178_Halt_
 .rodata.sqlite3__str_179_Integer_
                0x00000000004f4e2d        0x8 0x1 build_aarch64/sqlite3.o
                0x00000000004f4e2d                sqlite3__str_179_Integer_
 .rodata.sqlite3__str_180_Int64_
                0x00000000004f4e35        0x6 0x1 build_aarch64/sqlite3.o
                0x00000000004f4e35                sqlite3__str_180_Int64_
 .rodata.sqlite3__str_181_String_
                0x00000000004f4e3b        0x7 0x1 build_aarch64/sqlite3.o
                0x00000000004f4e3b                sqlite3__str_181_String_
 .rodata.sqlite3__str_182_Null_
                0x00000000004f4e42        0x5 0x1 build_aarch64/sqlite3.o
                0x00000000004f4e42                sqlite3__str_182_Null_
 .rodata.sqlite3__str_183_SoftNull_
                0x00000000004f4e47        0x9 0x1 build_aarch64/sqlite3.o
                0x00000000004f4e47                sqlite3__str_183_SoftNull_
 .rodata.sqlite3__str_184_Blob_
                0x00000000004f4e50        0x5 0x1 build_aarch64/sqlite3.o
                0x00000000004f4e50                sqlite3__str_184_Blob_
 .rodata.sqlite3__str_185_Variable_
                0x00000000004f4e55        0x9 0x1 build_aarch64/sqlite3.o
                0x00000000004f4e55                sqlite3__str_185_Variable_
 .rodata.sqlite3__str_186_Move_
                0x00000000004f4e5e        0x5 0x1 build_aarch64/sqlite3.o
                0x00000000004f4e5e                sqlite3__str_186_Move_
 .rodata.sqlite3__str_187_Copy_
                0x00000000004f4e63        0x5 0x1 build_aarch64/sqlite3.o
                0x00000000004f4e63                sqlite3__str_187_Copy_
 .rodata.sqlite3__str_188_SCopy_
                0x00000000004f4e68        0x6 0x1 build_aarch64/sqlite3.o
                0x00000000004f4e68                sqlite3__str_188_SCopy_
 .rodata.sqlite3__str_189_IntCopy_
                0x00000000004f4e6e        0x8 0x1 build_aarch64/sqlite3.o
                0x00000000004f4e6e                sqlite3__str_189_IntCopy_
 .rodata.sqlite3__str_190_ResultRow_
                0x00000000004f4e76        0xa 0x1 build_aarch64/sqlite3.o
                0x00000000004f4e76                sqlite3__str_190_ResultRow_
 .rodata.sqlite3__str_191_CollSeq_
                0x00000000004f4e80        0x8 0x1 build_aarch64/sqlite3.o
                0x00000000004f4e80                sqlite3__str_191_CollSeq_
 .rodata.sqlite3__str_192_AddImm_
                0x00000000004f4e88        0x7 0x1 build_aarch64/sqlite3.o
                0x00000000004f4e88                sqlite3__str_192_AddImm_
 .rodata.sqlite3__str_193_RealAffini
                0x00000000004f4e8f        0xd 0x1 build_aarch64/sqlite3.o
                0x00000000004f4e8f                sqlite3__str_193_RealAffini
 .rodata.sqlite3__str_194_Cast_
                0x00000000004f4e9c        0x5 0x1 build_aarch64/sqlite3.o
                0x00000000004f4e9c                sqlite3__str_194_Cast_
 .rodata.sqlite3__str_195_Permutatio
                0x00000000004f4ea1        0xc 0x1 build_aarch64/sqlite3.o
                0x00000000004f4ea1                sqlite3__str_195_Permutatio
 .rodata.sqlite3__str_196_Compare_
                0x00000000004f4ead        0x8 0x1 build_aarch64/sqlite3.o
                0x00000000004f4ead                sqlite3__str_196_Compare_
 .rodata.sqlite3__str_197_IsTrue_
                0x00000000004f4eb5        0x7 0x1 build_aarch64/sqlite3.o
                0x00000000004f4eb5                sqlite3__str_197_IsTrue_
 .rodata.sqlite3__str_198_Offset_
                0x00000000004f4ebc        0x7 0x1 build_aarch64/sqlite3.o
                0x00000000004f4ebc                sqlite3__str_198_Offset_
 .rodata.sqlite3__str_199_Column_
                0x00000000004f4ec3        0x7 0x1 build_aarch64/sqlite3.o
                0x00000000004f4ec3                sqlite3__str_199_Column_
 .rodata.sqlite3__str_200_Affinity_
                0x00000000004f4eca        0x9 0x1 build_aarch64/sqlite3.o
                0x00000000004f4eca                sqlite3__str_200_Affinity_
 .rodata.sqlite3__str_201_BitAnd_
                0x00000000004f4ed3        0x7 0x1 build_aarch64/sqlite3.o
                0x00000000004f4ed3                sqlite3__str_201_BitAnd_
 .rodata.sqlite3__str_202_BitOr_
                0x00000000004f4eda        0x6 0x1 build_aarch64/sqlite3.o
                0x00000000004f4eda                sqlite3__str_202_BitOr_
 .rodata.sqlite3__str_203_ShiftLeft_
                0x00000000004f4ee0        0xa 0x1 build_aarch64/sqlite3.o
                0x00000000004f4ee0                sqlite3__str_203_ShiftLeft_
 .rodata.sqlite3__str_204_ShiftRight
                0x00000000004f4eea        0xb 0x1 build_aarch64/sqlite3.o
                0x00000000004f4eea                sqlite3__str_204_ShiftRight
 .rodata.sqlite3__str_205_Add_
                0x00000000004f4ef5        0x4 0x1 build_aarch64/sqlite3.o
                0x00000000004f4ef5                sqlite3__str_205_Add_
 .rodata.sqlite3__str_206_Subtract_
                0x00000000004f4ef9        0x9 0x1 build_aarch64/sqlite3.o
                0x00000000004f4ef9                sqlite3__str_206_Subtract_
 .rodata.sqlite3__str_207_Multiply_
                0x00000000004f4f02        0x9 0x1 build_aarch64/sqlite3.o
                0x00000000004f4f02                sqlite3__str_207_Multiply_
 .rodata.sqlite3__str_208_Divide_
                0x00000000004f4f0b        0x7 0x1 build_aarch64/sqlite3.o
                0x00000000004f4f0b                sqlite3__str_208_Divide_
 .rodata.sqlite3__str_209_Remainder_
                0x00000000004f4f12        0xa 0x1 build_aarch64/sqlite3.o
                0x00000000004f4f12                sqlite3__str_209_Remainder_
 .rodata.sqlite3__str_210_Concat_
                0x00000000004f4f1c        0x7 0x1 build_aarch64/sqlite3.o
                0x00000000004f4f1c                sqlite3__str_210_Concat_
 .rodata.sqlite3__str_211_MakeRecord
                0x00000000004f4f23        0xb 0x1 build_aarch64/sqlite3.o
                0x00000000004f4f23                sqlite3__str_211_MakeRecord
 .rodata.sqlite3__str_212_BitNot_
                0x00000000004f4f2e        0x7 0x1 build_aarch64/sqlite3.o
                0x00000000004f4f2e                sqlite3__str_212_BitNot_
 .rodata.sqlite3__str_213_Count_
                0x00000000004f4f35        0x6 0x1 build_aarch64/sqlite3.o
                0x00000000004f4f35                sqlite3__str_213_Count_
 .rodata.sqlite3__str_214_ReadCookie
                0x00000000004f4f3b        0xb 0x1 build_aarch64/sqlite3.o
                0x00000000004f4f3b                sqlite3__str_214_ReadCookie
 .rodata.sqlite3__str_215_String8_
                0x00000000004f4f46        0x8 0x1 build_aarch64/sqlite3.o
                0x00000000004f4f46                sqlite3__str_215_String8_
 .rodata.sqlite3__str_216_SetCookie_
                0x00000000004f4f4e        0xa 0x1 build_aarch64/sqlite3.o
                0x00000000004f4f4e                sqlite3__str_216_SetCookie_
 .rodata.sqlite3__str_217_ReopenIdx_
                0x00000000004f4f58        0xa 0x1 build_aarch64/sqlite3.o
                0x00000000004f4f58                sqlite3__str_217_ReopenIdx_
 .rodata.sqlite3__str_218_OpenRead_
                0x00000000004f4f62        0x9 0x1 build_aarch64/sqlite3.o
                0x00000000004f4f62                sqlite3__str_218_OpenRead_
 .rodata.sqlite3__str_219_OpenWrite_
                0x00000000004f4f6b        0xa 0x1 build_aarch64/sqlite3.o
                0x00000000004f4f6b                sqlite3__str_219_OpenWrite_
 .rodata.sqlite3__str_220_OpenDup_
                0x00000000004f4f75        0x8 0x1 build_aarch64/sqlite3.o
                0x00000000004f4f75                sqlite3__str_220_OpenDup_
 .rodata.sqlite3__str_221_OpenAutoin
                0x00000000004f4f7d        0xe 0x1 build_aarch64/sqlite3.o
                0x00000000004f4f7d                sqlite3__str_221_OpenAutoin
 .rodata.sqlite3__str_222_OpenEpheme
                0x00000000004f4f8b        0xe 0x1 build_aarch64/sqlite3.o
                0x00000000004f4f8b                sqlite3__str_222_OpenEpheme
 .rodata.sqlite3__str_223_SorterOpen
                0x00000000004f4f99        0xb 0x1 build_aarch64/sqlite3.o
                0x00000000004f4f99                sqlite3__str_223_SorterOpen
 .rodata.sqlite3__str_224_SequenceTe
                0x00000000004f4fa4        0xd 0x1 build_aarch64/sqlite3.o
                0x00000000004f4fa4                sqlite3__str_224_SequenceTe
 .rodata.sqlite3__str_225_OpenPseudo
                0x00000000004f4fb1        0xb 0x1 build_aarch64/sqlite3.o
                0x00000000004f4fb1                sqlite3__str_225_OpenPseudo
 .rodata.sqlite3__str_226_Close_
                0x00000000004f4fbc        0x6 0x1 build_aarch64/sqlite3.o
                0x00000000004f4fbc                sqlite3__str_226_Close_
 .rodata.sqlite3__str_227_ColumnsUse
                0x00000000004f4fc2        0xc 0x1 build_aarch64/sqlite3.o
                0x00000000004f4fc2                sqlite3__str_227_ColumnsUse
 .rodata.sqlite3__str_228_SeekHit_
                0x00000000004f4fce        0x8 0x1 build_aarch64/sqlite3.o
                0x00000000004f4fce                sqlite3__str_228_SeekHit_
 .rodata.sqlite3__str_229_Sequence_
                0x00000000004f4fd6        0x9 0x1 build_aarch64/sqlite3.o
                0x00000000004f4fd6                sqlite3__str_229_Sequence_
 .rodata.sqlite3__str_230_NewRowid_
                0x00000000004f4fdf        0x9 0x1 build_aarch64/sqlite3.o
                0x00000000004f4fdf                sqlite3__str_230_NewRowid_
 .rodata.sqlite3__str_231_Insert_
                0x00000000004f4fe8        0x7 0x1 build_aarch64/sqlite3.o
                0x00000000004f4fe8                sqlite3__str_231_Insert_
 .rodata.sqlite3__str_232_InsertInt_
                0x00000000004f4fef        0xa 0x1 build_aarch64/sqlite3.o
                0x00000000004f4fef                sqlite3__str_232_InsertInt_
 .rodata.sqlite3__str_233_Delete_
                0x00000000004f4ff9        0x7 0x1 build_aarch64/sqlite3.o
                0x00000000004f4ff9                sqlite3__str_233_Delete_
 .rodata.sqlite3__str_234_ResetCount
                0x00000000004f5000        0xb 0x1 build_aarch64/sqlite3.o
                0x00000000004f5000                sqlite3__str_234_ResetCount
 .rodata.sqlite3__str_235_SorterComp
                0x00000000004f500b        0xe 0x1 build_aarch64/sqlite3.o
                0x00000000004f500b                sqlite3__str_235_SorterComp
 .rodata.sqlite3__str_236_SorterData
                0x00000000004f5019        0xb 0x1 build_aarch64/sqlite3.o
                0x00000000004f5019                sqlite3__str_236_SorterData
 .rodata.sqlite3__str_237_RowData_
                0x00000000004f5024        0x8 0x1 build_aarch64/sqlite3.o
                0x00000000004f5024                sqlite3__str_237_RowData_
 .rodata.sqlite3__str_238_Rowid_
                0x00000000004f502c        0x6 0x1 build_aarch64/sqlite3.o
                0x00000000004f502c                sqlite3__str_238_Rowid_
 .rodata.sqlite3__str_239_NullRow_
                0x00000000004f5032        0x8 0x1 build_aarch64/sqlite3.o
                0x00000000004f5032                sqlite3__str_239_NullRow_
 .rodata.sqlite3__str_240_SeekEnd_
                0x00000000004f503a        0x8 0x1 build_aarch64/sqlite3.o
                0x00000000004f503a                sqlite3__str_240_SeekEnd_
 .rodata.sqlite3__str_241_SorterInse
                0x00000000004f5042        0xd 0x1 build_aarch64/sqlite3.o
                0x00000000004f5042                sqlite3__str_241_SorterInse
 .rodata.sqlite3__str_242_IdxInsert_
                0x00000000004f504f        0xa 0x1 build_aarch64/sqlite3.o
                0x00000000004f504f                sqlite3__str_242_IdxInsert_
 .rodata.sqlite3__str_243_IdxDelete_
                0x00000000004f5059        0xa 0x1 build_aarch64/sqlite3.o
                0x00000000004f5059                sqlite3__str_243_IdxDelete_
 .rodata.sqlite3__str_244_DeferredSe
                0x00000000004f5063        0xd 0x1 build_aarch64/sqlite3.o
                0x00000000004f5063                sqlite3__str_244_DeferredSe
 .rodata.sqlite3__str_245_IdxRowid_
                0x00000000004f5070        0x9 0x1 build_aarch64/sqlite3.o
                0x00000000004f5070                sqlite3__str_245_IdxRowid_
 .rodata.sqlite3__str_246_Destroy_
                0x00000000004f5079        0x8 0x1 build_aarch64/sqlite3.o
                0x00000000004f5079                sqlite3__str_246_Destroy_
 .rodata.sqlite3__str_247_Clear_
                0x00000000004f5081        0x6 0x1 build_aarch64/sqlite3.o
                0x00000000004f5081                sqlite3__str_247_Clear_
 .rodata.sqlite3__str_248_ResetSorte
                0x00000000004f5087        0xc 0x1 build_aarch64/sqlite3.o
                0x00000000004f5087                sqlite3__str_248_ResetSorte
 .rodata.sqlite3__str_249_CreateBtre
                0x00000000004f5093        0xc 0x1 build_aarch64/sqlite3.o
                0x00000000004f5093                sqlite3__str_249_CreateBtre
 .rodata.sqlite3__str_250_Real_
                0x00000000004f509f        0x5 0x1 build_aarch64/sqlite3.o
                0x00000000004f509f                sqlite3__str_250_Real_
 .rodata.sqlite3__str_251_SqlExec_
                0x00000000004f50a4        0x8 0x1 build_aarch64/sqlite3.o
                0x00000000004f50a4                sqlite3__str_251_SqlExec_
 .rodata.sqlite3__str_252_ParseSchem
                0x00000000004f50ac        0xc 0x1 build_aarch64/sqlite3.o
                0x00000000004f50ac                sqlite3__str_252_ParseSchem
 .rodata.sqlite3__str_253_LoadAnalys
                0x00000000004f50b8        0xd 0x1 build_aarch64/sqlite3.o
                0x00000000004f50b8                sqlite3__str_253_LoadAnalys
 .rodata.sqlite3__str_254_DropTable_
                0x00000000004f50c5        0xa 0x1 build_aarch64/sqlite3.o
                0x00000000004f50c5                sqlite3__str_254_DropTable_
 .rodata.sqlite3__str_255_DropIndex_
                0x00000000004f50cf        0xa 0x1 build_aarch64/sqlite3.o
                0x00000000004f50cf                sqlite3__str_255_DropIndex_
 .rodata.sqlite3__str_256_DropTrigge
                0x00000000004f50d9        0xc 0x1 build_aarch64/sqlite3.o
                0x00000000004f50d9                sqlite3__str_256_DropTrigge
 .rodata.sqlite3__str_257_IntegrityC
                0x00000000004f50e5        0xc 0x1 build_aarch64/sqlite3.o
                0x00000000004f50e5                sqlite3__str_257_IntegrityC
 .rodata.sqlite3__str_258_RowSetAdd_
                0x00000000004f50f1        0xa 0x1 build_aarch64/sqlite3.o
                0x00000000004f50f1                sqlite3__str_258_RowSetAdd_
 .rodata.sqlite3__str_259_Param_
                0x00000000004f50fb        0x6 0x1 build_aarch64/sqlite3.o
                0x00000000004f50fb                sqlite3__str_259_Param_
 .rodata.sqlite3__str_260_FkCounter_
                0x00000000004f5101        0xa 0x1 build_aarch64/sqlite3.o
                0x00000000004f5101                sqlite3__str_260_FkCounter_
 .rodata.sqlite3__str_261_MemMax_
                0x00000000004f510b        0x7 0x1 build_aarch64/sqlite3.o
                0x00000000004f510b                sqlite3__str_261_MemMax_
 .rodata.sqlite3__str_262_OffsetLimi
                0x00000000004f5112        0xc 0x1 build_aarch64/sqlite3.o
                0x00000000004f5112                sqlite3__str_262_OffsetLimi
 .rodata.sqlite3__str_263_AggInverse
                0x00000000004f511e        0xb 0x1 build_aarch64/sqlite3.o
                0x00000000004f511e                sqlite3__str_263_AggInverse
 .rodata.sqlite3__str_264_AggStep_
                0x00000000004f5129        0x8 0x1 build_aarch64/sqlite3.o
                0x00000000004f5129                sqlite3__str_264_AggStep_
 .rodata.sqlite3__str_265_AggStep1_
                0x00000000004f5131        0x9 0x1 build_aarch64/sqlite3.o
                0x00000000004f5131                sqlite3__str_265_AggStep1_
 .rodata.sqlite3__str_266_AggValue_
                0x00000000004f513a        0x9 0x1 build_aarch64/sqlite3.o
                0x00000000004f513a                sqlite3__str_266_AggValue_
 .rodata.sqlite3__str_267_AggFinal_
                0x00000000004f5143        0x9 0x1 build_aarch64/sqlite3.o
                0x00000000004f5143                sqlite3__str_267_AggFinal_
 .rodata.sqlite3__str_268_Expire_
                0x00000000004f514c        0x7 0x1 build_aarch64/sqlite3.o
                0x00000000004f514c                sqlite3__str_268_Expire_
 .rodata.sqlite3__str_269_TableLock_
                0x00000000004f5153        0xa 0x1 build_aarch64/sqlite3.o
                0x00000000004f5153                sqlite3__str_269_TableLock_
 .rodata.sqlite3__str_270_VBegin_
                0x00000000004f515d        0x7 0x1 build_aarch64/sqlite3.o
                0x00000000004f515d                sqlite3__str_270_VBegin_
 .rodata.sqlite3__str_271_VCreate_
                0x00000000004f5164        0x8 0x1 build_aarch64/sqlite3.o
                0x00000000004f5164                sqlite3__str_271_VCreate_
 .rodata.sqlite3__str_272_VDestroy_
                0x00000000004f516c        0x9 0x1 build_aarch64/sqlite3.o
                0x00000000004f516c                sqlite3__str_272_VDestroy_
 .rodata.sqlite3__str_273_VOpen_
                0x00000000004f5175        0x6 0x1 build_aarch64/sqlite3.o
                0x00000000004f5175                sqlite3__str_273_VOpen_
 .rodata.sqlite3__str_274_VColumn_
                0x00000000004f517b        0x8 0x1 build_aarch64/sqlite3.o
                0x00000000004f517b                sqlite3__str_274_VColumn_
 .rodata.sqlite3__str_275_VRename_
                0x00000000004f5183        0x8 0x1 build_aarch64/sqlite3.o
                0x00000000004f5183                sqlite3__str_275_VRename_
 .rodata.sqlite3__str_276_Pagecount_
                0x00000000004f518b        0xa 0x1 build_aarch64/sqlite3.o
                0x00000000004f518b                sqlite3__str_276_Pagecount_
 .rodata.sqlite3__str_277_MaxPgcnt_
                0x00000000004f5195        0x9 0x1 build_aarch64/sqlite3.o
                0x00000000004f5195                sqlite3__str_277_MaxPgcnt_
 .rodata.sqlite3__str_278_Trace_
                0x00000000004f519e        0x6 0x1 build_aarch64/sqlite3.o
                0x00000000004f519e                sqlite3__str_278_Trace_
 .rodata.sqlite3__str_279_CursorHint
                0x00000000004f51a4        0xb 0x1 build_aarch64/sqlite3.o
                0x00000000004f51a4                sqlite3__str_279_CursorHint
 .rodata.sqlite3__str_280_Noop_
                0x00000000004f51af        0x5 0x1 build_aarch64/sqlite3.o
                0x00000000004f51af                sqlite3__str_280_Noop_
 .rodata.sqlite3__str_281_Explain_
                0x00000000004f51b4        0x8 0x1 build_aarch64/sqlite3.o
                0x00000000004f51b4                sqlite3__str_281_Explain_
 .rodata.sqlite3__str_282_Abortable_
                0x00000000004f51bc        0xa 0x1 build_aarch64/sqlite3.o
                0x00000000004f51bc                sqlite3__str_282_Abortable_
 .rodata.sqlite3__str_283_k__d_
                0x00000000004f51c6        0x5 0x1 build_aarch64/sqlite3.o
                0x00000000004f51c6                sqlite3__str_283_k__d_
 .rodata.sqlite3__str_284_BINARY_
                0x00000000004f51cb        0x7 0x1 build_aarch64/sqlite3.o
                0x00000000004f51cb                sqlite3__str_284_BINARY_
 .rodata.sqlite3__str_285_B_
                0x00000000004f51d2        0x2 0x1 build_aarch64/sqlite3.o
                0x00000000004f51d2                sqlite3__str_285_B_
 .rodata.sqlite3__str_286___s_s_
                0x00000000004f51d4        0x6 0x1 build_aarch64/sqlite3.o
                0x00000000004f51d4                sqlite3__str_286___s_s_
 .rodata.sqlite3__str_287___
                0x00000000004f51da        0x2 0x1 build_aarch64/sqlite3.o
                0x00000000004f51da                sqlite3__str_287___
 .rodata.sqlite3__str_288___
                0x00000000004f51dc        0x2 0x1 build_aarch64/sqlite3.o
                0x00000000004f51dc                sqlite3__str_288___
 .rodata.sqlite3__str_289____20s__
                0x00000000004f51de        0x8 0x1 build_aarch64/sqlite3.o
                0x00000000004f51de                sqlite3__str_289____20s__
 .rodata.sqlite3__str_290__s__d__
                0x00000000004f51e6        0x7 0x1 build_aarch64/sqlite3.o
                0x00000000004f51e6                sqlite3__str_290__s__d__
 .rodata.sqlite3__str_291__d_
                0x00000000004f51ed        0x3 0x1 build_aarch64/sqlite3.o
                0x00000000004f51ed                sqlite3__str_291__d_
 .rodata.sqlite3__str_292___16g_
                0x00000000004f51f0        0x6 0x1 build_aarch64/sqlite3.o
                0x00000000004f51f0                sqlite3__str_292___16g_
 .rodata.sqlite3__str_293__blob__
                0x00000000004f51f6        0x7 0x1 build_aarch64/sqlite3.o
                0x00000000004f51f6                sqlite3__str_293__blob__
 .rodata.sqlite3__str_294_vtab__p_
                0x00000000004f51fd        0x8 0x1 build_aarch64/sqlite3.o
                0x00000000004f51fd                sqlite3__str_294_vtab__p_
 .rodata.sqlite3__str_295___d_
                0x00000000004f5205        0x4 0x1 build_aarch64/sqlite3.o
                0x00000000004f5205                sqlite3__str_295___d_
 .rodata.sqlite3__str_296___
                0x00000000004f5209        0x2 0x1 build_aarch64/sqlite3.o
                0x00000000004f5209                sqlite3__str_296___
 .rodata.sqlite3__str_297_program_
                0x00000000004f520b        0x8 0x1 build_aarch64/sqlite3.o
                0x00000000004f520b                sqlite3__str_297_program_
 .rodata.sqlite3_c_sqlite3VdbeExec_azType
                0x00000000004f5218       0x20 0x8 build_aarch64/sqlite3.o
 .rodata.sqlite3__str_298_NOT_NULL_
                0x00000000004f5238        0x9 0x1 build_aarch64/sqlite3.o
                0x00000000004f5238                sqlite3__str_298_NOT_NULL_
 .rodata.sqlite3__str_299_UNIQUE_
                0x00000000004f5241        0x7 0x1 build_aarch64/sqlite3.o
                0x00000000004f5241                sqlite3__str_299_UNIQUE_
 .rodata.sqlite3__str_300_CHECK_
                0x00000000004f5248        0x6 0x1 build_aarch64/sqlite3.o
                0x00000000004f5248                sqlite3__str_300_CHECK_
 .rodata.sqlite3__str_301_FOREIGN_KE
                0x00000000004f524e        0xc 0x1 build_aarch64/sqlite3.o
                0x00000000004f524e                sqlite3__str_301_FOREIGN_KE
 .rodata.sqlite3__str_302__s_constra
                0x00000000004f525a       0x15 0x1 build_aarch64/sqlite3.o
                0x00000000004f525a                sqlite3__str_302__s_constra
 .rodata.sqlite3__str_303__z___s_
                0x00000000004f526f        0x7 0x1 build_aarch64/sqlite3.o
                0x00000000004f526f                sqlite3__str_303__z___s_
 .rodata.sqlite3__str_304_abort_at__
                0x00000000004f5276       0x18 0x1 build_aarch64/sqlite3.o
                0x00000000004f5276                sqlite3__str_304_abort_at__
 .rodata.sqlite3_c_sqlite3VdbeExec_aLTb
                0x00000000004f528e        0x6 0x1 build_aarch64/sqlite3.o
 .rodata.sqlite3_c_sqlite3VdbeExec_aEQb
                0x00000000004f5294        0x6 0x1 build_aarch64/sqlite3.o
 .rodata.sqlite3_c_sqlite3VdbeExec_aGTb
                0x00000000004f529a        0x6 0x1 build_aarch64/sqlite3.o
 .rodata.sqlite3_c_sqlite3VdbeExec_and_logic
                0x00000000004f52a0        0x9 0x1 build_aarch64/sqlite3.o
 .rodata.sqlite3_c_sqlite3VdbeExec_or_logic
                0x00000000004f52a9        0x9 0x1 build_aarch64/sqlite3.o
 ** merge constants
                0x00000000004f52b2        0x8
 .rodata.sqlite3__str_305_cannot_ope
                0x00000000004f52ba       0x33 0x1 build_aarch64/sqlite3.o
                0x00000000004f52ba                sqlite3__str_305_cannot_ope
 .rodata.sqlite3__str_306_no_such_sa
                0x00000000004f52ed       0x16 0x1 build_aarch64/sqlite3.o
                0x00000000004f52ed                sqlite3__str_306_no_such_sa
 .rodata.sqlite3__str_307_cannot_rel
                0x00000000004f5303       0x36 0x1 build_aarch64/sqlite3.o
                0x00000000004f5303                sqlite3__str_307_cannot_rel
 .rodata.sqlite3__str_308_cannot_com
                0x00000000004f5339       0x37 0x1 build_aarch64/sqlite3.o
                0x00000000004f5339                sqlite3__str_308_cannot_com
 .rodata.sqlite3__str_309_cannot_sta
                0x00000000004f5370       0x30 0x1 build_aarch64/sqlite3.o
                0x00000000004f5370                sqlite3__str_309_cannot_sta
 .rodata.sqlite3__str_310_cannot_rol
                0x00000000004f53a0       0x2b 0x1 build_aarch64/sqlite3.o
                0x00000000004f53a0                sqlite3__str_310_cannot_rol
 .rodata.sqlite3__str_311_cannot_com
                0x00000000004f53cb       0x29 0x1 build_aarch64/sqlite3.o
                0x00000000004f53cb                sqlite3__str_311_cannot_com
 .rodata.sqlite3__str_312_database_s
                0x00000000004f53f4       0x1c 0x1 build_aarch64/sqlite3.o
                0x00000000004f53f4                sqlite3__str_312_database_s
 .rodata.sqlite3__str_313_sqlite_mas
                0x00000000004f5410        0xe 0x1 build_aarch64/sqlite3.o
                0x00000000004f5410                sqlite3__str_313_sqlite_mas
 .rodata.sqlite3__str_314_SELECT_nam
                0x00000000004f541e       0x40 0x1 build_aarch64/sqlite3.o
                0x00000000004f541e                sqlite3__str_314_SELECT_nam
 .rodata.sqlite3__str_315_too_many_l
                0x00000000004f545e       0x25 0x1 build_aarch64/sqlite3.o
                0x00000000004f545e                sqlite3__str_315_too_many_l
 .rodata.sqlite3__str_316_cannot_cha
                0x00000000004f5483       0x34 0x1 build_aarch64/sqlite3.o
                0x00000000004f5483                sqlite3__str_316_cannot_cha
 .rodata.sqlite3__str_317_into_
                0x00000000004f54b7        0x5 0x1 build_aarch64/sqlite3.o
                0x00000000004f54b7                sqlite3__str_317_into_
 .rodata.sqlite3__str_318_out_of_
                0x00000000004f54bc        0x7 0x1 build_aarch64/sqlite3.o
                0x00000000004f54bc                sqlite3__str_318_out_of_
 .rodata.sqlite3__str_319_database_t
                0x00000000004f54c3       0x1d 0x1 build_aarch64/sqlite3.o
                0x00000000004f54c3                sqlite3__str_319_database_t
 .rodata.sqlite3__str_320_____s_
                0x00000000004f54e0        0x6 0x1 build_aarch64/sqlite3.o
                0x00000000004f54e0                sqlite3__str_320_____s_
 .rodata.sqlite3__str_321_statement_
                0x00000000004f54e6       0x20 0x1 build_aarch64/sqlite3.o
                0x00000000004f54e6                sqlite3__str_321_statement_
 .rodata.sqlite3__str_322_out_of_mem
                0x00000000004f5506        0xe 0x1 build_aarch64/sqlite3.o
                0x00000000004f5506                sqlite3__str_322_out_of_mem
 .rodata.sqlite3_c_sqlite3SmallTypeSizes
                0x00000000004f5514       0x80 0x1 build_aarch64/sqlite3.o
 ** merge constants
                0x00000000004f5594       0x10
 .rodata.sqlite3_c_vdbeSorterCompareInt_aLen
                0x00000000004f55a4        0xa 0x1 build_aarch64/sqlite3.o
 .rodata.sqlite3__str_323_sqlite_tem
                0x00000000004f55ae       0x13 0x1 build_aarch64/sqlite3.o
                0x00000000004f55ae                sqlite3__str_323_sqlite_tem
 .rodata.sqlite3__str_324_1_
                0x00000000004f55c1        0x2 0x1 build_aarch64/sqlite3.o
                0x00000000004f55c1                sqlite3__str_324_1_
 .rodata.sqlite3__str_325_CREATE_TAB
                0x00000000004f55c3       0x48 0x1 build_aarch64/sqlite3.o
                0x00000000004f55c3                sqlite3__str_325_CREATE_TAB
 .rodata.sqlite3__str_326_attached_d
                0x00000000004f560b       0x44 0x1 build_aarch64/sqlite3.o
                0x00000000004f560b                sqlite3__str_326_attached_d
 .rodata.sqlite3__str_327_unsupporte
                0x00000000004f564f       0x18 0x1 build_aarch64/sqlite3.o
                0x00000000004f564f                sqlite3__str_327_unsupporte
 .rodata.sqlite3__str_328_SELECT_nam
                0x00000000004f5667       0x37 0x1 build_aarch64/sqlite3.o
                0x00000000004f5667                sqlite3__str_328_SELECT_nam
 .rodata.sqlite3__str_329_create__
                0x00000000004f569e        0x8 0x1 build_aarch64/sqlite3.o
                0x00000000004f569e                sqlite3__str_329_create__
 .rodata.sqlite3__str_330_invalid_ro
                0x00000000004f56a6       0x11 0x1 build_aarch64/sqlite3.o
                0x00000000004f56a6                sqlite3__str_330_invalid_ro
 .rodata.sqlite3__str_331___
                0x00000000004f56b7        0x2 0x1 build_aarch64/sqlite3.o
                0x00000000004f56b7                sqlite3__str_331___
 .rodata.sqlite3__str_332_malformed_
                0x00000000004f56b9       0x1f 0x1 build_aarch64/sqlite3.o
                0x00000000004f56b9                sqlite3__str_332_malformed_
 .rodata.sqlite3__str_333__z____s_
                0x00000000004f56d8        0x8 0x1 build_aarch64/sqlite3.o
                0x00000000004f56d8                sqlite3__str_333__z____s_
 .rodata.sqlite3__str_334_sqlite_sta
                0x00000000004f56e0        0xd 0x1 build_aarch64/sqlite3.o
                0x00000000004f56e0                sqlite3__str_334_sqlite_sta
 .rodata.sqlite3__str_335_SELECT_tbl
                0x00000000004f56ed       0x29 0x1 build_aarch64/sqlite3.o
                0x00000000004f56ed                sqlite3__str_335_SELECT_tbl
 .rodata.sqlite3__str_336_unordered_
                0x00000000004f5716        0xb 0x1 build_aarch64/sqlite3.o
                0x00000000004f5716                sqlite3__str_336_unordered_
 .rodata.sqlite3__str_337_sz__0_9___
                0x00000000004f5721        0xa 0x1 build_aarch64/sqlite3.o
                0x00000000004f5721                sqlite3__str_337_sz__0_9___
 .rodata.sqlite3__str_338_noskipscan
                0x00000000004f572b        0xc 0x1 build_aarch64/sqlite3.o
                0x00000000004f572b                sqlite3__str_338_noskipscan
 .rodata.sqlite3___const_sqlite3DefaultRowEst_aVal_
                0x00000000004f5738        0xa 0x2 build_aarch64/sqlite3.o
                0x00000000004f5738                sqlite3___const_sqlite3DefaultRowEst_aVal_
 .rodata.sqlite3__str_339_Main_freel
                0x00000000004f5742       0x10 0x1 build_aarch64/sqlite3.o
                0x00000000004f5742                sqlite3__str_339_Main_freel
 .rodata.sqlite3__str_340_max_rootpa
                0x00000000004f5752       0x2d 0x1 build_aarch64/sqlite3.o
                0x00000000004f5752                sqlite3__str_340_max_rootpa
 .rodata.sqlite3__str_341_incrementa
                0x00000000004f577f       0x37 0x1 build_aarch64/sqlite3.o
                0x00000000004f577f                sqlite3__str_341_incrementa
 .rodata.sqlite3__str_342_Page__d_is
                0x00000000004f57b6       0x16 0x1 build_aarch64/sqlite3.o
                0x00000000004f57b6                sqlite3__str_342_Page__d_is
 .rodata.sqlite3__str_343_Pointer_ma
                0x00000000004f57cc       0x22 0x1 build_aarch64/sqlite3.o
                0x00000000004f57cc                sqlite3__str_343_Pointer_ma
 .rodata.sqlite3__str_344_failed_to_
                0x00000000004f57ee       0x16 0x1 build_aarch64/sqlite3.o
                0x00000000004f57ee                sqlite3__str_344_failed_to_
 .rodata.sqlite3__str_345_freelist_l
                0x00000000004f5804       0x27 0x1 build_aarch64/sqlite3.o
                0x00000000004f5804                sqlite3__str_345_freelist_l
 .rodata.sqlite3__str_346__s_is__d_b
                0x00000000004f582b       0x1a 0x1 build_aarch64/sqlite3.o
                0x00000000004f582b                sqlite3__str_346__s_is__d_b
 .rodata.sqlite3__str_347_size_
                0x00000000004f5845        0x5 0x1 build_aarch64/sqlite3.o
                0x00000000004f5845                sqlite3__str_347_size_
 .rodata.sqlite3__str_348_overflow_l
                0x00000000004f584a       0x15 0x1 build_aarch64/sqlite3.o
                0x00000000004f584a                sqlite3__str_348_overflow_l
 .rodata.sqlite3__str_349_invalid_pa
                0x00000000004f585f       0x17 0x1 build_aarch64/sqlite3.o
                0x00000000004f585f                sqlite3__str_349_invalid_pa
 .rodata.sqlite3__str_350_2nd_refere
                0x00000000004f5876       0x19 0x1 build_aarch64/sqlite3.o
                0x00000000004f5876                sqlite3__str_350_2nd_refere
 .rodata.sqlite3__str_351___
                0x00000000004f588f        0x2 0x1 build_aarch64/sqlite3.o
                0x00000000004f588f                sqlite3__str_351___
 .rodata.sqlite3__str_352_Failed_to_
                0x00000000004f5891       0x1d 0x1 build_aarch64/sqlite3.o
                0x00000000004f5891                sqlite3__str_352_Failed_to_
 .rodata.sqlite3__str_353_Bad_ptr_ma
                0x00000000004f58ae       0x36 0x1 build_aarch64/sqlite3.o
                0x00000000004f58ae                sqlite3__str_353_Bad_ptr_ma
 .rodata.sqlite3__str_354_Page__d___
                0x00000000004f58e4        0xa 0x1 build_aarch64/sqlite3.o
                0x00000000004f58e4                sqlite3__str_354_Page__d___
 .rodata.sqlite3__str_355_unable_to_
                0x00000000004f58ee       0x26 0x1 build_aarch64/sqlite3.o
                0x00000000004f58ee                sqlite3__str_355_unable_to_
 .rodata.sqlite3__str_356_btreeInitP
                0x00000000004f5914       0x26 0x1 build_aarch64/sqlite3.o
                0x00000000004f5914                sqlite3__str_356_btreeInitP
 .rodata.sqlite3__str_357_On_tree_pa
                0x00000000004f593a       0x1a 0x1 build_aarch64/sqlite3.o
                0x00000000004f593a                sqlite3__str_357_On_tree_pa
 .rodata.sqlite3__str_358_On_page__d
                0x00000000004f5954       0x1c 0x1 build_aarch64/sqlite3.o
                0x00000000004f5954                sqlite3__str_358_On_page__d
 .rodata.sqlite3__str_359_Offset__d_
                0x00000000004f5970       0x1e 0x1 build_aarch64/sqlite3.o
                0x00000000004f5970                sqlite3__str_359_Offset__d_
 .rodata.sqlite3__str_360_Extends_of
                0x00000000004f598e       0x18 0x1 build_aarch64/sqlite3.o
                0x00000000004f598e                sqlite3__str_360_Extends_of
 .rodata.sqlite3__str_361_Rowid__lld
                0x00000000004f59a6       0x18 0x1 build_aarch64/sqlite3.o
                0x00000000004f59a6                sqlite3__str_361_Rowid__lld
 .rodata.sqlite3__str_362_Child_page
                0x00000000004f59be       0x19 0x1 build_aarch64/sqlite3.o
                0x00000000004f59be                sqlite3__str_362_Child_page
 .rodata.sqlite3__str_363_Multiple_u
                0x00000000004f59d7       0x25 0x1 build_aarch64/sqlite3.o
                0x00000000004f59d7                sqlite3__str_363_Multiple_u
 .rodata.sqlite3__str_364_Fragmentat
                0x00000000004f59fc       0x34 0x1 build_aarch64/sqlite3.o
                0x00000000004f59fc                sqlite3__str_364_Fragmentat
 .rodata.sqlite3_c_sqlite3JournalModename_azModeName
                0x00000000004f5a30       0x30 0x8 build_aarch64/sqlite3.o
 .rodata.sqlite3__str_365_delete_
                0x00000000004f5a60        0x7 0x1 build_aarch64/sqlite3.o
                0x00000000004f5a60                sqlite3__str_365_delete_
 .rodata.sqlite3__str_366_persist_
                0x00000000004f5a67        0x8 0x1 build_aarch64/sqlite3.o
                0x00000000004f5a67                sqlite3__str_366_persist_
 .rodata.sqlite3__str_367_off_
                0x00000000004f5a6f        0x4 0x1 build_aarch64/sqlite3.o
                0x00000000004f5a6f                sqlite3__str_367_off_
 .rodata.sqlite3__str_368_truncate_
                0x00000000004f5a73        0x9 0x1 build_aarch64/sqlite3.o
                0x00000000004f5a73                sqlite3__str_368_truncate_
 .rodata.sqlite3__str_369_memory_
                0x00000000004f5a7c        0x7 0x1 build_aarch64/sqlite3.o
                0x00000000004f5a7c                sqlite3__str_369_memory_
 .rodata.sqlite3__str_370_wal_
                0x00000000004f5a83        0x4 0x1 build_aarch64/sqlite3.o
                0x00000000004f5a83                sqlite3__str_370_wal_
 .rodata.sqlite3__str_371_cannot_VAC
                0x00000000004f5a87       0x28 0x1 build_aarch64/sqlite3.o
                0x00000000004f5a87                sqlite3__str_371_cannot_VAC
 .rodata.sqlite3__str_372_cannot_VAC
                0x00000000004f5aaf       0x2b 0x1 build_aarch64/sqlite3.o
                0x00000000004f5aaf                sqlite3__str_372_cannot_VAC
 .rodata.sqlite3__str_373_ATTACH__AS
                0x00000000004f5ada       0x15 0x1 build_aarch64/sqlite3.o
                0x00000000004f5ada                sqlite3__str_373_ATTACH__AS
 .rodata.sqlite3__str_374_BEGIN_
                0x00000000004f5aef        0x6 0x1 build_aarch64/sqlite3.o
                0x00000000004f5aef                sqlite3__str_374_BEGIN_
 .rodata.sqlite3__str_375_SELECT_sql
                0x00000000004f5af5       0x6c 0x1 build_aarch64/sqlite3.o
                0x00000000004f5af5                sqlite3__str_375_SELECT_sql
 .rodata.sqlite3__str_376_SELECT_sql
                0x00000000004f5b61       0x36 0x1 build_aarch64/sqlite3.o
                0x00000000004f5b61                sqlite3__str_376_SELECT_sql
 .rodata.sqlite3__str_377_SELECT_INS
                0x00000000004f5b97       0x97 0x1 build_aarch64/sqlite3.o
                0x00000000004f5b97                sqlite3__str_377_SELECT_INS
 .rodata.sqlite3__str_378_INSERT_INT
                0x00000000004f5c2e       0x82 0x1 build_aarch64/sqlite3.o
                0x00000000004f5c2e                sqlite3__str_378_INSERT_INT
 .rodata.sqlite3_c_sqlite3RunVacuum_aCopy
                0x00000000004f5cb0        0xa 0x1 build_aarch64/sqlite3.o
 .rodata.sqlite3__str_379_CRE_
                0x00000000004f5cba        0x4 0x1 build_aarch64/sqlite3.o
                0x00000000004f5cba                sqlite3__str_379_CRE_
 .rodata.sqlite3__str_380_INS_
                0x00000000004f5cbe        0x4 0x1 build_aarch64/sqlite3.o
                0x00000000004f5cbe                sqlite3__str_380_INS_
 .rodata.sqlite3__str_381_no_such_mo
                0x00000000004f5cc2       0x13 0x1 build_aarch64/sqlite3.o
                0x00000000004f5cc2                sqlite3__str_381_no_such_mo
 .rodata.sqlite3__str_382_vtable_con
                0x00000000004f5cd5       0x2a 0x1 build_aarch64/sqlite3.o
                0x00000000004f5cd5                sqlite3__str_382_vtable_con
 .rodata.sqlite3__str_383_vtable_con
                0x00000000004f5cff       0x1e 0x1 build_aarch64/sqlite3.o
                0x00000000004f5cff                sqlite3__str_383_vtable_con
 .rodata.sqlite3__str_384_vtable_con
                0x00000000004f5d1d       0x2e 0x1 build_aarch64/sqlite3.o
                0x00000000004f5d1d                sqlite3__str_384_vtable_con
 .rodata.sqlite3_c_columnNullValue_nullMem
                0x00000000004f5d50       0x38 0x8 build_aarch64/sqlite3.o
 .rodata.sqlite3__str_386_bind_on_a_
                0x00000000004f5d88       0x28 0x1 build_aarch64/sqlite3.o
                0x00000000004f5d88                sqlite3__str_386_bind_on_a_
 .rodata.sqlite3__str_387_____
                0x00000000004f5db0        0x4 0x1 build_aarch64/sqlite3.o
                0x00000000004f5db0                sqlite3__str_387_____
 .rodata.sqlite3__str_388_____q__
                0x00000000004f5db4        0x7 0x1 build_aarch64/sqlite3.o
                0x00000000004f5db4                sqlite3__str_388_____q__
 .rodata.sqlite3__str_389_zeroblob__
                0x00000000004f5dbb        0xd 0x1 build_aarch64/sqlite3.o
                0x00000000004f5dbb                sqlite3__str_389_zeroblob__
 .rodata.sqlite3__str_390_x__
                0x00000000004f5dc8        0x3 0x1 build_aarch64/sqlite3.o
                0x00000000004f5dc8                sqlite3__str_390_x__
 .rodata.sqlite3__str_391__02x_
                0x00000000004f5dcb        0x5 0x1 build_aarch64/sqlite3.o
                0x00000000004f5dcb                sqlite3__str_391__02x_
 .rodata.sqlite3__str_392___
                0x00000000004f5dd0        0x2 0x1 build_aarch64/sqlite3.o
                0x00000000004f5dd0                sqlite3__str_392___
 .rodata.sqlite3_c_aiClass
                0x00000000004f5dd2      0x100 0x1 build_aarch64/sqlite3.o
 .rodata.sqlite3_c_aKWHash
                0x00000000004f5ed2       0x7f 0x1 build_aarch64/sqlite3.o
 .rodata.sqlite3_c_aKWCode
                0x00000000004f5f51       0x88 0x1 build_aarch64/sqlite3.o
 .rodata.sqlite3_c_aKWNext
                0x00000000004f5fd9       0x88 0x1 build_aarch64/sqlite3.o
 .rodata.sqlite3_c_sqlite3OpcodeProperty
                0x00000000004f6061       0xae 0x1 build_aarch64/sqlite3.o
 .rodata.sqlite3__str_393_cannot_ope
                0x00000000004f610f       0x1d 0x1 build_aarch64/sqlite3.o
                0x00000000004f610f                sqlite3__str_393_cannot_ope
 .rodata.sqlite3__str_394_null_
                0x00000000004f612c        0x5 0x1 build_aarch64/sqlite3.o
                0x00000000004f612c                sqlite3__str_394_null_
 .rodata.sqlite3__str_395_real_
                0x00000000004f6131        0x5 0x1 build_aarch64/sqlite3.o
                0x00000000004f6131                sqlite3__str_395_real_
 .rodata.sqlite3__str_396_integer_
                0x00000000004f6136        0x8 0x1 build_aarch64/sqlite3.o
                0x00000000004f6136                sqlite3__str_396_integer_
 .rodata.sqlite3__str_397_no_such_ro
                0x00000000004f613e       0x14 0x1 build_aarch64/sqlite3.o
                0x00000000004f613e                sqlite3__str_397_no_such_ro
 .rodata.sqlite3__str_398_no_such_vi
                0x00000000004f6152        0xd 0x1 build_aarch64/sqlite3.o
                0x00000000004f6152                sqlite3__str_398_no_such_vi
 .rodata.sqlite3__str_399_no_such_ta
                0x00000000004f615f        0xe 0x1 build_aarch64/sqlite3.o
                0x00000000004f615f                sqlite3__str_399_no_such_ta
 .rodata.sqlite3__str_400_pragma__
                0x00000000004f616d        0x8 0x1 build_aarch64/sqlite3.o
                0x00000000004f616d                sqlite3__str_400_pragma__
 .rodata.sqlite3__str_401__s___s__s_
                0x00000000004f6175        0xa 0x1 build_aarch64/sqlite3.o
                0x00000000004f6175                sqlite3__str_401__s___s__s_
 .rodata.sqlite3__str_402__s___s_
                0x00000000004f617f        0x7 0x1 build_aarch64/sqlite3.o
                0x00000000004f617f                sqlite3__str_402__s___s_
 .rodata.sqlite3_c_pragmaVtabModule
                0x00000000004f6188       0xb8 0x8 build_aarch64/sqlite3.o
 .rodata.sqlite3_c_aPragmaName
                0x00000000004f6240      0x3b0 0x8 build_aarch64/sqlite3.o
 .rodata.sqlite3__str_403_applicatio
                0x00000000004f65f0        0xf 0x1 build_aarch64/sqlite3.o
                0x00000000004f65f0                sqlite3__str_403_applicatio
 .rodata.sqlite3__str_404_auto_vacuu
                0x00000000004f65ff        0xc 0x1 build_aarch64/sqlite3.o
                0x00000000004f65ff                sqlite3__str_404_auto_vacuu
 .rodata.sqlite3__str_405_automatic_
                0x00000000004f660b       0x10 0x1 build_aarch64/sqlite3.o
                0x00000000004f660b                sqlite3__str_405_automatic_
 .rodata.sqlite3__str_406_busy_timeo
                0x00000000004f661b        0xd 0x1 build_aarch64/sqlite3.o
                0x00000000004f661b                sqlite3__str_406_busy_timeo
 .rodata.sqlite3__str_407_cache_size
                0x00000000004f6628        0xb 0x1 build_aarch64/sqlite3.o
                0x00000000004f6628                sqlite3__str_407_cache_size
 .rodata.sqlite3__str_408_cache_spil
                0x00000000004f6633        0xc 0x1 build_aarch64/sqlite3.o
                0x00000000004f6633                sqlite3__str_408_cache_spil
 .rodata.sqlite3__str_409_case_sensi
                0x00000000004f663f       0x14 0x1 build_aarch64/sqlite3.o
                0x00000000004f663f                sqlite3__str_409_case_sensi
 .rodata.sqlite3__str_410_cell_size_
                0x00000000004f6653       0x10 0x1 build_aarch64/sqlite3.o
                0x00000000004f6653                sqlite3__str_410_cell_size_
 .rodata.sqlite3__str_411_checkpoint
                0x00000000004f6663       0x15 0x1 build_aarch64/sqlite3.o
                0x00000000004f6663                sqlite3__str_411_checkpoint
 .rodata.sqlite3__str_412_collation_
                0x00000000004f6678        0xf 0x1 build_aarch64/sqlite3.o
                0x00000000004f6678                sqlite3__str_412_collation_
 .rodata.sqlite3__str_413_compile_op
                0x00000000004f6687       0x10 0x1 build_aarch64/sqlite3.o
                0x00000000004f6687                sqlite3__str_413_compile_op
 .rodata.sqlite3__str_414_count_chan
                0x00000000004f6697        0xe 0x1 build_aarch64/sqlite3.o
                0x00000000004f6697                sqlite3__str_414_count_chan
 .rodata.sqlite3__str_415_data_versi
                0x00000000004f66a5        0xd 0x1 build_aarch64/sqlite3.o
                0x00000000004f66a5                sqlite3__str_415_data_versi
 .rodata.sqlite3__str_416_database_l
                0x00000000004f66b2        0xe 0x1 build_aarch64/sqlite3.o
                0x00000000004f66b2                sqlite3__str_416_database_l
 .rodata.sqlite3__str_417_default_ca
                0x00000000004f66c0       0x13 0x1 build_aarch64/sqlite3.o
                0x00000000004f66c0                sqlite3__str_417_default_ca
 .rodata.sqlite3__str_418_defer_fore
                0x00000000004f66d3       0x13 0x1 build_aarch64/sqlite3.o
                0x00000000004f66d3                sqlite3__str_418_defer_fore
 .rodata.sqlite3__str_419_empty_resu
                0x00000000004f66e6       0x17 0x1 build_aarch64/sqlite3.o
                0x00000000004f66e6                sqlite3__str_419_empty_resu
 .rodata.sqlite3__str_420_encoding_
                0x00000000004f66fd        0x9 0x1 build_aarch64/sqlite3.o
                0x00000000004f66fd                sqlite3__str_420_encoding_
 .rodata.sqlite3__str_421_foreign_ke
                0x00000000004f6706       0x12 0x1 build_aarch64/sqlite3.o
                0x00000000004f6706                sqlite3__str_421_foreign_ke
 .rodata.sqlite3__str_422_foreign_ke
                0x00000000004f6718       0x11 0x1 build_aarch64/sqlite3.o
                0x00000000004f6718                sqlite3__str_422_foreign_ke
 .rodata.sqlite3__str_423_foreign_ke
                0x00000000004f6729        0xd 0x1 build_aarch64/sqlite3.o
                0x00000000004f6729                sqlite3__str_423_foreign_ke
 .rodata.sqlite3__str_424_freelist_c
                0x00000000004f6736        0xf 0x1 build_aarch64/sqlite3.o
                0x00000000004f6736                sqlite3__str_424_freelist_c
 .rodata.sqlite3__str_425_full_colum
                0x00000000004f6745       0x12 0x1 build_aarch64/sqlite3.o
                0x00000000004f6745                sqlite3__str_425_full_colum
 .rodata.sqlite3__str_426_fullfsync_
                0x00000000004f6757        0xa 0x1 build_aarch64/sqlite3.o
                0x00000000004f6757                sqlite3__str_426_fullfsync_
 .rodata.sqlite3__str_427_ignore_che
                0x00000000004f6761       0x19 0x1 build_aarch64/sqlite3.o
                0x00000000004f6761                sqlite3__str_427_ignore_che
 .rodata.sqlite3__str_428_incrementa
                0x00000000004f677a       0x13 0x1 build_aarch64/sqlite3.o
                0x00000000004f677a                sqlite3__str_428_incrementa
 .rodata.sqlite3__str_429_index_info
                0x00000000004f678d        0xb 0x1 build_aarch64/sqlite3.o
                0x00000000004f678d                sqlite3__str_429_index_info
 .rodata.sqlite3__str_430_index_list
                0x00000000004f6798        0xb 0x1 build_aarch64/sqlite3.o
                0x00000000004f6798                sqlite3__str_430_index_list
 .rodata.sqlite3__str_431_index_xinf
                0x00000000004f67a3        0xc 0x1 build_aarch64/sqlite3.o
                0x00000000004f67a3                sqlite3__str_431_index_xinf
 .rodata.sqlite3__str_432_integrity_
                0x00000000004f67af       0x10 0x1 build_aarch64/sqlite3.o
                0x00000000004f67af                sqlite3__str_432_integrity_
 .rodata.sqlite3__str_433_journal_mo
                0x00000000004f67bf        0xd 0x1 build_aarch64/sqlite3.o
                0x00000000004f67bf                sqlite3__str_433_journal_mo
 .rodata.sqlite3__str_434_journal_si
                0x00000000004f67cc       0x13 0x1 build_aarch64/sqlite3.o
                0x00000000004f67cc                sqlite3__str_434_journal_si
 .rodata.sqlite3__str_435_legacy_alt
                0x00000000004f67df       0x13 0x1 build_aarch64/sqlite3.o
                0x00000000004f67df                sqlite3__str_435_legacy_alt
 .rodata.sqlite3__str_436_legacy_fil
                0x00000000004f67f2       0x13 0x1 build_aarch64/sqlite3.o
                0x00000000004f67f2                sqlite3__str_436_legacy_fil
 .rodata.sqlite3__str_437_locking_mo
                0x00000000004f6805        0xd 0x1 build_aarch64/sqlite3.o
                0x00000000004f6805                sqlite3__str_437_locking_mo
 .rodata.sqlite3__str_438_max_page_c
                0x00000000004f6812        0xf 0x1 build_aarch64/sqlite3.o
                0x00000000004f6812                sqlite3__str_438_max_page_c
 .rodata.sqlite3__str_439_mmap_size_
                0x00000000004f6821        0xa 0x1 build_aarch64/sqlite3.o
                0x00000000004f6821                sqlite3__str_439_mmap_size_
 .rodata.sqlite3__str_440_optimize_
                0x00000000004f682b        0x9 0x1 build_aarch64/sqlite3.o
                0x00000000004f682b                sqlite3__str_440_optimize_
 .rodata.sqlite3__str_441_page_count
                0x00000000004f6834        0xb 0x1 build_aarch64/sqlite3.o
                0x00000000004f6834                sqlite3__str_441_page_count
 .rodata.sqlite3__str_442_page_size_
                0x00000000004f683f        0xa 0x1 build_aarch64/sqlite3.o
                0x00000000004f683f                sqlite3__str_442_page_size_
 .rodata.sqlite3__str_443_query_only
                0x00000000004f6849        0xb 0x1 build_aarch64/sqlite3.o
                0x00000000004f6849                sqlite3__str_443_query_only
 .rodata.sqlite3__str_444_quick_chec
                0x00000000004f6854        0xc 0x1 build_aarch64/sqlite3.o
                0x00000000004f6854                sqlite3__str_444_quick_chec
 .rodata.sqlite3__str_445_read_uncom
                0x00000000004f6860       0x11 0x1 build_aarch64/sqlite3.o
                0x00000000004f6860                sqlite3__str_445_read_uncom
 .rodata.sqlite3__str_446_recursive_
                0x00000000004f6871       0x13 0x1 build_aarch64/sqlite3.o
                0x00000000004f6871                sqlite3__str_446_recursive_
 .rodata.sqlite3__str_447_reverse_un
                0x00000000004f6884       0x1a 0x1 build_aarch64/sqlite3.o
                0x00000000004f6884                sqlite3__str_447_reverse_un
 .rodata.sqlite3__str_448_schema_ver
                0x00000000004f689e        0xf 0x1 build_aarch64/sqlite3.o
                0x00000000004f689e                sqlite3__str_448_schema_ver
 .rodata.sqlite3__str_449_secure_del
                0x00000000004f68ad        0xe 0x1 build_aarch64/sqlite3.o
                0x00000000004f68ad                sqlite3__str_449_secure_del
 .rodata.sqlite3__str_450_short_colu
                0x00000000004f68bb       0x13 0x1 build_aarch64/sqlite3.o
                0x00000000004f68bb                sqlite3__str_450_short_colu
 .rodata.sqlite3__str_451_shrink_mem
                0x00000000004f68ce        0xe 0x1 build_aarch64/sqlite3.o
                0x00000000004f68ce                sqlite3__str_451_shrink_mem
 .rodata.sqlite3__str_452_soft_heap_
                0x00000000004f68dc       0x10 0x1 build_aarch64/sqlite3.o
                0x00000000004f68dc                sqlite3__str_452_soft_heap_
 .rodata.sqlite3__str_453_synchronou
                0x00000000004f68ec        0xc 0x1 build_aarch64/sqlite3.o
                0x00000000004f68ec                sqlite3__str_453_synchronou
 .rodata.sqlite3__str_454_table_info
                0x00000000004f68f8        0xb 0x1 build_aarch64/sqlite3.o
                0x00000000004f68f8                sqlite3__str_454_table_info
 .rodata.sqlite3__str_455_temp_store
                0x00000000004f6903        0xb 0x1 build_aarch64/sqlite3.o
                0x00000000004f6903                sqlite3__str_455_temp_store
 .rodata.sqlite3__str_456_temp_store
                0x00000000004f690e       0x15 0x1 build_aarch64/sqlite3.o
                0x00000000004f690e                sqlite3__str_456_temp_store
 .rodata.sqlite3__str_457_threads_
                0x00000000004f6923        0x8 0x1 build_aarch64/sqlite3.o
                0x00000000004f6923                sqlite3__str_457_threads_
 .rodata.sqlite3__str_458_user_versi
                0x00000000004f692b        0xd 0x1 build_aarch64/sqlite3.o
                0x00000000004f692b                sqlite3__str_458_user_versi
 .rodata.sqlite3__str_459_wal_autoch
                0x00000000004f6938       0x13 0x1 build_aarch64/sqlite3.o
                0x00000000004f6938                sqlite3__str_459_wal_autoch
 .rodata.sqlite3__str_460_wal_checkp
                0x00000000004f694b        0xf 0x1 build_aarch64/sqlite3.o
                0x00000000004f694b                sqlite3__str_460_wal_checkp
 .rodata.sqlite3__str_461_writable_s
                0x00000000004f695a       0x10 0x1 build_aarch64/sqlite3.o
                0x00000000004f695a                sqlite3__str_461_writable_s
 .rodata.sqlite3__str_462_CREATE_TAB
                0x00000000004f696a        0xf 0x1 build_aarch64/sqlite3.o
                0x00000000004f696a                sqlite3__str_462_CREATE_TAB
 .rodata.sqlite3__str_463__c__s__
                0x00000000004f6979        0x7 0x1 build_aarch64/sqlite3.o
                0x00000000004f6979                sqlite3__str_463__c__s__
 .rodata.sqlite3_c_pragCName
                0x00000000004f6980      0x1a0 0x8 build_aarch64/sqlite3.o
 .rodata.sqlite3__str_464____s__
                0x00000000004f6b20        0x6 0x1 build_aarch64/sqlite3.o
                0x00000000004f6b20                sqlite3__str_464____s__
 .rodata.sqlite3__str_465__arg_HIDDE
                0x00000000004f6b26        0xc 0x1 build_aarch64/sqlite3.o
                0x00000000004f6b26                sqlite3__str_465__arg_HIDDE
 .rodata.sqlite3__str_466__schema_HI
                0x00000000004f6b32        0xf 0x1 build_aarch64/sqlite3.o
                0x00000000004f6b32                sqlite3__str_466__schema_HI
 .rodata.sqlite3__str_467_cid_
                0x00000000004f6b41        0x4 0x1 build_aarch64/sqlite3.o
                0x00000000004f6b41                sqlite3__str_467_cid_
 .rodata.sqlite3__str_468_name_
                0x00000000004f6b45        0x5 0x1 build_aarch64/sqlite3.o
                0x00000000004f6b45                sqlite3__str_468_name_
 .rodata.sqlite3__str_469_type_
                0x00000000004f6b4a        0x5 0x1 build_aarch64/sqlite3.o
                0x00000000004f6b4a                sqlite3__str_469_type_
 .rodata.sqlite3__str_470_notnull_
                0x00000000004f6b4f        0x8 0x1 build_aarch64/sqlite3.o
                0x00000000004f6b4f                sqlite3__str_470_notnull_
 .rodata.sqlite3__str_471_dflt_value
                0x00000000004f6b57        0xb 0x1 build_aarch64/sqlite3.o
                0x00000000004f6b57                sqlite3__str_471_dflt_value
 .rodata.sqlite3__str_472_pk_
                0x00000000004f6b62        0x3 0x1 build_aarch64/sqlite3.o
                0x00000000004f6b62                sqlite3__str_472_pk_
 .rodata.sqlite3__str_473_tbl_
                0x00000000004f6b65        0x4 0x1 build_aarch64/sqlite3.o
                0x00000000004f6b65                sqlite3__str_473_tbl_
 .rodata.sqlite3__str_474_idx_
                0x00000000004f6b69        0x4 0x1 build_aarch64/sqlite3.o
                0x00000000004f6b69                sqlite3__str_474_idx_
 .rodata.sqlite3__str_475_wdth_
                0x00000000004f6b6d        0x5 0x1 build_aarch64/sqlite3.o
                0x00000000004f6b6d                sqlite3__str_475_wdth_
 .rodata.sqlite3__str_476_hght_
                0x00000000004f6b72        0x5 0x1 build_aarch64/sqlite3.o
                0x00000000004f6b72                sqlite3__str_476_hght_
 .rodata.sqlite3__str_477_flgs_
                0x00000000004f6b77        0x5 0x1 build_aarch64/sqlite3.o
                0x00000000004f6b77                sqlite3__str_477_flgs_
 .rodata.sqlite3__str_478_seqno_
                0x00000000004f6b7c        0x6 0x1 build_aarch64/sqlite3.o
                0x00000000004f6b7c                sqlite3__str_478_seqno_
 .rodata.sqlite3__str_479_desc_
                0x00000000004f6b82        0x5 0x1 build_aarch64/sqlite3.o
                0x00000000004f6b82                sqlite3__str_479_desc_
 .rodata.sqlite3__str_480_coll_
                0x00000000004f6b87        0x5 0x1 build_aarch64/sqlite3.o
                0x00000000004f6b87                sqlite3__str_480_coll_
 .rodata.sqlite3__str_481_key_
                0x00000000004f6b8c        0x4 0x1 build_aarch64/sqlite3.o
                0x00000000004f6b8c                sqlite3__str_481_key_
 .rodata.sqlite3__str_482_seq_
                0x00000000004f6b90        0x4 0x1 build_aarch64/sqlite3.o
                0x00000000004f6b90                sqlite3__str_482_seq_
 .rodata.sqlite3__str_483_unique_
                0x00000000004f6b94        0x7 0x1 build_aarch64/sqlite3.o
                0x00000000004f6b94                sqlite3__str_483_unique_
 .rodata.sqlite3__str_484_origin_
                0x00000000004f6b9b        0x7 0x1 build_aarch64/sqlite3.o
                0x00000000004f6b9b                sqlite3__str_484_origin_
 .rodata.sqlite3__str_485_partial_
                0x00000000004f6ba2        0x8 0x1 build_aarch64/sqlite3.o
                0x00000000004f6ba2                sqlite3__str_485_partial_
 .rodata.sqlite3__str_486_file_
                0x00000000004f6baa        0x5 0x1 build_aarch64/sqlite3.o
                0x00000000004f6baa                sqlite3__str_486_file_
 .rodata.sqlite3__str_487_builtin_
                0x00000000004f6baf        0x8 0x1 build_aarch64/sqlite3.o
                0x00000000004f6baf                sqlite3__str_487_builtin_
 .rodata.sqlite3__str_488_id_
                0x00000000004f6bb7        0x3 0x1 build_aarch64/sqlite3.o
                0x00000000004f6bb7                sqlite3__str_488_id_
 .rodata.sqlite3__str_489_table_
                0x00000000004f6bba        0x6 0x1 build_aarch64/sqlite3.o
                0x00000000004f6bba                sqlite3__str_489_table_
 .rodata.sqlite3__str_490_from_
                0x00000000004f6bc0        0x5 0x1 build_aarch64/sqlite3.o
                0x00000000004f6bc0                sqlite3__str_490_from_
 .rodata.sqlite3__str_491_to_
                0x00000000004f6bc5        0x3 0x1 build_aarch64/sqlite3.o
                0x00000000004f6bc5                sqlite3__str_491_to_
 .rodata.sqlite3__str_492_on_update_
                0x00000000004f6bc8        0xa 0x1 build_aarch64/sqlite3.o
                0x00000000004f6bc8                sqlite3__str_492_on_update_
 .rodata.sqlite3__str_493_on_delete_
                0x00000000004f6bd2        0xa 0x1 build_aarch64/sqlite3.o
                0x00000000004f6bd2                sqlite3__str_493_on_delete_
 .rodata.sqlite3__str_494_match_
                0x00000000004f6bdc        0x6 0x1 build_aarch64/sqlite3.o
                0x00000000004f6bdc                sqlite3__str_494_match_
 .rodata.sqlite3__str_495_rowid_
                0x00000000004f6be2        0x6 0x1 build_aarch64/sqlite3.o
                0x00000000004f6be2                sqlite3__str_495_rowid_
 .rodata.sqlite3__str_496_parent_
                0x00000000004f6be8        0x7 0x1 build_aarch64/sqlite3.o
                0x00000000004f6be8                sqlite3__str_496_parent_
 .rodata.sqlite3__str_497_fkid_
                0x00000000004f6bef        0x5 0x1 build_aarch64/sqlite3.o
                0x00000000004f6bef                sqlite3__str_497_fkid_
 .rodata.sqlite3__str_498_busy_
                0x00000000004f6bf4        0x5 0x1 build_aarch64/sqlite3.o
                0x00000000004f6bf4                sqlite3__str_498_busy_
 .rodata.sqlite3__str_499_log_
                0x00000000004f6bf9        0x4 0x1 build_aarch64/sqlite3.o
                0x00000000004f6bf9                sqlite3__str_499_log_
 .rodata.sqlite3__str_500_checkpoint
                0x00000000004f6bfd        0xd 0x1 build_aarch64/sqlite3.o
                0x00000000004f6bfd                sqlite3__str_500_checkpoint
 .rodata.sqlite3__str_501_timeout_
                0x00000000004f6c0a        0x8 0x1 build_aarch64/sqlite3.o
                0x00000000004f6c0a                sqlite3__str_501_timeout_
 .rodata.sqlite3__str_502_database_
                0x00000000004f6c12        0x9 0x1 build_aarch64/sqlite3.o
                0x00000000004f6c12                sqlite3__str_502_database_
 .rodata.sqlite3__str_503_status_
                0x00000000004f6c1b        0x7 0x1 build_aarch64/sqlite3.o
                0x00000000004f6c1b                sqlite3__str_503_status_
 .rodata.sqlite3__str_504_PRAGMA__
                0x00000000004f6c22        0x8 0x1 build_aarch64/sqlite3.o
                0x00000000004f6c22                sqlite3__str_504_PRAGMA__
 .rodata.sqlite3__str_505__Q__
                0x00000000004f6c2a        0x4 0x1 build_aarch64/sqlite3.o
                0x00000000004f6c2a                sqlite3__str_505__Q__
 .rodata.sqlite3__str_506___Q_
                0x00000000004f6c2e        0x4 0x1 build_aarch64/sqlite3.o
                0x00000000004f6c2e                sqlite3__str_506___Q_
 .rodata.sqlite3__str_507_unopened_
                0x00000000004f6c32        0x9 0x1 build_aarch64/sqlite3.o
                0x00000000004f6c32                sqlite3__str_507_unopened_
 .rodata.sqlite3__str_508_API_call_w
                0x00000000004f6c3b       0x2d 0x1 build_aarch64/sqlite3.o
                0x00000000004f6c3b                sqlite3__str_508_API_call_w
 .rodata.sqlite3__str_509_so_
                0x00000000004f6c68        0x3 0x1 build_aarch64/sqlite3.o
                0x00000000004f6c68                sqlite3__str_509_so_
 .rodata.sqlite3__str_510_not_author
                0x00000000004f6c6b        0xf 0x1 build_aarch64/sqlite3.o
                0x00000000004f6c6b                sqlite3__str_510_not_author
 .rodata.sqlite3__str_511_sqlite3_ex
                0x00000000004f6c7a       0x17 0x1 build_aarch64/sqlite3.o
                0x00000000004f6c7a                sqlite3__str_511_sqlite3_ex
 .rodata.sqlite3__str_512__s__s_
                0x00000000004f6c91        0x6 0x1 build_aarch64/sqlite3.o
                0x00000000004f6c91                sqlite3__str_512__s__s_
 .rodata.sqlite3__str_513_unable_to_
                0x00000000004f6c97       0x23 0x1 build_aarch64/sqlite3.o
                0x00000000004f6c97                sqlite3__str_513_unable_to_
 .rodata.sqlite3__str_515_lib_
                0x00000000004f6cba        0x4 0x1 build_aarch64/sqlite3.o
                0x00000000004f6cba                sqlite3__str_515_lib_
 .rodata.sqlite3__str_516__init_
                0x00000000004f6cbe        0x6 0x1 build_aarch64/sqlite3.o
                0x00000000004f6cbe                sqlite3__str_516__init_
 .rodata.sqlite3__str_517_no_entry_p
                0x00000000004f6cc4       0x2b 0x1 build_aarch64/sqlite3.o
                0x00000000004f6cc4                sqlite3__str_517_no_entry_p
 .rodata.sqlite3_c_sqlite3Apis
                0x00000000004f6cf0      0x780 0x8 build_aarch64/sqlite3.o
 .rodata.sqlite3__str_518_error_duri
                0x00000000004f7470       0x20 0x1 build_aarch64/sqlite3.o
                0x00000000004f7470                sqlite3__str_518_error_duri
 .rodata.sqlite3__str_519_database_s
                0x00000000004f7490       0x1e 0x1 build_aarch64/sqlite3.o
                0x00000000004f7490                sqlite3__str_519_database_s
 .rodata.sqlite3__str_520_statement_
                0x00000000004f74ae       0x13 0x1 build_aarch64/sqlite3.o
                0x00000000004f74ae                sqlite3__str_520_statement_
 .rodata.sqlite3_c_sqlite3Prepare_azColName
                0x00000000004f74c8       0x60 0x8 build_aarch64/sqlite3.o
 .rodata.sqlite3__str_521_addr_
                0x00000000004f7528        0x5 0x1 build_aarch64/sqlite3.o
                0x00000000004f7528                sqlite3__str_521_addr_
 .rodata.sqlite3__str_522_opcode_
                0x00000000004f752d        0x7 0x1 build_aarch64/sqlite3.o
                0x00000000004f752d                sqlite3__str_522_opcode_
 .rodata.sqlite3__str_523_p1_
                0x00000000004f7534        0x3 0x1 build_aarch64/sqlite3.o
                0x00000000004f7534                sqlite3__str_523_p1_
 .rodata.sqlite3__str_524_p2_
                0x00000000004f7537        0x3 0x1 build_aarch64/sqlite3.o
                0x00000000004f7537                sqlite3__str_524_p2_
 .rodata.sqlite3__str_525_p3_
                0x00000000004f753a        0x3 0x1 build_aarch64/sqlite3.o
                0x00000000004f753a                sqlite3__str_525_p3_
 .rodata.sqlite3__str_526_p4_
                0x00000000004f753d        0x3 0x1 build_aarch64/sqlite3.o
                0x00000000004f753d                sqlite3__str_526_p4_
 .rodata.sqlite3__str_527_p5_
                0x00000000004f7540        0x3 0x1 build_aarch64/sqlite3.o
                0x00000000004f7540                sqlite3__str_527_p5_
 .rodata.sqlite3__str_528_comment_
                0x00000000004f7543        0x8 0x1 build_aarch64/sqlite3.o
                0x00000000004f7543                sqlite3__str_528_comment_
 .rodata.sqlite3__str_529_notused_
                0x00000000004f754b        0x8 0x1 build_aarch64/sqlite3.o
                0x00000000004f754b                sqlite3__str_529_notused_
 .rodata.sqlite3__str_530_detail_
                0x00000000004f7553        0x7 0x1 build_aarch64/sqlite3.o
                0x00000000004f7553                sqlite3__str_530_detail_
 .rodata.sqlite3__str_531_sqlite3_ge
                0x00000000004f755a       0x41 0x1 build_aarch64/sqlite3.o
                0x00000000004f755a                sqlite3__str_531_sqlite3_ge
 .rodata.sqlite3__str_532_no_such_co
                0x00000000004f759b       0x1f 0x1 build_aarch64/sqlite3.o
                0x00000000004f759b                sqlite3__str_532_no_such_co
 .rodata.sqlite3__str_533_unrecogniz
                0x00000000004f75ba       0x1b 0x1 build_aarch64/sqlite3.o
                0x00000000004f75ba                sqlite3__str_533_unrecogniz
 .rodata.sqlite3__str_534__s_in___s_
                0x00000000004f75d5        0xb 0x1 build_aarch64/sqlite3.o
                0x00000000004f75d5                sqlite3__str_534__s_in___s_
 .rodata.sqlite3_c_yyFallback
                0x00000000004f75e0       0xb6 0x2 build_aarch64/sqlite3.o
 .rodata.sqlite3_c_yy_shift_ofst
                0x00000000004f7696      0x412 0x2 build_aarch64/sqlite3.o
 .rodata.sqlite3_c_yy_lookahead
                0x00000000004f7aa8      0xfc6 0x2 build_aarch64/sqlite3.o
 .rodata.sqlite3_c_yy_action
                0x00000000004f8a6e      0xfb2 0x2 build_aarch64/sqlite3.o
 .rodata.sqlite3_c_yy_default
                0x00000000004f9a20      0x412 0x2 build_aarch64/sqlite3.o
 .rodata.sqlite3_c_yyRuleInfo
                0x00000000004f9e32      0x5bc 0x2 build_aarch64/sqlite3.o
 .rodata.sqlite3__str_535_unknown_ta
                0x00000000004fa3ee       0x1b 0x1 build_aarch64/sqlite3.o
                0x00000000004fa3ee                sqlite3__str_535_unknown_ta
 .rodata.sqlite3___const_yy_reduce_dest_
                0x00000000004fa410       0x20 0x8 build_aarch64/sqlite3.o
                0x00000000004fa410                sqlite3___const_yy_reduce_dest_
 .rodata.sqlite3__str_536_set_list_
                0x00000000004fa430        0x9 0x1 build_aarch64/sqlite3.o
                0x00000000004fa430                sqlite3__str_536_set_list_
 .rodata.sqlite3__str_537_near___T__
                0x00000000004fa439       0x18 0x1 build_aarch64/sqlite3.o
                0x00000000004fa439                sqlite3__str_537_near___T__
 .rodata.sqlite3_c_sqlite3IntTokens
                0x00000000004fa458       0x20 0x8 build_aarch64/sqlite3.o
 .rodata.sqlite3__str_538_qualified_
                0x00000000004fa478       0x5f 0x1 build_aarch64/sqlite3.o
                0x00000000004fa478                sqlite3__str_538_qualified_
 .rodata.sqlite3__str_539_the_INDEXE
                0x00000000004fa4d7       0x54 0x1 build_aarch64/sqlite3.o
                0x00000000004fa4d7                sqlite3__str_539_the_INDEXE
 .rodata.sqlite3__str_540_the_NOT_IN
                0x00000000004fa52b       0x55 0x1 build_aarch64/sqlite3.o
                0x00000000004fa52b                sqlite3__str_540_the_NOT_IN
 .rodata.sqlite3__str_541_parser_sta
                0x00000000004fa580       0x16 0x1 build_aarch64/sqlite3.o
                0x00000000004fa580                sqlite3__str_541_parser_sta
 .rodata.sqlite3_c_sqlite3AutoincrementBegin_autoInc
                0x00000000004fa596       0x30 0x1 build_aarch64/sqlite3.o
 .rodata.sqlite3_c_sqlite3ExprCodeTarget_zAff
                0x00000000004fa5c6        0x8 0x1 build_aarch64/sqlite3.o
 .rodata.sqlite3__str_542_misuse_of_
                0x00000000004fa5ce       0x1a 0x1 build_aarch64/sqlite3.o
                0x00000000004fa5ce                sqlite3__str_542_misuse_of_
 .rodata.sqlite3__str_543_unknown_fu
                0x00000000004fa5e8       0x17 0x1 build_aarch64/sqlite3.o
                0x00000000004fa5e8                sqlite3__str_543_unknown_fu
 .rodata.sqlite3__str_544__d_columns
                0x00000000004fa5ff       0x1e 0x1 build_aarch64/sqlite3.o
                0x00000000004fa5ff                sqlite3__str_544__d_columns
 .rodata.sqlite3__str_545_row_value_
                0x00000000004fa61d       0x12 0x1 build_aarch64/sqlite3.o
                0x00000000004fa61d                sqlite3__str_545_row_value_
 .rodata.sqlite3__str_546_RAISE___ma
                0x00000000004fa62f       0x32 0x1 build_aarch64/sqlite3.o
                0x00000000004fa62f                sqlite3__str_546_RAISE___ma
 .rodata.sqlite3__str_547__s_s_
                0x00000000004fa661        0x5 0x1 build_aarch64/sqlite3.o
                0x00000000004fa661                sqlite3__str_547__s_s_
 .rodata.sqlite3__str_548_0x_
                0x00000000004fa666        0x3 0x1 build_aarch64/sqlite3.o
                0x00000000004fa666                sqlite3__str_548_0x_
 .rodata.sqlite3__str_549_hex_litera
                0x00000000004fa669       0x1a 0x1 build_aarch64/sqlite3.o
                0x00000000004fa669                sqlite3__str_549_hex_litera
 .rodata.sqlite3__str_550_sub_select
                0x00000000004fa683       0x2c 0x1 build_aarch64/sqlite3.o
                0x00000000004fa683                sqlite3__str_550_sub_select
 .rodata.sqlite3__str_551__sLIST_SUB
                0x00000000004fa6af       0x10 0x1 build_aarch64/sqlite3.o
                0x00000000004fa6af                sqlite3__str_551__sLIST_SUB
 .rodata.sqlite3__str_552_CORRELATED
                0x00000000004fa6bf        0xc 0x1 build_aarch64/sqlite3.o
                0x00000000004fa6bf                sqlite3__str_552_CORRELATED
 .rodata.sqlite3__str_553__sSCALAR_S
                0x00000000004fa6cb       0x12 0x1 build_aarch64/sqlite3.o
                0x00000000004fa6cb                sqlite3__str_553__sSCALAR_S
 .rodata.sqlite3__str_554_USING_ROWI
                0x00000000004fa6dd       0x2f 0x1 build_aarch64/sqlite3.o
                0x00000000004fa6dd                sqlite3__str_554_USING_ROWI
 .rodata.sqlite3__str_555_USING_INDE
                0x00000000004fa70c       0x1f 0x1 build_aarch64/sqlite3.o
                0x00000000004fa70c                sqlite3__str_555_USING_INDE
 .rodata.sqlite3__str_556_authorizer
                0x00000000004fa72b       0x17 0x1 build_aarch64/sqlite3.o
                0x00000000004fa72b                sqlite3__str_556_authorizer
 .rodata.sqlite3__str_557_ROLLBACK_
                0x00000000004fa742        0x9 0x1 build_aarch64/sqlite3.o
                0x00000000004fa742                sqlite3__str_557_ROLLBACK_
 .rodata.sqlite3__str_558_COMMIT_
                0x00000000004fa74b        0x7 0x1 build_aarch64/sqlite3.o
                0x00000000004fa74b                sqlite3__str_558_COMMIT_
 .rodata.sqlite3_c_sqlite3Savepoint_az
                0x00000000004fa758       0x18 0x8 build_aarch64/sqlite3.o
 .rodata.sqlite3__str_559_RELEASE_
                0x00000000004fa770        0x8 0x1 build_aarch64/sqlite3.o
                0x00000000004fa770                sqlite3__str_559_RELEASE_
 .rodata.sqlite3__str_560_temporary_
                0x00000000004fa778       0x29 0x1 build_aarch64/sqlite3.o
                0x00000000004fa778                sqlite3__str_560_temporary_
 ** merge constants
                0x00000000004fa7a1        0x8
 .rodata.sqlite3__str_561_table__T_a
                0x00000000004fa7a9       0x18 0x1 build_aarch64/sqlite3.o
                0x00000000004fa7a9                sqlite3__str_561_table__T_a
 .rodata.sqlite3__str_562_there_is_a
                0x00000000004fa7c1       0x23 0x1 build_aarch64/sqlite3.o
                0x00000000004fa7c1                sqlite3__str_562_there_is_a
 .rodata.sqlite3__str_563_sqlite_seq
                0x00000000004fa7e4       0x10 0x1 build_aarch64/sqlite3.o
                0x00000000004fa7e4                sqlite3__str_563_sqlite_seq
 .rodata.sqlite3_c_sqlite3StartTable_nullRow
                0x00000000004fa7f4        0x6 0x1 build_aarch64/sqlite3.o
 .rodata.sqlite3__str_564_corrupt_da
                0x00000000004fa7fa       0x11 0x1 build_aarch64/sqlite3.o
                0x00000000004fa7fa                sqlite3__str_564_corrupt_da
 .rodata.sqlite3__str_565_unknown_da
                0x00000000004fa80b       0x14 0x1 build_aarch64/sqlite3.o
                0x00000000004fa80b                sqlite3__str_565_unknown_da
 .rodata.sqlite3__str_566_sqlite__
                0x00000000004fa81f        0x8 0x1 build_aarch64/sqlite3.o
                0x00000000004fa81f                sqlite3__str_566_sqlite__
 .rodata.sqlite3__str_567_object_nam
                0x00000000004fa827       0x2a 0x1 build_aarch64/sqlite3.o
                0x00000000004fa827                sqlite3__str_567_object_nam
 .rodata.sqlite3__str_568_AUTOINCREM
                0x00000000004fa851       0x32 0x1 build_aarch64/sqlite3.o
                0x00000000004fa851                sqlite3__str_568_AUTOINCREM
 .rodata.sqlite3__str_569_PRIMARY_KE
                0x00000000004fa883       0x20 0x1 build_aarch64/sqlite3.o
                0x00000000004fa883                sqlite3__str_569_PRIMARY_KE
 .rodata.sqlite3__str_570_TABLE_
                0x00000000004fa8a3        0x6 0x1 build_aarch64/sqlite3.o
                0x00000000004fa8a3                sqlite3__str_570_TABLE_
 .rodata.sqlite3__str_571_view_
                0x00000000004fa8a9        0x5 0x1 build_aarch64/sqlite3.o
                0x00000000004fa8a9                sqlite3__str_571_view_
 .rodata.sqlite3__str_572_VIEW_
                0x00000000004fa8ae        0x5 0x1 build_aarch64/sqlite3.o
                0x00000000004fa8ae                sqlite3__str_572_VIEW_
 .rodata.sqlite3__str_573_CREATE__s_
                0x00000000004fa8b3        0xf 0x1 build_aarch64/sqlite3.o
                0x00000000004fa8b3                sqlite3__str_573_CREATE__s_
 .rodata.sqlite3__str_574_UPDATE__Q_
                0x00000000004fa8c2       0x57 0x1 build_aarch64/sqlite3.o
                0x00000000004fa8c2                sqlite3__str_574_UPDATE__Q_
 .rodata.sqlite3__str_575_CREATE_TAB
                0x00000000004fa919       0x2a 0x1 build_aarch64/sqlite3.o
                0x00000000004fa919                sqlite3__str_575_CREATE_TAB
 .rodata.sqlite3__str_576_tbl_name__
                0x00000000004fa943       0x22 0x1 build_aarch64/sqlite3.o
                0x00000000004fa943                sqlite3__str_576_tbl_name__
 .rodata.sqlite3__str_577_the_____op
                0x00000000004fa965       0x11 0x1 build_aarch64/sqlite3.o
                0x00000000004fa965                sqlite3__str_577_the_____op
 .rodata.sqlite3__str_578_second_arg
                0x00000000004fa976       0x47 0x1 build_aarch64/sqlite3.o
                0x00000000004fa976                sqlite3__str_578_second_arg
 .rodata.sqlite3__str_579_not_author
                0x00000000004fa9bd       0x23 0x1 build_aarch64/sqlite3.o
                0x00000000004fa9bd                sqlite3__str_579_not_author
 .rodata.sqlite3__str_580_non_determ
                0x00000000004fa9e0       0x1c 0x1 build_aarch64/sqlite3.o
                0x00000000004fa9e0                sqlite3__str_580_non_determ
 .rodata.sqlite3__str_581____s___may
                0x00000000004fa9fc       0x2c 0x1 build_aarch64/sqlite3.o
                0x00000000004fa9fc                sqlite3__str_581____s___may
 .rodata.sqlite3__str_582_window_
                0x00000000004faa28        0x7 0x1 build_aarch64/sqlite3.o
                0x00000000004faa28                sqlite3__str_582_window_
 .rodata.sqlite3__str_583_aggregate_
                0x00000000004faa2f        0xa 0x1 build_aarch64/sqlite3.o
                0x00000000004faa2f                sqlite3__str_583_aggregate_
 .rodata.sqlite3__str_584_misuse_of_
                0x00000000004faa39       0x1d 0x1 build_aarch64/sqlite3.o
                0x00000000004faa39                sqlite3__str_584_misuse_of_
 .rodata.sqlite3__str_585_no_such_fu
                0x00000000004faa56       0x17 0x1 build_aarch64/sqlite3.o
                0x00000000004faa56                sqlite3__str_585_no_such_fu
 .rodata.sqlite3__str_586_wrong_numb
                0x00000000004faa6d       0x2d 0x1 build_aarch64/sqlite3.o
                0x00000000004faa6d                sqlite3__str_586_wrong_numb
 .rodata.sqlite3__str_587_subqueries
                0x00000000004faa9a        0xb 0x1 build_aarch64/sqlite3.o
                0x00000000004faa9a                sqlite3__str_587_subqueries
 .rodata.sqlite3__str_588_parameters
                0x00000000004faaa5        0xb 0x1 build_aarch64/sqlite3.o
                0x00000000004faaa5                sqlite3__str_588_parameters
 .rodata.sqlite3__str_589_partial_in
                0x00000000004faab0       0x1c 0x1 build_aarch64/sqlite3.o
                0x00000000004faab0                sqlite3__str_589_partial_in
 .rodata.sqlite3__str_590_index_expr
                0x00000000004faacc       0x12 0x1 build_aarch64/sqlite3.o
                0x00000000004faacc                sqlite3__str_590_index_expr
 .rodata.sqlite3__str_591_CHECK_cons
                0x00000000004faade       0x12 0x1 build_aarch64/sqlite3.o
                0x00000000004faade                sqlite3__str_591_CHECK_cons
 .rodata.sqlite3__str_592__s_prohibi
                0x00000000004faaf0       0x14 0x1 build_aarch64/sqlite3.o
                0x00000000004faaf0                sqlite3__str_592__s_prohibi
 .rodata.sqlite3__str_593_new_
                0x00000000004fab04        0x4 0x1 build_aarch64/sqlite3.o
                0x00000000004fab04                sqlite3__str_593_new_
 .rodata.sqlite3__str_594_old_
                0x00000000004fab08        0x4 0x1 build_aarch64/sqlite3.o
                0x00000000004fab08                sqlite3__str_594_old_
 .rodata.sqlite3__str_595_excluded_
                0x00000000004fab0c        0x9 0x1 build_aarch64/sqlite3.o
                0x00000000004fab0c                sqlite3__str_595_excluded_
 .rodata.sqlite3__str_596_misuse_of_
                0x00000000004fab15       0x1f 0x1 build_aarch64/sqlite3.o
                0x00000000004fab15                sqlite3__str_596_misuse_of_
 .rodata.sqlite3__str_597_no_such_co
                0x00000000004fab34        0xf 0x1 build_aarch64/sqlite3.o
                0x00000000004fab34                sqlite3__str_597_no_such_co
 .rodata.sqlite3__str_598_ambiguous_
                0x00000000004fab43       0x16 0x1 build_aarch64/sqlite3.o
                0x00000000004fab43                sqlite3__str_598_ambiguous_
 .rodata.sqlite3__str_599__s___s__s_
                0x00000000004fab59        0xd 0x1 build_aarch64/sqlite3.o
                0x00000000004fab59                sqlite3__str_599__s___s__s_
 .rodata.sqlite3__str_600_ROWID_
                0x00000000004fab66        0x6 0x1 build_aarch64/sqlite3.o
                0x00000000004fab66                sqlite3__str_600_ROWID_
 .rodata.sqlite3__str_601__s__z_
                0x00000000004fab6c        0x6 0x1 build_aarch64/sqlite3.o
                0x00000000004fab6c                sqlite3__str_601__s__z_
 .rodata.sqlite3__str_602_access_to_
                0x00000000004fab72       0x1b 0x1 build_aarch64/sqlite3.o
                0x00000000004fab72                sqlite3__str_602_access_to_
 .rodata.sqlite3__str_603_no_such_wi
                0x00000000004fab8d       0x13 0x1 build_aarch64/sqlite3.o
                0x00000000004fab8d                sqlite3__str_603_no_such_wi
 .rodata.sqlite3__str_604_FILTER_cla
                0x00000000004faba0       0x3f 0x1 build_aarch64/sqlite3.o
                0x00000000004faba0                sqlite3__str_604_FILTER_cla
 .rodata.sqlite3_c_row_numberName
                0x00000000004fabdf        0xb 0x1 build_aarch64/sqlite3.o
 .rodata.sqlite3_c_ntileName
                0x00000000004fabea        0x6 0x1 build_aarch64/sqlite3.o
 .rodata.sqlite3_c_dense_rankName
                0x00000000004fabf0        0xb 0x1 build_aarch64/sqlite3.o
 .rodata.sqlite3_c_rankName
                0x00000000004fabfb        0x5 0x1 build_aarch64/sqlite3.o
 .rodata.sqlite3_c_percent_rankName
                0x00000000004fac00        0xd 0x1 build_aarch64/sqlite3.o
 .rodata.sqlite3_c_cume_distName
                0x00000000004fac0d        0xa 0x1 build_aarch64/sqlite3.o
 .rodata.sqlite3__str_605_a_GROUP_BY
                0x00000000004fac17       0x2c 0x1 build_aarch64/sqlite3.o
                0x00000000004fac17                sqlite3__str_605_a_GROUP_BY
 .rodata.sqlite3__str_606_ORDER_
                0x00000000004fac43        0x6 0x1 build_aarch64/sqlite3.o
                0x00000000004fac43                sqlite3__str_606_ORDER_
 .rodata.sqlite3__str_607_GROUP_
                0x00000000004fac49        0x6 0x1 build_aarch64/sqlite3.o
                0x00000000004fac49                sqlite3__str_607_GROUP_
 .rodata.sqlite3__str_608_aggregate_
                0x00000000004fac4f       0x3b 0x1 build_aarch64/sqlite3.o
                0x00000000004fac4f                sqlite3__str_608_aggregate_
 .rodata.sqlite3__str_609_too_many_r
                0x00000000004fac8a       0x27 0x1 build_aarch64/sqlite3.o
                0x00000000004fac8a                sqlite3__str_609_too_many_r
 .rodata.sqlite3__str_610___
                0x00000000004facb1        0x2 0x1 build_aarch64/sqlite3.o
                0x00000000004facb1                sqlite3__str_610___
 .rodata.sqlite3__str_611__s__s__s_
                0x00000000004facb3        0x9 0x1 build_aarch64/sqlite3.o
                0x00000000004facb3                sqlite3__str_611__s__s__s_
 .rodata.sqlite3__str_612_no_such_ta
                0x00000000004facbc       0x12 0x1 build_aarch64/sqlite3.o
                0x00000000004facbc                sqlite3__str_612_no_such_ta
 .rodata.sqlite3__str_613_no_tables_
                0x00000000004facce       0x14 0x1 build_aarch64/sqlite3.o
                0x00000000004facce                sqlite3__str_613_no_tables_
 .rodata.sqlite3__str_614_too_many_c
                0x00000000004face2       0x1f 0x1 build_aarch64/sqlite3.o
                0x00000000004face2                sqlite3__str_614_too_many_c
 .rodata.sqlite3__str_615_multiple_r
                0x00000000004fad01       0x2b 0x1 build_aarch64/sqlite3.o
                0x00000000004fad01                sqlite3__str_615_multiple_r
 .rodata.sqlite3__str_616_circular_r
                0x00000000004fad2c       0x17 0x1 build_aarch64/sqlite3.o
                0x00000000004fad2c                sqlite3__str_616_circular_r
 .rodata.sqlite3__str_617_table__s_h
                0x00000000004fad43       0x26 0x1 build_aarch64/sqlite3.o
                0x00000000004fad43                sqlite3__str_617_table__s_h
 .rodata.sqlite3__str_618_multiple_r
                0x00000000004fad69       0x22 0x1 build_aarch64/sqlite3.o
                0x00000000004fad69                sqlite3__str_618_multiple_r
 .rodata.sqlite3__str_619_recursive_
                0x00000000004fad8b       0x26 0x1 build_aarch64/sqlite3.o
                0x00000000004fad8b                sqlite3__str_619_recursive_
 .rodata.sqlite3__str_620_column_d_
                0x00000000004fadb1        0x9 0x1 build_aarch64/sqlite3.o
                0x00000000004fadb1                sqlite3__str_620_column_d_
 .rodata.sqlite3__str_621____z__u_
                0x00000000004fadba        0x8 0x1 build_aarch64/sqlite3.o
                0x00000000004fadba                sqlite3__str_621____z__u_
 .rodata.sqlite3__str_622_subquery__
                0x00000000004fadc2        0xc 0x1 build_aarch64/sqlite3.o
                0x00000000004fadc2                sqlite3__str_622_subquery__
 .rodata.sqlite3__str_623___s__is_no
                0x00000000004fadce       0x17 0x1 build_aarch64/sqlite3.o
                0x00000000004fadce                sqlite3__str_623___s__is_no
 .rodata.sqlite3__str_624_view__s_is
                0x00000000004fade5       0x1e 0x1 build_aarch64/sqlite3.o
                0x00000000004fade5                sqlite3__str_624_view__s_is
 .rodata.sqlite3__str_625_no_such_in
                0x00000000004fae03       0x12 0x1 build_aarch64/sqlite3.o
                0x00000000004fae03                sqlite3__str_625_no_such_in
 .rodata.sqlite3__str_626_a_NATURAL_
                0x00000000004fae15       0x32 0x1 build_aarch64/sqlite3.o
                0x00000000004fae15                sqlite3__str_626_a_NATURAL_
 .rodata.sqlite3__str_627_cannot_hav
                0x00000000004fae47       0x37 0x1 build_aarch64/sqlite3.o
                0x00000000004fae47                sqlite3__str_627_cannot_hav
 .rodata.sqlite3__str_628_cannot_joi
                0x00000000004fae7e       0x40 0x1 build_aarch64/sqlite3.o
                0x00000000004fae7e                sqlite3__str_628_cannot_joi
 .rodata.sqlite3__str_629__r__s_BY_t
                0x00000000004faebe       0x38 0x1 build_aarch64/sqlite3.o
                0x00000000004faebe                sqlite3__str_629__r__s_BY_t
 .rodata.sqlite3__str_630_too_many_t
                0x00000000004faef6       0x1f 0x1 build_aarch64/sqlite3.o
                0x00000000004faef6                sqlite3__str_630_too_many_t
 .rodata.sqlite3__str_631_all_VALUES
                0x00000000004faf15       0x2e 0x1 build_aarch64/sqlite3.o
                0x00000000004faf15                sqlite3__str_631_all_VALUES
 .rodata.sqlite3__str_632_SELECTs_to
                0x00000000004faf43       0x52 0x1 build_aarch64/sqlite3.o
                0x00000000004faf43                sqlite3__str_632_SELECTs_to
 .rodata.sqlite3__str_633_UNION_ALL_
                0x00000000004faf95        0xa 0x1 build_aarch64/sqlite3.o
                0x00000000004faf95                sqlite3__str_633_UNION_ALL_
 .rodata.sqlite3__str_634_INTERSECT_
                0x00000000004faf9f        0xa 0x1 build_aarch64/sqlite3.o
                0x00000000004faf9f                sqlite3__str_634_INTERSECT_
 .rodata.sqlite3__str_635_EXCEPT_
                0x00000000004fafa9        0x7 0x1 build_aarch64/sqlite3.o
                0x00000000004fafa9                sqlite3__str_635_EXCEPT_
 .rodata.sqlite3__str_636_UNION_
                0x00000000004fafb0        0x6 0x1 build_aarch64/sqlite3.o
                0x00000000004fafb0                sqlite3__str_636_UNION_
 .rodata.sqlite3__str_637_too_many_t
                0x00000000004fafb6       0x22 0x1 build_aarch64/sqlite3.o
                0x00000000004fafb6                sqlite3__str_637_too_many_t
 .rodata.sqlite3__str_638__r_ORDER_B
                0x00000000004fafd8       0x3d 0x1 build_aarch64/sqlite3.o
                0x00000000004fafd8                sqlite3__str_638__r_ORDER_B
 .rodata.sqlite3__str_639_Expression
                0x00000000004fb015       0x30 0x1 build_aarch64/sqlite3.o
                0x00000000004fb015                sqlite3__str_639_Expression
 .rodata.sqlite3__str_640___
                0x00000000004fb045        0x2 0x1 build_aarch64/sqlite3.o
                0x00000000004fb045                sqlite3__str_640___
 .rodata.sqlite3__str_641_____
                0x00000000004fb047        0x4 0x1 build_aarch64/sqlite3.o
                0x00000000004fb047                sqlite3__str_641_____
 .rodata.sqlite3__str_642______
                0x00000000004fb04b        0x5 0x1 build_aarch64/sqlite3.o
                0x00000000004fb04b                sqlite3__str_642______
 .rodata.sqlite3__str_643____
                0x00000000004fb050        0x3 0x1 build_aarch64/sqlite3.o
                0x00000000004fb050                sqlite3__str_643____
 .rodata.sqlite3__str_644_CREATE_TAB
                0x00000000004fb053        0xe 0x1 build_aarch64/sqlite3.o
                0x00000000004fb053                sqlite3__str_644_CREATE_TAB
 .rodata.sqlite3_c_createTableStmt_azType
                0x00000000004fb068       0x28 0x8 build_aarch64/sqlite3.o
 .rodata.sqlite3__str_645__TEXT_
                0x00000000004fb090        0x6 0x1 build_aarch64/sqlite3.o
                0x00000000004fb090                sqlite3__str_645__TEXT_
 .rodata.sqlite3__str_646__NUM_
                0x00000000004fb096        0x5 0x1 build_aarch64/sqlite3.o
                0x00000000004fb096                sqlite3__str_646__NUM_
 .rodata.sqlite3__str_647__INT_
                0x00000000004fb09b        0x5 0x1 build_aarch64/sqlite3.o
                0x00000000004fb09b                sqlite3__str_647__INT_
 .rodata.sqlite3__str_648__REAL_
                0x00000000004fb0a0        0x6 0x1 build_aarch64/sqlite3.o
                0x00000000004fb0a0                sqlite3__str_648__REAL_
 .rodata.sqlite3__str_649_too_many_c
                0x00000000004fb0a6       0x17 0x1 build_aarch64/sqlite3.o
                0x00000000004fb0a6                sqlite3__str_649_too_many_c
 .rodata.sqlite3__str_650_duplicate_
                0x00000000004fb0bd       0x1a 0x1 build_aarch64/sqlite3.o
                0x00000000004fb0bd                sqlite3__str_650_duplicate_
 .rodata.sqlite3__str_651_default_va
                0x00000000004fb0d7       0x2d 0x1 build_aarch64/sqlite3.o
                0x00000000004fb0d7                sqlite3__str_651_default_va
 .rodata.sqlite3__str_652_true_
                0x00000000004fb104        0x5 0x1 build_aarch64/sqlite3.o
                0x00000000004fb104                sqlite3__str_652_true_
 .rodata.sqlite3__str_653_false_
                0x00000000004fb109        0x6 0x1 build_aarch64/sqlite3.o
                0x00000000004fb109                sqlite3__str_653_false_
 .rodata.sqlite3__str_654_table___s_
                0x00000000004fb10f       0x29 0x1 build_aarch64/sqlite3.o
                0x00000000004fb10f                sqlite3__str_654_table___s_
 .rodata.sqlite3__str_655_AUTOINCREM
                0x00000000004fb138       0x38 0x1 build_aarch64/sqlite3.o
                0x00000000004fb138                sqlite3__str_655_AUTOINCREM
 .rodata.sqlite3__str_656_index_
                0x00000000004fb170        0x6 0x1 build_aarch64/sqlite3.o
                0x00000000004fb170                sqlite3__str_656_index_
 .rodata.sqlite3__str_657_cannot_cre
                0x00000000004fb176       0x32 0x1 build_aarch64/sqlite3.o
                0x00000000004fb176                sqlite3__str_657_cannot_cre
 .rodata.sqlite3__str_658_altertab__
                0x00000000004fb1a8        0xa 0x1 build_aarch64/sqlite3.o
                0x00000000004fb1a8                sqlite3__str_658_altertab__
 .rodata.sqlite3__str_659_table__s_m
                0x00000000004fb1b2       0x1c 0x1 build_aarch64/sqlite3.o
                0x00000000004fb1b2                sqlite3__str_659_table__s_m
 .rodata.sqlite3__str_660_views_may_
                0x00000000004fb1ce       0x19 0x1 build_aarch64/sqlite3.o
                0x00000000004fb1ce                sqlite3__str_660_views_may_
 .rodata.sqlite3__str_661_virtual_ta
                0x00000000004fb1e7       0x22 0x1 build_aarch64/sqlite3.o
                0x00000000004fb1e7                sqlite3__str_661_virtual_ta
 .rodata.sqlite3__str_662_there_is_a
                0x00000000004fb209       0x22 0x1 build_aarch64/sqlite3.o
                0x00000000004fb209                sqlite3__str_662_there_is_a
 .rodata.sqlite3__str_663_index__s_a
                0x00000000004fb22b       0x18 0x1 build_aarch64/sqlite3.o
                0x00000000004fb22b                sqlite3__str_663_index__s_a
 .rodata.sqlite3__str_664_sqlite_aut
                0x00000000004fb243       0x17 0x1 build_aarch64/sqlite3.o
                0x00000000004fb243                sqlite3__str_664_sqlite_aut
 .rodata.sqlite3__str_665_expression
                0x00000000004fb25a       0x3d 0x1 build_aarch64/sqlite3.o
                0x00000000004fb25a                sqlite3__str_665_expression
 .rodata.sqlite3__str_666_conflictin
                0x00000000004fb297       0x2a 0x1 build_aarch64/sqlite3.o
                0x00000000004fb297                sqlite3__str_666_conflictin
 .rodata.sqlite3__str_667_CREATE_s_I
                0x00000000004fb2c1       0x14 0x1 build_aarch64/sqlite3.o
                0x00000000004fb2c1                sqlite3__str_667_CREATE_s_I
 .rodata.sqlite3__str_668__UNIQUE_
                0x00000000004fb2d5        0x8 0x1 build_aarch64/sqlite3.o
                0x00000000004fb2d5                sqlite3__str_668__UNIQUE_
 .rodata.sqlite3__str_669_INSERT_INT
                0x00000000004fb2dd       0x30 0x1 build_aarch64/sqlite3.o
                0x00000000004fb2dd                sqlite3__str_669_INSERT_INT
 .rodata.sqlite3__str_670_name___q__
                0x00000000004fb30d       0x1b 0x1 build_aarch64/sqlite3.o
                0x00000000004fb30d                sqlite3__str_670_name___q__
 .rodata.sqlite3__str_671__s__T_cann
                0x00000000004fb328       0x2e 0x1 build_aarch64/sqlite3.o
                0x00000000004fb328                sqlite3__str_671__s__T_cann
 .rodata.sqlite3__str_672__s_cannot_
                0x00000000004fb356       0x18 0x1 build_aarch64/sqlite3.o
                0x00000000004fb356                sqlite3__str_672__s_cannot_
 .rodata.sqlite3__str_673_index___q_
                0x00000000004fb36e        0xb 0x1 build_aarch64/sqlite3.o
                0x00000000004fb36e                sqlite3__str_673_index___q_
 .rodata.sqlite3__str_674____
                0x00000000004fb379        0x3 0x1 build_aarch64/sqlite3.o
                0x00000000004fb379                sqlite3__str_674____
 .rodata.sqlite3__str_675_foreign_ke
                0x00000000004fb37c       0x3f 0x1 build_aarch64/sqlite3.o
                0x00000000004fb37c                sqlite3__str_675_foreign_ke
 .rodata.sqlite3__str_676_number_of_
                0x00000000004fb3bb       0x5e 0x1 build_aarch64/sqlite3.o
                0x00000000004fb3bb                sqlite3__str_676_number_of_
 .rodata.sqlite3__str_677_unknown_co
                0x00000000004fb419       0x2e 0x1 build_aarch64/sqlite3.o
                0x00000000004fb419                sqlite3__str_677_unknown_co
 .rodata.sqlite3__str_678_sqlite_sta
                0x00000000004fb447        0xc 0x1 build_aarch64/sqlite3.o
                0x00000000004fb447                sqlite3__str_678_sqlite_sta
 .rodata.sqlite3__str_679_table__s_m
                0x00000000004fb453       0x1c 0x1 build_aarch64/sqlite3.o
                0x00000000004fb453                sqlite3__str_679_table__s_m
 .rodata.sqlite3__str_680_use_DROP_T
                0x00000000004fb46f       0x22 0x1 build_aarch64/sqlite3.o
                0x00000000004fb46f                sqlite3__str_680_use_DROP_T
 .rodata.sqlite3__str_681_use_DROP_V
                0x00000000004fb491       0x20 0x1 build_aarch64/sqlite3.o
                0x00000000004fb491                sqlite3__str_681_use_DROP_V
 .rodata.sqlite3__str_682_sqlite_sta
                0x00000000004fb4b1        0xe 0x1 build_aarch64/sqlite3.o
                0x00000000004fb4b1                sqlite3__str_682_sqlite_sta
 .rodata.sqlite3__str_683_DELETE_FRO
                0x00000000004fb4bf       0x1e 0x1 build_aarch64/sqlite3.o
                0x00000000004fb4bf                sqlite3__str_683_DELETE_FRO
 .rodata.sqlite3__str_684_DELETE_FRO
                0x00000000004fb4dd       0x2d 0x1 build_aarch64/sqlite3.o
                0x00000000004fb4dd                sqlite3__str_684_DELETE_FRO
 .rodata.sqlite3__str_685_DELETE_FRO
                0x00000000004fb50a       0x38 0x1 build_aarch64/sqlite3.o
                0x00000000004fb50a                sqlite3__str_685_DELETE_FRO
 .rodata.sqlite3__str_686_DELETE_FRO
                0x00000000004fb542       0x33 0x1 build_aarch64/sqlite3.o
                0x00000000004fb542                sqlite3__str_686_DELETE_FRO
 .rodata.sqlite3__str_687_UPDATE__Q_
                0x00000000004fb575       0x38 0x1 build_aarch64/sqlite3.o
                0x00000000004fb575                sqlite3__str_687_UPDATE__Q_
 .rodata.sqlite3__str_688_parameters
                0x00000000004fb5ad       0x24 0x1 build_aarch64/sqlite3.o
                0x00000000004fb5ad                sqlite3__str_688_parameters
 .rodata.sqlite3__str_689_expected__
                0x00000000004fb5d1       0x28 0x1 build_aarch64/sqlite3.o
                0x00000000004fb5d1                sqlite3__str_689_expected__
 .rodata.sqlite3__str_690_CO_ROUTINE
                0x00000000004fb5f9        0xe 0x1 build_aarch64/sqlite3.o
                0x00000000004fb5f9                sqlite3__str_690_CO_ROUTINE
 .rodata.sqlite3__str_691_MATERIALIZ
                0x00000000004fb607        0xf 0x1 build_aarch64/sqlite3.o
                0x00000000004fb607                sqlite3__str_691_MATERIALIZ
 .rodata.sqlite3__str_692_DISTINCT_
                0x00000000004fb616        0x9 0x1 build_aarch64/sqlite3.o
                0x00000000004fb616                sqlite3__str_692_DISTINCT_
 .rodata.sqlite3__str_693_GROUP_BY_
                0x00000000004fb61f        0x9 0x1 build_aarch64/sqlite3.o
                0x00000000004fb61f                sqlite3__str_693_GROUP_BY_
 .rodata.sqlite3__str_694_RIGHT_PART
                0x00000000004fb628       0x17 0x1 build_aarch64/sqlite3.o
                0x00000000004fb628                sqlite3__str_694_RIGHT_PART
 .rodata.sqlite3__str_695_ORDER_BY_
                0x00000000004fb63f        0x9 0x1 build_aarch64/sqlite3.o
                0x00000000004fb63f                sqlite3__str_695_ORDER_BY_
 .rodata.sqlite3__str_696__s_clause_
                0x00000000004fb648       0x2a 0x1 build_aarch64/sqlite3.o
                0x00000000004fb648                sqlite3__str_696__s_clause_
 .rodata.sqlite3__str_697_LIMIT_
                0x00000000004fb672        0x6 0x1 build_aarch64/sqlite3.o
                0x00000000004fb672                sqlite3__str_697_LIMIT_
 .rodata.sqlite3__str_698_COMPOUND_Q
                0x00000000004fb678        0xf 0x1 build_aarch64/sqlite3.o
                0x00000000004fb678                sqlite3__str_698_COMPOUND_Q
 .rodata.sqlite3__str_699_LEFT_MOST_
                0x00000000004fb687       0x13 0x1 build_aarch64/sqlite3.o
                0x00000000004fb687                sqlite3__str_699_LEFT_MOST_
 .rodata.sqlite3__str_700__s_USING_T
                0x00000000004fb69a       0x15 0x1 build_aarch64/sqlite3.o
                0x00000000004fb69a                sqlite3__str_700__s_USING_T
 .rodata.sqlite3__str_701_SCAN__d_CO
                0x00000000004fb6af       0x17 0x1 build_aarch64/sqlite3.o
                0x00000000004fb6af                sqlite3__str_701_SCAN__d_CO
 .rodata.sqlite3__str_702_S_
                0x00000000004fb6c6        0x2 0x1 build_aarch64/sqlite3.o
                0x00000000004fb6c6                sqlite3__str_702_S_
 .rodata.sqlite3__str_703_SETUP_
                0x00000000004fb6c8        0x6 0x1 build_aarch64/sqlite3.o
                0x00000000004fb6c8                sqlite3__str_703_SETUP_
 .rodata.sqlite3__str_704_recursive_
                0x00000000004fb6ce       0x2a 0x1 build_aarch64/sqlite3.o
                0x00000000004fb6ce                sqlite3__str_704_recursive_
 .rodata.sqlite3__str_705_RECURSIVE_
                0x00000000004fb6f8        0xf 0x1 build_aarch64/sqlite3.o
                0x00000000004fb6f8                sqlite3__str_705_RECURSIVE_
 .rodata.sqlite3__str_706_MERGE___s_
                0x00000000004fb707        0xb 0x1 build_aarch64/sqlite3.o
                0x00000000004fb707                sqlite3__str_706_MERGE___s_
 .rodata.sqlite3__str_707_LEFT_
                0x00000000004fb712        0x5 0x1 build_aarch64/sqlite3.o
                0x00000000004fb712                sqlite3__str_707_LEFT_
 .rodata.sqlite3__str_708_RIGHT_
                0x00000000004fb717        0x6 0x1 build_aarch64/sqlite3.o
                0x00000000004fb717                sqlite3__str_708_RIGHT_
 .rodata.sqlite3_c_nth_valueName
                0x00000000004fb71d        0xa 0x1 build_aarch64/sqlite3.o
 .rodata.sqlite3_c_first_valueName
                0x00000000004fb727        0xc 0x1 build_aarch64/sqlite3.o
 .rodata.sqlite3_c_leadName
                0x00000000004fb733        0x5 0x1 build_aarch64/sqlite3.o
 .rodata.sqlite3_c_lagName
                0x00000000004fb738        0x4 0x1 build_aarch64/sqlite3.o
 .rodata.sqlite3__str_709_at_most__d
                0x00000000004fb73c       0x1c 0x1 build_aarch64/sqlite3.o
                0x00000000004fb73c                sqlite3__str_709_at_most__d
 .rodata.sqlite3__str_710_SCAN_CONST
                0x00000000004fb758       0x12 0x1 build_aarch64/sqlite3.o
                0x00000000004fb758                sqlite3__str_710_SCAN_CONST
 .rodata.sqlite3__str_711_too_many_a
                0x00000000004fb76a       0x24 0x1 build_aarch64/sqlite3.o
                0x00000000004fb76a                sqlite3__str_711_too_many_a
 .rodata.sqlite3__str_712_ON_clause_
                0x00000000004fb78e       0x29 0x1 build_aarch64/sqlite3.o
                0x00000000004fb78e                sqlite3__str_712_ON_clause_
 .rodata.sqlite3_c_exprAnalyze_ops
                0x00000000004fb7b7        0x2 0x1 build_aarch64/sqlite3.o
 .rodata.sqlite3__str_713_NOCASE_
                0x00000000004fb7b9        0x7 0x1 build_aarch64/sqlite3.o
                0x00000000004fb7b9                sqlite3__str_713_NOCASE_
 .rodata.sqlite3_c_isAuxiliaryVtabOperator_aOp
                0x00000000004fb7c0       0x40 0x8 build_aarch64/sqlite3.o
 .rodata.sqlite3__str_714_glob_
                0x00000000004fb800        0x5 0x1 build_aarch64/sqlite3.o
                0x00000000004fb800                sqlite3__str_714_glob_
 .rodata.sqlite3__str_715_like_
                0x00000000004fb805        0x5 0x1 build_aarch64/sqlite3.o
                0x00000000004fb805                sqlite3__str_715_like_
 .rodata.sqlite3__str_716_regexp_
                0x00000000004fb80a        0x7 0x1 build_aarch64/sqlite3.o
                0x00000000004fb80a                sqlite3__str_716_regexp_
 .rodata.sqlite3__str_717__s_xBestIn
                0x00000000004fb811       0x1a 0x1 build_aarch64/sqlite3.o
                0x00000000004fb811                sqlite3__str_717__s_xBestIn
 .rodata.sqlite3__str_718_no_query_s
                0x00000000004fb82b       0x12 0x1 build_aarch64/sqlite3.o
                0x00000000004fb82b                sqlite3__str_718_no_query_s
 .rodata.sqlite3__str_719_automatic_
                0x00000000004fb83d       0x1a 0x1 build_aarch64/sqlite3.o
                0x00000000004fb83d                sqlite3__str_719_automatic_
 .rodata.sqlite3__str_720_auto_index
                0x00000000004fb857        0xb 0x1 build_aarch64/sqlite3.o
                0x00000000004fb857                sqlite3__str_720_auto_index
 .rodata.sqlite3__str_721_SEARCH_
                0x00000000004fb862        0x7 0x1 build_aarch64/sqlite3.o
                0x00000000004fb862                sqlite3__str_721_SEARCH_
 .rodata.sqlite3__str_722_SCAN_
                0x00000000004fb869        0x5 0x1 build_aarch64/sqlite3.o
                0x00000000004fb869                sqlite3__str_722_SCAN_
 .rodata.sqlite3__str_723__SUBQUERY_
                0x00000000004fb86e        0xd 0x1 build_aarch64/sqlite3.o
                0x00000000004fb86e                sqlite3__str_723__SUBQUERY_
 .rodata.sqlite3__str_724__TABLE__s_
                0x00000000004fb87b        0xa 0x1 build_aarch64/sqlite3.o
                0x00000000004fb87b                sqlite3__str_724__TABLE__s_
 .rodata.sqlite3__str_725__AS__s_
                0x00000000004fb885        0x7 0x1 build_aarch64/sqlite3.o
                0x00000000004fb885                sqlite3__str_725__AS__s_
 .rodata.sqlite3__str_726_PRIMARY_KE
                0x00000000004fb88c        0xc 0x1 build_aarch64/sqlite3.o
                0x00000000004fb88c                sqlite3__str_726_PRIMARY_KE
 .rodata.sqlite3__str_727_AUTOMATIC_
                0x00000000004fb898       0x21 0x1 build_aarch64/sqlite3.o
                0x00000000004fb898                sqlite3__str_727_AUTOMATIC_
 .rodata.sqlite3__str_728_AUTOMATIC_
                0x00000000004fb8b9       0x19 0x1 build_aarch64/sqlite3.o
                0x00000000004fb8b9                sqlite3__str_728_AUTOMATIC_
 .rodata.sqlite3__str_729_COVERING_I
                0x00000000004fb8d2       0x12 0x1 build_aarch64/sqlite3.o
                0x00000000004fb8d2                sqlite3__str_729_COVERING_I
 .rodata.sqlite3__str_730_INDEX__s_
                0x00000000004fb8e4        0x9 0x1 build_aarch64/sqlite3.o
                0x00000000004fb8e4                sqlite3__str_730_INDEX__s_
 .rodata.sqlite3__str_731__USING__
                0x00000000004fb8ed        0x8 0x1 build_aarch64/sqlite3.o
                0x00000000004fb8ed                sqlite3__str_731__USING__
 .rodata.sqlite3__str_732___
                0x00000000004fb8f5        0x2 0x1 build_aarch64/sqlite3.o
                0x00000000004fb8f5                sqlite3__str_732___
 .rodata.sqlite3__str_733____AND_row
                0x00000000004fb8f7        0xe 0x1 build_aarch64/sqlite3.o
                0x00000000004fb8f7                sqlite3__str_733____AND_row
 .rodata.sqlite3__str_734___
                0x00000000004fb905        0x2 0x1 build_aarch64/sqlite3.o
                0x00000000004fb905                sqlite3__str_734___
 .rodata.sqlite3__str_735___
                0x00000000004fb907        0x2 0x1 build_aarch64/sqlite3.o
                0x00000000004fb907                sqlite3__str_735___
 .rodata.sqlite3__str_736__USING_INT
                0x00000000004fb909       0x26 0x1 build_aarch64/sqlite3.o
                0x00000000004fb909                sqlite3__str_736__USING_INT
 .rodata.sqlite3__str_737__VIRTUAL_T
                0x00000000004fb92f       0x1b 0x1 build_aarch64/sqlite3.o
                0x00000000004fb92f                sqlite3__str_737__VIRTUAL_T
 .rodata.sqlite3__str_738____
                0x00000000004fb94a        0x3 0x1 build_aarch64/sqlite3.o
                0x00000000004fb94a                sqlite3__str_738____
 .rodata.sqlite3__str_739__AND__
                0x00000000004fb94d        0x6 0x1 build_aarch64/sqlite3.o
                0x00000000004fb94d                sqlite3__str_739__AND__
 .rodata.sqlite3__str_740__s___
                0x00000000004fb953        0x5 0x1 build_aarch64/sqlite3.o
                0x00000000004fb953                sqlite3__str_740__s___
 .rodata.sqlite3__str_741_ANY__s__
                0x00000000004fb958        0x8 0x1 build_aarch64/sqlite3.o
                0x00000000004fb958                sqlite3__str_741_ANY__s__
 .rodata.sqlite3__str_742__expr__
                0x00000000004fb960        0x7 0x1 build_aarch64/sqlite3.o
                0x00000000004fb960                sqlite3__str_742__expr__
 .rodata.sqlite3__str_743___
                0x00000000004fb967        0x2 0x1 build_aarch64/sqlite3.o
                0x00000000004fb967                sqlite3__str_743___
 .rodata.sqlite3___const_sqlite3WhereCodeOneLoopStart_aMoveOp_____
                0x00000000004fb969        0x4 0x1 build_aarch64/sqlite3.o
                0x00000000004fb969                sqlite3___const_sqlite3WhereCodeOneLoopStart_aMoveOp_____
 ** merge constants
                0x00000000004fb96d       0x10
 .rodata.sqlite3__str_744_MULTI_INDE
                0x00000000004fb97d        0xf 0x1 build_aarch64/sqlite3.o
                0x00000000004fb97d                sqlite3__str_744_MULTI_INDE
 .rodata.sqlite3_c_sqlite3WhereCodeOneLoopStart_aStep
                0x00000000004fb98c        0x2 0x1 build_aarch64/sqlite3.o
 .rodata.sqlite3_c_sqlite3WhereCodeOneLoopStart_aStart
                0x00000000004fb98e        0x2 0x1 build_aarch64/sqlite3.o
 .rodata.sqlite3_c_windowCheckIntValue_azErr
                0x00000000004fb990       0x18 0x8 build_aarch64/sqlite3.o
 .rodata.sqlite3__str_745_frame_star
                0x00000000004fb9a8       0x35 0x1 build_aarch64/sqlite3.o
                0x00000000004fb9a8                sqlite3__str_745_frame_star
 .rodata.sqlite3__str_746_frame_endi
                0x00000000004fb9dd       0x33 0x1 build_aarch64/sqlite3.o
                0x00000000004fb9dd                sqlite3__str_746_frame_endi
 .rodata.sqlite3__str_747_second_arg
                0x00000000004fba10       0x38 0x1 build_aarch64/sqlite3.o
                0x00000000004fba10                sqlite3__str_747_second_arg
 .rodata.sqlite3_c_windowCheckIntValue_aOp
                0x00000000004fba48        0xc 0x4 build_aarch64/sqlite3.o
 .rodata.sqlite3__str_748_min_
                0x00000000004fba54        0x4 0x1 build_aarch64/sqlite3.o
                0x00000000004fba54                sqlite3__str_748_min_
 .rodata.sqlite3__str_749_max_
                0x00000000004fba58        0x4 0x1 build_aarch64/sqlite3.o
                0x00000000004fba58                sqlite3__str_749_max_
 .rodata.sqlite3__str_750_USE_TEMP_B
                0x00000000004fba5c       0x17 0x1 build_aarch64/sqlite3.o
                0x00000000004fba5c                sqlite3__str_750_USE_TEMP_B
 .rodata.sqlite3__str_751_DISTINCT_a
                0x00000000004fba73       0x33 0x1 build_aarch64/sqlite3.o
                0x00000000004fba73                sqlite3__str_751_DISTINCT_a
 .rodata.sqlite3__str_752_SCAN_TABLE
                0x00000000004fbaa6       0x12 0x1 build_aarch64/sqlite3.o
                0x00000000004fbaa6                sqlite3__str_752_SCAN_TABLE
 .rodata.sqlite3__str_753__USING_COV
                0x00000000004fbab8       0x17 0x1 build_aarch64/sqlite3.o
                0x00000000004fbab8                sqlite3__str_753__USING_COV
 .rodata.sqlite3__str_754_too_many_t
                0x00000000004fbacf       0x22 0x1 build_aarch64/sqlite3.o
                0x00000000004fbacf                sqlite3__str_754_too_many_t
 .rodata.sqlite3__str_755_a_JOIN_cla
                0x00000000004fbaf1       0x24 0x1 build_aarch64/sqlite3.o
                0x00000000004fbaf1                sqlite3__str_755_a_JOIN_cla
 .rodata.sqlite3__str_756_ON_
                0x00000000004fbb15        0x3 0x1 build_aarch64/sqlite3.o
                0x00000000004fbb15                sqlite3__str_756_ON_
 .rodata.sqlite3__str_757_USING_
                0x00000000004fbb18        0x6 0x1 build_aarch64/sqlite3.o
                0x00000000004fbb18                sqlite3__str_757_USING_
 .rodata.sqlite3_c_sqlite3JoinType_aKeyword
                0x00000000004fbb1e       0x15 0x1 build_aarch64/sqlite3.o
 .rodata.sqlite3__str_758___
                0x00000000004fbb33        0x2 0x1 build_aarch64/sqlite3.o
                0x00000000004fbb33                sqlite3__str_758___
 .rodata.sqlite3__str_759_unknown_or
                0x00000000004fbb35       0x2c 0x1 build_aarch64/sqlite3.o
                0x00000000004fbb35                sqlite3__str_759_unknown_or
 .rodata.sqlite3__str_760_RIGHT_and_
                0x00000000004fbb61       0x37 0x1 build_aarch64/sqlite3.o
                0x00000000004fbb61                sqlite3__str_760_RIGHT_and_
 .rodata.sqlite3__str_761_rows_delet
                0x00000000004fbb98        0xd 0x1 build_aarch64/sqlite3.o
                0x00000000004fbb98                sqlite3__str_761_rows_delet
 .rodata.sqlite3__str_762_table__s_m
                0x00000000004fbba5       0x1d 0x1 build_aarch64/sqlite3.o
                0x00000000004fbba5                sqlite3__str_762_table__s_m
 .rodata.sqlite3__str_763_cannot_mod
                0x00000000004fbbc2       0x26 0x1 build_aarch64/sqlite3.o
                0x00000000004fbbc2                sqlite3__str_763_cannot_mod
 .rodata.sqlite3__str_764____TRIGGER
                0x00000000004fbbe8        0xe 0x1 build_aarch64/sqlite3.o
                0x00000000004fbbe8                sqlite3__str_764____TRIGGER
 .rodata.sqlite3__str_765_foreign_ke
                0x00000000004fbbf6       0x2d 0x1 build_aarch64/sqlite3.o
                0x00000000004fbbf6                sqlite3__str_765_foreign_ke
 .rodata.sqlite3___const_fkActionTrigger_tOld_
                0x00000000004fbc28       0x10 0x8 build_aarch64/sqlite3.o
                0x00000000004fbc28                sqlite3___const_fkActionTrigger_tOld_
 .rodata.sqlite3___const_fkActionTrigger_tNew_
                0x00000000004fbc38       0x10 0x8 build_aarch64/sqlite3.o
                0x00000000004fbc38                sqlite3___const_fkActionTrigger_tNew_
 .rodata.sqlite3__str_766_too_many_c
                0x00000000004fbc48       0x17 0x1 build_aarch64/sqlite3.o
                0x00000000004fbc48                sqlite3__str_766_too_many_c
 .rodata.sqlite3__str_767_no_such_co
                0x00000000004fbc5f       0x13 0x1 build_aarch64/sqlite3.o
                0x00000000004fbc5f                sqlite3__str_767_no_such_co
 .rodata.sqlite3__str_768_rows_updat
                0x00000000004fbc72        0xd 0x1 build_aarch64/sqlite3.o
                0x00000000004fbc72                sqlite3__str_768_rows_updat
 .rodata.sqlite3__str_769__s_rowid_
                0x00000000004fbc7f        0x9 0x1 build_aarch64/sqlite3.o
                0x00000000004fbc7f                sqlite3__str_769__s_rowid_
 .rodata.sqlite3__str_770_table__S_h
                0x00000000004fbc88       0x20 0x1 build_aarch64/sqlite3.o
                0x00000000004fbc88                sqlite3__str_770_table__S_h
 .rodata.sqlite3__str_771_table__S_h
                0x00000000004fbca8       0x34 0x1 build_aarch64/sqlite3.o
                0x00000000004fbca8                sqlite3__str_771_table__S_h
 .rodata.sqlite3__str_772__d_values_
                0x00000000004fbcdc       0x19 0x1 build_aarch64/sqlite3.o
                0x00000000004fbcdc                sqlite3__str_772__d_values_
 .rodata.sqlite3__str_773_rows_inser
                0x00000000004fbcf5        0xe 0x1 build_aarch64/sqlite3.o
                0x00000000004fbcf5                sqlite3__str_773_rows_inser
 .rodata.sqlite3__str_774_ON_CONFLIC
                0x00000000004fbd03       0x47 0x1 build_aarch64/sqlite3.o
                0x00000000004fbd03                sqlite3__str_774_ON_CONFLIC
 .rodata.sqlite3__str_775_variable_n
                0x00000000004fbd4a       0x2b 0x1 build_aarch64/sqlite3.o
                0x00000000004fbd4a                sqlite3__str_775_variable_n
 .rodata.sqlite3__str_776_too_many_S
                0x00000000004fbd75       0x17 0x1 build_aarch64/sqlite3.o
                0x00000000004fbd75                sqlite3__str_776_too_many_S
 .rodata.sqlite3__str_777_too_many_a
                0x00000000004fbd8c       0x22 0x1 build_aarch64/sqlite3.o
                0x00000000004fbd8c                sqlite3__str_777_too_many_a
 .rodata.sqlite3__str_778_DISTINCT_i
                0x00000000004fbdae       0x2f 0x1 build_aarch64/sqlite3.o
                0x00000000004fbdae                sqlite3__str_778_DISTINCT_i
 .rodata.sqlite3__str_779_0_
                0x00000000004fbddd        0x2 0x1 build_aarch64/sqlite3.o
                0x00000000004fbddd                sqlite3__str_779_0_
 .rodata.sqlite3__str_780_syntax_err
                0x00000000004fbddf       0x26 0x1 build_aarch64/sqlite3.o
                0x00000000004fbddf                sqlite3__str_780_syntax_err
 .rodata.sqlite3__str_781_no_such_in
                0x00000000004fbe05       0x12 0x1 build_aarch64/sqlite3.o
                0x00000000004fbe05                sqlite3__str_781_no_such_in
 .rodata.sqlite3__str_782_index_asso
                0x00000000004fbe17       0x49 0x1 build_aarch64/sqlite3.o
                0x00000000004fbe17                sqlite3__str_782_index_asso
 .rodata.sqlite3__str_783_DELETE_FRO
                0x00000000004fbe60       0x31 0x1 build_aarch64/sqlite3.o
                0x00000000004fbe60                sqlite3__str_783_DELETE_FRO
 .rodata.sqlite3__str_784___T_
                0x00000000004fbe91        0x4 0x1 build_aarch64/sqlite3.o
                0x00000000004fbe91                sqlite3__str_784___T_
 .rodata.sqlite3_c_sqlite3Pragma_getCacheSize
                0x00000000004fbe95       0x24 0x1 build_aarch64/sqlite3.o
 .rodata.sqlite3__str_785_fast_
                0x00000000004fbeb9        0x5 0x1 build_aarch64/sqlite3.o
                0x00000000004fbeb9                sqlite3__str_785_fast_
 .rodata.sqlite3__str_786_normal_
                0x00000000004fbebe        0x7 0x1 build_aarch64/sqlite3.o
                0x00000000004fbebe                sqlite3__str_786_normal_
 .rodata.sqlite3__str_787_exclusive_
                0x00000000004fbec5        0xa 0x1 build_aarch64/sqlite3.o
                0x00000000004fbec5                sqlite3__str_787_exclusive_
 .rodata.sqlite3__str_789_not_a_writ
                0x00000000004fbecf       0x19 0x1 build_aarch64/sqlite3.o
                0x00000000004fbecf                sqlite3__str_789_not_a_writ
 .rodata.sqlite3__str_790_Safety_lev
                0x00000000004fbee8       0x35 0x1 build_aarch64/sqlite3.o
                0x00000000004fbee8                sqlite3__str_790_Safety_lev
 .rodata.sqlite3__str_791_issisi_
                0x00000000004fbf1d        0x7 0x1 build_aarch64/sqlite3.o
                0x00000000004fbf1d                sqlite3__str_791_issisi_
 .rodata.sqlite3__str_792_iisX_
                0x00000000004fbf24        0x5 0x1 build_aarch64/sqlite3.o
                0x00000000004fbf24                sqlite3__str_792_iisX_
 .rodata.sqlite3__str_793_isiX_
                0x00000000004fbf29        0x5 0x1 build_aarch64/sqlite3.o
                0x00000000004fbf29                sqlite3__str_793_isiX_
 .rodata.sqlite3__str_794_c_
                0x00000000004fbf2e        0x2 0x1 build_aarch64/sqlite3.o
                0x00000000004fbf2e                sqlite3__str_794_c_
 .rodata.sqlite3__str_795_u_
                0x00000000004fbf30        0x2 0x1 build_aarch64/sqlite3.o
                0x00000000004fbf30                sqlite3__str_795_u_
 .rodata.sqlite3___const_sqlite3Pragma_azOrigin_
                0x00000000004fbf38       0x18 0x8 build_aarch64/sqlite3.o
                0x00000000004fbf38                sqlite3___const_sqlite3Pragma_azOrigin_
 .rodata.sqlite3__str_796_isisi_
                0x00000000004fbf50        0x6 0x1 build_aarch64/sqlite3.o
                0x00000000004fbf50                sqlite3__str_796_isisi_
 .rodata.sqlite3__str_797_iss_
                0x00000000004fbf56        0x4 0x1 build_aarch64/sqlite3.o
                0x00000000004fbf56                sqlite3__str_797_iss_
 .rodata.sqlite3__str_798_is_
                0x00000000004fbf5a        0x3 0x1 build_aarch64/sqlite3.o
                0x00000000004fbf5a                sqlite3__str_798_is_
 .rodata.sqlite3__str_799_iissssss_
                0x00000000004fbf5d        0x9 0x1 build_aarch64/sqlite3.o
                0x00000000004fbf5d                sqlite3__str_799_iissssss_
 .rodata.sqlite3__str_800_NONE_
                0x00000000004fbf66        0x5 0x1 build_aarch64/sqlite3.o
                0x00000000004fbf66                sqlite3__str_800_NONE_
 .rodata.sqlite3__str_801_siX_
                0x00000000004fbf6b        0x4 0x1 build_aarch64/sqlite3.o
                0x00000000004fbf6b                sqlite3__str_801_siX_
 .rodata.sqlite3__str_802_____in_dat
                0x00000000004fbf6f       0x18 0x1 build_aarch64/sqlite3.o
                0x00000000004fbf6f                sqlite3__str_802_____in_dat
 .rodata.sqlite3__str_803_NULL_value
                0x00000000004fbf87       0x14 0x1 build_aarch64/sqlite3.o
                0x00000000004fbf87                sqlite3__str_803_NULL_value
 .rodata.sqlite3__str_804_CHECK_cons
                0x00000000004fbf9b       0x1e 0x1 build_aarch64/sqlite3.o
                0x00000000004fbf9b                sqlite3__str_804_CHECK_cons
 .rodata.sqlite3__str_805_row__
                0x00000000004fbfb9        0x5 0x1 build_aarch64/sqlite3.o
                0x00000000004fbfb9                sqlite3__str_805_row__
 .rodata.sqlite3__str_806__missing_f
                0x00000000004fbfbe       0x15 0x1 build_aarch64/sqlite3.o
                0x00000000004fbfbe                sqlite3__str_806__missing_f
 .rodata.sqlite3__str_807_non_unique
                0x00000000004fbfd3       0x1b 0x1 build_aarch64/sqlite3.o
                0x00000000004fbfd3                sqlite3__str_807_non_unique
 .rodata.sqlite3__str_808_wrong___of
                0x00000000004fbfee       0x1d 0x1 build_aarch64/sqlite3.o
                0x00000000004fbfee                sqlite3__str_808_wrong___of
 .rodata.sqlite3__str_810_ok_
                0x00000000004fc00b        0x3 0x1 build_aarch64/sqlite3.o
                0x00000000004fc00b                sqlite3__str_810_ok_
 .rodata.sqlite3_c_sqlite3Pragma_encnames
                0x00000000004fc010       0x90 0x8 build_aarch64/sqlite3.o
 .rodata.sqlite3__str_811_UTF8_
                0x00000000004fc0a0        0x5 0x1 build_aarch64/sqlite3.o
                0x00000000004fc0a0                sqlite3__str_811_UTF8_
 .rodata.sqlite3__str_812_UTF_8_
                0x00000000004fc0a5        0x6 0x1 build_aarch64/sqlite3.o
                0x00000000004fc0a5                sqlite3__str_812_UTF_8_
 .rodata.sqlite3__str_813_UTF_16le_
                0x00000000004fc0ab        0x9 0x1 build_aarch64/sqlite3.o
                0x00000000004fc0ab                sqlite3__str_813_UTF_16le_
 .rodata.sqlite3__str_814_UTF_16be_
                0x00000000004fc0b4        0x9 0x1 build_aarch64/sqlite3.o
                0x00000000004fc0b4                sqlite3__str_814_UTF_16be_
 .rodata.sqlite3__str_815_UTF16le_
                0x00000000004fc0bd        0x8 0x1 build_aarch64/sqlite3.o
                0x00000000004fc0bd                sqlite3__str_815_UTF16le_
 .rodata.sqlite3__str_816_UTF16be_
                0x00000000004fc0c5        0x8 0x1 build_aarch64/sqlite3.o
                0x00000000004fc0c5                sqlite3__str_816_UTF16be_
 .rodata.sqlite3__str_817_UTF_16_
                0x00000000004fc0cd        0x7 0x1 build_aarch64/sqlite3.o
                0x00000000004fc0cd                sqlite3__str_817_UTF_16_
 .rodata.sqlite3__str_818_UTF16_
                0x00000000004fc0d4        0x6 0x1 build_aarch64/sqlite3.o
                0x00000000004fc0d4                sqlite3__str_818_UTF16_
 .rodata.sqlite3__str_819_unsupporte
                0x00000000004fc0da       0x19 0x1 build_aarch64/sqlite3.o
                0x00000000004fc0da                sqlite3__str_819_unsupporte
 .rodata.sqlite3__str_820_full_
                0x00000000004fc0f3        0x5 0x1 build_aarch64/sqlite3.o
                0x00000000004fc0f3                sqlite3__str_820_full_
 .rodata.sqlite3__str_821_restart_
                0x00000000004fc0f8        0x8 0x1 build_aarch64/sqlite3.o
                0x00000000004fc0f8                sqlite3__str_821_restart_
 .rodata.sqlite3__str_822_ANALYZE___
                0x00000000004fc100       0x12 0x1 build_aarch64/sqlite3.o
                0x00000000004fc100                sqlite3__str_822_ANALYZE___
 .rodata.sqlite3__str_823_none_
                0x00000000004fc112        0x5 0x1 build_aarch64/sqlite3.o
                0x00000000004fc112                sqlite3__str_823_none_
 .rodata.sqlite3__str_824_incrementa
                0x00000000004fc117        0xc 0x1 build_aarch64/sqlite3.o
                0x00000000004fc117                sqlite3__str_824_incrementa
 .rodata.sqlite3__str_825_temporary_
                0x00000000004fc123       0x3e 0x1 build_aarch64/sqlite3.o
                0x00000000004fc123                sqlite3__str_825_temporary_
 .rodata.sqlite3_c_getSafetyLevel_zText
                0x00000000004fc161       0x19 0x1 build_aarch64/sqlite3.o
 .rodata.sqlite3__str_826_SET_NULL_
                0x00000000004fc17a        0x9 0x1 build_aarch64/sqlite3.o
                0x00000000004fc17a                sqlite3__str_826_SET_NULL_
 .rodata.sqlite3__str_827_SET_DEFAUL
                0x00000000004fc183        0xc 0x1 build_aarch64/sqlite3.o
                0x00000000004fc183                sqlite3__str_827_SET_DEFAUL
 .rodata.sqlite3__str_828_CASCADE_
                0x00000000004fc18f        0x8 0x1 build_aarch64/sqlite3.o
                0x00000000004fc18f                sqlite3__str_828_CASCADE_
 .rodata.sqlite3__str_829_RESTRICT_
                0x00000000004fc197        0x9 0x1 build_aarch64/sqlite3.o
                0x00000000004fc197                sqlite3__str_829_RESTRICT_
 .rodata.sqlite3__str_830_NO_ACTION_
                0x00000000004fc1a0        0xa 0x1 build_aarch64/sqlite3.o
                0x00000000004fc1a0                sqlite3__str_830_NO_ACTION_
 .rodata.sqlite3_c_likeInfoAlt
                0x00000000004fc1aa        0x4 0x1 build_aarch64/sqlite3.o
 .rodata.sqlite3__str_831_LIKE_or_GL
                0x00000000004fc1ae       0x21 0x1 build_aarch64/sqlite3.o
                0x00000000004fc1ae                sqlite3__str_831_LIKE_or_GL
 .rodata.sqlite3__str_832_ESCAPE_exp
                0x00000000004fc1cf       0x2d 0x1 build_aarch64/sqlite3.o
                0x00000000004fc1cf                sqlite3__str_832_ESCAPE_exp
 .rodata.sqlite3__str_833_INSERT_INT
                0x00000000004fc1fc       0x40 0x1 build_aarch64/sqlite3.o
                0x00000000004fc1fc                sqlite3__str_833_INSERT_INT
 .rodata.sqlite3__str_834_type__trig
                0x00000000004fc23c       0x1d 0x1 build_aarch64/sqlite3.o
                0x00000000004fc23c                sqlite3__str_834_type__trig
 .rodata.sqlite3__str_835_temporary_
                0x00000000004fc259       0x2e 0x1 build_aarch64/sqlite3.o
                0x00000000004fc259                sqlite3__str_835_temporary_
 .rodata.sqlite3__str_836_cannot_cre
                0x00000000004fc287       0x29 0x1 build_aarch64/sqlite3.o
                0x00000000004fc287                sqlite3__str_836_cannot_cre
 .rodata.sqlite3__str_837_trigger__T
                0x00000000004fc2b0       0x1a 0x1 build_aarch64/sqlite3.o
                0x00000000004fc2b0                sqlite3__str_837_trigger__T
 .rodata.sqlite3__str_838_cannot_cre
                0x00000000004fc2ca       0x26 0x1 build_aarch64/sqlite3.o
                0x00000000004fc2ca                sqlite3__str_838_cannot_cre
 .rodata.sqlite3__str_839_cannot_cre
                0x00000000004fc2f0       0x25 0x1 build_aarch64/sqlite3.o
                0x00000000004fc2f0                sqlite3__str_839_cannot_cre
 .rodata.sqlite3__str_840_BEFORE_
                0x00000000004fc315        0x7 0x1 build_aarch64/sqlite3.o
                0x00000000004fc315                sqlite3__str_840_BEFORE_
 .rodata.sqlite3__str_841_AFTER_
                0x00000000004fc31c        0x6 0x1 build_aarch64/sqlite3.o
                0x00000000004fc31c                sqlite3__str_841_AFTER_
 .rodata.sqlite3__str_842_cannot_cre
                0x00000000004fc322       0x2e 0x1 build_aarch64/sqlite3.o
                0x00000000004fc322                sqlite3__str_842_cannot_cre
 .rodata.sqlite3__str_843_no_such_tr
                0x00000000004fc350       0x14 0x1 build_aarch64/sqlite3.o
                0x00000000004fc350                sqlite3__str_843_no_such_tr
 .rodata.sqlite3_c_sqlite3Attach_attach_func
                0x00000000004fc368       0x48 0x8 build_aarch64/sqlite3.o
 .rodata.sqlite3__str_844_sqlite_att
                0x00000000004fc3b0        0xe 0x1 build_aarch64/sqlite3.o
                0x00000000004fc3b0                sqlite3__str_844_sqlite_att
 .rodata.sqlite3__str_845_too_many_a
                0x00000000004fc3be       0x25 0x1 build_aarch64/sqlite3.o
                0x00000000004fc3be                sqlite3__str_845_too_many_a
 .rodata.sqlite3__str_846_database__
                0x00000000004fc3e3       0x1e 0x1 build_aarch64/sqlite3.o
                0x00000000004fc3e3                sqlite3__str_846_database__
 .rodata.sqlite3__str_847_database_i
                0x00000000004fc401       0x1d 0x1 build_aarch64/sqlite3.o
                0x00000000004fc401                sqlite3__str_847_database_i
 .rodata.sqlite3__str_848_unable_to_
                0x00000000004fc41e       0x1c 0x1 build_aarch64/sqlite3.o
                0x00000000004fc41e                sqlite3__str_848_unable_to_
 .rodata.sqlite3__str_849_file__
                0x00000000004fc43a        0x6 0x1 build_aarch64/sqlite3.o
                0x00000000004fc43a                sqlite3__str_849_file__
 .rodata.sqlite3__str_850_localhost_
                0x00000000004fc440        0xa 0x1 build_aarch64/sqlite3.o
                0x00000000004fc440                sqlite3__str_850_localhost_
 .rodata.sqlite3__str_851_invalid_ur
                0x00000000004fc44a       0x1c 0x1 build_aarch64/sqlite3.o
                0x00000000004fc44a                sqlite3__str_851_invalid_ur
 .rodata.sqlite3__str_852_vfs_
                0x00000000004fc466        0x4 0x1 build_aarch64/sqlite3.o
                0x00000000004fc466                sqlite3__str_852_vfs_
 .rodata.sqlite3__str_853_cache_
                0x00000000004fc46a        0x6 0x1 build_aarch64/sqlite3.o
                0x00000000004fc46a                sqlite3__str_853_cache_
 .rodata.sqlite3_c_sqlite3ParseUri_aCacheMode
                0x00000000004fc470       0x30 0x8 build_aarch64/sqlite3.o
 .rodata.sqlite3__str_854_shared_
                0x00000000004fc4a0        0x7 0x1 build_aarch64/sqlite3.o
                0x00000000004fc4a0                sqlite3__str_854_shared_
 .rodata.sqlite3__str_855_private_
                0x00000000004fc4a7        0x8 0x1 build_aarch64/sqlite3.o
                0x00000000004fc4a7                sqlite3__str_855_private_
 .rodata.sqlite3__str_856_mode_
                0x00000000004fc4af        0x5 0x1 build_aarch64/sqlite3.o
                0x00000000004fc4af                sqlite3__str_856_mode_
 .rodata.sqlite3_c_sqlite3ParseUri_aOpenMode
                0x00000000004fc4b8       0x50 0x8 build_aarch64/sqlite3.o
 .rodata.sqlite3__str_857_ro_
                0x00000000004fc508        0x3 0x1 build_aarch64/sqlite3.o
                0x00000000004fc508                sqlite3__str_857_ro_
 .rodata.sqlite3__str_858_rw_
                0x00000000004fc50b        0x3 0x1 build_aarch64/sqlite3.o
                0x00000000004fc50b                sqlite3__str_858_rw_
 .rodata.sqlite3__str_859_rwc_
                0x00000000004fc50e        0x4 0x1 build_aarch64/sqlite3.o
                0x00000000004fc50e                sqlite3__str_859_rwc_
 .rodata.sqlite3__str_860_no_such__s
                0x00000000004fc512       0x14 0x1 build_aarch64/sqlite3.o
                0x00000000004fc512                sqlite3__str_860_no_such__s
 .rodata.sqlite3__str_861__s_mode_no
                0x00000000004fc526       0x18 0x1 build_aarch64/sqlite3.o
                0x00000000004fc526                sqlite3__str_861__s_mode_no
 .rodata.sqlite3__str_862_no_such_vf
                0x00000000004fc53e       0x10 0x1 build_aarch64/sqlite3.o
                0x00000000004fc53e                sqlite3__str_862_no_such_vf
 .rodata.sqlite3_c_sqlite3Detach_detach_func
                0x00000000004fc550       0x48 0x8 build_aarch64/sqlite3.o
 .rodata.sqlite3__str_863_sqlite_det
                0x00000000004fc598        0xe 0x1 build_aarch64/sqlite3.o
                0x00000000004fc598                sqlite3__str_863_sqlite_det
 .rodata.sqlite3__str_864_no_such_da
                0x00000000004fc5a6       0x15 0x1 build_aarch64/sqlite3.o
                0x00000000004fc5a6                sqlite3__str_864_no_such_da
 .rodata.sqlite3__str_865_cannot_det
                0x00000000004fc5bb       0x1a 0x1 build_aarch64/sqlite3.o
                0x00000000004fc5bb                sqlite3__str_865_cannot_det
 .rodata.sqlite3__str_866_database__
                0x00000000004fc5d5       0x16 0x1 build_aarch64/sqlite3.o
                0x00000000004fc5d5                sqlite3__str_866_database__
 .rodata.sqlite3__str_867_unable_to_
                0x00000000004fc5eb       0x2e 0x1 build_aarch64/sqlite3.o
                0x00000000004fc5eb                sqlite3__str_867_unable_to_
 .rodata.sqlite3_c_openStatTable_aTable
                0x00000000004fc620       0x30 0x8 build_aarch64/sqlite3.o
 .rodata.sqlite3__str_868_tbl_idx_st
                0x00000000004fc650        0xd 0x1 build_aarch64/sqlite3.o
                0x00000000004fc650                sqlite3__str_868_tbl_idx_st
 .rodata.sqlite3__str_869_sqlite_sta
                0x00000000004fc65d        0xd 0x1 build_aarch64/sqlite3.o
                0x00000000004fc65d                sqlite3__str_869_sqlite_sta
 .rodata.sqlite3__str_870_sqlite_sta
                0x00000000004fc66a        0xd 0x1 build_aarch64/sqlite3.o
                0x00000000004fc66a                sqlite3__str_870_sqlite_sta
 .rodata.sqlite3__str_871_CREATE_TAB
                0x00000000004fc677       0x17 0x1 build_aarch64/sqlite3.o
                0x00000000004fc677                sqlite3__str_871_CREATE_TAB
 .rodata.sqlite3__str_872_sqlite____
                0x00000000004fc68e        0xa 0x1 build_aarch64/sqlite3.o
                0x00000000004fc68e                sqlite3__str_872_sqlite____
 .rodata.sqlite3_c_statInitFuncdef
                0x00000000004fc698       0x48 0x8 build_aarch64/sqlite3.o
 .rodata.sqlite3_c_statPushFuncdef
                0x00000000004fc6e0       0x48 0x8 build_aarch64/sqlite3.o
 .rodata.sqlite3__str_873_BBB_
                0x00000000004fc728        0x4 0x1 build_aarch64/sqlite3.o
                0x00000000004fc728                sqlite3__str_873_BBB_
 .rodata.sqlite3__str_874_stat_init_
                0x00000000004fc72c        0xa 0x1 build_aarch64/sqlite3.o
                0x00000000004fc72c                sqlite3__str_874_stat_init_
 .rodata.sqlite3__str_875_stat_push_
                0x00000000004fc736        0xa 0x1 build_aarch64/sqlite3.o
                0x00000000004fc736                sqlite3__str_875_stat_push_
 .rodata.sqlite3_c_statGetFuncdef
                0x00000000004fc740       0x48 0x8 build_aarch64/sqlite3.o
 .rodata.sqlite3__str_876_stat_get_
                0x00000000004fc788        0x9 0x1 build_aarch64/sqlite3.o
                0x00000000004fc788                sqlite3__str_876_stat_get_
 .rodata.sqlite3__str_877__llu_
                0x00000000004fc791        0x5 0x1 build_aarch64/sqlite3.o
                0x00000000004fc791                sqlite3__str_877__llu_
 .rodata.sqlite3__str_878___llu_
                0x00000000004fc796        0x6 0x1 build_aarch64/sqlite3.o
                0x00000000004fc796                sqlite3__str_878___llu_
 .rodata.sqlite3__str_879_there_is_a
                0x00000000004fc79c       0x3b 0x1 build_aarch64/sqlite3.o
                0x00000000004fc79c                sqlite3__str_879_there_is_a
 .rodata.sqlite3__str_880_view__s_ma
                0x00000000004fc7d7       0x1b 0x1 build_aarch64/sqlite3.o
                0x00000000004fc7d7                sqlite3__str_880_view__s_ma
 .rodata.sqlite3__str_881_UPDATE___w
                0x00000000004fc7f2       0xa1 0x1 build_aarch64/sqlite3.o
                0x00000000004fc7f2                sqlite3__str_881_UPDATE___w
 .rodata.sqlite3__str_882_UPDATE__Q_
                0x00000000004fc893      0x115 0x1 build_aarch64/sqlite3.o
                0x00000000004fc893                sqlite3__str_882_UPDATE__Q_
 .rodata.sqlite3__str_883_UPDATE___w
                0x00000000004fc9a8       0x3a 0x1 build_aarch64/sqlite3.o
                0x00000000004fc9a8                sqlite3__str_883_UPDATE___w
 .rodata.sqlite3__str_884_UPDATE_sql
                0x00000000004fc9e2       0xfe 0x1 build_aarch64/sqlite3.o
                0x00000000004fc9e2                sqlite3__str_884_UPDATE_sql
 .rodata.sqlite3__str_885_table__s_m
                0x00000000004fcae0       0x1c 0x1 build_aarch64/sqlite3.o
                0x00000000004fcae0                sqlite3__str_885_table__s_m
 .rodata.sqlite3__str_886_SELECT_1_F
                0x00000000004fcafc       0x90 0x1 build_aarch64/sqlite3.o
                0x00000000004fcafc                sqlite3__str_886_SELECT_1_F
 .rodata.sqlite3__str_887_SELECT_1_F
                0x00000000004fcb8c       0x8f 0x1 build_aarch64/sqlite3.o
                0x00000000004fcb8c                sqlite3__str_887_SELECT_1_F
 .rodata.sqlite3__str_888_Cannot_add
                0x00000000004fcc1b       0x20 0x1 build_aarch64/sqlite3.o
                0x00000000004fcc1b                sqlite3__str_888_Cannot_add
 .rodata.sqlite3__str_889_Cannot_add
                0x00000000004fcc3b       0x1b 0x1 build_aarch64/sqlite3.o
                0x00000000004fcc3b                sqlite3__str_889_Cannot_add
 .rodata.sqlite3__str_890_Cannot_add
                0x00000000004fcc56       0x3b 0x1 build_aarch64/sqlite3.o
                0x00000000004fcc56                sqlite3__str_890_Cannot_add
 .rodata.sqlite3__str_891_Cannot_add
                0x00000000004fcc91       0x35 0x1 build_aarch64/sqlite3.o
                0x00000000004fcc91                sqlite3__str_891_Cannot_add
 .rodata.sqlite3__str_892_Cannot_add
                0x00000000004fccc6       0x2e 0x1 build_aarch64/sqlite3.o
                0x00000000004fccc6                sqlite3__str_892_Cannot_add
 .rodata.sqlite3__str_893_UPDATE___w
                0x00000000004fccf4       0x6d 0x1 build_aarch64/sqlite3.o
                0x00000000004fccf4                sqlite3__str_893_UPDATE___w
 .rodata.sqlite3__str_894_virtual_ta
                0x00000000004fcd61       0x22 0x1 build_aarch64/sqlite3.o
                0x00000000004fcd61                sqlite3__str_894_virtual_ta
 .rodata.sqlite3__str_895_Cannot_add
                0x00000000004fcd83       0x1e 0x1 build_aarch64/sqlite3.o
                0x00000000004fcd83                sqlite3__str_895_Cannot_add
 .rodata.sqlite3__str_896_sqlite_alt
                0x00000000004fcda1       0x13 0x1 build_aarch64/sqlite3.o
                0x00000000004fcda1                sqlite3__str_896_sqlite_alt
 .rodata.sqlite3__str_897_UPDATE___w
                0x00000000004fcdb4       0xc2 0x1 build_aarch64/sqlite3.o
                0x00000000004fcdb4                sqlite3__str_897_UPDATE___w
 .rodata.sqlite3__str_898_UPDATE_tem
                0x00000000004fce76       0x78 0x1 build_aarch64/sqlite3.o
                0x00000000004fce76                sqlite3__str_898_UPDATE_tem
 .rodata.sqlite3__str_899_virtual_ta
                0x00000000004fceee        0xe 0x1 build_aarch64/sqlite3.o
                0x00000000004fceee                sqlite3__str_899_virtual_ta
 .rodata.sqlite3__str_900_cannot_ren
                0x00000000004fcefc       0x21 0x1 build_aarch64/sqlite3.o
                0x00000000004fcefc                sqlite3__str_900_cannot_ren
 .rodata.sqlite3__str_901_CREATE_VIR
                0x00000000004fcf1d       0x18 0x1 build_aarch64/sqlite3.o
                0x00000000004fcf1d                sqlite3__str_901_CREATE_VIR
 .rodata.sqlite3__str_902_UPDATE__Q_
                0x00000000004fcf35       0x58 0x1 build_aarch64/sqlite3.o
                0x00000000004fcf35                sqlite3__str_902_UPDATE__Q_
 .rodata.sqlite3__str_903_name___q__
                0x00000000004fcf8d       0x1b 0x1 build_aarch64/sqlite3.o
                0x00000000004fcf8d                sqlite3__str_903_name___q__
 .rodata.sqlite3__str_904_duplicate_
                0x00000000004fcfa8       0x1e 0x1 build_aarch64/sqlite3.o
                0x00000000004fcfa8                sqlite3__str_904_duplicate_
 .rodata.sqlite3__str_905_RANGE_must
                0x00000000004fcfc6       0x2d 0x1 build_aarch64/sqlite3.o
                0x00000000004fcfc6                sqlite3__str_905_RANGE_must
 .rodata.sqlite3__str_906_unsupporte
                0x00000000004fcff3       0x25 0x1 build_aarch64/sqlite3.o
                0x00000000004fcff3                sqlite3__str_906_unsupporte
 .rodata.sqlite3_c_yy_reduce_ofst
                0x00000000004fd018      0x2e4 0x2 build_aarch64/sqlite3.o
 .rodata.sqlite3__str_907_incomplete
                0x00000000004fd2fc       0x11 0x1 build_aarch64/sqlite3.o
                0x00000000004fd2fc                sqlite3__str_907_incomplete
 .rodata.sqlite3__str_908_load_exten
                0x00000000004fd30d        0xf 0x1 build_aarch64/sqlite3.o
                0x00000000004fd30d                sqlite3__str_908_load_exten
 .rodata.sqlite3__str_909_sqlite_com
                0x00000000004fd31c       0x1a 0x1 build_aarch64/sqlite3.o
                0x00000000004fd31c                sqlite3__str_909_sqlite_com
 .rodata.sqlite3__str_910_sqlite_com
                0x00000000004fd336       0x19 0x1 build_aarch64/sqlite3.o
                0x00000000004fd336                sqlite3__str_910_sqlite_com
 .rodata.sqlite3__str_911_unlikely_
                0x00000000004fd34f        0x9 0x1 build_aarch64/sqlite3.o
                0x00000000004fd34f                sqlite3__str_911_unlikely_
 .rodata.sqlite3__str_912_likelihood
                0x00000000004fd358        0xb 0x1 build_aarch64/sqlite3.o
                0x00000000004fd358                sqlite3__str_912_likelihood
 .rodata.sqlite3__str_913_likely_
                0x00000000004fd363        0x7 0x1 build_aarch64/sqlite3.o
                0x00000000004fd363                sqlite3__str_913_likely_
 .rodata.sqlite3__str_914_ltrim_
                0x00000000004fd36a        0x6 0x1 build_aarch64/sqlite3.o
                0x00000000004fd36a                sqlite3__str_914_ltrim_
 .rodata.sqlite3__str_915_rtrim_
                0x00000000004fd370        0x6 0x1 build_aarch64/sqlite3.o
                0x00000000004fd370                sqlite3__str_915_rtrim_
 .rodata.sqlite3__str_916_trim_
                0x00000000004fd376        0x5 0x1 build_aarch64/sqlite3.o
                0x00000000004fd376                sqlite3__str_916_trim_
 .rodata.sqlite3__str_917_typeof_
                0x00000000004fd37b        0x7 0x1 build_aarch64/sqlite3.o
                0x00000000004fd37b                sqlite3__str_917_typeof_
 .rodata.sqlite3__str_918_length_
                0x00000000004fd382        0x7 0x1 build_aarch64/sqlite3.o
                0x00000000004fd382                sqlite3__str_918_length_
 .rodata.sqlite3__str_919_instr_
                0x00000000004fd389        0x6 0x1 build_aarch64/sqlite3.o
                0x00000000004fd389                sqlite3__str_919_instr_
 .rodata.sqlite3__str_920_printf_
                0x00000000004fd38f        0x7 0x1 build_aarch64/sqlite3.o
                0x00000000004fd38f                sqlite3__str_920_printf_
 .rodata.sqlite3__str_921_unicode_
                0x00000000004fd396        0x8 0x1 build_aarch64/sqlite3.o
                0x00000000004fd396                sqlite3__str_921_unicode_
 .rodata.sqlite3__str_922_char_
                0x00000000004fd39e        0x5 0x1 build_aarch64/sqlite3.o
                0x00000000004fd39e                sqlite3__str_922_char_
 .rodata.sqlite3__str_923_abs_
                0x00000000004fd3a3        0x4 0x1 build_aarch64/sqlite3.o
                0x00000000004fd3a3                sqlite3__str_923_abs_
 .rodata.sqlite3__str_924_round_
                0x00000000004fd3a7        0x6 0x1 build_aarch64/sqlite3.o
                0x00000000004fd3a7                sqlite3__str_924_round_
 .rodata.sqlite3__str_925_upper_
                0x00000000004fd3ad        0x6 0x1 build_aarch64/sqlite3.o
                0x00000000004fd3ad                sqlite3__str_925_upper_
 .rodata.sqlite3__str_926_lower_
                0x00000000004fd3b3        0x6 0x1 build_aarch64/sqlite3.o
                0x00000000004fd3b3                sqlite3__str_926_lower_
 .rodata.sqlite3__str_927_hex_
                0x00000000004fd3b9        0x4 0x1 build_aarch64/sqlite3.o
                0x00000000004fd3b9                sqlite3__str_927_hex_
 .rodata.sqlite3__str_928_ifnull_
                0x00000000004fd3bd        0x7 0x1 build_aarch64/sqlite3.o
                0x00000000004fd3bd                sqlite3__str_928_ifnull_
 .rodata.sqlite3__str_929_random_
                0x00000000004fd3c4        0x7 0x1 build_aarch64/sqlite3.o
                0x00000000004fd3c4                sqlite3__str_929_random_
 .rodata.sqlite3__str_930_randomblob
                0x00000000004fd3cb        0xb 0x1 build_aarch64/sqlite3.o
                0x00000000004fd3cb                sqlite3__str_930_randomblob
 .rodata.sqlite3__str_931_nullif_
                0x00000000004fd3d6        0x7 0x1 build_aarch64/sqlite3.o
                0x00000000004fd3d6                sqlite3__str_931_nullif_
 .rodata.sqlite3__str_932_sqlite_ver
                0x00000000004fd3dd        0xf 0x1 build_aarch64/sqlite3.o
                0x00000000004fd3dd                sqlite3__str_932_sqlite_ver
 .rodata.sqlite3__str_933_sqlite_sou
                0x00000000004fd3ec       0x11 0x1 build_aarch64/sqlite3.o
                0x00000000004fd3ec                sqlite3__str_933_sqlite_sou
 .rodata.sqlite3__str_934_sqlite_log
                0x00000000004fd3fd        0xb 0x1 build_aarch64/sqlite3.o
                0x00000000004fd3fd                sqlite3__str_934_sqlite_log
 .rodata.sqlite3__str_935_quote_
                0x00000000004fd408        0x6 0x1 build_aarch64/sqlite3.o
                0x00000000004fd408                sqlite3__str_935_quote_
 .rodata.sqlite3__str_936_last_inser
                0x00000000004fd40e       0x12 0x1 build_aarch64/sqlite3.o
                0x00000000004fd40e                sqlite3__str_936_last_inser
 .rodata.sqlite3__str_937_changes_
                0x00000000004fd420        0x8 0x1 build_aarch64/sqlite3.o
                0x00000000004fd420                sqlite3__str_937_changes_
 .rodata.sqlite3__str_938_total_chan
                0x00000000004fd428        0xe 0x1 build_aarch64/sqlite3.o
                0x00000000004fd428                sqlite3__str_938_total_chan
 .rodata.sqlite3__str_939_replace_
                0x00000000004fd436        0x8 0x1 build_aarch64/sqlite3.o
                0x00000000004fd436                sqlite3__str_939_replace_
 .rodata.sqlite3__str_940_zeroblob_
                0x00000000004fd43e        0x9 0x1 build_aarch64/sqlite3.o
                0x00000000004fd43e                sqlite3__str_940_zeroblob_
 .rodata.sqlite3__str_941_substr_
                0x00000000004fd447        0x7 0x1 build_aarch64/sqlite3.o
                0x00000000004fd447                sqlite3__str_941_substr_
 .rodata.sqlite3__str_942_sum_
                0x00000000004fd44e        0x4 0x1 build_aarch64/sqlite3.o
                0x00000000004fd44e                sqlite3__str_942_sum_
 .rodata.sqlite3__str_943_total_
                0x00000000004fd452        0x6 0x1 build_aarch64/sqlite3.o
                0x00000000004fd452                sqlite3__str_943_total_
 .rodata.sqlite3__str_944_avg_
                0x00000000004fd458        0x4 0x1 build_aarch64/sqlite3.o
                0x00000000004fd458                sqlite3__str_944_avg_
 .rodata.sqlite3__str_945_count_
                0x00000000004fd45c        0x6 0x1 build_aarch64/sqlite3.o
                0x00000000004fd45c                sqlite3__str_945_count_
 .rodata.sqlite3__str_946_group_conc
                0x00000000004fd462        0xd 0x1 build_aarch64/sqlite3.o
                0x00000000004fd462                sqlite3__str_946_group_conc
 .rodata.sqlite3__str_947_coalesce_
                0x00000000004fd46f        0x9 0x1 build_aarch64/sqlite3.o
                0x00000000004fd46f                sqlite3__str_947_coalesce_
 .rodata.sqlite3_c_trimFunc_lenOne
                0x00000000004fd478        0x1 0x1 build_aarch64/sqlite3.o
 .rodata.sqlite3_c_trimFunc_azOne
                0x00000000004fd480        0x8 0x8 build_aarch64/sqlite3.o
 .rodata.sqlite3_c_typeofFunc_azType
                0x00000000004fd488       0x28 0x8 build_aarch64/sqlite3.o
 .rodata.sqlite3__str_948_text_
                0x00000000004fd4b0        0x5 0x1 build_aarch64/sqlite3.o
                0x00000000004fd4b0                sqlite3__str_948_text_
 .rodata.sqlite3__str_949_blob_
                0x00000000004fd4b5        0x5 0x1 build_aarch64/sqlite3.o
                0x00000000004fd4b5                sqlite3__str_949_blob_
 .rodata.sqlite3__str_950_integer_ov
                0x00000000004fd4ba       0x11 0x1 build_aarch64/sqlite3.o
                0x00000000004fd4ba                sqlite3__str_950_integer_ov
 .rodata.sqlite3__str_951____f_
                0x00000000004fd4cb        0x5 0x1 build_aarch64/sqlite3.o
                0x00000000004fd4cb                sqlite3__str_951____f_
 ** merge constants
                0x00000000004fd4d0       0x10
 .rodata.sqlite3__str_952____20e_
                0x00000000004fd4e0        0x7 0x1 build_aarch64/sqlite3.o
                0x00000000004fd4e0                sqlite3__str_952____20e_
 .rodata.sqlite3__str_953_sqlite_ren
                0x00000000004fd4e7       0x15 0x1 build_aarch64/sqlite3.o
                0x00000000004fd4e7                sqlite3__str_953_sqlite_ren
 .rodata.sqlite3__str_954_sqlite_ren
                0x00000000004fd4fc       0x14 0x1 build_aarch64/sqlite3.o
                0x00000000004fd4fc                sqlite3__str_954_sqlite_ren
 .rodata.sqlite3__str_955_sqlite_ren
                0x00000000004fd510       0x13 0x1 build_aarch64/sqlite3.o
                0x00000000004fd510                sqlite3__str_955_sqlite_ren
 .rodata.sqlite3__str_956___w__
                0x00000000004fd523        0x5 0x1 build_aarch64/sqlite3.o
                0x00000000004fd523                sqlite3__str_956___w__
 .rodata.sqlite3__str_957_error_in__
                0x00000000004fd528       0x15 0x1 build_aarch64/sqlite3.o
                0x00000000004fd528                sqlite3__str_957_error_in__
 .rodata.sqlite3__str_958__after_ren
                0x00000000004fd53d        0xe 0x1 build_aarch64/sqlite3.o
                0x00000000004fd53d                sqlite3__str_958__after_ren
 .rodata.sqlite3_c_last_valueName
                0x00000000004fd54b        0xb 0x1 build_aarch64/sqlite3.o
 .rodata.sqlite3__str_959_argument_o
                0x00000000004fd556       0x2d 0x1 build_aarch64/sqlite3.o
                0x00000000004fd556                sqlite3__str_959_argument_o
 .rodata.sqlite3__str_960_julianday_
                0x00000000004fd583        0xa 0x1 build_aarch64/sqlite3.o
                0x00000000004fd583                sqlite3__str_960_julianday_
 .rodata.sqlite3__str_961_date_
                0x00000000004fd58d        0x5 0x1 build_aarch64/sqlite3.o
                0x00000000004fd58d                sqlite3__str_961_date_
 .rodata.sqlite3__str_962_time_
                0x00000000004fd592        0x5 0x1 build_aarch64/sqlite3.o
                0x00000000004fd592                sqlite3__str_962_time_
 .rodata.sqlite3__str_963_datetime_
                0x00000000004fd597        0x9 0x1 build_aarch64/sqlite3.o
                0x00000000004fd597                sqlite3__str_963_datetime_
 .rodata.sqlite3__str_964_strftime_
                0x00000000004fd5a0        0x9 0x1 build_aarch64/sqlite3.o
                0x00000000004fd5a0                sqlite3__str_964_strftime_
 .rodata.sqlite3__str_965_current_ti
                0x00000000004fd5a9        0xd 0x1 build_aarch64/sqlite3.o
                0x00000000004fd5a9                sqlite3__str_965_current_ti
 .rodata.sqlite3__str_966_current_ti
                0x00000000004fd5b6       0x12 0x1 build_aarch64/sqlite3.o
                0x00000000004fd5b6                sqlite3__str_966_current_ti
 .rodata.sqlite3__str_967_current_da
                0x00000000004fd5c8        0xd 0x1 build_aarch64/sqlite3.o
                0x00000000004fd5c8                sqlite3__str_967_current_da
 .rodata.sqlite3__str_968_now_
                0x00000000004fd5d5        0x4 0x1 build_aarch64/sqlite3.o
                0x00000000004fd5d5                sqlite3__str_968_now_
 .rodata.sqlite3__str_969_40f_21a_21
                0x00000000004fd5d9        0xc 0x1 build_aarch64/sqlite3.o
                0x00000000004fd5d9                sqlite3__str_969_40f_21a_21
 .rodata.sqlite3_c_getDigits_aMx
                0x00000000004fd5e6        0xc 0x2 build_aarch64/sqlite3.o
 .rodata.sqlite3__str_970_20c_20e_
                0x00000000004fd5f2        0x8 0x1 build_aarch64/sqlite3.o
                0x00000000004fd5f2                sqlite3__str_970_20c_20e_
 .rodata.sqlite3__str_971_20e_
                0x00000000004fd5fa        0x4 0x1 build_aarch64/sqlite3.o
                0x00000000004fd5fa                sqlite3__str_971_20e_
 .rodata.sqlite3__str_972_20b_20e_
                0x00000000004fd5fe        0x8 0x1 build_aarch64/sqlite3.o
                0x00000000004fd5fe                sqlite3__str_972_20b_20e_
 .rodata.sqlite3__str_973_non_determ
                0x00000000004fd606       0x43 0x1 build_aarch64/sqlite3.o
                0x00000000004fd606                sqlite3__str_973_non_determ
 .rodata.sqlite3__str_974_localtime_
                0x00000000004fd649        0xa 0x1 build_aarch64/sqlite3.o
                0x00000000004fd649                sqlite3__str_974_localtime_
 .rodata.sqlite3__str_975_unixepoch_
                0x00000000004fd653        0xa 0x1 build_aarch64/sqlite3.o
                0x00000000004fd653                sqlite3__str_975_unixepoch_
 .rodata.sqlite3__str_976_utc_
                0x00000000004fd65d        0x4 0x1 build_aarch64/sqlite3.o
                0x00000000004fd65d                sqlite3__str_976_utc_
 .rodata.sqlite3__str_977_weekday__
                0x00000000004fd661        0x9 0x1 build_aarch64/sqlite3.o
                0x00000000004fd661                sqlite3__str_977_weekday__
 .rodata.sqlite3__str_978_start_of__
                0x00000000004fd66a        0xa 0x1 build_aarch64/sqlite3.o
                0x00000000004fd66a                sqlite3__str_978_start_of__
 .rodata.sqlite3__str_979_month_
                0x00000000004fd674        0x6 0x1 build_aarch64/sqlite3.o
                0x00000000004fd674                sqlite3__str_979_month_
 .rodata.sqlite3__str_980_year_
                0x00000000004fd67a        0x5 0x1 build_aarch64/sqlite3.o
                0x00000000004fd67a                sqlite3__str_980_year_
 .rodata.sqlite3__str_981_day_
                0x00000000004fd67f        0x4 0x1 build_aarch64/sqlite3.o
                0x00000000004fd67f                sqlite3__str_981_day_
 .rodata.sqlite3_c_aXformType
                0x00000000004fd688       0xc0 0x8 build_aarch64/sqlite3.o
 .rodata.sqlite3__str_982_local_time
                0x00000000004fd748       0x17 0x1 build_aarch64/sqlite3.o
                0x00000000004fd748                sqlite3__str_982_local_time
 .rodata.sqlite3__str_983_second_
                0x00000000004fd75f        0x7 0x1 build_aarch64/sqlite3.o
                0x00000000004fd75f                sqlite3__str_983_second_
 .rodata.sqlite3__str_984_minute_
                0x00000000004fd766        0x7 0x1 build_aarch64/sqlite3.o
                0x00000000004fd766                sqlite3__str_984_minute_
 .rodata.sqlite3__str_985_hour_
                0x00000000004fd76d        0x5 0x1 build_aarch64/sqlite3.o
                0x00000000004fd76d                sqlite3__str_985_hour_
 .rodata.sqlite3__str_986__04d__02d_
                0x00000000004fd772        0xf 0x1 build_aarch64/sqlite3.o
                0x00000000004fd772                sqlite3__str_986__04d__02d_
 .rodata.sqlite3__str_987__02d__02d_
                0x00000000004fd781        0xf 0x1 build_aarch64/sqlite3.o
                0x00000000004fd781                sqlite3__str_987__02d__02d_
 .rodata.sqlite3__str_988__04d__02d_
                0x00000000004fd790       0x1e 0x1 build_aarch64/sqlite3.o
                0x00000000004fd790                sqlite3__str_988__04d__02d_
 .rodata.sqlite3__str_989__02d_
                0x00000000004fd7ae        0x5 0x1 build_aarch64/sqlite3.o
                0x00000000004fd7ae                sqlite3__str_989__02d_
 .rodata.sqlite3__str_990__06_3f_
                0x00000000004fd7b3        0x7 0x1 build_aarch64/sqlite3.o
                0x00000000004fd7b3                sqlite3__str_990__06_3f_
 .rodata.sqlite3__str_991__03d_
                0x00000000004fd7ba        0x5 0x1 build_aarch64/sqlite3.o
                0x00000000004fd7ba                sqlite3__str_991__03d_
 .rodata.sqlite3__str_992__04d_
                0x00000000004fd7bf        0x5 0x1 build_aarch64/sqlite3.o
                0x00000000004fd7bf                sqlite3__str_992__04d_
 .rodata.sqlite3_c_sqlite3MemSetDefault_defaultMethods
                0x00000000004fd7c8       0x40 0x8 build_aarch64/sqlite3.o
 .rodata.sqlite3__str_993_failed_to_
                0x00000000004fd808       0x26 0x1 build_aarch64/sqlite3.o
                0x00000000004fd808                sqlite3__str_993_failed_to_
 .rodata.sqlite3__str_994_failed_mem
                0x00000000004fd82e       0x24 0x1 build_aarch64/sqlite3.o
                0x00000000004fd82e                sqlite3__str_994_failed_mem
 .rodata.sqlite3_c_sqlite3PCacheSetDefault_defaultMethods
                0x00000000004fd858       0x68 0x8 build_aarch64/sqlite3.o
 .rodata.sqlite3__str_995_unable_to_
                0x00000000004fd8c0       0x44 0x1 build_aarch64/sqlite3.o
                0x00000000004fd8c0                sqlite3__str_995_unable_to_
 .rodata.sqlite3_c_sqlite3ErrStr_aMsg
                0x00000000004fd908       0xe8 0x8 build_aarch64/sqlite3.o
 .rodata.sqlite3__str_996_not_an_err
                0x00000000004fd9f0        0xd 0x1 build_aarch64/sqlite3.o
                0x00000000004fd9f0                sqlite3__str_996_not_an_err
 .rodata.sqlite3__str_997_SQL_logic_
                0x00000000004fd9fd       0x10 0x1 build_aarch64/sqlite3.o
                0x00000000004fd9fd                sqlite3__str_997_SQL_logic_
 .rodata.sqlite3__str_998_access_per
                0x00000000004fda0d       0x19 0x1 build_aarch64/sqlite3.o
                0x00000000004fda0d                sqlite3__str_998_access_per
 .rodata.sqlite3__str_999_query_abor
                0x00000000004fda26        0xe 0x1 build_aarch64/sqlite3.o
                0x00000000004fda26                sqlite3__str_999_query_abor
 .rodata.sqlite3__str_1000_database_i
                0x00000000004fda34       0x13 0x1 build_aarch64/sqlite3.o
                0x00000000004fda34                sqlite3__str_1000_database_i
 .rodata.sqlite3__str_1001_database_t
                0x00000000004fda47       0x19 0x1 build_aarch64/sqlite3.o
                0x00000000004fda47                sqlite3__str_1001_database_t
 .rodata.sqlite3__str_1002_attempt_to
                0x00000000004fda60       0x25 0x1 build_aarch64/sqlite3.o
                0x00000000004fda60                sqlite3__str_1002_attempt_to
 .rodata.sqlite3__str_1003_interrupte
                0x00000000004fda85        0xc 0x1 build_aarch64/sqlite3.o
                0x00000000004fda85                sqlite3__str_1003_interrupte
 .rodata.sqlite3__str_1004_disk_I_O_e
                0x00000000004fda91        0xf 0x1 build_aarch64/sqlite3.o
                0x00000000004fda91                sqlite3__str_1004_disk_I_O_e
 .rodata.sqlite3__str_1005_database_d
                0x00000000004fdaa0       0x21 0x1 build_aarch64/sqlite3.o
                0x00000000004fdaa0                sqlite3__str_1005_database_d
 .rodata.sqlite3__str_1006_unknown_op
                0x00000000004fdac1       0x12 0x1 build_aarch64/sqlite3.o
                0x00000000004fdac1                sqlite3__str_1006_unknown_op
 .rodata.sqlite3__str_1007_database_o
                0x00000000004fdad3       0x19 0x1 build_aarch64/sqlite3.o
                0x00000000004fdad3                sqlite3__str_1007_database_o
 .rodata.sqlite3__str_1008_unable_to_
                0x00000000004fdaec       0x1d 0x1 build_aarch64/sqlite3.o
                0x00000000004fdaec                sqlite3__str_1008_unable_to_
 .rodata.sqlite3__str_1009_locking_pr
                0x00000000004fdb09       0x11 0x1 build_aarch64/sqlite3.o
                0x00000000004fdb09                sqlite3__str_1009_locking_pr
 .rodata.sqlite3__str_1010_constraint
                0x00000000004fdb1a       0x12 0x1 build_aarch64/sqlite3.o
                0x00000000004fdb1a                sqlite3__str_1010_constraint
 .rodata.sqlite3__str_1011_datatype_m
                0x00000000004fdb2c       0x12 0x1 build_aarch64/sqlite3.o
                0x00000000004fdb2c                sqlite3__str_1011_datatype_m
 .rodata.sqlite3__str_1012_bad_parame
                0x00000000004fdb3e       0x22 0x1 build_aarch64/sqlite3.o
                0x00000000004fdb3e                sqlite3__str_1012_bad_parame
 .rodata.sqlite3__str_1013_authorizat
                0x00000000004fdb60       0x15 0x1 build_aarch64/sqlite3.o
                0x00000000004fdb60                sqlite3__str_1013_authorizat
 .rodata.sqlite3__str_1014_column_ind
                0x00000000004fdb75       0x1a 0x1 build_aarch64/sqlite3.o
                0x00000000004fdb75                sqlite3__str_1014_column_ind
 .rodata.sqlite3__str_1015_file_is_no
                0x00000000004fdb8f       0x17 0x1 build_aarch64/sqlite3.o
                0x00000000004fdb8f                sqlite3__str_1015_file_is_no
 .rodata.sqlite3__str_1016_notificati
                0x00000000004fdba6       0x15 0x1 build_aarch64/sqlite3.o
                0x00000000004fdba6                sqlite3__str_1016_notificati
 .rodata.sqlite3__str_1017_warning_me
                0x00000000004fdbbb       0x10 0x1 build_aarch64/sqlite3.o
                0x00000000004fdbbb                sqlite3__str_1017_warning_me
 .rodata.sqlite3__str_1018_unknown_er
                0x00000000004fdbcb        0xe 0x1 build_aarch64/sqlite3.o
                0x00000000004fdbcb                sqlite3__str_1018_unknown_er
 .rodata.sqlite3__str_1019_abort_due_
                0x00000000004fdbd9       0x16 0x1 build_aarch64/sqlite3.o
                0x00000000004fdbd9                sqlite3__str_1019_abort_due_
 .rodata.sqlite3__str_1020_another_ro
                0x00000000004fdbef       0x16 0x1 build_aarch64/sqlite3.o
                0x00000000004fdbef                sqlite3__str_1020_another_ro
 .rodata.sqlite3__str_1021_no_more_ro
                0x00000000004fdc05       0x17 0x1 build_aarch64/sqlite3.o
                0x00000000004fdc05                sqlite3__str_1021_no_more_ro
 .rodata.sqlite3__str_1022_unable_to_
                0x00000000004fdc1c       0x3f 0x1 build_aarch64/sqlite3.o
                0x00000000004fdc1c                sqlite3__str_1022_unable_to_
 .rodata.sqlite3__str_1023_unable_to_
                0x00000000004fdc5b       0x33 0x1 build_aarch64/sqlite3.o
                0x00000000004fdc5b                sqlite3__str_1023_unable_to_
 .rodata.sqlite3__str_1024_main_
                0x00000000004fdc8e        0x5 0x1 build_aarch64/sqlite3.o
                0x00000000004fdc8e                sqlite3__str_1024_main_
 .rodata.sqlite3__str_1025_invalid_
                0x00000000004fdc93        0x8 0x1 build_aarch64/sqlite3.o
                0x00000000004fdc93                sqlite3__str_1025_invalid_
 .rodata.sqlite3__str_1026_RTRIM_
                0x00000000004fdc9b        0x6 0x1 build_aarch64/sqlite3.o
                0x00000000004fdc9b                sqlite3__str_1026_RTRIM_
 .rodata.sqlite3__str_1027_MATCH_
                0x00000000004fdca1        0x6 0x1 build_aarch64/sqlite3.o
                0x00000000004fdca1                sqlite3__str_1027_MATCH_
 .rodata.sqlite3__str_1028_automatic_
                0x00000000004fdca7       0x27 0x1 build_aarch64/sqlite3.o
                0x00000000004fdca7                sqlite3__str_1028_automatic_
 .rodata.sqlite3__str_1029_unable_to_
                0x00000000004fdcce       0x44 0x1 build_aarch64/sqlite3.o
                0x00000000004fdcce                sqlite3__str_1029_unable_to_
 .rodata.sqlite3__str_1030_misuse_
                0x00000000004fdd12        0x7 0x1 build_aarch64/sqlite3.o
                0x00000000004fdd12                sqlite3__str_1030_misuse_
 .rodata.sqlite3__str_1031__ROWID__
                0x00000000004fdd19        0x8 0x1 build_aarch64/sqlite3.o
                0x00000000004fdd19                sqlite3__str_1031__ROWID__
 .rodata.sqlite3__str_1032_OID_
                0x00000000004fdd21        0x4 0x1 build_aarch64/sqlite3.o
                0x00000000004fdd21                sqlite3__str_1032_OID_
 .rodata.sqlite3_c_sqlite3azCompileOpt
                0x00000000004fdd28       0x10 0x8 build_aarch64/sqlite3.o
 .rodata.sqlite3__str_1033_COMPILER_c
                0x00000000004fdd38       0x15 0x1 build_aarch64/sqlite3.o
                0x00000000004fdd38                sqlite3__str_1033_COMPILER_c
 .rodata.sqlite3__str_1034_THREADSAFE
                0x00000000004fdd4d        0xd 0x1 build_aarch64/sqlite3.o
                0x00000000004fdd4d                sqlite3__str_1034_THREADSAFE
 .rodata.sqlite3_switch_table_sqlite3Pragma_1037_
                0x00000000004fdd60       0x20 0x8 build_aarch64/sqlite3.o
                0x00000000004fdd60                sqlite3_switch_table_sqlite3Pragma_1037_
 .rodata.sqlite3_switch_table_multiSelectOrderBy_
                0x00000000004fdd80       0x18 0x8 build_aarch64/sqlite3.o
                0x00000000004fdd80                sqlite3_switch_table_multiSelectOrderBy_
 .rodata.sysconf
                0x00000000004fdd98        0xa 0x1 /usr/local/popcorn/aarch64/lib/libc.a(sysconf.o)
 .rodata.src_conf_sysconf_c_sysconf_values
                0x00000000004fdda2      0x1f2 0x2 /usr/local/popcorn/aarch64/lib/libc.a(sysconf.o)
 .rodata.src_env___libc_start_main__str_
                0x00000000004fdf94        0x1 0x1 /usr/local/popcorn/aarch64/lib/libc.a(__libc_start_main.o)
                0x00000000004fdf94                src_env___libc_start_main__str_
 .rodata.src_env___libc_start_main___const___init_libc_pfd_
                0x00000000004fdf98       0x18 0x4 /usr/local/popcorn/aarch64/lib/libc.a(__libc_start_main.o)
                0x00000000004fdf98                src_env___libc_start_main___const___init_libc_pfd_
 .rodata.src_env___libc_start_main__str_1__dev_null_
                0x00000000004fdfb0        0xa 0x1 /usr/local/popcorn/aarch64/lib/libc.a(__libc_start_main.o)
                0x00000000004fdfb0                src_env___libc_start_main__str_1__dev_null_
 .rodata.src_ldso_dlerror__str_Dynamic_li
                0x00000000004fdfba       0x3b 0x1 /usr/local/popcorn/aarch64/lib/libc.a(dlerror.o)
                0x00000000004fdfba                src_ldso_dlerror__str_Dynamic_li
 .rodata.src_ldso_dlerror__str_1_Invalid_li
                0x00000000004fdff5       0x1a 0x1 /usr/local/popcorn/aarch64/lib/libc.a(dlerror.o)
                0x00000000004fdff5                src_ldso_dlerror__str_1_Invalid_li
 .rodata.src_ldso_dlopen__str_Dynamic_lo
                0x00000000004fe00f       0x1e 0x1 /usr/local/popcorn/aarch64/lib/libc.a(dlopen.o)
                0x00000000004fe00f                src_ldso_dlopen__str_Dynamic_lo
 .rodata.src_malloc_malloc_c_bin_tab
                0x00000000004fe02d       0x3c 0x1 /usr/local/popcorn/aarch64/lib/libc.a(malloc.o)
 .rodata.src_malloc_popcorn_malloc_c_bin_tab
                0x00000000004fe069       0x3c 0x1 /usr/local/popcorn/aarch64/lib/libc.a(popcorn_malloc.o)
 .rodata.stderr
                0x00000000004fe0a8        0x8 0x8 /usr/local/popcorn/aarch64/lib/libc.a(stderr.o)
                0x00000000004fe0a8                stderr
 .rodata.stdout
                0x00000000004fe0b0        0x8 0x8 /usr/local/popcorn/aarch64/lib/libc.a(stdout.o)
                0x00000000004fe0b0                stdout
 .rodata.printf_core
                0x00000000004fe0b8       0x5c 0x2 /usr/local/popcorn/aarch64/lib/libc.a(vfprintf.o)
 .rodata.pop_arg
                0x00000000004fe114       0x12 0x1 /usr/local/popcorn/aarch64/lib/libc.a(vfprintf.o)
 .rodata.src_stdio_vfprintf__str______0X0x_
                0x00000000004fe126        0xa 0x1 /usr/local/popcorn/aarch64/lib/libc.a(vfprintf.o)
                0x00000000004fe126                src_stdio_vfprintf__str______0X0x_
 .rodata.src_stdio_vfprintf__str_1__null__
                0x00000000004fe130        0x7 0x1 /usr/local/popcorn/aarch64/lib/libc.a(vfprintf.o)
                0x00000000004fe130                src_stdio_vfprintf__str_1__null__
 .rodata.src_stdio_vfprintf_c_states
                0x00000000004fe137      0x1d0 0x1 /usr/local/popcorn/aarch64/lib/libc.a(vfprintf.o)
 .rodata.src_stdio_vfprintf__str_3__0X_0X_0X_
                0x00000000004fe307       0x13 0x1 /usr/local/popcorn/aarch64/lib/libc.a(vfprintf.o)
                0x00000000004fe307                src_stdio_vfprintf__str_3__0X_0X_0X_
 .rodata.src_stdio_vfprintf__str_4_inf_
                0x00000000004fe31a        0x4 0x1 /usr/local/popcorn/aarch64/lib/libc.a(vfprintf.o)
                0x00000000004fe31a                src_stdio_vfprintf__str_4_inf_
 .rodata.src_stdio_vfprintf__str_5_INF_
                0x00000000004fe31e        0x4 0x1 /usr/local/popcorn/aarch64/lib/libc.a(vfprintf.o)
                0x00000000004fe31e                src_stdio_vfprintf__str_5_INF_
 .rodata.src_stdio_vfprintf__str_6_nan_
                0x00000000004fe322        0x4 0x1 /usr/local/popcorn/aarch64/lib/libc.a(vfprintf.o)
                0x00000000004fe322                src_stdio_vfprintf__str_6_nan_
 .rodata.src_stdio_vfprintf__str_7_NAN_
                0x00000000004fe326        0x4 0x1 /usr/local/popcorn/aarch64/lib/libc.a(vfprintf.o)
                0x00000000004fe326                src_stdio_vfprintf__str_7_NAN_
 .rodata.src_stdio_vfprintf__str_8___
                0x00000000004fe32a        0x2 0x1 /usr/local/popcorn/aarch64/lib/libc.a(vfprintf.o)
                0x00000000004fe32a                src_stdio_vfprintf__str_8___
 .rodata.src_errno_strerror_c_errmsg
                0x00000000004fe32c      0x70c 0x1 /usr/local/popcorn/aarch64/lib/libc.a(strerror.o)
 .rodata.src_ldso___dlsym__str_Symbol_not
                0x00000000004fea38       0x15 0x1 /usr/local/popcorn/aarch64/lib/libc.a(__dlsym.o)
                0x00000000004fea38                src_ldso___dlsym__str_Symbol_not
 .rodata.src_signal_block_c_all_mask
                0x00000000004fea50        0x8 0x8 /usr/local/popcorn/aarch64/lib/libc.a(block.o)
 .rodata.src_signal_block_c_app_mask
                0x00000000004fea58        0x8 0x8 /usr/local/popcorn/aarch64/lib/libc.a(block.o)
 .rodata.vfscanf
                0x00000000004fea60       0xce 0x2 /usr/local/popcorn/aarch64/lib/libc.a(vfscanf.o)
 .rodata.src_time___secs_to_tm_c___secs_to_tm_days_in_month
                0x00000000004feb2e        0xc 0x1 /usr/local/popcorn/aarch64/lib/libc.a(__secs_to_tm.o)
 .rodata.__gmt  0x00000000004feb3a        0x4 0x1 /usr/local/popcorn/aarch64/lib/libc.a(__tz.o)
                0x00000000004feb3a                __gmt
 .rodata.src_time___tz__str_
                0x00000000004feb3e        0x1 0x1 /usr/local/popcorn/aarch64/lib/libc.a(__tz.o)
                0x00000000004feb3e                src_time___tz__str_
 .rodata.src_time___tz_c_do_tzset_search
                0x00000000004feb3f       0x36 0x1 /usr/local/popcorn/aarch64/lib/libc.a(__tz.o)
 .rodata.src_time___tz__str_1_TZ_
                0x00000000004feb75        0x3 0x1 /usr/local/popcorn/aarch64/lib/libc.a(__tz.o)
                0x00000000004feb75                src_time___tz__str_1_TZ_
 .rodata.src_time___tz__str_2__etc_local
                0x00000000004feb78        0xf 0x1 /usr/local/popcorn/aarch64/lib/libc.a(__tz.o)
                0x00000000004feb78                src_time___tz__str_2__etc_local
 .rodata.src_time___tz__str_3_TZif_
                0x00000000004feb87        0x5 0x1 /usr/local/popcorn/aarch64/lib/libc.a(__tz.o)
                0x00000000004feb87                src_time___tz__str_3_TZif_
 ** merge constants
                0x00000000004feb8c       0x20
 .rodata.src_internal_floatscan_switch_table___floatscan_
                0x00000000004febac        0xc 0x4 /usr/local/popcorn/aarch64/lib/libc.a(floatscan.o)
                0x00000000004febac                src_internal_floatscan_switch_table___floatscan_
 .rodata.src_internal_floatscan_switch_table___floatscan_2_
                0x00000000004febb8        0xc 0x4 /usr/local/popcorn/aarch64/lib/libc.a(floatscan.o)
                0x00000000004febb8                src_internal_floatscan_switch_table___floatscan_2_
 .rodata.src_internal_intscan_c_table
                0x00000000004febc4      0x101 0x1 /usr/local/popcorn/aarch64/lib/libc.a(intscan.o)
 .rodata.src_internal_intscan__str__________
                0x00000000004fecc5        0x9 0x1 /usr/local/popcorn/aarch64/lib/libc.a(intscan.o)
                0x00000000004fecc5                src_internal_intscan__str__________
 .rodata.src_time___month_to_secs_c___month_to_secs_secs_through_month
                0x00000000004fecd0       0x30 0x4 /usr/local/popcorn/aarch64/lib/libc.a(__month_to_secs.o)
 .rodata.__fsmu8
                0x00000000004fed00       0xcc 0x4 /usr/local/popcorn/aarch64/lib/libc.a(internal.o)
                0x00000000004fed00                __fsmu8

.llvm_pcn_stackmaps
                0x00000000004fedd0       0xe0
 .llvm_pcn_stackmaps
                0x00000000004fedd0       0x50 0x8 /usr/local/popcorn/aarch64/lib/libc.a(__libc_start_main.o)
 .llvm_pcn_stackmaps
                0x00000000004fee20       0x90 0x8 /usr/local/popcorn/aarch64/lib/libc.a(pthread_create.o)

.eh_frame       0x00000000004feeb0      0x340
 ** eh_frame    0x00000000004feeb0      0x340

.init_array     0x000000000050ff98       0x10
 .init_array    0x000000000050ff98        0x8 0x8 /usr/local/popcorn/aarch64/lib/libc.a(malloc.o)
 .init_array    0x000000000050ffa0        0x8 0x8 /usr/local/popcorn/aarch64/lib/libc.a(popcorn_malloc.o)

.got            0x000000000050ffa8       0x40
 ** GOT         0x000000000050ffa8       0x40

.got.plt        0x000000000050ffe8       0x18
 ** GOT PLT     0x000000000050ffe8       0x18
 ** GOT IRELATIVE PLT
                0x0000000000510000        0x0
 ** GOT         0x0000000000510000        0x0

.data           0x0000000000510000     0x2148
 .data.sqlite3_c_sqlite3Config
                0x0000000000510000      0x1b0 0x8 build_aarch64/sqlite3.o
 .data.sqlite3_c_sqlite3OomStr
                0x00000000005101b0       0x20 0x8 build_aarch64/sqlite3.o
 .data.sqlite3_c_sqlite3_os_init_aVfs
                0x00000000005101d0      0x2a0 0x8 build_aarch64/sqlite3.o
 .data.sqlite3_c_sqlite3PendingByte
                0x0000000000510470        0x4 0x4 build_aarch64/sqlite3.o
 .data.sqlite3_c_aSyscall
                0x0000000000510478      0x2b8 0x8 build_aarch64/sqlite3.o
 .data.sqlite3_c_unixTempFileDir_azDirs
                0x0000000000510730       0x30 0x8 build_aarch64/sqlite3.o
 .data.sqlite3_c_sqlite3RegisterBuiltinFunctions_aBuiltinFunc
                0x0000000000510760     0x1098 0x8 build_aarch64/sqlite3.o
 .data.sqlite3_c_sqlite3AlterFunctions_aAlterTableFuncs
                0x00000000005117f8       0xd8 0x8 build_aarch64/sqlite3.o
 .data.sqlite3_c_sqlite3WindowFunctions_aWindowFuncs
                0x00000000005118d0      0x438 0x8 build_aarch64/sqlite3.o
 .data.sqlite3_c_sqlite3RegisterDateTimeFunctions_aDateTimeFuncs
                0x0000000000511d08      0x240 0x8 build_aarch64/sqlite3.o
 .data.src_stdio_stderr_c_f
                0x0000000000511f48       0xe8 0x8 /usr/local/popcorn/aarch64/lib/libc.a(stderr.o)
 .data.__stderr_used
                0x0000000000512030        0x8 0x8 /usr/local/popcorn/aarch64/lib/libc.a(stderr.o)
                0x0000000000512030                __stderr_used
 .data.src_stdio_stdout_c_f
                0x0000000000512038       0xe8 0x8 /usr/local/popcorn/aarch64/lib/libc.a(stdout.o)
 .data.__stdout_used
                0x0000000000512120        0x8 0x8 /usr/local/popcorn/aarch64/lib/libc.a(stdout.o)
                0x0000000000512120                __stdout_used
 .data.__default_stacksize
                0x0000000000512128        0x8 0x8 /usr/local/popcorn/aarch64/lib/libc.a(pthread_create.o)
                0x0000000000512128                __default_stacksize
 .data.__default_guardsize
                0x0000000000512130        0x8 0x8 /usr/local/popcorn/aarch64/lib/libc.a(pthread_create.o)
                0x0000000000512130                __default_guardsize
 .data.src_time___tz_c_old_tz
                0x0000000000512138        0x8 0x8 /usr/local/popcorn/aarch64/lib/libc.a(__tz.o)
 .data.src_time___tz_c_old_tz_size
                0x0000000000512140        0x8 0x8 /usr/local/popcorn/aarch64/lib/libc.a(__tz.o)
 .data          0x0000000000512148        0x0 0x1 /usr/lib/gcc-cross/aarch64-linux-gnu/10/libgcc.a(addtf3.o)
 .data          0x0000000000512148        0x0 0x1 /usr/lib/gcc-cross/aarch64-linux-gnu/10/libgcc.a(divtf3.o)
 .data          0x0000000000512148        0x0 0x1 /usr/lib/gcc-cross/aarch64-linux-gnu/10/libgcc.a(eqtf2.o)
 .data          0x0000000000512148        0x0 0x1 /usr/lib/gcc-cross/aarch64-linux-gnu/10/libgcc.a(getf2.o)
 .data          0x0000000000512148        0x0 0x1 /usr/lib/gcc-cross/aarch64-linux-gnu/10/libgcc.a(letf2.o)
 .data          0x0000000000512148        0x0 0x1 /usr/lib/gcc-cross/aarch64-linux-gnu/10/libgcc.a(multf3.o)
 .data          0x0000000000512148        0x0 0x1 /usr/lib/gcc-cross/aarch64-linux-gnu/10/libgcc.a(subtf3.o)
 .data          0x0000000000512148        0x0 0x1 /usr/lib/gcc-cross/aarch64-linux-gnu/10/libgcc.a(unordtf2.o)
 .data          0x0000000000512148        0x0 0x1 /usr/lib/gcc-cross/aarch64-linux-gnu/10/libgcc.a(fixtfsi.o)
 .data          0x0000000000512148        0x0 0x1 /usr/lib/gcc-cross/aarch64-linux-gnu/10/libgcc.a(fixunstfsi.o)
 .data          0x0000000000512148        0x0 0x1 /usr/lib/gcc-cross/aarch64-linux-gnu/10/libgcc.a(floatsitf.o)
 .data          0x0000000000512148        0x0 0x1 /usr/lib/gcc-cross/aarch64-linux-gnu/10/libgcc.a(floatunsitf.o)
 .data          0x0000000000512148        0x0 0x1 /usr/lib/gcc-cross/aarch64-linux-gnu/10/libgcc.a(floatditf.o)
 .data          0x0000000000512148        0x0 0x1 /usr/lib/gcc-cross/aarch64-linux-gnu/10/libgcc.a(extendsftf2.o)
 .data          0x0000000000512148        0x0 0x1 /usr/lib/gcc-cross/aarch64-linux-gnu/10/libgcc.a(extenddftf2.o)
 .data          0x0000000000512148        0x0 0x1 /usr/lib/gcc-cross/aarch64-linux-gnu/10/libgcc.a(trunctfsf2.o)
 .data          0x0000000000512148        0x0 0x1 /usr/lib/gcc-cross/aarch64-linux-gnu/10/libgcc.a(trunctfdf2.o)
 .data          0x0000000000512148        0x0 0x1 /usr/lib/gcc-cross/aarch64-linux-gnu/10/libgcc.a(sfp-exceptions.o)

.bss            0x0000000000513000    0x23080
 .bss.last_op_finish_
                0x0000000000513000        0x8 0x8 build_aarch64/benchmark.o
                0x0000000000513000                last_op_finish_
 .bss.hist_     0x0000000000513008      0x4f8 0x8 build_aarch64/benchmark.o
                0x0000000000513008                hist_
 .bss.raw_      0x0000000000513500       0x18 0x8 build_aarch64/benchmark.o
                0x0000000000513500                raw_
 .bss.done_     0x0000000000513518        0x4 0x4 build_aarch64/benchmark.o
                0x0000000000513518                done_
 .bss.next_report_
                0x000000000051351c        0x4 0x4 build_aarch64/benchmark.o
                0x000000000051351c                next_report_
 .bss.db_       0x0000000000513520        0x8 0x8 build_aarch64/benchmark.o
                0x0000000000513520                db_
 .bss.db_num_   0x0000000000513528        0x4 0x4 build_aarch64/benchmark.o
                0x0000000000513528                db_num_
 .bss.num_      0x000000000051352c        0x4 0x4 build_aarch64/benchmark.o
                0x000000000051352c                num_
 .bss.reads_    0x0000000000513530        0x4 0x4 build_aarch64/benchmark.o
                0x0000000000513530                reads_
 .bss.bytes_    0x0000000000513538        0x8 0x8 build_aarch64/benchmark.o
                0x0000000000513538                bytes_
 .bss.gen_      0x0000000000513540       0x18 0x8 build_aarch64/benchmark.o
                0x0000000000513540                gen_
 .bss.rand_     0x0000000000513558        0x4 0x4 build_aarch64/benchmark.o
                0x0000000000513558                rand_
 .bss.message_  0x0000000000513560        0x8 0x8 build_aarch64/benchmark.o
                0x0000000000513560                message_
 .bss.start_    0x0000000000513568        0x8 0x8 build_aarch64/benchmark.o
                0x0000000000513568                start_
 .bss.FLAGS_benchmarks
                0x0000000000513570        0x8 0x8 build_aarch64/main.o
                0x0000000000513570                FLAGS_benchmarks
 .bss.FLAGS_num
                0x0000000000513578        0x4 0x4 build_aarch64/main.o
                0x0000000000513578                FLAGS_num
 .bss.FLAGS_reads
                0x000000000051357c        0x4 0x4 build_aarch64/main.o
                0x000000000051357c                FLAGS_reads
 .bss.FLAGS_value_size
                0x0000000000513580        0x4 0x4 build_aarch64/main.o
                0x0000000000513580                FLAGS_value_size
 .bss.FLAGS_histogram
                0x0000000000513584        0x1 0x4 build_aarch64/main.o
                0x0000000000513584                FLAGS_histogram
 .bss.FLAGS_raw
                0x0000000000513588        0x1 0x4 build_aarch64/main.o
                0x0000000000513588                FLAGS_raw
 .bss.FLAGS_compression_ratio
                0x0000000000513590        0x8 0x8 build_aarch64/main.o
                0x0000000000513590                FLAGS_compression_ratio
 .bss.FLAGS_page_size
                0x0000000000513598        0x4 0x4 build_aarch64/main.o
                0x0000000000513598                FLAGS_page_size
 .bss.FLAGS_num_pages
                0x000000000051359c        0x4 0x4 build_aarch64/main.o
                0x000000000051359c                FLAGS_num_pages
 .bss.FLAGS_use_existing_db
                0x00000000005135a0        0x1 0x4 build_aarch64/main.o
                0x00000000005135a0                FLAGS_use_existing_db
 .bss.FLAGS_transaction
                0x00000000005135a4        0x1 0x4 build_aarch64/main.o
                0x00000000005135a4                FLAGS_transaction
 .bss.FLAGS_WAL_enabled
                0x00000000005135a8        0x1 0x4 build_aarch64/main.o
                0x00000000005135a8                FLAGS_WAL_enabled
 .bss.FLAGS_db  0x00000000005135b0        0x8 0x8 build_aarch64/main.o
                0x00000000005135b0                FLAGS_db
 .bss.sqlite3_c_sqlite3Stat
                0x00000000005135b8       0xa0 0x8 build_aarch64/sqlite3.o
 .bss.sqlite3_c_vfsList
                0x0000000000513658        0x8 0x8 build_aarch64/sqlite3.o
 .bss.sqlite3_c_mem0
                0x0000000000513660       0x18 0x8 build_aarch64/sqlite3.o
 .bss.sqlite3_c_sqlite3Prng
                0x0000000000513678      0x103 0x4 build_aarch64/sqlite3.o
 .bss.sqlite3_c_unixBigLock
                0x0000000000513780        0x8 0x8 build_aarch64/sqlite3.o
 .bss.sqlite3_temp_directory
                0x0000000000513788        0x8 0x8 build_aarch64/sqlite3.o
                0x0000000000513788                sqlite3_temp_directory
 .bss.sqlite3_data_directory
                0x0000000000513790        0x8 0x8 build_aarch64/sqlite3.o
                0x0000000000513790                sqlite3_data_directory
 .bss.sqlite3_c_sqlite3BuiltinFunctions
                0x0000000000513798       0xb8 0x8 build_aarch64/sqlite3.o
 .bss.sqlite3_c_pthreadMutexAlloc_staticMutexes
                0x0000000000513850      0x1e0 0x8 build_aarch64/sqlite3.o
 .bss.sqlite3_c_inodeList
                0x0000000000513a30        0x8 0x8 build_aarch64/sqlite3.o
 .bss.sqlite3_c_randomnessPid
                0x0000000000513a38        0x4 0x4 build_aarch64/sqlite3.o
 .bss.sqlite3_c_pcache1_g
                0x0000000000513a40       0x90 0x8 build_aarch64/sqlite3.o
 .bss.sqlite3_c_sqlite3SharedCacheList
                0x0000000000513ad0        0x8 0x8 build_aarch64/sqlite3.o
 .bss.sqlite3_c_sqlite3VdbeExec_aZero
                0x0000000000513ad8       0x10 0x1 build_aarch64/sqlite3.o
 .bss.sqlite3_c_sqlite3BtreeFakeValidCursor_fakeCursor
                0x0000000000513ae8        0x1 0x1 build_aarch64/sqlite3.o
 .bss.sqlite3_c_findElementWithHash_nullElement
                0x0000000000513af0       0x20 0x8 build_aarch64/sqlite3.o
 .bss.sqlite3_c_sqlite3VdbeGetOp_dummy
                0x0000000000513b10       0x18 0x8 build_aarch64/sqlite3.o
 .bss.sqlite3_c_pcache1Create_dummyCurrentPage
                0x0000000000513b28        0x4 0x4 build_aarch64/sqlite3.o
 .bss.sqlite3_c_sqlite3SavedPrng
                0x0000000000513b2c      0x103 0x1 build_aarch64/sqlite3.o
 .bss.sqlite3_c_sqlite3Autoext_0
                0x0000000000513c30        0x4 0x8 build_aarch64/sqlite3.o
 .bss.sqlite3_c_sqlite3Autoext_1
                0x0000000000513c38        0x8 0x8 build_aarch64/sqlite3.o
 .bss.sqlite3_c_sqlite3Hooks_0
                0x0000000000513c40        0x8 0x8 build_aarch64/sqlite3.o
 .bss.sqlite3_c_sqlite3Hooks_1
                0x0000000000513c48        0x8 0x8 build_aarch64/sqlite3.o
 .bss.__popcorn_stack_base
                0x0000000000513c50        0x8 0x8 /usr/local/popcorn/aarch64/lib/libc.a(__libc_start_main.o)
                0x0000000000513c50                __popcorn_stack_base
 .bss.__progname
                0x0000000000513c58        0x8 0x8 /usr/local/popcorn/aarch64/lib/libc.a(libc.o)
                0x0000000000513c58                __progname
                0x0000000000513c58                program_invocation_short_name
 .bss.__progname_full
                0x0000000000513c60        0x8 0x8 /usr/local/popcorn/aarch64/lib/libc.a(libc.o)
                0x0000000000513c60                __progname_full
                0x0000000000513c60                program_invocation_name
 .bss.src_malloc_lite_malloc_c___simple_malloc_cur
                0x0000000000513c68        0x8 0x8 /usr/local/popcorn/aarch64/lib/libc.a(lite_malloc.o)
 .bss.src_malloc_lite_malloc_c___simple_malloc_end
                0x0000000000513c70        0x8 0x8 /usr/local/popcorn/aarch64/lib/libc.a(lite_malloc.o)
 .bss.src_malloc_lite_malloc_c___simple_malloc_lock
                0x0000000000513c78        0x8 0x4 /usr/local/popcorn/aarch64/lib/libc.a(lite_malloc.o)
 .bss.src_malloc_malloc_c_mal
                0x0000000000514000     0x1000 0x1000 /usr/local/popcorn/aarch64/lib/libc.a(malloc.o)
 .bss.src_malloc_malloc_c_expand_heap_heap_lock
                0x0000000000515000        0x8 0x4 /usr/local/popcorn/aarch64/lib/libc.a(malloc.o)
 .bss.src_malloc_malloc_c_expand_heap_end
                0x0000000000515008        0x8 0x8 /usr/local/popcorn/aarch64/lib/libc.a(malloc.o)
 .bss.src_malloc_popcorn_malloc_c_expand_heap_heap_lock
                0x0000000000515010      0x100 0x4 /usr/local/popcorn/aarch64/lib/libc.a(popcorn_malloc.o)
 .bss.src_malloc_popcorn_malloc_c_expand_heap_end
                0x0000000000515110      0x100 0x8 /usr/local/popcorn/aarch64/lib/libc.a(popcorn_malloc.o)
 .bss.src_stdio_fflush_c_dummy
                0x0000000000515210        0x8 0x8 /usr/local/popcorn/aarch64/lib/libc.a(fflush.o)
 .bss.src_stdio_ofl_c_ofl_lock
                0x0000000000515218        0x8 0x4 /usr/local/popcorn/aarch64/lib/libc.a(ofl.o)
 .bss.src_stdio_ofl_c_ofl_head
                0x0000000000515220        0x8 0x8 /usr/local/popcorn/aarch64/lib/libc.a(ofl.o)
 .bss.src_stdio_stderr_c_buf
                0x0000000000515228        0x8 0x1 /usr/local/popcorn/aarch64/lib/libc.a(stderr.o)
 .bss.src_stdio_stdout_c_buf
                0x0000000000515230      0x408 0x1 /usr/local/popcorn/aarch64/lib/libc.a(stdout.o)
 .bss.src_thread_pthread_create_c_dummy
                0x0000000000515638        0x8 0x8 /usr/local/popcorn/aarch64/lib/libc.a(pthread_create.o)
                0x0000000000515638                __pthread_tsd_size
 .bss.src_thread_pthread_create_c_dummy_tsd
                0x0000000000515640        0x8 0x8 /usr/local/popcorn/aarch64/lib/libc.a(pthread_create.o)
                0x0000000000515640                __pthread_tsd_main
 .bss.__block_new_threads
                0x0000000000515648        0x4 0x4 /usr/local/popcorn/aarch64/lib/libc.a(pthread_create.o)
                0x0000000000515648                __block_new_threads
 .bss.src_thread_pthread_create_c_dummy_file
                0x0000000000515650        0x8 0x8 /usr/local/popcorn/aarch64/lib/libc.a(pthread_create.o)
                0x0000000000515650                __stdin_used
 .bss.src_thread_vmlock_c_vmlock
                0x0000000000515658        0x8 0x4 /usr/local/popcorn/aarch64/lib/libc.a(vmlock.o)
 .bss.src_time_localtime_c_localtime_tm
                0x0000000000515660       0x38 0x8 /usr/local/popcorn/aarch64/lib/libc.a(localtime.o)
 .bss.__environ
                0x0000000000515698        0x8 0x8 /usr/local/popcorn/aarch64/lib/libc.a(__environ.o)
                0x0000000000515698                ___environ
                0x0000000000515698                __environ
                0x0000000000515698                _environ
                0x0000000000515698                environ
 .bss.src_env___init_tls_c_main_tls
                0x00000000005156a0       0x30 0x8 /usr/local/popcorn/aarch64/lib/libc.a(__init_tls.o)
 .bss.src_env___init_tls_c_builtin_tls
                0x00000000005156d0      0x1a8 0x8 /usr/local/popcorn/aarch64/lib/libc.a(__init_tls.o)
 .bss.src_malloc_expand_heap_c___expand_heap_brk
                0x0000000000515878        0x8 0x8 /usr/local/popcorn/aarch64/lib/libc.a(expand_heap.o)
 .bss.src_malloc_expand_heap_c___expand_heap_mmap_step
                0x0000000000515880        0x4 0x4 /usr/local/popcorn/aarch64/lib/libc.a(expand_heap.o)
 .bss.src_malloc_expand_heap_c___expand_heap_node_node_arenas
                0x0000000000515888      0x100 0x8 /usr/local/popcorn/aarch64/lib/libc.a(expand_heap.o)
 .bss.src_malloc_expand_heap_c___expand_heap_node_node_sizes
                0x0000000000515988      0x100 0x8 /usr/local/popcorn/aarch64/lib/libc.a(expand_heap.o)
 .bss.src_malloc_expand_heap_c_arena_start
                0x0000000000515a88        0x8 0x8 /usr/local/popcorn/aarch64/lib/libc.a(expand_heap.o)
 .bss.src_malloc_expand_heap_c_set_arena_start_lock
                0x0000000000515a90        0x8 0x4 /usr/local/popcorn/aarch64/lib/libc.a(expand_heap.o)
 .bss.__timezone
                0x0000000000515a98        0x8 0x8 /usr/local/popcorn/aarch64/lib/libc.a(__tz.o)
                0x0000000000515a98                __timezone
                0x0000000000515a98                timezone
 .bss.__daylight
                0x0000000000515aa0        0x4 0x4 /usr/local/popcorn/aarch64/lib/libc.a(__tz.o)
                0x0000000000515aa0                __daylight
                0x0000000000515aa0                daylight
 .bss.__tzname  0x0000000000515ab0       0x10 0x10 /usr/local/popcorn/aarch64/lib/libc.a(__tz.o)
                0x0000000000515ab0                __tzname
                0x0000000000515ab0                tzname
 .bss.src_time___tz_c_lock
                0x0000000000515ac0        0x8 0x4 /usr/local/popcorn/aarch64/lib/libc.a(__tz.o)
 .bss.src_time___tz_c_zi
                0x0000000000515ac8        0x8 0x8 /usr/local/popcorn/aarch64/lib/libc.a(__tz.o)
 .bss.src_time___tz_c_types
                0x0000000000515ad0        0x8 0x8 /usr/local/popcorn/aarch64/lib/libc.a(__tz.o)
 .bss.src_time___tz_c_abbrevs
                0x0000000000515ad8        0x8 0x8 /usr/local/popcorn/aarch64/lib/libc.a(__tz.o)
 .bss.src_time___tz_c_r0
                0x0000000000515ae0       0x14 0x4 /usr/local/popcorn/aarch64/lib/libc.a(__tz.o)
 .bss.src_time___tz_c_r1
                0x0000000000515af4       0x14 0x4 /usr/local/popcorn/aarch64/lib/libc.a(__tz.o)
 .bss.src_time___tz_c_dst_off
                0x0000000000515b08        0x4 0x4 /usr/local/popcorn/aarch64/lib/libc.a(__tz.o)
 .bss.src_time___tz_c_abbrevs_end
                0x0000000000515b10        0x8 0x8 /usr/local/popcorn/aarch64/lib/libc.a(__tz.o)
 .bss.src_time___tz_c_map_size
                0x0000000000515b18        0x8 0x8 /usr/local/popcorn/aarch64/lib/libc.a(__tz.o)
 .bss.src_time___tz_c_trans
                0x0000000000515b20        0x8 0x8 /usr/local/popcorn/aarch64/lib/libc.a(__tz.o)
 .bss.src_time___tz_c_index
                0x0000000000515b28        0x8 0x8 /usr/local/popcorn/aarch64/lib/libc.a(__tz.o)
 .bss.src_time___tz_c_std_name
                0x0000000000515b30        0x7 0x1 /usr/local/popcorn/aarch64/lib/libc.a(__tz.o)
 .bss.src_time___tz_c_dst_name
                0x0000000000515b38        0x7 0x4 /usr/local/popcorn/aarch64/lib/libc.a(__tz.o)
 .bss.src_time___tz_c_old_tz_buf
                0x0000000000515b3f       0x20 0x1 /usr/local/popcorn/aarch64/lib/libc.a(__tz.o)
 .bss.src_multibyte_mbrtowc_c_mbrtowc_internal_state
                0x0000000000515b60        0x4 0x4 /usr/local/popcorn/aarch64/lib/libc.a(mbrtowc.o)
 .bss.src_stdio___stdio_exit_c_dummy_file
                0x0000000000515b68        0x8 0x8 /usr/local/popcorn/aarch64/lib/libc.a(__stdio_exit.o)
 .bss           0x0000000000515b70        0x0 0x1 /usr/lib/gcc-cross/aarch64-linux-gnu/10/libgcc.a(addtf3.o)
 .bss           0x0000000000515b70        0x0 0x1 /usr/lib/gcc-cross/aarch64-linux-gnu/10/libgcc.a(divtf3.o)
 .bss           0x0000000000515b70        0x0 0x1 /usr/lib/gcc-cross/aarch64-linux-gnu/10/libgcc.a(eqtf2.o)
 .bss           0x0000000000515b70        0x0 0x1 /usr/lib/gcc-cross/aarch64-linux-gnu/10/libgcc.a(getf2.o)
 .bss           0x0000000000515b70        0x0 0x1 /usr/lib/gcc-cross/aarch64-linux-gnu/10/libgcc.a(letf2.o)
 .bss           0x0000000000515b70        0x0 0x1 /usr/lib/gcc-cross/aarch64-linux-gnu/10/libgcc.a(multf3.o)
 .bss           0x0000000000515b70        0x0 0x1 /usr/lib/gcc-cross/aarch64-linux-gnu/10/libgcc.a(subtf3.o)
 .bss           0x0000000000515b70        0x0 0x1 /usr/lib/gcc-cross/aarch64-linux-gnu/10/libgcc.a(unordtf2.o)
 .bss           0x0000000000515b70        0x0 0x1 /usr/lib/gcc-cross/aarch64-linux-gnu/10/libgcc.a(fixtfsi.o)
 .bss           0x0000000000515b70        0x0 0x1 /usr/lib/gcc-cross/aarch64-linux-gnu/10/libgcc.a(fixunstfsi.o)
 .bss           0x0000000000515b70        0x0 0x1 /usr/lib/gcc-cross/aarch64-linux-gnu/10/libgcc.a(floatsitf.o)
 .bss           0x0000000000515b70        0x0 0x1 /usr/lib/gcc-cross/aarch64-linux-gnu/10/libgcc.a(floatunsitf.o)
 .bss           0x0000000000515b70        0x0 0x1 /usr/lib/gcc-cross/aarch64-linux-gnu/10/libgcc.a(floatditf.o)
 .bss           0x0000000000515b70        0x0 0x1 /usr/lib/gcc-cross/aarch64-linux-gnu/10/libgcc.a(extendsftf2.o)
 .bss           0x0000000000515b70        0x0 0x1 /usr/lib/gcc-cross/aarch64-linux-gnu/10/libgcc.a(extenddftf2.o)
 .bss           0x0000000000515b70        0x0 0x1 /usr/lib/gcc-cross/aarch64-linux-gnu/10/libgcc.a(trunctfsf2.o)
 .bss           0x0000000000515b70        0x0 0x1 /usr/lib/gcc-cross/aarch64-linux-gnu/10/libgcc.a(trunctfdf2.o)
 .bss           0x0000000000515b70        0x0 0x1 /usr/lib/gcc-cross/aarch64-linux-gnu/10/libgcc.a(sfp-exceptions.o)
 ** common      0x0000000000516000    0x20080

.debug_str      0x0000000000000000    0x153bc
 ** merge strings
                0x0000000000000000    0x153bc

.debug_loc      0x0000000000000000   0x2b1b3f
 .debug_loc     0x0000000000000000      0xf24 0x1 build_aarch64/benchmark.o
 .debug_loc     0x0000000000000f24      0x4e4 0x1 build_aarch64/histogram.o
 .debug_loc     0x0000000000001408      0x34e 0x1 build_aarch64/main.o
 .debug_loc     0x0000000000001756      0x393 0x1 build_aarch64/random.o
 .debug_loc     0x0000000000001ae9      0x2c1 0x1 build_aarch64/raw.o
 .debug_loc     0x0000000000001daa   0x28c1ec 0x1 build_aarch64/sqlite3.o
 .debug_loc     0x000000000028df96      0x206 0x1 build_aarch64/util.o
 .debug_loc     0x000000000028e19c       0x7c 0x1 /usr/local/popcorn/aarch64/lib/crt1.o
 .debug_loc     0x000000000028e218      0x184 0x1 /usr/local/popcorn/aarch64/lib/libc.a(sysconf.o)
 .debug_loc     0x000000000028e39c       0x59 0x1 /usr/local/popcorn/aarch64/lib/libc.a(closedir.o)
 .debug_loc     0x000000000028e3f5       0xf9 0x1 /usr/local/popcorn/aarch64/lib/libc.a(opendir.o)
 .debug_loc     0x000000000028e4ee      0x1d7 0x1 /usr/local/popcorn/aarch64/lib/libc.a(readdir.o)
 .debug_loc     0x000000000028e6c5      0x566 0x1 /usr/local/popcorn/aarch64/lib/libc.a(__libc_start_main.o)
 .debug_loc     0x000000000028ec2b       0xb5 0x1 /usr/local/popcorn/aarch64/lib/libc.a(getenv.o)
 .debug_loc     0x000000000028ece0       0x23 0x1 /usr/local/popcorn/aarch64/lib/libc.a(__errno_location.o)
 .debug_loc     0x000000000028ed03       0x7f 0x1 /usr/local/popcorn/aarch64/lib/libc.a(exit.o)
 .debug_loc     0x000000000028ed82      0xd0d 0x1 /usr/local/popcorn/aarch64/lib/libc.a(fcntl.o)
 .debug_loc     0x000000000028fa8f      0x211 0x1 /usr/local/popcorn/aarch64/lib/libc.a(open.o)
 .debug_loc     0x000000000028fca0       0x23 0x1 /usr/local/popcorn/aarch64/lib/libc.a(syscall_ret.o)
 .debug_loc     0x000000000028fcc3       0x23 0x1 /usr/local/popcorn/aarch64/lib/libc.a(dlclose.o)
 .debug_loc     0x000000000028fce6      0x234 0x1 /usr/local/popcorn/aarch64/lib/libc.a(dlerror.o)
 .debug_loc     0x000000000028ff1a       0x46 0x1 /usr/local/popcorn/aarch64/lib/libc.a(dlopen.o)
 .debug_loc     0x000000000028ff60       0x69 0x1 /usr/local/popcorn/aarch64/lib/libc.a(sysinfo.o)
 .debug_loc     0x000000000028ffc9       0x7f 0x1 /usr/local/popcorn/aarch64/lib/libc.a(utimes.o)
 .debug_loc     0x0000000000290048      0x20c 0x1 /usr/local/popcorn/aarch64/lib/libc.a(calloc.o)
 .debug_loc     0x0000000000290254      0x193 0x1 /usr/local/popcorn/aarch64/lib/libc.a(lite_malloc.o)
 .debug_loc     0x00000000002903e7     0x3771 0x1 /usr/local/popcorn/aarch64/lib/libc.a(malloc.o)
 .debug_loc     0x0000000000293b58     0x607f 0x1 /usr/local/popcorn/aarch64/lib/libc.a(popcorn_malloc.o)
 .debug_loc     0x0000000000299bd7      0x2dc 0x1 /usr/local/popcorn/aarch64/lib/libc.a(getrlimit.o)
 .debug_loc     0x0000000000299eb3      0x187 0x1 /usr/local/popcorn/aarch64/lib/libc.a(madvise.o)
 .debug_loc     0x000000000029a03a      0x44e 0x1 /usr/local/popcorn/aarch64/lib/libc.a(mmap.o)
 .debug_loc     0x000000000029a488      0x32d 0x1 /usr/local/popcorn/aarch64/lib/libc.a(mremap.o)
 .debug_loc     0x000000000029a7b5      0x131 0x1 /usr/local/popcorn/aarch64/lib/libc.a(munmap.o)
 .debug_loc     0x000000000029a8e6      0x367 0x1 /usr/local/popcorn/aarch64/lib/libc.a(fchmod.o)
 .debug_loc     0x000000000029ac4d      0x43f 0x1 /usr/local/popcorn/aarch64/lib/libc.a(fstat.o)
 .debug_loc     0x000000000029b08c       0xd8 0x1 /usr/local/popcorn/aarch64/lib/libc.a(futimesat.o)
 .debug_loc     0x000000000029b164      0x18b 0x1 /usr/local/popcorn/aarch64/lib/libc.a(lstat.o)
 .debug_loc     0x000000000029b2ef      0x1a1 0x1 /usr/local/popcorn/aarch64/lib/libc.a(mkdir.o)
 .debug_loc     0x000000000029b490      0x178 0x1 /usr/local/popcorn/aarch64/lib/libc.a(stat.o)
 .debug_loc     0x000000000029b608      0x1f0 0x1 /usr/local/popcorn/aarch64/lib/libc.a(utimensat.o)
 .debug_loc     0x000000000029b7f8      0x111 0x1 /usr/local/popcorn/aarch64/lib/libc.a(fflush.o)
 .debug_loc     0x000000000029b909       0x69 0x1 /usr/local/popcorn/aarch64/lib/libc.a(fprintf.o)
 .debug_loc     0x000000000029b972       0x7f 0x1 /usr/local/popcorn/aarch64/lib/libc.a(fputc.o)
 .debug_loc     0x000000000029b9f1      0x2da 0x1 /usr/local/popcorn/aarch64/lib/libc.a(fwrite.o)
 .debug_loc     0x000000000029bccb      0x200 0x1 /usr/local/popcorn/aarch64/lib/libc.a(remove.o)
 .debug_loc     0x000000000029becb       0x8c 0x1 /usr/local/popcorn/aarch64/lib/libc.a(snprintf.o)
 .debug_loc     0x000000000029bf57       0x69 0x1 /usr/local/popcorn/aarch64/lib/libc.a(sscanf.o)
 .debug_loc     0x000000000029bfc0     0x3d72 0x1 /usr/local/popcorn/aarch64/lib/libc.a(vfprintf.o)
 .debug_loc     0x000000000029fd32      0x1d3 0x1 /usr/local/popcorn/aarch64/lib/libc.a(vsnprintf.o)
 .debug_loc     0x000000000029ff05      0x144 0x1 /usr/local/popcorn/aarch64/lib/libc.a(vsscanf.o)
 .debug_loc     0x00000000002a0049       0xeb 0x1 /usr/local/popcorn/aarch64/lib/libc.a(memcmp.o)
 .debug_loc     0x00000000002a0134      0x9a3 0x1 /usr/local/popcorn/aarch64/lib/libc.a(memcpy.o)
 .debug_loc     0x00000000002a0ad7      0x370 0x1 /usr/local/popcorn/aarch64/lib/libc.a(memmove.o)
 .debug_loc     0x00000000002a0e47      0x15a 0x1 /usr/local/popcorn/aarch64/lib/libc.a(memset.o)
 .debug_loc     0x00000000002a0fa1       0x7f 0x1 /usr/local/popcorn/aarch64/lib/libc.a(strcat.o)
 .debug_loc     0x00000000002a1020       0x7c 0x1 /usr/local/popcorn/aarch64/lib/libc.a(strchr.o)
 .debug_loc     0x00000000002a109c      0x14a 0x1 /usr/local/popcorn/aarch64/lib/libc.a(strchrnul.o)
 .debug_loc     0x00000000002a11e6       0x46 0x1 /usr/local/popcorn/aarch64/lib/libc.a(strcmp.o)
 .debug_loc     0x00000000002a122c       0x59 0x1 /usr/local/popcorn/aarch64/lib/libc.a(strcpy.o)
 .debug_loc     0x00000000002a1285       0xa5 0x1 /usr/local/popcorn/aarch64/lib/libc.a(strcspn.o)
 .debug_loc     0x00000000002a132a      0x129 0x1 /usr/local/popcorn/aarch64/lib/libc.a(strlen.o)
 .debug_loc     0x00000000002a1453      0x102 0x1 /usr/local/popcorn/aarch64/lib/libc.a(strncmp.o)
 .debug_loc     0x00000000002a1555       0x7c 0x1 /usr/local/popcorn/aarch64/lib/libc.a(strncpy.o)
 .debug_loc     0x00000000002a15d1       0x8f 0x1 /usr/local/popcorn/aarch64/lib/libc.a(strnlen.o)
 .debug_loc     0x00000000002a1660      0x457 0x1 /usr/local/popcorn/aarch64/lib/libc.a(__lock.o)
 .debug_loc     0x00000000002a1ab7      0x1ea 0x1 /usr/local/popcorn/aarch64/lib/libc.a(__syscall_cp.o)
 .debug_loc     0x00000000002a1ca1      0x5cb 0x1 /usr/local/popcorn/aarch64/lib/libc.a(__wait.o)
 .debug_loc     0x00000000002a226c     0x1a4b 0x1 /usr/local/popcorn/aarch64/lib/libc.a(pthread_create.o)
 .debug_loc     0x00000000002a3cb7      0x252 0x1 /usr/local/popcorn/aarch64/lib/libc.a(pthread_join.o)
 .debug_loc     0x00000000002a3f09       0x23 0x1 /usr/local/popcorn/aarch64/lib/libc.a(pthread_mutex_destroy.o)
 .debug_loc     0x00000000002a3f2c       0x23 0x1 /usr/local/popcorn/aarch64/lib/libc.a(pthread_mutex_init.o)
 .debug_loc     0x00000000002a3f4f      0x18a 0x1 /usr/local/popcorn/aarch64/lib/libc.a(pthread_mutex_lock.o)
 .debug_loc     0x00000000002a40d9      0x67a 0x1 /usr/local/popcorn/aarch64/lib/libc.a(pthread_mutex_timedlock.o)
 .debug_loc     0x00000000002a4753      0x558 0x1 /usr/local/popcorn/aarch64/lib/libc.a(pthread_mutex_trylock.o)
 .debug_loc     0x00000000002a4cab      0x55b 0x1 /usr/local/popcorn/aarch64/lib/libc.a(pthread_mutex_unlock.o)
 .debug_loc     0x00000000002a5206       0x23 0x1 /usr/local/popcorn/aarch64/lib/libc.a(pthread_mutexattr_destroy.o)
 .debug_loc     0x00000000002a5229       0x23 0x1 /usr/local/popcorn/aarch64/lib/libc.a(pthread_mutexattr_init.o)
 .debug_loc     0x00000000002a524c       0x49 0x1 /usr/local/popcorn/aarch64/lib/libc.a(pthread_mutexattr_settype.o)
 .debug_loc     0x00000000002a5295       0x6c 0x1 /usr/local/popcorn/aarch64/lib/libc.a(pthread_setcancelstate.o)
 .debug_loc     0x00000000002a5301      0x4d1 0x1 /usr/local/popcorn/aarch64/lib/libc.a(vmlock.o)
 .debug_loc     0x00000000002a57d2       0x7d 0x1 /usr/local/popcorn/aarch64/lib/libc.a(gettimeofday.o)
 .debug_loc     0x00000000002a584f       0x23 0x1 /usr/local/popcorn/aarch64/lib/libc.a(localtime.o)
 .debug_loc     0x00000000002a5872       0x59 0x1 /usr/local/popcorn/aarch64/lib/libc.a(localtime_r.o)
 .debug_loc     0x00000000002a58cb       0x5a 0x1 /usr/local/popcorn/aarch64/lib/libc.a(time.o)
 .debug_loc     0x00000000002a5925      0x1eb 0x1 /usr/local/popcorn/aarch64/lib/libc.a(access.o)
 .debug_loc     0x00000000002a5b10       0x46 0x1 /usr/local/popcorn/aarch64/lib/libc.a(close.o)
 .debug_loc     0x00000000002a5b56      0x460 0x1 /usr/local/popcorn/aarch64/lib/libc.a(fchown.o)
 .debug_loc     0x00000000002a5fb6       0x23 0x1 /usr/local/popcorn/aarch64/lib/libc.a(fsync.o)
 .debug_loc     0x00000000002a5fd9      0x11c 0x1 /usr/local/popcorn/aarch64/lib/libc.a(ftruncate.o)
 .debug_loc     0x00000000002a60f5      0x1de 0x1 /usr/local/popcorn/aarch64/lib/libc.a(getcwd.o)
 .debug_loc     0x00000000002a62d3      0x185 0x1 /usr/local/popcorn/aarch64/lib/libc.a(lseek.o)
 .debug_loc     0x00000000002a6458       0x8f 0x1 /usr/local/popcorn/aarch64/lib/libc.a(read.o)
 .debug_loc     0x00000000002a64e7      0x1ad 0x1 /usr/local/popcorn/aarch64/lib/libc.a(readlink.o)
 .debug_loc     0x00000000002a6694       0xb5 0x1 /usr/local/popcorn/aarch64/lib/libc.a(rmdir.o)
 .debug_loc     0x00000000002a6749       0x47 0x1 /usr/local/popcorn/aarch64/lib/libc.a(sleep.o)
 .debug_loc     0x00000000002a6790       0xb5 0x1 /usr/local/popcorn/aarch64/lib/libc.a(unlink.o)
 .debug_loc     0x00000000002a6845       0x8f 0x1 /usr/local/popcorn/aarch64/lib/libc.a(write.o)
 .debug_loc     0x00000000002a68d4      0x5c3 0x1 /usr/local/popcorn/aarch64/lib/libc.a(__init_tls.o)
 .debug_loc     0x00000000002a6e97      0x24f 0x1 /usr/local/popcorn/aarch64/lib/libc.a(platform.o)
 .debug_loc     0x00000000002a70e6      0x159 0x1 /usr/local/popcorn/aarch64/lib/libc.a(strerror.o)
 .debug_loc     0x00000000002a723f       0x8c 0x1 /usr/local/popcorn/aarch64/lib/libc.a(_Exit.o)
 .debug_loc     0x00000000002a72cb       0xf2 0x1 /usr/local/popcorn/aarch64/lib/libc.a(procfdname.o)
 .debug_loc     0x00000000002a73bd       0x69 0x1 /usr/local/popcorn/aarch64/lib/libc.a(__dlsym.o)
 .debug_loc     0x00000000002a7426       0x8c 0x1 /usr/local/popcorn/aarch64/lib/libc.a(__lctrans.o)
 .debug_loc     0x00000000002a74b2      0xced 0x1 /usr/local/popcorn/aarch64/lib/libc.a(expand_heap.o)
 .debug_loc     0x00000000002a819f       0x88 0x1 /usr/local/popcorn/aarch64/lib/libc.a(__fpclassifyl.o)
 .debug_loc     0x00000000002a8227      0x104 0x1 /usr/local/popcorn/aarch64/lib/libc.a(frexpl.o)
 .debug_loc     0x00000000002a832b      0x118 0x1 /usr/local/popcorn/aarch64/lib/libc.a(mprotect.o)
 .debug_loc     0x00000000002a8443       0x46 0x1 /usr/local/popcorn/aarch64/lib/libc.a(wctomb.o)
 .debug_loc     0x00000000002a8489      0x19d 0x1 /usr/local/popcorn/aarch64/lib/libc.a(block.o)
 .debug_loc     0x00000000002a8626      0x4bf 0x1 /usr/local/popcorn/aarch64/lib/libc.a(__lockfile.o)
 .debug_loc     0x00000000002a8ae5      0x105 0x1 /usr/local/popcorn/aarch64/lib/libc.a(__overflow.o)
 .debug_loc     0x00000000002a8bea       0xb3 0x1 /usr/local/popcorn/aarch64/lib/libc.a(__stdio_close.o)
 .debug_loc     0x00000000002a8c9d      0x13b 0x1 /usr/local/popcorn/aarch64/lib/libc.a(__stdio_seek.o)
 .debug_loc     0x00000000002a8dd8      0x3c1 0x1 /usr/local/popcorn/aarch64/lib/libc.a(__stdio_write.o)
 .debug_loc     0x00000000002a9199      0x1ca 0x1 /usr/local/popcorn/aarch64/lib/libc.a(__stdout_write.o)
 .debug_loc     0x00000000002a9363      0x11e 0x1 /usr/local/popcorn/aarch64/lib/libc.a(__string_read.o)
 .debug_loc     0x00000000002a9481       0x23 0x1 /usr/local/popcorn/aarch64/lib/libc.a(__towrite.o)
 .debug_loc     0x00000000002a94a4     0x1413 0x1 /usr/local/popcorn/aarch64/lib/libc.a(vfscanf.o)
 .debug_loc     0x00000000002aa8b7      0x131 0x1 /usr/local/popcorn/aarch64/lib/libc.a(memchr.o)
 .debug_loc     0x00000000002aa9e8       0xeb 0x1 /usr/local/popcorn/aarch64/lib/libc.a(stpcpy.o)
 .debug_loc     0x00000000002aaad3      0x193 0x1 /usr/local/popcorn/aarch64/lib/libc.a(stpncpy.o)
 .debug_loc     0x00000000002aac66       0x7c 0x1 /usr/local/popcorn/aarch64/lib/libc.a(strdup.o)
 .debug_loc     0x00000000002aace2      0x36d 0x1 /usr/local/popcorn/aarch64/lib/libc.a(__timedwait.o)
 .debug_loc     0x00000000002ab04f      0x2c0 0x1 /usr/local/popcorn/aarch64/lib/libc.a(__secs_to_tm.o)
 .debug_loc     0x00000000002ab30f     0x13ba 0x1 /usr/local/popcorn/aarch64/lib/libc.a(__tz.o)
 .debug_loc     0x00000000002ac6c9      0x228 0x1 /usr/local/popcorn/aarch64/lib/libc.a(__year_to_secs.o)
 .debug_loc     0x00000000002ac8f1      0x230 0x1 /usr/local/popcorn/aarch64/lib/libc.a(clock_gettime.o)
 .debug_loc     0x00000000002acb21       0x6c 0x1 /usr/local/popcorn/aarch64/lib/libc.a(nanosleep.o)
 .debug_loc     0x00000000002acb8d     0x34e8 0x1 /usr/local/popcorn/aarch64/lib/libc.a(floatscan.o)
 .debug_loc     0x00000000002b0075      0x732 0x1 /usr/local/popcorn/aarch64/lib/libc.a(intscan.o)
 .debug_loc     0x00000000002b07a7       0x92 0x1 /usr/local/popcorn/aarch64/lib/libc.a(shgetc.o)
 .debug_loc     0x00000000002b0839       0x24 0x1 /usr/local/popcorn/aarch64/lib/libc.a(copysignl.o)
 .debug_loc     0x00000000002b085d      0x5da 0x1 /usr/local/popcorn/aarch64/lib/libc.a(fmodl.o)
 .debug_loc     0x00000000002b0e37      0x168 0x1 /usr/local/popcorn/aarch64/lib/libc.a(scalbn.o)
 .debug_loc     0x00000000002b0f9f      0x16b 0x1 /usr/local/popcorn/aarch64/lib/libc.a(scalbnl.o)
 .debug_loc     0x00000000002b110a      0x2e3 0x1 /usr/local/popcorn/aarch64/lib/libc.a(mbrtowc.o)
 .debug_loc     0x00000000002b13ed       0x36 0x1 /usr/local/popcorn/aarch64/lib/libc.a(mbsinit.o)
 .debug_loc     0x00000000002b1423      0x1a2 0x1 /usr/local/popcorn/aarch64/lib/libc.a(wcrtomb.o)
 .debug_loc     0x00000000002b15c5       0x59 0x1 /usr/local/popcorn/aarch64/lib/libc.a(__stdio_exit.o)
 .debug_loc     0x00000000002b161e       0x6e 0x1 /usr/local/popcorn/aarch64/lib/libc.a(__uflow.o)
 .debug_loc     0x00000000002b168c      0x424 0x1 /usr/local/popcorn/aarch64/lib/libc.a(__map_file.o)
 .debug_loc     0x00000000002b1ab0       0x59 0x1 /usr/local/popcorn/aarch64/lib/libc.a(__month_to_secs.o)
 .debug_loc     0x00000000002b1b09       0x36 0x1 /usr/local/popcorn/aarch64/lib/libc.a(__toread.o)

.debug_abbrev   0x0000000000000000     0x8b4c
 .debug_abbrev  0x0000000000000000      0x22f 0x1 build_aarch64/benchmark.o
 .debug_abbrev  0x000000000000022f      0x15a 0x1 build_aarch64/histogram.o
 .debug_abbrev  0x0000000000000389       0xbf 0x1 build_aarch64/main.o
 .debug_abbrev  0x0000000000000448      0x157 0x1 build_aarch64/random.o
 .debug_abbrev  0x000000000000059f      0x11f 0x1 build_aarch64/raw.o
 .debug_abbrev  0x00000000000006be      0x621 0x1 build_aarch64/sqlite3.o
 .debug_abbrev  0x0000000000000cdf       0xd1 0x1 build_aarch64/util.o
 .debug_abbrev  0x0000000000000db0       0x5e 0x1 /usr/local/popcorn/aarch64/lib/crt1.o
 .debug_abbrev  0x0000000000000e0e      0x12b 0x1 /usr/local/popcorn/aarch64/lib/libc.a(sysconf.o)
 .debug_abbrev  0x0000000000000f39       0xaf 0x1 /usr/local/popcorn/aarch64/lib/libc.a(closedir.o)
 .debug_abbrev  0x0000000000000fe8      0x104 0x1 /usr/local/popcorn/aarch64/lib/libc.a(opendir.o)
 .debug_abbrev  0x00000000000010ec      0x109 0x1 /usr/local/popcorn/aarch64/lib/libc.a(readdir.o)
 .debug_abbrev  0x00000000000011f5      0x1a7 0x1 /usr/local/popcorn/aarch64/lib/libc.a(__libc_start_main.o)
 .debug_abbrev  0x000000000000139c       0x76 0x1 /usr/local/popcorn/aarch64/lib/libc.a(getenv.o)
 .debug_abbrev  0x0000000000001412      0x123 0x1 /usr/local/popcorn/aarch64/lib/libc.a(__errno_location.o)
 .debug_abbrev  0x0000000000001535       0x97 0x1 /usr/local/popcorn/aarch64/lib/libc.a(exit.o)
 .debug_abbrev  0x00000000000015cc       0xe9 0x1 /usr/local/popcorn/aarch64/lib/libc.a(fcntl.o)
 .debug_abbrev  0x00000000000016b5       0xea 0x1 /usr/local/popcorn/aarch64/lib/libc.a(open.o)
 .debug_abbrev  0x000000000000179f       0x93 0x1 /usr/local/popcorn/aarch64/lib/libc.a(libc.o)
 .debug_abbrev  0x0000000000001832       0x45 0x1 /usr/local/popcorn/aarch64/lib/libc.a(syscall_ret.o)
 .debug_abbrev  0x0000000000001877       0x28 0x1 /usr/local/popcorn/aarch64/lib/libc.a(dlsym.o)
 .debug_abbrev  0x000000000000189f       0x4a 0x1 /usr/local/popcorn/aarch64/lib/libc.a(dlclose.o)
 .debug_abbrev  0x00000000000018e9      0x170 0x1 /usr/local/popcorn/aarch64/lib/libc.a(dlerror.o)
 .debug_abbrev  0x0000000000001a59       0x56 0x1 /usr/local/popcorn/aarch64/lib/libc.a(dlopen.o)
 .debug_abbrev  0x0000000000001aaf       0xec 0x1 /usr/local/popcorn/aarch64/lib/libc.a(sysinfo.o)
 .debug_abbrev  0x0000000000001b9b       0x7c 0x1 /usr/local/popcorn/aarch64/lib/libc.a(utimes.o)
 .debug_abbrev  0x0000000000001c17       0xa3 0x1 /usr/local/popcorn/aarch64/lib/libc.a(calloc.o)
 .debug_abbrev  0x0000000000001cba       0xa3 0x1 /usr/local/popcorn/aarch64/lib/libc.a(lite_malloc.o)
 .debug_abbrev  0x0000000000001d5d      0x2a6 0x1 /usr/local/popcorn/aarch64/lib/libc.a(malloc.o)
 .debug_abbrev  0x0000000000002003      0x29f 0x1 /usr/local/popcorn/aarch64/lib/libc.a(popcorn_malloc.o)
 .debug_abbrev  0x00000000000022a2       0x45 0x1 /usr/local/popcorn/aarch64/lib/libc.a(sqrt.o)
 .debug_abbrev  0x00000000000022e7      0x10e 0x1 /usr/local/popcorn/aarch64/lib/libc.a(getrlimit.o)
 .debug_abbrev  0x00000000000023f5       0xa3 0x1 /usr/local/popcorn/aarch64/lib/libc.a(madvise.o)
 .debug_abbrev  0x0000000000002498       0xc5 0x1 /usr/local/popcorn/aarch64/lib/libc.a(mmap.o)
 .debug_abbrev  0x000000000000255d       0xe6 0x1 /usr/local/popcorn/aarch64/lib/libc.a(mremap.o)
 .debug_abbrev  0x0000000000002643       0xca 0x1 /usr/local/popcorn/aarch64/lib/libc.a(munmap.o)
 .debug_abbrev  0x000000000000270d       0xeb 0x1 /usr/local/popcorn/aarch64/lib/libc.a(fchmod.o)
 .debug_abbrev  0x00000000000027f8      0x17b 0x1 /usr/local/popcorn/aarch64/lib/libc.a(fstat.o)
 .debug_abbrev  0x0000000000002973       0xbc 0x1 /usr/local/popcorn/aarch64/lib/libc.a(futimesat.o)
 .debug_abbrev  0x0000000000002a2f      0x136 0x1 /usr/local/popcorn/aarch64/lib/libc.a(lstat.o)
 .debug_abbrev  0x0000000000002b65       0xac 0x1 /usr/local/popcorn/aarch64/lib/libc.a(mkdir.o)
 .debug_abbrev  0x0000000000002c11      0x136 0x1 /usr/local/popcorn/aarch64/lib/libc.a(stat.o)
 .debug_abbrev  0x0000000000002d47       0xc8 0x1 /usr/local/popcorn/aarch64/lib/libc.a(utimensat.o)
 .debug_abbrev  0x0000000000002e0f       0xf7 0x1 /usr/local/popcorn/aarch64/lib/libc.a(fflush.o)
 .debug_abbrev  0x0000000000002f06       0xbf 0x1 /usr/local/popcorn/aarch64/lib/libc.a(fprintf.o)
 .debug_abbrev  0x0000000000002fc5       0xc9 0x1 /usr/local/popcorn/aarch64/lib/libc.a(fputc.o)
 .debug_abbrev  0x000000000000308e       0xf8 0x1 /usr/local/popcorn/aarch64/lib/libc.a(fwrite.o)
 .debug_abbrev  0x0000000000003186       0xde 0x1 /usr/local/popcorn/aarch64/lib/libc.a(ofl.o)
 .debug_abbrev  0x0000000000003264       0xc2 0x1 /usr/local/popcorn/aarch64/lib/libc.a(remove.o)
 .debug_abbrev  0x0000000000003326       0xa9 0x1 /usr/local/popcorn/aarch64/lib/libc.a(snprintf.o)
 .debug_abbrev  0x00000000000033cf       0xa9 0x1 /usr/local/popcorn/aarch64/lib/libc.a(sscanf.o)
 .debug_abbrev  0x0000000000003478       0xbf 0x1 /usr/local/popcorn/aarch64/lib/libc.a(stderr.o)
 .debug_abbrev  0x0000000000003537       0xc8 0x1 /usr/local/popcorn/aarch64/lib/libc.a(stdout.o)
 .debug_abbrev  0x00000000000035ff      0x266 0x1 /usr/local/popcorn/aarch64/lib/libc.a(vfprintf.o)
 .debug_abbrev  0x0000000000003865      0x12d 0x1 /usr/local/popcorn/aarch64/lib/libc.a(vsnprintf.o)
 .debug_abbrev  0x0000000000003992      0x111 0x1 /usr/local/popcorn/aarch64/lib/libc.a(vsscanf.o)
 .debug_abbrev  0x0000000000003aa3       0x83 0x1 /usr/local/popcorn/aarch64/lib/libc.a(memcmp.o)
 .debug_abbrev  0x0000000000003b26       0x8f 0x1 /usr/local/popcorn/aarch64/lib/libc.a(memcpy.o)
 .debug_abbrev  0x0000000000003bb5       0x79 0x1 /usr/local/popcorn/aarch64/lib/libc.a(memmove.o)
 .debug_abbrev  0x0000000000003c2e       0x7c 0x1 /usr/local/popcorn/aarch64/lib/libc.a(memset.o)
 .debug_abbrev  0x0000000000003caa       0x5a 0x1 /usr/local/popcorn/aarch64/lib/libc.a(strcat.o)
 .debug_abbrev  0x0000000000003d04       0x62 0x1 /usr/local/popcorn/aarch64/lib/libc.a(strchr.o)
 .debug_abbrev  0x0000000000003d66       0x74 0x1 /usr/local/popcorn/aarch64/lib/libc.a(strchrnul.o)
 .debug_abbrev  0x0000000000003dda       0x53 0x1 /usr/local/popcorn/aarch64/lib/libc.a(strcmp.o)
 .debug_abbrev  0x0000000000003e2d       0x5a 0x1 /usr/local/popcorn/aarch64/lib/libc.a(strcpy.o)
 .debug_abbrev  0x0000000000003e87       0x97 0x1 /usr/local/popcorn/aarch64/lib/libc.a(strcspn.o)
 .debug_abbrev  0x0000000000003f1e       0x74 0x1 /usr/local/popcorn/aarch64/lib/libc.a(strlen.o)
 .debug_abbrev  0x0000000000003f92       0x83 0x1 /usr/local/popcorn/aarch64/lib/libc.a(strncmp.o)
 .debug_abbrev  0x0000000000004015       0x67 0x1 /usr/local/popcorn/aarch64/lib/libc.a(strncpy.o)
 .debug_abbrev  0x000000000000407c       0x6f 0x1 /usr/local/popcorn/aarch64/lib/libc.a(strnlen.o)
 .debug_abbrev  0x00000000000040eb       0xd1 0x1 /usr/local/popcorn/aarch64/lib/libc.a(__lock.o)
 .debug_abbrev  0x00000000000041bc       0x67 0x1 /usr/local/popcorn/aarch64/lib/libc.a(__syscall_cp.o)
 .debug_abbrev  0x0000000000004223       0xdb 0x1 /usr/local/popcorn/aarch64/lib/libc.a(__wait.o)
 .debug_abbrev  0x00000000000042fe      0x282 0x1 /usr/local/popcorn/aarch64/lib/libc.a(pthread_create.o)
 .debug_abbrev  0x0000000000004580      0x18c 0x1 /usr/local/popcorn/aarch64/lib/libc.a(pthread_join.o)
 .debug_abbrev  0x000000000000470c       0xa5 0x1 /usr/local/popcorn/aarch64/lib/libc.a(pthread_mutex_destroy.o)
 .debug_abbrev  0x00000000000047b1       0xe9 0x1 /usr/local/popcorn/aarch64/lib/libc.a(pthread_mutex_init.o)
 .debug_abbrev  0x000000000000489a      0x120 0x1 /usr/local/popcorn/aarch64/lib/libc.a(pthread_mutex_lock.o)
 .debug_abbrev  0x00000000000049ba      0x1d2 0x1 /usr/local/popcorn/aarch64/lib/libc.a(pthread_mutex_timedlock.o)
 .debug_abbrev  0x0000000000004b8c      0x1a0 0x1 /usr/local/popcorn/aarch64/lib/libc.a(pthread_mutex_trylock.o)
 .debug_abbrev  0x0000000000004d2c      0x189 0x1 /usr/local/popcorn/aarch64/lib/libc.a(pthread_mutex_unlock.o)
 .debug_abbrev  0x0000000000004eb5       0x73 0x1 /usr/local/popcorn/aarch64/lib/libc.a(pthread_mutexattr_destroy.o)
 .debug_abbrev  0x0000000000004f28       0x73 0x1 /usr/local/popcorn/aarch64/lib/libc.a(pthread_mutexattr_init.o)
 .debug_abbrev  0x0000000000004f9b       0x82 0x1 /usr/local/popcorn/aarch64/lib/libc.a(pthread_mutexattr_settype.o)
 .debug_abbrev  0x000000000000501d      0x150 0x1 /usr/local/popcorn/aarch64/lib/libc.a(pthread_setcancelstate.o)
 .debug_abbrev  0x000000000000516d       0x38 0x1 /usr/local/popcorn/aarch64/lib/libc.a(pthread_testcancel.o)
 .debug_abbrev  0x00000000000051a5       0xe4 0x1 /usr/local/popcorn/aarch64/lib/libc.a(vmlock.o)
 .debug_abbrev  0x0000000000005289       0x90 0x1 /usr/local/popcorn/aarch64/lib/libc.a(gettimeofday.o)
 .debug_abbrev  0x0000000000005319       0x8b 0x1 /usr/local/popcorn/aarch64/lib/libc.a(localtime.o)
 .debug_abbrev  0x00000000000053a4       0x83 0x1 /usr/local/popcorn/aarch64/lib/libc.a(localtime_r.o)
 .debug_abbrev  0x0000000000005427       0x84 0x1 /usr/local/popcorn/aarch64/lib/libc.a(time.o)
 .debug_abbrev  0x00000000000054ab       0x9f 0x1 /usr/local/popcorn/aarch64/lib/libc.a(access.o)
 .debug_abbrev  0x000000000000554a       0x78 0x1 /usr/local/popcorn/aarch64/lib/libc.a(close.o)
 .debug_abbrev  0x00000000000055c2       0xeb 0x1 /usr/local/popcorn/aarch64/lib/libc.a(fchown.o)
 .debug_abbrev  0x00000000000056ad       0x45 0x1 /usr/local/popcorn/aarch64/lib/libc.a(fsync.o)
 .debug_abbrev  0x00000000000056f2       0x9e 0x1 /usr/local/popcorn/aarch64/lib/libc.a(ftruncate.o)
 .debug_abbrev  0x0000000000005790       0xd1 0x1 /usr/local/popcorn/aarch64/lib/libc.a(getcwd.o)
 .debug_abbrev  0x0000000000005861       0x98 0x1 /usr/local/popcorn/aarch64/lib/libc.a(geteuid.o)
 .debug_abbrev  0x00000000000058f9       0x98 0x1 /usr/local/popcorn/aarch64/lib/libc.a(getpid.o)
 .debug_abbrev  0x0000000000005991       0x9e 0x1 /usr/local/popcorn/aarch64/lib/libc.a(lseek.o)
 .debug_abbrev  0x0000000000005a2f       0x57 0x1 /usr/local/popcorn/aarch64/lib/libc.a(read.o)
 .debug_abbrev  0x0000000000005a86       0xc7 0x1 /usr/local/popcorn/aarch64/lib/libc.a(readlink.o)
 .debug_abbrev  0x0000000000005b4d       0xb3 0x1 /usr/local/popcorn/aarch64/lib/libc.a(rmdir.o)
 .debug_abbrev  0x0000000000005c00       0x7d 0x1 /usr/local/popcorn/aarch64/lib/libc.a(sleep.o)
 .debug_abbrev  0x0000000000005c7d       0xb3 0x1 /usr/local/popcorn/aarch64/lib/libc.a(unlink.o)
 .debug_abbrev  0x0000000000005d30       0x5e 0x1 /usr/local/popcorn/aarch64/lib/libc.a(write.o)
 .debug_abbrev  0x0000000000005d8e       0x33 0x1 /usr/local/popcorn/aarch64/lib/libc.a(__environ.o)
 .debug_abbrev  0x0000000000005dc1      0x1b3 0x1 /usr/local/popcorn/aarch64/lib/libc.a(__init_tls.o)
 .debug_abbrev  0x0000000000005f74       0xec 0x1 /usr/local/popcorn/aarch64/lib/libc.a(platform.o)
 .debug_abbrev  0x0000000000006060      0x155 0x1 /usr/local/popcorn/aarch64/lib/libc.a(strerror.o)
 .debug_abbrev  0x00000000000061b5       0xaf 0x1 /usr/local/popcorn/aarch64/lib/libc.a(_Exit.o)
 .debug_abbrev  0x0000000000006264       0x28 0x1 /usr/local/popcorn/aarch64/lib/libc.a(syscall.o)
 .debug_abbrev  0x000000000000628c       0x68 0x1 /usr/local/popcorn/aarch64/lib/libc.a(procfdname.o)
 .debug_abbrev  0x00000000000062f4       0x5d 0x1 /usr/local/popcorn/aarch64/lib/libc.a(__dlsym.o)
 .debug_abbrev  0x0000000000006351      0x152 0x1 /usr/local/popcorn/aarch64/lib/libc.a(__lctrans.o)
 .debug_abbrev  0x00000000000064a3      0x14b 0x1 /usr/local/popcorn/aarch64/lib/libc.a(expand_heap.o)
 .debug_abbrev  0x00000000000065ee       0x88 0x1 /usr/local/popcorn/aarch64/lib/libc.a(__fpclassifyl.o)
 .debug_abbrev  0x0000000000006676       0x88 0x1 /usr/local/popcorn/aarch64/lib/libc.a(__signbitl.o)
 .debug_abbrev  0x00000000000066fe       0x8f 0x1 /usr/local/popcorn/aarch64/lib/libc.a(frexpl.o)
 .debug_abbrev  0x000000000000678d       0xdb 0x1 /usr/local/popcorn/aarch64/lib/libc.a(mprotect.o)
 .debug_abbrev  0x0000000000006868       0x59 0x1 /usr/local/popcorn/aarch64/lib/libc.a(wctomb.o)
 .debug_abbrev  0x00000000000068c1       0xeb 0x1 /usr/local/popcorn/aarch64/lib/libc.a(block.o)
 .debug_abbrev  0x00000000000069ac      0x1c2 0x1 /usr/local/popcorn/aarch64/lib/libc.a(__lockfile.o)
 .debug_abbrev  0x0000000000006b6e       0xd8 0x1 /usr/local/popcorn/aarch64/lib/libc.a(__overflow.o)
 .debug_abbrev  0x0000000000006c46      0x139 0x1 /usr/local/popcorn/aarch64/lib/libc.a(__stdio_close.o)
 .debug_abbrev  0x0000000000006d7f      0x129 0x1 /usr/local/popcorn/aarch64/lib/libc.a(__stdio_seek.o)
 .debug_abbrev  0x0000000000006ea8      0x14f 0x1 /usr/local/popcorn/aarch64/lib/libc.a(__stdio_write.o)
 .debug_abbrev  0x0000000000006ff7      0x117 0x1 /usr/local/popcorn/aarch64/lib/libc.a(__stdout_write.o)
 .debug_abbrev  0x000000000000710e       0xd8 0x1 /usr/local/popcorn/aarch64/lib/libc.a(__string_read.o)
 .debug_abbrev  0x00000000000071e6       0xdc 0x1 /usr/local/popcorn/aarch64/lib/libc.a(__towrite.o)
 .debug_abbrev  0x00000000000072c2      0x1cc 0x1 /usr/local/popcorn/aarch64/lib/libc.a(vfscanf.o)
 .debug_abbrev  0x000000000000748e       0x82 0x1 /usr/local/popcorn/aarch64/lib/libc.a(memchr.o)
 .debug_abbrev  0x0000000000007510       0x80 0x1 /usr/local/popcorn/aarch64/lib/libc.a(stpcpy.o)
 .debug_abbrev  0x0000000000007590       0x8d 0x1 /usr/local/popcorn/aarch64/lib/libc.a(stpncpy.o)
 .debug_abbrev  0x000000000000761d       0x6f 0x1 /usr/local/popcorn/aarch64/lib/libc.a(strdup.o)
 .debug_abbrev  0x000000000000768c       0xae 0x1 /usr/local/popcorn/aarch64/lib/libc.a(__timedwait.o)
 .debug_abbrev  0x000000000000773a       0x28 0x1 /usr/local/popcorn/aarch64/lib/libc.a(__cleartid_exit_nostack.o)
 .debug_abbrev  0x0000000000007762       0x28 0x1 /usr/local/popcorn/aarch64/lib/libc.a(__set_thread_area.o)
 .debug_abbrev  0x000000000000778a       0x28 0x1 /usr/local/popcorn/aarch64/lib/libc.a(__unmapself.o)
 .debug_abbrev  0x00000000000077b2       0x28 0x1 /usr/local/popcorn/aarch64/lib/libc.a(clone.o)
 .debug_abbrev  0x00000000000077da       0xc4 0x1 /usr/local/popcorn/aarch64/lib/libc.a(__secs_to_tm.o)
 .debug_abbrev  0x000000000000789e      0x25e 0x1 /usr/local/popcorn/aarch64/lib/libc.a(__tz.o)
 .debug_abbrev  0x0000000000007afc       0x62 0x1 /usr/local/popcorn/aarch64/lib/libc.a(__year_to_secs.o)
 .debug_abbrev  0x0000000000007b5e       0xf1 0x1 /usr/local/popcorn/aarch64/lib/libc.a(clock_gettime.o)
 .debug_abbrev  0x0000000000007c4f       0x7c 0x1 /usr/local/popcorn/aarch64/lib/libc.a(nanosleep.o)
 .debug_abbrev  0x0000000000007ccb      0x1d1 0x1 /usr/local/popcorn/aarch64/lib/libc.a(floatscan.o)
 .debug_abbrev  0x0000000000007e9c      0x147 0x1 /usr/local/popcorn/aarch64/lib/libc.a(intscan.o)
 .debug_abbrev  0x0000000000007fe3       0xfc 0x1 /usr/local/popcorn/aarch64/lib/libc.a(shgetc.o)
 .debug_abbrev  0x00000000000080df       0x45 0x1 /usr/local/popcorn/aarch64/lib/libc.a(fabs.o)
 .debug_abbrev  0x0000000000008124       0x97 0x1 /usr/local/popcorn/aarch64/lib/libc.a(copysignl.o)
 .debug_abbrev  0x00000000000081bb       0x88 0x1 /usr/local/popcorn/aarch64/lib/libc.a(fmodl.o)
 .debug_abbrev  0x0000000000008243       0x7b 0x1 /usr/local/popcorn/aarch64/lib/libc.a(scalbn.o)
 .debug_abbrev  0x00000000000082be       0x88 0x1 /usr/local/popcorn/aarch64/lib/libc.a(scalbnl.o)
 .debug_abbrev  0x0000000000008346      0x17c 0x1 /usr/local/popcorn/aarch64/lib/libc.a(mbrtowc.o)
 .debug_abbrev  0x00000000000084c2       0x7c 0x1 /usr/local/popcorn/aarch64/lib/libc.a(mbsinit.o)
 .debug_abbrev  0x000000000000853e      0x151 0x1 /usr/local/popcorn/aarch64/lib/libc.a(wcrtomb.o)
 .debug_abbrev  0x000000000000868f       0xf8 0x1 /usr/local/popcorn/aarch64/lib/libc.a(__stdio_exit.o)
 .debug_abbrev  0x0000000000008787       0xd8 0x1 /usr/local/popcorn/aarch64/lib/libc.a(__uflow.o)
 .debug_abbrev  0x000000000000885f      0x122 0x1 /usr/local/popcorn/aarch64/lib/libc.a(__map_file.o)
 .debug_abbrev  0x0000000000008981       0x94 0x1 /usr/local/popcorn/aarch64/lib/libc.a(__month_to_secs.o)
 .debug_abbrev  0x0000000000008a15       0x5b 0x1 /usr/local/popcorn/aarch64/lib/libc.a(internal.o)
 .debug_abbrev  0x0000000000008a70       0xdc 0x1 /usr/local/popcorn/aarch64/lib/libc.a(__toread.o)

.debug_info     0x0000000000000000   0x101c98
 .debug_info    0x0000000000000000      0xc92 0x1 build_aarch64/benchmark.o
 .debug_info    0x0000000000000c92      0x42b 0x1 build_aarch64/histogram.o
 .debug_info    0x00000000000010bd      0x248 0x1 build_aarch64/main.o
 .debug_info    0x0000000000001305      0x3d8 0x1 build_aarch64/random.o
 .debug_info    0x00000000000016dd      0x294 0x1 build_aarch64/raw.o
 .debug_info    0x0000000000001971    0xe3d82 0x1 build_aarch64/sqlite3.o
 .debug_info    0x00000000000e56f3      0x1fb 0x1 build_aarch64/util.o
 .debug_info    0x00000000000e58ee       0x93 0x1 /usr/local/popcorn/aarch64/lib/crt1.o
 .debug_info    0x00000000000e5981      0x2cb 0x1 /usr/local/popcorn/aarch64/lib/libc.a(sysconf.o)
 .debug_info    0x00000000000e5c4c      0x10a 0x1 /usr/local/popcorn/aarch64/lib/libc.a(closedir.o)
 .debug_info    0x00000000000e5d56      0x195 0x1 /usr/local/popcorn/aarch64/lib/libc.a(opendir.o)
 .debug_info    0x00000000000e5eeb      0x25a 0x1 /usr/local/popcorn/aarch64/lib/libc.a(readdir.o)
 .debug_info    0x00000000000e6145      0x40d 0x1 /usr/local/popcorn/aarch64/lib/libc.a(__libc_start_main.o)
 .debug_info    0x00000000000e6552       0xa5 0x1 /usr/local/popcorn/aarch64/lib/libc.a(getenv.o)
 .debug_info    0x00000000000e65f7      0x3a8 0x1 /usr/local/popcorn/aarch64/lib/libc.a(__errno_location.o)
 .debug_info    0x00000000000e699f       0xb0 0x1 /usr/local/popcorn/aarch64/lib/libc.a(exit.o)
 .debug_info    0x00000000000e6a4f      0x56d 0x1 /usr/local/popcorn/aarch64/lib/libc.a(fcntl.o)
 .debug_info    0x00000000000e6fbc      0x1e2 0x1 /usr/local/popcorn/aarch64/lib/libc.a(open.o)
 .debug_info    0x00000000000e719e      0x1d7 0x1 /usr/local/popcorn/aarch64/lib/libc.a(libc.o)
 .debug_info    0x00000000000e7375       0x62 0x1 /usr/local/popcorn/aarch64/lib/libc.a(syscall_ret.o)
 .debug_info    0x00000000000e73d7      0x105 0x1 /usr/local/popcorn/aarch64/lib/libc.a(dlsym.o)
 .debug_info    0x00000000000e74dc       0x5c 0x1 /usr/local/popcorn/aarch64/lib/libc.a(dlclose.o)
 .debug_info    0x00000000000e7538      0x559 0x1 /usr/local/popcorn/aarch64/lib/libc.a(dlerror.o)
 .debug_info    0x00000000000e7a91       0x7c 0x1 /usr/local/popcorn/aarch64/lib/libc.a(dlopen.o)
 .debug_info    0x00000000000e7b0d      0x1c3 0x1 /usr/local/popcorn/aarch64/lib/libc.a(sysinfo.o)
 .debug_info    0x00000000000e7cd0       0xc6 0x1 /usr/local/popcorn/aarch64/lib/libc.a(utimes.o)
 .debug_info    0x00000000000e7d96      0x136 0x1 /usr/local/popcorn/aarch64/lib/libc.a(calloc.o)
 .debug_info    0x00000000000e7ecc      0x12d 0x1 /usr/local/popcorn/aarch64/lib/libc.a(lite_malloc.o)
 .debug_info    0x00000000000e7ff9     0x1efa 0x1 /usr/local/popcorn/aarch64/lib/libc.a(malloc.o)
 .debug_info    0x00000000000e9ef3     0x302d 0x1 /usr/local/popcorn/aarch64/lib/libc.a(popcorn_malloc.o)
 .debug_info    0x00000000000ecf20       0x5a 0x1 /usr/local/popcorn/aarch64/lib/libc.a(sqrt.o)
 .debug_info    0x00000000000ecf7a      0x257 0x1 /usr/local/popcorn/aarch64/lib/libc.a(getrlimit.o)
 .debug_info    0x00000000000ed1d1      0x14d 0x1 /usr/local/popcorn/aarch64/lib/libc.a(madvise.o)
 .debug_info    0x00000000000ed31e      0x221 0x1 /usr/local/popcorn/aarch64/lib/libc.a(mmap.o)
 .debug_info    0x00000000000ed53f      0x234 0x1 /usr/local/popcorn/aarch64/lib/libc.a(mremap.o)
 .debug_info    0x00000000000ed773      0x12f 0x1 /usr/local/popcorn/aarch64/lib/libc.a(munmap.o)
 .debug_info    0x00000000000ed8a2      0x25b 0x1 /usr/local/popcorn/aarch64/lib/libc.a(fchmod.o)
 .debug_info    0x00000000000edafd      0x544 0x1 /usr/local/popcorn/aarch64/lib/libc.a(fstat.o)
 .debug_info    0x00000000000ee041      0x12f 0x1 /usr/local/popcorn/aarch64/lib/libc.a(futimesat.o)
 .debug_info    0x00000000000ee170      0x3d6 0x1 /usr/local/popcorn/aarch64/lib/libc.a(lstat.o)
 .debug_info    0x00000000000ee546      0x14e 0x1 /usr/local/popcorn/aarch64/lib/libc.a(mkdir.o)
 .debug_info    0x00000000000ee694      0x3d4 0x1 /usr/local/popcorn/aarch64/lib/libc.a(stat.o)
 .debug_info    0x00000000000eea68      0x1c6 0x1 /usr/local/popcorn/aarch64/lib/libc.a(utimensat.o)
 .debug_info    0x00000000000eec2e      0x35c 0x1 /usr/local/popcorn/aarch64/lib/libc.a(fflush.o)
 .debug_info    0x00000000000eef8a      0x112 0x1 /usr/local/popcorn/aarch64/lib/libc.a(fprintf.o)
 .debug_info    0x00000000000ef09c      0x310 0x1 /usr/local/popcorn/aarch64/lib/libc.a(fputc.o)
 .debug_info    0x00000000000ef3ac      0x3d7 0x1 /usr/local/popcorn/aarch64/lib/libc.a(fwrite.o)
 .debug_info    0x00000000000ef783      0x341 0x1 /usr/local/popcorn/aarch64/lib/libc.a(ofl.o)
 .debug_info    0x00000000000efac4      0x193 0x1 /usr/local/popcorn/aarch64/lib/libc.a(remove.o)
 .debug_info    0x00000000000efc57      0x122 0x1 /usr/local/popcorn/aarch64/lib/libc.a(snprintf.o)
 .debug_info    0x00000000000efd79       0xf7 0x1 /usr/local/popcorn/aarch64/lib/libc.a(sscanf.o)
 .debug_info    0x00000000000efe70      0x336 0x1 /usr/local/popcorn/aarch64/lib/libc.a(stderr.o)
 .debug_info    0x00000000000f01a6      0x337 0x1 /usr/local/popcorn/aarch64/lib/libc.a(stdout.o)
 .debug_info    0x00000000000f04dd     0x118d 0x1 /usr/local/popcorn/aarch64/lib/libc.a(vfprintf.o)
 .debug_info    0x00000000000f166a      0x468 0x1 /usr/local/popcorn/aarch64/lib/libc.a(vsnprintf.o)
 .debug_info    0x00000000000f1ad2      0x3d1 0x1 /usr/local/popcorn/aarch64/lib/libc.a(vsscanf.o)
 .debug_info    0x00000000000f1ea3       0xbe 0x1 /usr/local/popcorn/aarch64/lib/libc.a(memcmp.o)
 .debug_info    0x00000000000f1f61      0x112 0x1 /usr/local/popcorn/aarch64/lib/libc.a(memcpy.o)
 .debug_info    0x00000000000f2073       0xcf 0x1 /usr/local/popcorn/aarch64/lib/libc.a(memmove.o)
 .debug_info    0x00000000000f2142      0x118 0x1 /usr/local/popcorn/aarch64/lib/libc.a(memset.o)
 .debug_info    0x00000000000f225a       0x83 0x1 /usr/local/popcorn/aarch64/lib/libc.a(strcat.o)
 .debug_info    0x00000000000f22dd       0x9b 0x1 /usr/local/popcorn/aarch64/lib/libc.a(strchr.o)
 .debug_info    0x00000000000f2378       0xcd 0x1 /usr/local/popcorn/aarch64/lib/libc.a(strchrnul.o)
 .debug_info    0x00000000000f2445       0x87 0x1 /usr/local/popcorn/aarch64/lib/libc.a(strcmp.o)
 .debug_info    0x00000000000f24cc       0x83 0x1 /usr/local/popcorn/aarch64/lib/libc.a(strcpy.o)
 .debug_info    0x00000000000f254f       0xbe 0x1 /usr/local/popcorn/aarch64/lib/libc.a(strcspn.o)
 .debug_info    0x00000000000f260d       0xb0 0x1 /usr/local/popcorn/aarch64/lib/libc.a(strlen.o)
 .debug_info    0x00000000000f26bd       0xca 0x1 /usr/local/popcorn/aarch64/lib/libc.a(strncmp.o)
 .debug_info    0x00000000000f2787       0xa4 0x1 /usr/local/popcorn/aarch64/lib/libc.a(strncpy.o)
 .debug_info    0x00000000000f282b       0x95 0x1 /usr/local/popcorn/aarch64/lib/libc.a(strnlen.o)
 .debug_info    0x00000000000f28c0      0x376 0x1 /usr/local/popcorn/aarch64/lib/libc.a(__lock.o)
 .debug_info    0x00000000000f2c36      0x143 0x1 /usr/local/popcorn/aarch64/lib/libc.a(__syscall_cp.o)
 .debug_info    0x00000000000f2d79      0x3db 0x1 /usr/local/popcorn/aarch64/lib/libc.a(__wait.o)
 .debug_info    0x00000000000f3154     0x1440 0x1 /usr/local/popcorn/aarch64/lib/libc.a(pthread_create.o)
 .debug_info    0x00000000000f4594      0x4f6 0x1 /usr/local/popcorn/aarch64/lib/libc.a(pthread_join.o)
 .debug_info    0x00000000000f4a8a       0xe0 0x1 /usr/local/popcorn/aarch64/lib/libc.a(pthread_mutex_destroy.o)
 .debug_info    0x00000000000f4b6a      0x127 0x1 /usr/local/popcorn/aarch64/lib/libc.a(pthread_mutex_init.o)
 .debug_info    0x00000000000f4c91      0x213 0x1 /usr/local/popcorn/aarch64/lib/libc.a(pthread_mutex_lock.o)
 .debug_info    0x00000000000f4ea4      0x825 0x1 /usr/local/popcorn/aarch64/lib/libc.a(pthread_mutex_timedlock.o)
 .debug_info    0x00000000000f56c9      0x709 0x1 /usr/local/popcorn/aarch64/lib/libc.a(pthread_mutex_trylock.o)
 .debug_info    0x00000000000f5dd2      0x724 0x1 /usr/local/popcorn/aarch64/lib/libc.a(pthread_mutex_unlock.o)
 .debug_info    0x00000000000f64f6       0x86 0x1 /usr/local/popcorn/aarch64/lib/libc.a(pthread_mutexattr_destroy.o)
 .debug_info    0x00000000000f657c       0x86 0x1 /usr/local/popcorn/aarch64/lib/libc.a(pthread_mutexattr_init.o)
 .debug_info    0x00000000000f6602       0x93 0x1 /usr/local/popcorn/aarch64/lib/libc.a(pthread_mutexattr_settype.o)
 .debug_info    0x00000000000f6695      0x3d3 0x1 /usr/local/popcorn/aarch64/lib/libc.a(pthread_setcancelstate.o)
 .debug_info    0x00000000000f6a68       0x55 0x1 /usr/local/popcorn/aarch64/lib/libc.a(pthread_testcancel.o)
 .debug_info    0x00000000000f6abd      0x3ec 0x1 /usr/local/popcorn/aarch64/lib/libc.a(vmlock.o)
 .debug_info    0x00000000000f6ea9       0xee 0x1 /usr/local/popcorn/aarch64/lib/libc.a(gettimeofday.o)
 .debug_info    0x00000000000f6f97      0x12f 0x1 /usr/local/popcorn/aarch64/lib/libc.a(localtime.o)
 .debug_info    0x00000000000f70c6      0x13a 0x1 /usr/local/popcorn/aarch64/lib/libc.a(localtime_r.o)
 .debug_info    0x00000000000f7200       0x9e 0x1 /usr/local/popcorn/aarch64/lib/libc.a(time.o)
 .debug_info    0x00000000000f729e      0x164 0x1 /usr/local/popcorn/aarch64/lib/libc.a(access.o)
 .debug_info    0x00000000000f7402       0x98 0x1 /usr/local/popcorn/aarch64/lib/libc.a(close.o)
 .debug_info    0x00000000000f749a      0x33e 0x1 /usr/local/popcorn/aarch64/lib/libc.a(fchown.o)
 .debug_info    0x00000000000f77d8       0x62 0x1 /usr/local/popcorn/aarch64/lib/libc.a(fsync.o)
 .debug_info    0x00000000000f783a      0x10e 0x1 /usr/local/popcorn/aarch64/lib/libc.a(ftruncate.o)
 .debug_info    0x00000000000f7948      0x144 0x1 /usr/local/popcorn/aarch64/lib/libc.a(getcwd.o)
 .debug_info    0x00000000000f7a8c       0xb5 0x1 /usr/local/popcorn/aarch64/lib/libc.a(geteuid.o)
 .debug_info    0x00000000000f7b41       0xb5 0x1 /usr/local/popcorn/aarch64/lib/libc.a(getpid.o)
 .debug_info    0x00000000000f7bf6      0x145 0x1 /usr/local/popcorn/aarch64/lib/libc.a(lseek.o)
 .debug_info    0x00000000000f7d3b       0x9e 0x1 /usr/local/popcorn/aarch64/lib/libc.a(read.o)
 .debug_info    0x00000000000f7dd9      0x19a 0x1 /usr/local/popcorn/aarch64/lib/libc.a(readlink.o)
 .debug_info    0x00000000000f7f73      0x129 0x1 /usr/local/popcorn/aarch64/lib/libc.a(rmdir.o)
 .debug_info    0x00000000000f809c       0xa0 0x1 /usr/local/popcorn/aarch64/lib/libc.a(sleep.o)
 .debug_info    0x00000000000f813c      0x127 0x1 /usr/local/popcorn/aarch64/lib/libc.a(unlink.o)
 .debug_info    0x00000000000f8263       0xa3 0x1 /usr/local/popcorn/aarch64/lib/libc.a(write.o)
 .debug_info    0x00000000000f8306       0x45 0x1 /usr/local/popcorn/aarch64/lib/libc.a(__environ.o)
 .debug_info    0x00000000000f834b      0x7fb 0x1 /usr/local/popcorn/aarch64/lib/libc.a(__init_tls.o)
 .debug_info    0x00000000000f8b46      0x292 0x1 /usr/local/popcorn/aarch64/lib/libc.a(platform.o)
 .debug_info    0x00000000000f8dd8      0x4a0 0x1 /usr/local/popcorn/aarch64/lib/libc.a(strerror.o)
 .debug_info    0x00000000000f9278       0xff 0x1 /usr/local/popcorn/aarch64/lib/libc.a(_Exit.o)
 .debug_info    0x00000000000f9377      0x10e 0x1 /usr/local/popcorn/aarch64/lib/libc.a(syscall.o)
 .debug_info    0x00000000000f9485       0x8e 0x1 /usr/local/popcorn/aarch64/lib/libc.a(procfdname.o)
 .debug_info    0x00000000000f9513       0x8e 0x1 /usr/local/popcorn/aarch64/lib/libc.a(__dlsym.o)
 .debug_info    0x00000000000f95a1      0x46e 0x1 /usr/local/popcorn/aarch64/lib/libc.a(__lctrans.o)
 .debug_info    0x00000000000f9a0f      0x81e 0x1 /usr/local/popcorn/aarch64/lib/libc.a(expand_heap.o)
 .debug_info    0x00000000000fa22d      0x134 0x1 /usr/local/popcorn/aarch64/lib/libc.a(__fpclassifyl.o)
 .debug_info    0x00000000000fa361      0x124 0x1 /usr/local/popcorn/aarch64/lib/libc.a(__signbitl.o)
 .debug_info    0x00000000000fa485      0x149 0x1 /usr/local/popcorn/aarch64/lib/libc.a(frexpl.o)
 .debug_info    0x00000000000fa5ce      0x16f 0x1 /usr/local/popcorn/aarch64/lib/libc.a(mprotect.o)
 .debug_info    0x00000000000fa73d       0x88 0x1 /usr/local/popcorn/aarch64/lib/libc.a(wctomb.o)
 .debug_info    0x00000000000fa7c5      0x27a 0x1 /usr/local/popcorn/aarch64/lib/libc.a(block.o)
 .debug_info    0x00000000000faa3f      0x91f 0x1 /usr/local/popcorn/aarch64/lib/libc.a(__lockfile.o)
 .debug_info    0x00000000000fb35e      0x31f 0x1 /usr/local/popcorn/aarch64/lib/libc.a(__overflow.o)
 .debug_info    0x00000000000fb67d      0x392 0x1 /usr/local/popcorn/aarch64/lib/libc.a(__stdio_close.o)
 .debug_info    0x00000000000fba0f      0x3e6 0x1 /usr/local/popcorn/aarch64/lib/libc.a(__stdio_seek.o)
 .debug_info    0x00000000000fbdf5      0x463 0x1 /usr/local/popcorn/aarch64/lib/libc.a(__stdio_write.o)
 .debug_info    0x00000000000fc258      0x42c 0x1 /usr/local/popcorn/aarch64/lib/libc.a(__stdout_write.o)
 .debug_info    0x00000000000fc684      0x34c 0x1 /usr/local/popcorn/aarch64/lib/libc.a(__string_read.o)
 .debug_info    0x00000000000fc9d0      0x316 0x1 /usr/local/popcorn/aarch64/lib/libc.a(__towrite.o)
 .debug_info    0x00000000000fcce6      0x75f 0x1 /usr/local/popcorn/aarch64/lib/libc.a(vfscanf.o)
 .debug_info    0x00000000000fd445       0xf3 0x1 /usr/local/popcorn/aarch64/lib/libc.a(memchr.o)
 .debug_info    0x00000000000fd538       0xd4 0x1 /usr/local/popcorn/aarch64/lib/libc.a(stpcpy.o)
 .debug_info    0x00000000000fd60c       0xf2 0x1 /usr/local/popcorn/aarch64/lib/libc.a(stpncpy.o)
 .debug_info    0x00000000000fd6fe       0x9a 0x1 /usr/local/popcorn/aarch64/lib/libc.a(strdup.o)
 .debug_info    0x00000000000fd798      0x1a0 0x1 /usr/local/popcorn/aarch64/lib/libc.a(__timedwait.o)
 .debug_info    0x00000000000fd938      0x12a 0x1 /usr/local/popcorn/aarch64/lib/libc.a(__cleartid_exit_nostack.o)
 .debug_info    0x00000000000fda62      0x11e 0x1 /usr/local/popcorn/aarch64/lib/libc.a(__set_thread_area.o)
 .debug_info    0x00000000000fdb80      0x112 0x1 /usr/local/popcorn/aarch64/lib/libc.a(__unmapself.o)
 .debug_info    0x00000000000fdc92      0x108 0x1 /usr/local/popcorn/aarch64/lib/libc.a(clone.o)
 .debug_info    0x00000000000fdd9a      0x200 0x1 /usr/local/popcorn/aarch64/lib/libc.a(__secs_to_tm.o)
 .debug_info    0x00000000000fdf9a      0xb95 0x1 /usr/local/popcorn/aarch64/lib/libc.a(__tz.o)
 .debug_info    0x00000000000feb2f       0xd6 0x1 /usr/local/popcorn/aarch64/lib/libc.a(__year_to_secs.o)
 .debug_info    0x00000000000fec05      0x1a1 0x1 /usr/local/popcorn/aarch64/lib/libc.a(clock_gettime.o)
 .debug_info    0x00000000000feda6       0xaf 0x1 /usr/local/popcorn/aarch64/lib/libc.a(nanosleep.o)
 .debug_info    0x00000000000fee55      0x93c 0x1 /usr/local/popcorn/aarch64/lib/libc.a(floatscan.o)
 .debug_info    0x00000000000ff791      0x3f0 0x1 /usr/local/popcorn/aarch64/lib/libc.a(intscan.o)
 .debug_info    0x00000000000ffb81      0x340 0x1 /usr/local/popcorn/aarch64/lib/libc.a(shgetc.o)
 .debug_info    0x00000000000ffec1       0x5a 0x1 /usr/local/popcorn/aarch64/lib/libc.a(fabs.o)
 .debug_info    0x00000000000fff1b      0x13a 0x1 /usr/local/popcorn/aarch64/lib/libc.a(copysignl.o)
 .debug_info    0x0000000000100055      0x1cb 0x1 /usr/local/popcorn/aarch64/lib/libc.a(fmodl.o)
 .debug_info    0x0000000000100220       0xc9 0x1 /usr/local/popcorn/aarch64/lib/libc.a(scalbn.o)
 .debug_info    0x00000000001002e9      0x135 0x1 /usr/local/popcorn/aarch64/lib/libc.a(scalbnl.o)
 .debug_info    0x000000000010041e      0x517 0x1 /usr/local/popcorn/aarch64/lib/libc.a(mbrtowc.o)
 .debug_info    0x0000000000100935       0xa1 0x1 /usr/local/popcorn/aarch64/lib/libc.a(mbsinit.o)
 .debug_info    0x00000000001009d6      0x467 0x1 /usr/local/popcorn/aarch64/lib/libc.a(wcrtomb.o)
 .debug_info    0x0000000000100e3d      0x33c 0x1 /usr/local/popcorn/aarch64/lib/libc.a(__stdio_exit.o)
 .debug_info    0x0000000000101179      0x310 0x1 /usr/local/popcorn/aarch64/lib/libc.a(__uflow.o)
 .debug_info    0x0000000000101489      0x3f7 0x1 /usr/local/popcorn/aarch64/lib/libc.a(__map_file.o)
 .debug_info    0x0000000000101880       0xa4 0x1 /usr/local/popcorn/aarch64/lib/libc.a(__month_to_secs.o)
 .debug_info    0x0000000000101924       0x5e 0x1 /usr/local/popcorn/aarch64/lib/libc.a(internal.o)
 .debug_info    0x0000000000101982      0x316 0x1 /usr/local/popcorn/aarch64/lib/libc.a(__toread.o)

.debug_ranges   0x0000000000000000    0x94ca0
 .debug_ranges  0x0000000000000000      0x310 0x1 build_aarch64/benchmark.o
 .debug_ranges  0x0000000000000310      0x1d0 0x1 build_aarch64/histogram.o
 .debug_ranges  0x00000000000004e0       0xf0 0x1 build_aarch64/main.o
 .debug_ranges  0x00000000000005d0      0x100 0x1 build_aarch64/random.o
 .debug_ranges  0x00000000000006d0       0x80 0x1 build_aarch64/raw.o
 .debug_ranges  0x0000000000000750    0x919f0 0x1 build_aarch64/sqlite3.o
 .debug_ranges  0x0000000000092140       0x40 0x1 build_aarch64/util.o
 .debug_ranges  0x0000000000092180       0x60 0x1 /usr/local/popcorn/aarch64/lib/libc.a(sysconf.o)
 .debug_ranges  0x00000000000921e0       0x50 0x1 /usr/local/popcorn/aarch64/lib/libc.a(readdir.o)
 .debug_ranges  0x0000000000092230       0x90 0x1 /usr/local/popcorn/aarch64/lib/libc.a(__libc_start_main.o)
 .debug_ranges  0x00000000000922c0       0x30 0x1 /usr/local/popcorn/aarch64/lib/libc.a(getenv.o)
 .debug_ranges  0x00000000000922f0       0x40 0x1 /usr/local/popcorn/aarch64/lib/libc.a(exit.o)
 .debug_ranges  0x0000000000092330       0x70 0x1 /usr/local/popcorn/aarch64/lib/libc.a(fcntl.o)
 .debug_ranges  0x00000000000923a0       0x30 0x1 /usr/local/popcorn/aarch64/lib/libc.a(open.o)
 .debug_ranges  0x00000000000923d0       0x60 0x1 /usr/local/popcorn/aarch64/lib/libc.a(dlerror.o)
 .debug_ranges  0x0000000000092430       0x70 0x1 /usr/local/popcorn/aarch64/lib/libc.a(calloc.o)
 .debug_ranges  0x00000000000924a0       0x40 0x1 /usr/local/popcorn/aarch64/lib/libc.a(lite_malloc.o)
 .debug_ranges  0x00000000000924e0      0x540 0x1 /usr/local/popcorn/aarch64/lib/libc.a(malloc.o)
 .debug_ranges  0x0000000000092a20      0x830 0x1 /usr/local/popcorn/aarch64/lib/libc.a(popcorn_malloc.o)
 .debug_ranges  0x0000000000093250       0x30 0x1 /usr/local/popcorn/aarch64/lib/libc.a(madvise.o)
 .debug_ranges  0x0000000000093280       0x60 0x1 /usr/local/popcorn/aarch64/lib/libc.a(mmap.o)
 .debug_ranges  0x00000000000932e0       0x60 0x1 /usr/local/popcorn/aarch64/lib/libc.a(mremap.o)
 .debug_ranges  0x0000000000093340       0x30 0x1 /usr/local/popcorn/aarch64/lib/libc.a(munmap.o)
 .debug_ranges  0x0000000000093370       0xa0 0x1 /usr/local/popcorn/aarch64/lib/libc.a(fstat.o)
 .debug_ranges  0x0000000000093410       0x30 0x1 /usr/local/popcorn/aarch64/lib/libc.a(futimesat.o)
 .debug_ranges  0x0000000000093440       0x30 0x1 /usr/local/popcorn/aarch64/lib/libc.a(mkdir.o)
 .debug_ranges  0x0000000000093470       0x30 0x1 /usr/local/popcorn/aarch64/lib/libc.a(utimensat.o)
 .debug_ranges  0x00000000000934a0       0x30 0x1 /usr/local/popcorn/aarch64/lib/libc.a(fflush.o)
 .debug_ranges  0x00000000000934d0       0x60 0x1 /usr/local/popcorn/aarch64/lib/libc.a(fwrite.o)
 .debug_ranges  0x0000000000093530       0x30 0x1 /usr/local/popcorn/aarch64/lib/libc.a(ofl.o)
 .debug_ranges  0x0000000000093560      0x5e0 0x1 /usr/local/popcorn/aarch64/lib/libc.a(vfprintf.o)
 .debug_ranges  0x0000000000093b40       0x30 0x1 /usr/local/popcorn/aarch64/lib/libc.a(vsnprintf.o)
 .debug_ranges  0x0000000000093b70       0x30 0x1 /usr/local/popcorn/aarch64/lib/libc.a(vsscanf.o)
 .debug_ranges  0x0000000000093ba0       0x30 0x1 /usr/local/popcorn/aarch64/lib/libc.a(__lock.o)
 .debug_ranges  0x0000000000093bd0       0x30 0x1 /usr/local/popcorn/aarch64/lib/libc.a(__syscall_cp.o)
 .debug_ranges  0x0000000000093c00      0x110 0x1 /usr/local/popcorn/aarch64/lib/libc.a(pthread_create.o)
 .debug_ranges  0x0000000000093d10       0x40 0x1 /usr/local/popcorn/aarch64/lib/libc.a(pthread_join.o)
 .debug_ranges  0x0000000000093d50       0x30 0x1 /usr/local/popcorn/aarch64/lib/libc.a(pthread_mutex_lock.o)
 .debug_ranges  0x0000000000093d80       0x30 0x1 /usr/local/popcorn/aarch64/lib/libc.a(pthread_mutex_timedlock.o)
 .debug_ranges  0x0000000000093db0       0x90 0x1 /usr/local/popcorn/aarch64/lib/libc.a(pthread_mutex_trylock.o)
 .debug_ranges  0x0000000000093e40       0x30 0x1 /usr/local/popcorn/aarch64/lib/libc.a(pthread_mutex_unlock.o)
 .debug_ranges  0x0000000000093e70       0x30 0x1 /usr/local/popcorn/aarch64/lib/libc.a(pthread_testcancel.o)
 .debug_ranges  0x0000000000093ea0       0x40 0x1 /usr/local/popcorn/aarch64/lib/libc.a(vmlock.o)
 .debug_ranges  0x0000000000093ee0       0x30 0x1 /usr/local/popcorn/aarch64/lib/libc.a(access.o)
 .debug_ranges  0x0000000000093f10       0x30 0x1 /usr/local/popcorn/aarch64/lib/libc.a(close.o)
 .debug_ranges  0x0000000000093f40       0x30 0x1 /usr/local/popcorn/aarch64/lib/libc.a(ftruncate.o)
 .debug_ranges  0x0000000000093f70       0x30 0x1 /usr/local/popcorn/aarch64/lib/libc.a(lseek.o)
 .debug_ranges  0x0000000000093fa0       0x40 0x1 /usr/local/popcorn/aarch64/lib/libc.a(__init_tls.o)
 .debug_ranges  0x0000000000093fe0       0x40 0x1 /usr/local/popcorn/aarch64/lib/libc.a(platform.o)
 .debug_ranges  0x0000000000094020       0x30 0x1 /usr/local/popcorn/aarch64/lib/libc.a(strerror.o)
 .debug_ranges  0x0000000000094050       0x40 0x1 /usr/local/popcorn/aarch64/lib/libc.a(__lctrans.o)
 .debug_ranges  0x0000000000094090      0x130 0x1 /usr/local/popcorn/aarch64/lib/libc.a(expand_heap.o)
 .debug_ranges  0x00000000000941c0       0x40 0x1 /usr/local/popcorn/aarch64/lib/libc.a(block.o)
 .debug_ranges  0x0000000000094200       0x60 0x1 /usr/local/popcorn/aarch64/lib/libc.a(__lockfile.o)
 .debug_ranges  0x0000000000094260       0x60 0x1 /usr/local/popcorn/aarch64/lib/libc.a(__stdio_close.o)
 .debug_ranges  0x00000000000942c0       0x50 0x1 /usr/local/popcorn/aarch64/lib/libc.a(__stdio_write.o)
 .debug_ranges  0x0000000000094310       0x30 0x1 /usr/local/popcorn/aarch64/lib/libc.a(__towrite.o)
 .debug_ranges  0x0000000000094340      0x140 0x1 /usr/local/popcorn/aarch64/lib/libc.a(vfscanf.o)
 .debug_ranges  0x0000000000094480       0x30 0x1 /usr/local/popcorn/aarch64/lib/libc.a(__timedwait.o)
 .debug_ranges  0x00000000000944b0      0x340 0x1 /usr/local/popcorn/aarch64/lib/libc.a(__tz.o)
 .debug_ranges  0x00000000000947f0       0x30 0x1 /usr/local/popcorn/aarch64/lib/libc.a(__year_to_secs.o)
 .debug_ranges  0x0000000000094820      0x370 0x1 /usr/local/popcorn/aarch64/lib/libc.a(floatscan.o)
 .debug_ranges  0x0000000000094b90       0x80 0x1 /usr/local/popcorn/aarch64/lib/libc.a(intscan.o)
 .debug_ranges  0x0000000000094c10       0x30 0x1 /usr/local/popcorn/aarch64/lib/libc.a(shgetc.o)
 .debug_ranges  0x0000000000094c40       0x30 0x1 /usr/local/popcorn/aarch64/lib/libc.a(__stdio_exit.o)
 .debug_ranges  0x0000000000094c70       0x30 0x1 /usr/local/popcorn/aarch64/lib/libc.a(__toread.o)

.debug_macinfo  0x0000000000000000       0x9c
 .debug_macinfo
                0x0000000000000000        0x1 0x1 build_aarch64/benchmark.o
 .debug_macinfo
                0x0000000000000001        0x1 0x1 build_aarch64/histogram.o
 .debug_macinfo
                0x0000000000000002        0x1 0x1 build_aarch64/main.o
 .debug_macinfo
                0x0000000000000003        0x1 0x1 build_aarch64/random.o
 .debug_macinfo
                0x0000000000000004        0x1 0x1 build_aarch64/raw.o
 .debug_macinfo
                0x0000000000000005        0x1 0x1 build_aarch64/sqlite3.o
 .debug_macinfo
                0x0000000000000006        0x1 0x1 build_aarch64/util.o
 .debug_macinfo
                0x0000000000000007        0x1 0x1 /usr/local/popcorn/aarch64/lib/crt1.o
 .debug_macinfo
                0x0000000000000008        0x1 0x1 /usr/local/popcorn/aarch64/lib/libc.a(sysconf.o)
 .debug_macinfo
                0x0000000000000009        0x1 0x1 /usr/local/popcorn/aarch64/lib/libc.a(closedir.o)
 .debug_macinfo
                0x000000000000000a        0x1 0x1 /usr/local/popcorn/aarch64/lib/libc.a(opendir.o)
 .debug_macinfo
                0x000000000000000b        0x1 0x1 /usr/local/popcorn/aarch64/lib/libc.a(readdir.o)
 .debug_macinfo
                0x000000000000000c        0x1 0x1 /usr/local/popcorn/aarch64/lib/libc.a(__libc_start_main.o)
 .debug_macinfo
                0x000000000000000d        0x1 0x1 /usr/local/popcorn/aarch64/lib/libc.a(getenv.o)
 .debug_macinfo
                0x000000000000000e        0x1 0x1 /usr/local/popcorn/aarch64/lib/libc.a(__errno_location.o)
 .debug_macinfo
                0x000000000000000f        0x1 0x1 /usr/local/popcorn/aarch64/lib/libc.a(exit.o)
 .debug_macinfo
                0x0000000000000010        0x1 0x1 /usr/local/popcorn/aarch64/lib/libc.a(fcntl.o)
 .debug_macinfo
                0x0000000000000011        0x1 0x1 /usr/local/popcorn/aarch64/lib/libc.a(open.o)
 .debug_macinfo
                0x0000000000000012        0x1 0x1 /usr/local/popcorn/aarch64/lib/libc.a(libc.o)
 .debug_macinfo
                0x0000000000000013        0x1 0x1 /usr/local/popcorn/aarch64/lib/libc.a(syscall_ret.o)
 .debug_macinfo
                0x0000000000000014        0x1 0x1 /usr/local/popcorn/aarch64/lib/libc.a(dlclose.o)
 .debug_macinfo
                0x0000000000000015        0x1 0x1 /usr/local/popcorn/aarch64/lib/libc.a(dlerror.o)
 .debug_macinfo
                0x0000000000000016        0x1 0x1 /usr/local/popcorn/aarch64/lib/libc.a(dlopen.o)
 .debug_macinfo
                0x0000000000000017        0x1 0x1 /usr/local/popcorn/aarch64/lib/libc.a(sysinfo.o)
 .debug_macinfo
                0x0000000000000018        0x1 0x1 /usr/local/popcorn/aarch64/lib/libc.a(utimes.o)
 .debug_macinfo
                0x0000000000000019        0x1 0x1 /usr/local/popcorn/aarch64/lib/libc.a(calloc.o)
 .debug_macinfo
                0x000000000000001a        0x1 0x1 /usr/local/popcorn/aarch64/lib/libc.a(lite_malloc.o)
 .debug_macinfo
                0x000000000000001b        0x1 0x1 /usr/local/popcorn/aarch64/lib/libc.a(malloc.o)
 .debug_macinfo
                0x000000000000001c        0x1 0x1 /usr/local/popcorn/aarch64/lib/libc.a(popcorn_malloc.o)
 .debug_macinfo
                0x000000000000001d        0x1 0x1 /usr/local/popcorn/aarch64/lib/libc.a(sqrt.o)
 .debug_macinfo
                0x000000000000001e        0x1 0x1 /usr/local/popcorn/aarch64/lib/libc.a(getrlimit.o)
 .debug_macinfo
                0x000000000000001f        0x1 0x1 /usr/local/popcorn/aarch64/lib/libc.a(madvise.o)
 .debug_macinfo
                0x0000000000000020        0x1 0x1 /usr/local/popcorn/aarch64/lib/libc.a(mmap.o)
 .debug_macinfo
                0x0000000000000021        0x1 0x1 /usr/local/popcorn/aarch64/lib/libc.a(mremap.o)
 .debug_macinfo
                0x0000000000000022        0x1 0x1 /usr/local/popcorn/aarch64/lib/libc.a(munmap.o)
 .debug_macinfo
                0x0000000000000023        0x1 0x1 /usr/local/popcorn/aarch64/lib/libc.a(fchmod.o)
 .debug_macinfo
                0x0000000000000024        0x1 0x1 /usr/local/popcorn/aarch64/lib/libc.a(fstat.o)
 .debug_macinfo
                0x0000000000000025        0x1 0x1 /usr/local/popcorn/aarch64/lib/libc.a(futimesat.o)
 .debug_macinfo
                0x0000000000000026        0x1 0x1 /usr/local/popcorn/aarch64/lib/libc.a(lstat.o)
 .debug_macinfo
                0x0000000000000027        0x1 0x1 /usr/local/popcorn/aarch64/lib/libc.a(mkdir.o)
 .debug_macinfo
                0x0000000000000028        0x1 0x1 /usr/local/popcorn/aarch64/lib/libc.a(stat.o)
 .debug_macinfo
                0x0000000000000029        0x1 0x1 /usr/local/popcorn/aarch64/lib/libc.a(utimensat.o)
 .debug_macinfo
                0x000000000000002a        0x1 0x1 /usr/local/popcorn/aarch64/lib/libc.a(fflush.o)
 .debug_macinfo
                0x000000000000002b        0x1 0x1 /usr/local/popcorn/aarch64/lib/libc.a(fprintf.o)
 .debug_macinfo
                0x000000000000002c        0x1 0x1 /usr/local/popcorn/aarch64/lib/libc.a(fputc.o)
 .debug_macinfo
                0x000000000000002d        0x1 0x1 /usr/local/popcorn/aarch64/lib/libc.a(fwrite.o)
 .debug_macinfo
                0x000000000000002e        0x1 0x1 /usr/local/popcorn/aarch64/lib/libc.a(ofl.o)
 .debug_macinfo
                0x000000000000002f        0x1 0x1 /usr/local/popcorn/aarch64/lib/libc.a(remove.o)
 .debug_macinfo
                0x0000000000000030        0x1 0x1 /usr/local/popcorn/aarch64/lib/libc.a(snprintf.o)
 .debug_macinfo
                0x0000000000000031        0x1 0x1 /usr/local/popcorn/aarch64/lib/libc.a(sscanf.o)
 .debug_macinfo
                0x0000000000000032        0x1 0x1 /usr/local/popcorn/aarch64/lib/libc.a(stderr.o)
 .debug_macinfo
                0x0000000000000033        0x1 0x1 /usr/local/popcorn/aarch64/lib/libc.a(stdout.o)
 .debug_macinfo
                0x0000000000000034        0x1 0x1 /usr/local/popcorn/aarch64/lib/libc.a(vfprintf.o)
 .debug_macinfo
                0x0000000000000035        0x1 0x1 /usr/local/popcorn/aarch64/lib/libc.a(vsnprintf.o)
 .debug_macinfo
                0x0000000000000036        0x1 0x1 /usr/local/popcorn/aarch64/lib/libc.a(vsscanf.o)
 .debug_macinfo
                0x0000000000000037        0x1 0x1 /usr/local/popcorn/aarch64/lib/libc.a(memcmp.o)
 .debug_macinfo
                0x0000000000000038        0x1 0x1 /usr/local/popcorn/aarch64/lib/libc.a(memcpy.o)
 .debug_macinfo
                0x0000000000000039        0x1 0x1 /usr/local/popcorn/aarch64/lib/libc.a(memmove.o)
 .debug_macinfo
                0x000000000000003a        0x1 0x1 /usr/local/popcorn/aarch64/lib/libc.a(memset.o)
 .debug_macinfo
                0x000000000000003b        0x1 0x1 /usr/local/popcorn/aarch64/lib/libc.a(strcat.o)
 .debug_macinfo
                0x000000000000003c        0x1 0x1 /usr/local/popcorn/aarch64/lib/libc.a(strchr.o)
 .debug_macinfo
                0x000000000000003d        0x1 0x1 /usr/local/popcorn/aarch64/lib/libc.a(strchrnul.o)
 .debug_macinfo
                0x000000000000003e        0x1 0x1 /usr/local/popcorn/aarch64/lib/libc.a(strcmp.o)
 .debug_macinfo
                0x000000000000003f        0x1 0x1 /usr/local/popcorn/aarch64/lib/libc.a(strcpy.o)
 .debug_macinfo
                0x0000000000000040        0x1 0x1 /usr/local/popcorn/aarch64/lib/libc.a(strcspn.o)
 .debug_macinfo
                0x0000000000000041        0x1 0x1 /usr/local/popcorn/aarch64/lib/libc.a(strlen.o)
 .debug_macinfo
                0x0000000000000042        0x1 0x1 /usr/local/popcorn/aarch64/lib/libc.a(strncmp.o)
 .debug_macinfo
                0x0000000000000043        0x1 0x1 /usr/local/popcorn/aarch64/lib/libc.a(strncpy.o)
 .debug_macinfo
                0x0000000000000044        0x1 0x1 /usr/local/popcorn/aarch64/lib/libc.a(strnlen.o)
 .debug_macinfo
                0x0000000000000045        0x1 0x1 /usr/local/popcorn/aarch64/lib/libc.a(__lock.o)
 .debug_macinfo
                0x0000000000000046        0x1 0x1 /usr/local/popcorn/aarch64/lib/libc.a(__syscall_cp.o)
 .debug_macinfo
                0x0000000000000047        0x1 0x1 /usr/local/popcorn/aarch64/lib/libc.a(__wait.o)
 .debug_macinfo
                0x0000000000000048        0x1 0x1 /usr/local/popcorn/aarch64/lib/libc.a(pthread_create.o)
 .debug_macinfo
                0x0000000000000049        0x1 0x1 /usr/local/popcorn/aarch64/lib/libc.a(pthread_join.o)
 .debug_macinfo
                0x000000000000004a        0x1 0x1 /usr/local/popcorn/aarch64/lib/libc.a(pthread_mutex_destroy.o)
 .debug_macinfo
                0x000000000000004b        0x1 0x1 /usr/local/popcorn/aarch64/lib/libc.a(pthread_mutex_init.o)
 .debug_macinfo
                0x000000000000004c        0x1 0x1 /usr/local/popcorn/aarch64/lib/libc.a(pthread_mutex_lock.o)
 .debug_macinfo
                0x000000000000004d        0x1 0x1 /usr/local/popcorn/aarch64/lib/libc.a(pthread_mutex_timedlock.o)
 .debug_macinfo
                0x000000000000004e        0x1 0x1 /usr/local/popcorn/aarch64/lib/libc.a(pthread_mutex_trylock.o)
 .debug_macinfo
                0x000000000000004f        0x1 0x1 /usr/local/popcorn/aarch64/lib/libc.a(pthread_mutex_unlock.o)
 .debug_macinfo
                0x0000000000000050        0x1 0x1 /usr/local/popcorn/aarch64/lib/libc.a(pthread_mutexattr_destroy.o)
 .debug_macinfo
                0x0000000000000051        0x1 0x1 /usr/local/popcorn/aarch64/lib/libc.a(pthread_mutexattr_init.o)
 .debug_macinfo
                0x0000000000000052        0x1 0x1 /usr/local/popcorn/aarch64/lib/libc.a(pthread_mutexattr_settype.o)
 .debug_macinfo
                0x0000000000000053        0x1 0x1 /usr/local/popcorn/aarch64/lib/libc.a(pthread_setcancelstate.o)
 .debug_macinfo
                0x0000000000000054        0x1 0x1 /usr/local/popcorn/aarch64/lib/libc.a(pthread_testcancel.o)
 .debug_macinfo
                0x0000000000000055        0x1 0x1 /usr/local/popcorn/aarch64/lib/libc.a(vmlock.o)
 .debug_macinfo
                0x0000000000000056        0x1 0x1 /usr/local/popcorn/aarch64/lib/libc.a(gettimeofday.o)
 .debug_macinfo
                0x0000000000000057        0x1 0x1 /usr/local/popcorn/aarch64/lib/libc.a(localtime.o)
 .debug_macinfo
                0x0000000000000058        0x1 0x1 /usr/local/popcorn/aarch64/lib/libc.a(localtime_r.o)
 .debug_macinfo
                0x0000000000000059        0x1 0x1 /usr/local/popcorn/aarch64/lib/libc.a(time.o)
 .debug_macinfo
                0x000000000000005a        0x1 0x1 /usr/local/popcorn/aarch64/lib/libc.a(access.o)
 .debug_macinfo
                0x000000000000005b        0x1 0x1 /usr/local/popcorn/aarch64/lib/libc.a(close.o)
 .debug_macinfo
                0x000000000000005c        0x1 0x1 /usr/local/popcorn/aarch64/lib/libc.a(fchown.o)
 .debug_macinfo
                0x000000000000005d        0x1 0x1 /usr/local/popcorn/aarch64/lib/libc.a(fsync.o)
 .debug_macinfo
                0x000000000000005e        0x1 0x1 /usr/local/popcorn/aarch64/lib/libc.a(ftruncate.o)
 .debug_macinfo
                0x000000000000005f        0x1 0x1 /usr/local/popcorn/aarch64/lib/libc.a(getcwd.o)
 .debug_macinfo
                0x0000000000000060        0x1 0x1 /usr/local/popcorn/aarch64/lib/libc.a(geteuid.o)
 .debug_macinfo
                0x0000000000000061        0x1 0x1 /usr/local/popcorn/aarch64/lib/libc.a(getpid.o)
 .debug_macinfo
                0x0000000000000062        0x1 0x1 /usr/local/popcorn/aarch64/lib/libc.a(lseek.o)
 .debug_macinfo
                0x0000000000000063        0x1 0x1 /usr/local/popcorn/aarch64/lib/libc.a(read.o)
 .debug_macinfo
                0x0000000000000064        0x1 0x1 /usr/local/popcorn/aarch64/lib/libc.a(readlink.o)
 .debug_macinfo
                0x0000000000000065        0x1 0x1 /usr/local/popcorn/aarch64/lib/libc.a(rmdir.o)
 .debug_macinfo
                0x0000000000000066        0x1 0x1 /usr/local/popcorn/aarch64/lib/libc.a(sleep.o)
 .debug_macinfo
                0x0000000000000067        0x1 0x1 /usr/local/popcorn/aarch64/lib/libc.a(unlink.o)
 .debug_macinfo
                0x0000000000000068        0x1 0x1 /usr/local/popcorn/aarch64/lib/libc.a(write.o)
 .debug_macinfo
                0x0000000000000069        0x1 0x1 /usr/local/popcorn/aarch64/lib/libc.a(__environ.o)
 .debug_macinfo
                0x000000000000006a        0x1 0x1 /usr/local/popcorn/aarch64/lib/libc.a(__init_tls.o)
 .debug_macinfo
                0x000000000000006b        0x1 0x1 /usr/local/popcorn/aarch64/lib/libc.a(platform.o)
 .debug_macinfo
                0x000000000000006c        0x1 0x1 /usr/local/popcorn/aarch64/lib/libc.a(strerror.o)
 .debug_macinfo
                0x000000000000006d        0x1 0x1 /usr/local/popcorn/aarch64/lib/libc.a(_Exit.o)
 .debug_macinfo
                0x000000000000006e        0x1 0x1 /usr/local/popcorn/aarch64/lib/libc.a(procfdname.o)
 .debug_macinfo
                0x000000000000006f        0x1 0x1 /usr/local/popcorn/aarch64/lib/libc.a(__dlsym.o)
 .debug_macinfo
                0x0000000000000070        0x1 0x1 /usr/local/popcorn/aarch64/lib/libc.a(__lctrans.o)
 .debug_macinfo
                0x0000000000000071        0x1 0x1 /usr/local/popcorn/aarch64/lib/libc.a(expand_heap.o)
 .debug_macinfo
                0x0000000000000072        0x1 0x1 /usr/local/popcorn/aarch64/lib/libc.a(__fpclassifyl.o)
 .debug_macinfo
                0x0000000000000073        0x1 0x1 /usr/local/popcorn/aarch64/lib/libc.a(__signbitl.o)
 .debug_macinfo
                0x0000000000000074        0x1 0x1 /usr/local/popcorn/aarch64/lib/libc.a(frexpl.o)
 .debug_macinfo
                0x0000000000000075        0x1 0x1 /usr/local/popcorn/aarch64/lib/libc.a(mprotect.o)
 .debug_macinfo
                0x0000000000000076        0x1 0x1 /usr/local/popcorn/aarch64/lib/libc.a(wctomb.o)
 .debug_macinfo
                0x0000000000000077        0x1 0x1 /usr/local/popcorn/aarch64/lib/libc.a(block.o)
 .debug_macinfo
                0x0000000000000078        0x1 0x1 /usr/local/popcorn/aarch64/lib/libc.a(__lockfile.o)
 .debug_macinfo
                0x0000000000000079        0x1 0x1 /usr/local/popcorn/aarch64/lib/libc.a(__overflow.o)
 .debug_macinfo
                0x000000000000007a        0x1 0x1 /usr/local/popcorn/aarch64/lib/libc.a(__stdio_close.o)
 .debug_macinfo
                0x000000000000007b        0x1 0x1 /usr/local/popcorn/aarch64/lib/libc.a(__stdio_seek.o)
 .debug_macinfo
                0x000000000000007c        0x1 0x1 /usr/local/popcorn/aarch64/lib/libc.a(__stdio_write.o)
 .debug_macinfo
                0x000000000000007d        0x1 0x1 /usr/local/popcorn/aarch64/lib/libc.a(__stdout_write.o)
 .debug_macinfo
                0x000000000000007e        0x1 0x1 /usr/local/popcorn/aarch64/lib/libc.a(__string_read.o)
 .debug_macinfo
                0x000000000000007f        0x1 0x1 /usr/local/popcorn/aarch64/lib/libc.a(__towrite.o)
 .debug_macinfo
                0x0000000000000080        0x1 0x1 /usr/local/popcorn/aarch64/lib/libc.a(vfscanf.o)
 .debug_macinfo
                0x0000000000000081        0x1 0x1 /usr/local/popcorn/aarch64/lib/libc.a(memchr.o)
 .debug_macinfo
                0x0000000000000082        0x1 0x1 /usr/local/popcorn/aarch64/lib/libc.a(stpcpy.o)
 .debug_macinfo
                0x0000000000000083        0x1 0x1 /usr/local/popcorn/aarch64/lib/libc.a(stpncpy.o)
 .debug_macinfo
                0x0000000000000084        0x1 0x1 /usr/local/popcorn/aarch64/lib/libc.a(strdup.o)
 .debug_macinfo
                0x0000000000000085        0x1 0x1 /usr/local/popcorn/aarch64/lib/libc.a(__timedwait.o)
 .debug_macinfo
                0x0000000000000086        0x1 0x1 /usr/local/popcorn/aarch64/lib/libc.a(__secs_to_tm.o)
 .debug_macinfo
                0x0000000000000087        0x1 0x1 /usr/local/popcorn/aarch64/lib/libc.a(__tz.o)
 .debug_macinfo
                0x0000000000000088        0x1 0x1 /usr/local/popcorn/aarch64/lib/libc.a(__year_to_secs.o)
 .debug_macinfo
                0x0000000000000089        0x1 0x1 /usr/local/popcorn/aarch64/lib/libc.a(clock_gettime.o)
 .debug_macinfo
                0x000000000000008a        0x1 0x1 /usr/local/popcorn/aarch64/lib/libc.a(nanosleep.o)
 .debug_macinfo
                0x000000000000008b        0x1 0x1 /usr/local/popcorn/aarch64/lib/libc.a(floatscan.o)
 .debug_macinfo
                0x000000000000008c        0x1 0x1 /usr/local/popcorn/aarch64/lib/libc.a(intscan.o)
 .debug_macinfo
                0x000000000000008d        0x1 0x1 /usr/local/popcorn/aarch64/lib/libc.a(shgetc.o)
 .debug_macinfo
                0x000000000000008e        0x1 0x1 /usr/local/popcorn/aarch64/lib/libc.a(fabs.o)
 .debug_macinfo
                0x000000000000008f        0x1 0x1 /usr/local/popcorn/aarch64/lib/libc.a(copysignl.o)
 .debug_macinfo
                0x0000000000000090        0x1 0x1 /usr/local/popcorn/aarch64/lib/libc.a(fmodl.o)
 .debug_macinfo
                0x0000000000000091        0x1 0x1 /usr/local/popcorn/aarch64/lib/libc.a(scalbn.o)
 .debug_macinfo
                0x0000000000000092        0x1 0x1 /usr/local/popcorn/aarch64/lib/libc.a(scalbnl.o)
 .debug_macinfo
                0x0000000000000093        0x1 0x1 /usr/local/popcorn/aarch64/lib/libc.a(mbrtowc.o)
 .debug_macinfo
                0x0000000000000094        0x1 0x1 /usr/local/popcorn/aarch64/lib/libc.a(mbsinit.o)
 .debug_macinfo
                0x0000000000000095        0x1 0x1 /usr/local/popcorn/aarch64/lib/libc.a(wcrtomb.o)
 .debug_macinfo
                0x0000000000000096        0x1 0x1 /usr/local/popcorn/aarch64/lib/libc.a(__stdio_exit.o)
 .debug_macinfo
                0x0000000000000097        0x1 0x1 /usr/local/popcorn/aarch64/lib/libc.a(__uflow.o)
 .debug_macinfo
                0x0000000000000098        0x1 0x1 /usr/local/popcorn/aarch64/lib/libc.a(__map_file.o)
 .debug_macinfo
                0x0000000000000099        0x1 0x1 /usr/local/popcorn/aarch64/lib/libc.a(__month_to_secs.o)
 .debug_macinfo
                0x000000000000009a        0x1 0x1 /usr/local/popcorn/aarch64/lib/libc.a(internal.o)
 .debug_macinfo
                0x000000000000009b        0x1 0x1 /usr/local/popcorn/aarch64/lib/libc.a(__toread.o)

.comment        0x0000000000000000       0x69
 ** merge strings
                0x0000000000000000       0x69

.debug_frame    0x0000000000000000     0xcad8
 .debug_frame   0x0000000000000000      0x160 0x8 build_aarch64/benchmark.o
 .debug_frame   0x0000000000000160       0xa8 0x8 build_aarch64/histogram.o
 .debug_frame   0x0000000000000208       0x90 0x8 build_aarch64/main.o
 .debug_frame   0x0000000000000298       0xc0 0x8 build_aarch64/random.o
 .debug_frame   0x0000000000000358       0xc0 0x8 build_aarch64/raw.o
 .debug_frame   0x0000000000000418     0x9a00 0x8 build_aarch64/sqlite3.o
 .debug_frame   0x0000000000009e18       0x88 0x8 build_aarch64/util.o
 .debug_frame   0x0000000000009ea0       0x38 0x8 /usr/local/popcorn/aarch64/lib/crt1.o
 .debug_frame   0x0000000000009ed8       0x40 0x8 /usr/local/popcorn/aarch64/lib/libc.a(sysconf.o)
 .debug_frame   0x0000000000009f18       0x40 0x8 /usr/local/popcorn/aarch64/lib/libc.a(closedir.o)
 .debug_frame   0x0000000000009f58       0x40 0x8 /usr/local/popcorn/aarch64/lib/libc.a(opendir.o)
 .debug_frame   0x0000000000009f98       0x40 0x8 /usr/local/popcorn/aarch64/lib/libc.a(readdir.o)
 .debug_frame   0x0000000000009fd8       0xc0 0x8 /usr/local/popcorn/aarch64/lib/libc.a(__libc_start_main.o)
 .debug_frame   0x000000000000a098       0x40 0x8 /usr/local/popcorn/aarch64/lib/libc.a(getenv.o)
 .debug_frame   0x000000000000a0d8       0x30 0x8 /usr/local/popcorn/aarch64/lib/libc.a(__errno_location.o)
 .debug_frame   0x000000000000a108       0x80 0x8 /usr/local/popcorn/aarch64/lib/libc.a(exit.o)
 .debug_frame   0x000000000000a188       0x38 0x8 /usr/local/popcorn/aarch64/lib/libc.a(fcntl.o)
 .debug_frame   0x000000000000a1c0       0x40 0x8 /usr/local/popcorn/aarch64/lib/libc.a(open.o)
 .debug_frame   0x000000000000a200       0x40 0x8 /usr/local/popcorn/aarch64/lib/libc.a(syscall_ret.o)
 .debug_frame   0x000000000000a240       0x30 0x8 /usr/local/popcorn/aarch64/lib/libc.a(dlclose.o)
 .debug_frame   0x000000000000a270       0xc8 0x8 /usr/local/popcorn/aarch64/lib/libc.a(dlerror.o)
 .debug_frame   0x000000000000a338       0x38 0x8 /usr/local/popcorn/aarch64/lib/libc.a(dlopen.o)
 .debug_frame   0x000000000000a370       0x38 0x8 /usr/local/popcorn/aarch64/lib/libc.a(sysinfo.o)
 .debug_frame   0x000000000000a3a8       0x30 0x8 /usr/local/popcorn/aarch64/lib/libc.a(utimes.o)
 .debug_frame   0x000000000000a3d8       0x80 0x8 /usr/local/popcorn/aarch64/lib/libc.a(calloc.o)
 .debug_frame   0x000000000000a458       0x40 0x8 /usr/local/popcorn/aarch64/lib/libc.a(lite_malloc.o)
 .debug_frame   0x000000000000a498      0x1b0 0x8 /usr/local/popcorn/aarch64/lib/libc.a(malloc.o)
 .debug_frame   0x000000000000a648      0x1d8 0x8 /usr/local/popcorn/aarch64/lib/libc.a(popcorn_malloc.o)
 .debug_frame   0x000000000000a820       0x30 0x8 /usr/local/popcorn/aarch64/lib/libc.a(sqrt.o)
 .debug_frame   0x000000000000a850       0x40 0x8 /usr/local/popcorn/aarch64/lib/libc.a(getrlimit.o)
 .debug_frame   0x000000000000a890       0x38 0x8 /usr/local/popcorn/aarch64/lib/libc.a(madvise.o)
 .debug_frame   0x000000000000a8c8       0x60 0x8 /usr/local/popcorn/aarch64/lib/libc.a(mmap.o)
 .debug_frame   0x000000000000a928       0x60 0x8 /usr/local/popcorn/aarch64/lib/libc.a(mremap.o)
 .debug_frame   0x000000000000a988       0x58 0x8 /usr/local/popcorn/aarch64/lib/libc.a(munmap.o)
 .debug_frame   0x000000000000a9e0       0x40 0x8 /usr/local/popcorn/aarch64/lib/libc.a(fchmod.o)
 .debug_frame   0x000000000000aa20       0x68 0x8 /usr/local/popcorn/aarch64/lib/libc.a(fstat.o)
 .debug_frame   0x000000000000aa88       0x38 0x8 /usr/local/popcorn/aarch64/lib/libc.a(futimesat.o)
 .debug_frame   0x000000000000aac0       0x40 0x8 /usr/local/popcorn/aarch64/lib/libc.a(lstat.o)
 .debug_frame   0x000000000000ab00       0x38 0x8 /usr/local/popcorn/aarch64/lib/libc.a(mkdir.o)
 .debug_frame   0x000000000000ab38       0x40 0x8 /usr/local/popcorn/aarch64/lib/libc.a(stat.o)
 .debug_frame   0x000000000000ab78       0x38 0x8 /usr/local/popcorn/aarch64/lib/libc.a(utimensat.o)
 .debug_frame   0x000000000000abb0       0x40 0x8 /usr/local/popcorn/aarch64/lib/libc.a(fflush.o)
 .debug_frame   0x000000000000abf0       0x38 0x8 /usr/local/popcorn/aarch64/lib/libc.a(fprintf.o)
 .debug_frame   0x000000000000ac28       0x40 0x8 /usr/local/popcorn/aarch64/lib/libc.a(fputc.o)
 .debug_frame   0x000000000000ac68       0x78 0x8 /usr/local/popcorn/aarch64/lib/libc.a(fwrite.o)
 .debug_frame   0x000000000000ace0       0x50 0x8 /usr/local/popcorn/aarch64/lib/libc.a(ofl.o)
 .debug_frame   0x000000000000ad30       0x38 0x8 /usr/local/popcorn/aarch64/lib/libc.a(remove.o)
 .debug_frame   0x000000000000ad68       0x38 0x8 /usr/local/popcorn/aarch64/lib/libc.a(snprintf.o)
 .debug_frame   0x000000000000ada0       0x38 0x8 /usr/local/popcorn/aarch64/lib/libc.a(sscanf.o)
 .debug_frame   0x000000000000add8       0xe0 0x8 /usr/local/popcorn/aarch64/lib/libc.a(vfprintf.o)
 .debug_frame   0x000000000000aeb8       0x78 0x8 /usr/local/popcorn/aarch64/lib/libc.a(vsnprintf.o)
 .debug_frame   0x000000000000af30       0x58 0x8 /usr/local/popcorn/aarch64/lib/libc.a(vsscanf.o)
 .debug_frame   0x000000000000af88       0x30 0x8 /usr/local/popcorn/aarch64/lib/libc.a(memcmp.o)
 .debug_frame   0x000000000000afb8       0x30 0x8 /usr/local/popcorn/aarch64/lib/libc.a(memcpy.o)
 .debug_frame   0x000000000000afe8       0x38 0x8 /usr/local/popcorn/aarch64/lib/libc.a(memmove.o)
 .debug_frame   0x000000000000b020       0x30 0x8 /usr/local/popcorn/aarch64/lib/libc.a(memset.o)
 .debug_frame   0x000000000000b050       0x40 0x8 /usr/local/popcorn/aarch64/lib/libc.a(strcat.o)
 .debug_frame   0x000000000000b090       0x40 0x8 /usr/local/popcorn/aarch64/lib/libc.a(strchr.o)
 .debug_frame   0x000000000000b0d0       0x40 0x8 /usr/local/popcorn/aarch64/lib/libc.a(strchrnul.o)
 .debug_frame   0x000000000000b110       0x30 0x8 /usr/local/popcorn/aarch64/lib/libc.a(strcmp.o)
 .debug_frame   0x000000000000b140       0x40 0x8 /usr/local/popcorn/aarch64/lib/libc.a(strcpy.o)
 .debug_frame   0x000000000000b180       0x40 0x8 /usr/local/popcorn/aarch64/lib/libc.a(strcspn.o)
 .debug_frame   0x000000000000b1c0       0x30 0x8 /usr/local/popcorn/aarch64/lib/libc.a(strlen.o)
 .debug_frame   0x000000000000b1f0       0x30 0x8 /usr/local/popcorn/aarch64/lib/libc.a(strncmp.o)
 .debug_frame   0x000000000000b220       0x40 0x8 /usr/local/popcorn/aarch64/lib/libc.a(strncpy.o)
 .debug_frame   0x000000000000b260       0x40 0x8 /usr/local/popcorn/aarch64/lib/libc.a(strnlen.o)
 .debug_frame   0x000000000000b2a0       0x58 0x8 /usr/local/popcorn/aarch64/lib/libc.a(__lock.o)
 .debug_frame   0x000000000000b2f8       0x48 0x8 /usr/local/popcorn/aarch64/lib/libc.a(__syscall_cp.o)
 .debug_frame   0x000000000000b340       0x30 0x8 /usr/local/popcorn/aarch64/lib/libc.a(__wait.o)
 .debug_frame   0x000000000000b370      0x108 0x8 /usr/local/popcorn/aarch64/lib/libc.a(pthread_create.o)
 .debug_frame   0x000000000000b478       0x80 0x8 /usr/local/popcorn/aarch64/lib/libc.a(pthread_join.o)
 .debug_frame   0x000000000000b4f8       0x30 0x8 /usr/local/popcorn/aarch64/lib/libc.a(pthread_mutex_destroy.o)
 .debug_frame   0x000000000000b528       0x38 0x8 /usr/local/popcorn/aarch64/lib/libc.a(pthread_mutex_init.o)
 .debug_frame   0x000000000000b560       0x38 0x8 /usr/local/popcorn/aarch64/lib/libc.a(pthread_mutex_lock.o)
 .debug_frame   0x000000000000b598       0x48 0x8 /usr/local/popcorn/aarch64/lib/libc.a(pthread_mutex_timedlock.o)
 .debug_frame   0x000000000000b5e0       0x50 0x8 /usr/local/popcorn/aarch64/lib/libc.a(pthread_mutex_trylock.o)
 .debug_frame   0x000000000000b630       0x48 0x8 /usr/local/popcorn/aarch64/lib/libc.a(pthread_mutex_unlock.o)
 .debug_frame   0x000000000000b678       0x30 0x8 /usr/local/popcorn/aarch64/lib/libc.a(pthread_mutexattr_destroy.o)
 .debug_frame   0x000000000000b6a8       0x30 0x8 /usr/local/popcorn/aarch64/lib/libc.a(pthread_mutexattr_init.o)
 .debug_frame   0x000000000000b6d8       0x30 0x8 /usr/local/popcorn/aarch64/lib/libc.a(pthread_mutexattr_settype.o)
 .debug_frame   0x000000000000b708       0x30 0x8 /usr/local/popcorn/aarch64/lib/libc.a(pthread_setcancelstate.o)
 .debug_frame   0x000000000000b738       0x48 0x8 /usr/local/popcorn/aarch64/lib/libc.a(pthread_testcancel.o)
 .debug_frame   0x000000000000b780       0x70 0x8 /usr/local/popcorn/aarch64/lib/libc.a(vmlock.o)
 .debug_frame   0x000000000000b7f0       0x40 0x8 /usr/local/popcorn/aarch64/lib/libc.a(gettimeofday.o)
 .debug_frame   0x000000000000b830       0x30 0x8 /usr/local/popcorn/aarch64/lib/libc.a(localtime.o)
 .debug_frame   0x000000000000b860       0x40 0x8 /usr/local/popcorn/aarch64/lib/libc.a(localtime_r.o)
 .debug_frame   0x000000000000b8a0       0x40 0x8 /usr/local/popcorn/aarch64/lib/libc.a(time.o)
 .debug_frame   0x000000000000b8e0       0x38 0x8 /usr/local/popcorn/aarch64/lib/libc.a(access.o)
 .debug_frame   0x000000000000b918       0x50 0x8 /usr/local/popcorn/aarch64/lib/libc.a(close.o)
 .debug_frame   0x000000000000b968       0x40 0x8 /usr/local/popcorn/aarch64/lib/libc.a(fchown.o)
 .debug_frame   0x000000000000b9a8       0x38 0x8 /usr/local/popcorn/aarch64/lib/libc.a(fsync.o)
 .debug_frame   0x000000000000b9e0       0x38 0x8 /usr/local/popcorn/aarch64/lib/libc.a(ftruncate.o)
 .debug_frame   0x000000000000ba18       0x40 0x8 /usr/local/popcorn/aarch64/lib/libc.a(getcwd.o)
 .debug_frame   0x000000000000ba58       0x30 0x8 /usr/local/popcorn/aarch64/lib/libc.a(geteuid.o)
 .debug_frame   0x000000000000ba88       0x30 0x8 /usr/local/popcorn/aarch64/lib/libc.a(getpid.o)
 .debug_frame   0x000000000000bab8       0x30 0x8 /usr/local/popcorn/aarch64/lib/libc.a(lseek.o)
 .debug_frame   0x000000000000bae8       0x38 0x8 /usr/local/popcorn/aarch64/lib/libc.a(read.o)
 .debug_frame   0x000000000000bb20       0x30 0x8 /usr/local/popcorn/aarch64/lib/libc.a(readlink.o)
 .debug_frame   0x000000000000bb50       0x38 0x8 /usr/local/popcorn/aarch64/lib/libc.a(rmdir.o)
 .debug_frame   0x000000000000bb88       0x38 0x8 /usr/local/popcorn/aarch64/lib/libc.a(sleep.o)
 .debug_frame   0x000000000000bbc0       0x38 0x8 /usr/local/popcorn/aarch64/lib/libc.a(unlink.o)
 .debug_frame   0x000000000000bbf8       0x38 0x8 /usr/local/popcorn/aarch64/lib/libc.a(write.o)
 .debug_frame   0x000000000000bc30       0x90 0x8 /usr/local/popcorn/aarch64/lib/libc.a(__init_tls.o)
 .debug_frame   0x000000000000bcc0       0x80 0x8 /usr/local/popcorn/aarch64/lib/libc.a(platform.o)
 .debug_frame   0x000000000000bd40       0x48 0x8 /usr/local/popcorn/aarch64/lib/libc.a(strerror.o)
 .debug_frame   0x000000000000bd88       0x30 0x8 /usr/local/popcorn/aarch64/lib/libc.a(_Exit.o)
 .debug_frame   0x000000000000bdb8       0x30 0x8 /usr/local/popcorn/aarch64/lib/libc.a(procfdname.o)
 .debug_frame   0x000000000000bde8       0x38 0x8 /usr/local/popcorn/aarch64/lib/libc.a(__dlsym.o)
 .debug_frame   0x000000000000be20       0x60 0x8 /usr/local/popcorn/aarch64/lib/libc.a(__lctrans.o)
 .debug_frame   0x000000000000be80       0x98 0x8 /usr/local/popcorn/aarch64/lib/libc.a(expand_heap.o)
 .debug_frame   0x000000000000bf18       0x38 0x8 /usr/local/popcorn/aarch64/lib/libc.a(__fpclassifyl.o)
 .debug_frame   0x000000000000bf50       0x38 0x8 /usr/local/popcorn/aarch64/lib/libc.a(__signbitl.o)
 .debug_frame   0x000000000000bf88       0x40 0x8 /usr/local/popcorn/aarch64/lib/libc.a(frexpl.o)
 .debug_frame   0x000000000000bfc8       0x38 0x8 /usr/local/popcorn/aarch64/lib/libc.a(mprotect.o)
 .debug_frame   0x000000000000c000       0x38 0x8 /usr/local/popcorn/aarch64/lib/libc.a(wctomb.o)
 .debug_frame   0x000000000000c038       0x60 0x8 /usr/local/popcorn/aarch64/lib/libc.a(block.o)
 .debug_frame   0x000000000000c098       0x58 0x8 /usr/local/popcorn/aarch64/lib/libc.a(__lockfile.o)
 .debug_frame   0x000000000000c0f0       0x40 0x8 /usr/local/popcorn/aarch64/lib/libc.a(__overflow.o)
 .debug_frame   0x000000000000c130       0x50 0x8 /usr/local/popcorn/aarch64/lib/libc.a(__stdio_close.o)
 .debug_frame   0x000000000000c180       0x30 0x8 /usr/local/popcorn/aarch64/lib/libc.a(__stdio_seek.o)
 .debug_frame   0x000000000000c1b0       0x48 0x8 /usr/local/popcorn/aarch64/lib/libc.a(__stdio_write.o)
 .debug_frame   0x000000000000c1f8       0x38 0x8 /usr/local/popcorn/aarch64/lib/libc.a(__stdout_write.o)
 .debug_frame   0x000000000000c230       0x48 0x8 /usr/local/popcorn/aarch64/lib/libc.a(__string_read.o)
 .debug_frame   0x000000000000c278       0x48 0x8 /usr/local/popcorn/aarch64/lib/libc.a(__towrite.o)
 .debug_frame   0x000000000000c2c0       0x50 0x8 /usr/local/popcorn/aarch64/lib/libc.a(vfscanf.o)
 .debug_frame   0x000000000000c310       0x30 0x8 /usr/local/popcorn/aarch64/lib/libc.a(memchr.o)
 .debug_frame   0x000000000000c340       0x30 0x8 /usr/local/popcorn/aarch64/lib/libc.a(stpcpy.o)
 .debug_frame   0x000000000000c370       0x40 0x8 /usr/local/popcorn/aarch64/lib/libc.a(stpncpy.o)
 .debug_frame   0x000000000000c3b0       0x40 0x8 /usr/local/popcorn/aarch64/lib/libc.a(strdup.o)
 .debug_frame   0x000000000000c3f0       0x68 0x8 /usr/local/popcorn/aarch64/lib/libc.a(__timedwait.o)
 .debug_frame   0x000000000000c458       0x30 0x8 /usr/local/popcorn/aarch64/lib/libc.a(__secs_to_tm.o)
 .debug_frame   0x000000000000c488      0x150 0x8 /usr/local/popcorn/aarch64/lib/libc.a(__tz.o)
 .debug_frame   0x000000000000c5d8       0x38 0x8 /usr/local/popcorn/aarch64/lib/libc.a(__year_to_secs.o)
 .debug_frame   0x000000000000c610       0x38 0x8 /usr/local/popcorn/aarch64/lib/libc.a(clock_gettime.o)
 .debug_frame   0x000000000000c648       0x38 0x8 /usr/local/popcorn/aarch64/lib/libc.a(nanosleep.o)
 .debug_frame   0x000000000000c680       0x80 0x8 /usr/local/popcorn/aarch64/lib/libc.a(floatscan.o)
 .debug_frame   0x000000000000c700       0x50 0x8 /usr/local/popcorn/aarch64/lib/libc.a(intscan.o)
 .debug_frame   0x000000000000c750       0x58 0x8 /usr/local/popcorn/aarch64/lib/libc.a(shgetc.o)
 .debug_frame   0x000000000000c7a8       0x30 0x8 /usr/local/popcorn/aarch64/lib/libc.a(fabs.o)
 .debug_frame   0x000000000000c7d8       0x38 0x8 /usr/local/popcorn/aarch64/lib/libc.a(copysignl.o)
 .debug_frame   0x000000000000c810       0x48 0x8 /usr/local/popcorn/aarch64/lib/libc.a(fmodl.o)
 .debug_frame   0x000000000000c858       0x30 0x8 /usr/local/popcorn/aarch64/lib/libc.a(scalbn.o)
 .debug_frame   0x000000000000c888       0x40 0x8 /usr/local/popcorn/aarch64/lib/libc.a(scalbnl.o)
 .debug_frame   0x000000000000c8c8       0x38 0x8 /usr/local/popcorn/aarch64/lib/libc.a(mbrtowc.o)
 .debug_frame   0x000000000000c900       0x30 0x8 /usr/local/popcorn/aarch64/lib/libc.a(mbsinit.o)
 .debug_frame   0x000000000000c930       0x38 0x8 /usr/local/popcorn/aarch64/lib/libc.a(wcrtomb.o)
 .debug_frame   0x000000000000c968       0x68 0x8 /usr/local/popcorn/aarch64/lib/libc.a(__stdio_exit.o)
 .debug_frame   0x000000000000c9d0       0x40 0x8 /usr/local/popcorn/aarch64/lib/libc.a(__uflow.o)
 .debug_frame   0x000000000000ca10       0x40 0x8 /usr/local/popcorn/aarch64/lib/libc.a(__map_file.o)
 .debug_frame   0x000000000000ca50       0x30 0x8 /usr/local/popcorn/aarch64/lib/libc.a(__month_to_secs.o)
 .debug_frame   0x000000000000ca80       0x58 0x8 /usr/local/popcorn/aarch64/lib/libc.a(__toread.o)

.debug_line     0x0000000000000000    0xb8470
 .debug_line    0x0000000000000000      0xa16 0x1 build_aarch64/benchmark.o
 .debug_line    0x0000000000000a16      0x36e 0x1 build_aarch64/histogram.o
 .debug_line    0x0000000000000d84      0x27e 0x1 build_aarch64/main.o
 .debug_line    0x0000000000001002      0x22d 0x1 build_aarch64/random.o
 .debug_line    0x000000000000122f      0x200 0x1 build_aarch64/raw.o
 .debug_line    0x000000000000142f    0xa93eb 0x1 build_aarch64/sqlite3.o
 .debug_line    0x00000000000aa81a      0x155 0x1 build_aarch64/util.o
 .debug_line    0x00000000000aa96f       0x49 0x1 /usr/local/popcorn/aarch64/lib/crt1.o
 .debug_line    0x00000000000aa9b8      0x17f 0x1 /usr/local/popcorn/aarch64/lib/libc.a(sysconf.o)
 .debug_line    0x00000000000aab37       0x98 0x1 /usr/local/popcorn/aarch64/lib/libc.a(closedir.o)
 .debug_line    0x00000000000aabcf       0xdb 0x1 /usr/local/popcorn/aarch64/lib/libc.a(opendir.o)
 .debug_line    0x00000000000aacaa       0xfe 0x1 /usr/local/popcorn/aarch64/lib/libc.a(readdir.o)
 .debug_line    0x00000000000aada8      0x26e 0x1 /usr/local/popcorn/aarch64/lib/libc.a(__libc_start_main.o)
 .debug_line    0x00000000000ab016       0xae 0x1 /usr/local/popcorn/aarch64/lib/libc.a(getenv.o)
 .debug_line    0x00000000000ab0c4       0xe0 0x1 /usr/local/popcorn/aarch64/lib/libc.a(__errno_location.o)
 .debug_line    0x00000000000ab1a4       0xb0 0x1 /usr/local/popcorn/aarch64/lib/libc.a(exit.o)
 .debug_line    0x00000000000ab254      0x1a8 0x1 /usr/local/popcorn/aarch64/lib/libc.a(fcntl.o)
 .debug_line    0x00000000000ab3fc       0xc8 0x1 /usr/local/popcorn/aarch64/lib/libc.a(open.o)
 .debug_line    0x00000000000ab4c4       0x6d 0x1 /usr/local/popcorn/aarch64/lib/libc.a(libc.o)
 .debug_line    0x00000000000ab531       0x60 0x1 /usr/local/popcorn/aarch64/lib/libc.a(syscall_ret.o)
 .debug_line    0x00000000000ab591       0x4c 0x1 /usr/local/popcorn/aarch64/lib/libc.a(dlsym.o)
 .debug_line    0x00000000000ab5dd       0x49 0x1 /usr/local/popcorn/aarch64/lib/libc.a(dlclose.o)
 .debug_line    0x00000000000ab626      0x1b9 0x1 /usr/local/popcorn/aarch64/lib/libc.a(dlerror.o)
 .debug_line    0x00000000000ab7df       0x49 0x1 /usr/local/popcorn/aarch64/lib/libc.a(dlopen.o)
 .debug_line    0x00000000000ab828       0x95 0x1 /usr/local/popcorn/aarch64/lib/libc.a(sysinfo.o)
 .debug_line    0x00000000000ab8bd       0x68 0x1 /usr/local/popcorn/aarch64/lib/libc.a(utimes.o)
 .debug_line    0x00000000000ab925      0x121 0x1 /usr/local/popcorn/aarch64/lib/libc.a(calloc.o)
 .debug_line    0x00000000000aba46       0xfd 0x1 /usr/local/popcorn/aarch64/lib/libc.a(lite_malloc.o)
 .debug_line    0x00000000000abb43      0xddf 0x1 /usr/local/popcorn/aarch64/lib/libc.a(malloc.o)
 .debug_line    0x00000000000ac922     0x12fb 0x1 /usr/local/popcorn/aarch64/lib/libc.a(popcorn_malloc.o)
 .debug_line    0x00000000000adc1d       0x4f 0x1 /usr/local/popcorn/aarch64/lib/libc.a(sqrt.o)
 .debug_line    0x00000000000adc6c       0xfb 0x1 /usr/local/popcorn/aarch64/lib/libc.a(getrlimit.o)
 .debug_line    0x00000000000add67       0xa6 0x1 /usr/local/popcorn/aarch64/lib/libc.a(madvise.o)
 .debug_line    0x00000000000ade0d       0xf4 0x1 /usr/local/popcorn/aarch64/lib/libc.a(mmap.o)
 .debug_line    0x00000000000adf01       0xec 0x1 /usr/local/popcorn/aarch64/lib/libc.a(mremap.o)
 .debug_line    0x00000000000adfed       0xae 0x1 /usr/local/popcorn/aarch64/lib/libc.a(munmap.o)
 .debug_line    0x00000000000ae09b       0xc2 0x1 /usr/local/popcorn/aarch64/lib/libc.a(fchmod.o)
 .debug_line    0x00000000000ae15d      0x200 0x1 /usr/local/popcorn/aarch64/lib/libc.a(fstat.o)
 .debug_line    0x00000000000ae35d       0xa5 0x1 /usr/local/popcorn/aarch64/lib/libc.a(futimesat.o)
 .debug_line    0x00000000000ae402       0xb6 0x1 /usr/local/popcorn/aarch64/lib/libc.a(lstat.o)
 .debug_line    0x00000000000ae4b8       0xa4 0x1 /usr/local/popcorn/aarch64/lib/libc.a(mkdir.o)
 .debug_line    0x00000000000ae55c       0xb5 0x1 /usr/local/popcorn/aarch64/lib/libc.a(stat.o)
 .debug_line    0x00000000000ae611       0xab 0x1 /usr/local/popcorn/aarch64/lib/libc.a(utimensat.o)
 .debug_line    0x00000000000ae6bc      0x139 0x1 /usr/local/popcorn/aarch64/lib/libc.a(fflush.o)
 .debug_line    0x00000000000ae7f5       0x72 0x1 /usr/local/popcorn/aarch64/lib/libc.a(fprintf.o)
 .debug_line    0x00000000000ae867       0xad 0x1 /usr/local/popcorn/aarch64/lib/libc.a(fputc.o)
 .debug_line    0x00000000000ae914      0x146 0x1 /usr/local/popcorn/aarch64/lib/libc.a(fwrite.o)
 .debug_line    0x00000000000aea5a       0xaa 0x1 /usr/local/popcorn/aarch64/lib/libc.a(ofl.o)
 .debug_line    0x00000000000aeb04       0x8a 0x1 /usr/local/popcorn/aarch64/lib/libc.a(remove.o)
 .debug_line    0x00000000000aeb8e       0x73 0x1 /usr/local/popcorn/aarch64/lib/libc.a(snprintf.o)
 .debug_line    0x00000000000aec01       0x71 0x1 /usr/local/popcorn/aarch64/lib/libc.a(sscanf.o)
 .debug_line    0x00000000000aec72       0x7c 0x1 /usr/local/popcorn/aarch64/lib/libc.a(stderr.o)
 .debug_line    0x00000000000aecee       0x7c 0x1 /usr/local/popcorn/aarch64/lib/libc.a(stdout.o)
 .debug_line    0x00000000000aed6a     0x12e4 0x1 /usr/local/popcorn/aarch64/lib/libc.a(vfprintf.o)
 .debug_line    0x00000000000b004e      0x133 0x1 /usr/local/popcorn/aarch64/lib/libc.a(vsnprintf.o)
 .debug_line    0x00000000000b0181       0xb8 0x1 /usr/local/popcorn/aarch64/lib/libc.a(vsscanf.o)
 .debug_line    0x00000000000b0239       0x8d 0x1 /usr/local/popcorn/aarch64/lib/libc.a(memcmp.o)
 .debug_line    0x00000000000b02c6      0x31a 0x1 /usr/local/popcorn/aarch64/lib/libc.a(memcpy.o)
 .debug_line    0x00000000000b05e0      0x184 0x1 /usr/local/popcorn/aarch64/lib/libc.a(memmove.o)
 .debug_line    0x00000000000b0764      0x14d 0x1 /usr/local/popcorn/aarch64/lib/libc.a(memset.o)
 .debug_line    0x00000000000b08b1       0x54 0x1 /usr/local/popcorn/aarch64/lib/libc.a(strcat.o)
 .debug_line    0x00000000000b0905       0x57 0x1 /usr/local/popcorn/aarch64/lib/libc.a(strchr.o)
 .debug_line    0x00000000000b095c       0xcc 0x1 /usr/local/popcorn/aarch64/lib/libc.a(strchrnul.o)
 .debug_line    0x00000000000b0a28       0x62 0x1 /usr/local/popcorn/aarch64/lib/libc.a(strcmp.o)
 .debug_line    0x00000000000b0a8a       0x4b 0x1 /usr/local/popcorn/aarch64/lib/libc.a(strcpy.o)
 .debug_line    0x00000000000b0ad5       0xbb 0x1 /usr/local/popcorn/aarch64/lib/libc.a(strcspn.o)
 .debug_line    0x00000000000b0b90       0xb6 0x1 /usr/local/popcorn/aarch64/lib/libc.a(strlen.o)
 .debug_line    0x00000000000b0c46       0xa2 0x1 /usr/local/popcorn/aarch64/lib/libc.a(strncmp.o)
 .debug_line    0x00000000000b0ce8       0x6b 0x1 /usr/local/popcorn/aarch64/lib/libc.a(strncpy.o)
 .debug_line    0x00000000000b0d53       0x74 0x1 /usr/local/popcorn/aarch64/lib/libc.a(strnlen.o)
 .debug_line    0x00000000000b0dc7      0x127 0x1 /usr/local/popcorn/aarch64/lib/libc.a(__lock.o)
 .debug_line    0x00000000000b0eee       0x85 0x1 /usr/local/popcorn/aarch64/lib/libc.a(__syscall_cp.o)
 .debug_line    0x00000000000b0f73      0x138 0x1 /usr/local/popcorn/aarch64/lib/libc.a(__wait.o)
 .debug_line    0x00000000000b10ab      0x6b6 0x1 /usr/local/popcorn/aarch64/lib/libc.a(pthread_create.o)
 .debug_line    0x00000000000b1761      0x18e 0x1 /usr/local/popcorn/aarch64/lib/libc.a(pthread_join.o)
 .debug_line    0x00000000000b18ef       0x78 0x1 /usr/local/popcorn/aarch64/lib/libc.a(pthread_mutex_destroy.o)
 .debug_line    0x00000000000b1967       0x85 0x1 /usr/local/popcorn/aarch64/lib/libc.a(pthread_mutex_init.o)
 .debug_line    0x00000000000b19ec       0xc9 0x1 /usr/local/popcorn/aarch64/lib/libc.a(pthread_mutex_lock.o)
 .debug_line    0x00000000000b1ab5      0x214 0x1 /usr/local/popcorn/aarch64/lib/libc.a(pthread_mutex_timedlock.o)
 .debug_line    0x00000000000b1cc9      0x246 0x1 /usr/local/popcorn/aarch64/lib/libc.a(pthread_mutex_trylock.o)
 .debug_line    0x00000000000b1f0f      0x1d0 0x1 /usr/local/popcorn/aarch64/lib/libc.a(pthread_mutex_unlock.o)
 .debug_line    0x00000000000b20df       0x7c 0x1 /usr/local/popcorn/aarch64/lib/libc.a(pthread_mutexattr_destroy.o)
 .debug_line    0x00000000000b215b       0x7c 0x1 /usr/local/popcorn/aarch64/lib/libc.a(pthread_mutexattr_init.o)
 .debug_line    0x00000000000b21d7       0x9d 0x1 /usr/local/popcorn/aarch64/lib/libc.a(pthread_mutexattr_settype.o)
 .debug_line    0x00000000000b2274       0xfc 0x1 /usr/local/popcorn/aarch64/lib/libc.a(pthread_setcancelstate.o)
 .debug_line    0x00000000000b2370       0x6d 0x1 /usr/local/popcorn/aarch64/lib/libc.a(pthread_testcancel.o)
 .debug_line    0x00000000000b23dd      0x157 0x1 /usr/local/popcorn/aarch64/lib/libc.a(vmlock.o)
 .debug_line    0x00000000000b2534       0x8c 0x1 /usr/local/popcorn/aarch64/lib/libc.a(gettimeofday.o)
 .debug_line    0x00000000000b25c0       0x80 0x1 /usr/local/popcorn/aarch64/lib/libc.a(localtime.o)
 .debug_line    0x00000000000b2640       0xb2 0x1 /usr/local/popcorn/aarch64/lib/libc.a(localtime_r.o)
 .debug_line    0x00000000000b26f2       0x7a 0x1 /usr/local/popcorn/aarch64/lib/libc.a(time.o)
 .debug_line    0x00000000000b276c       0x88 0x1 /usr/local/popcorn/aarch64/lib/libc.a(access.o)
 .debug_line    0x00000000000b27f4       0x6e 0x1 /usr/local/popcorn/aarch64/lib/libc.a(close.o)
 .debug_line    0x00000000000b2862       0xc4 0x1 /usr/local/popcorn/aarch64/lib/libc.a(fchown.o)
 .debug_line    0x00000000000b2926       0x4f 0x1 /usr/local/popcorn/aarch64/lib/libc.a(fsync.o)
 .debug_line    0x00000000000b2975       0xaa 0x1 /usr/local/popcorn/aarch64/lib/libc.a(ftruncate.o)
 .debug_line    0x00000000000b2a1f       0xca 0x1 /usr/local/popcorn/aarch64/lib/libc.a(getcwd.o)
 .debug_line    0x00000000000b2ae9       0x94 0x1 /usr/local/popcorn/aarch64/lib/libc.a(geteuid.o)
 .debug_line    0x00000000000b2b7d       0x93 0x1 /usr/local/popcorn/aarch64/lib/libc.a(getpid.o)
 .debug_line    0x00000000000b2c10       0xa2 0x1 /usr/local/popcorn/aarch64/lib/libc.a(lseek.o)
 .debug_line    0x00000000000b2cb2       0x67 0x1 /usr/local/popcorn/aarch64/lib/libc.a(read.o)
 .debug_line    0x00000000000b2d19       0x97 0x1 /usr/local/popcorn/aarch64/lib/libc.a(readlink.o)
 .debug_line    0x00000000000b2db0       0x79 0x1 /usr/local/popcorn/aarch64/lib/libc.a(rmdir.o)
 .debug_line    0x00000000000b2e29       0x7d 0x1 /usr/local/popcorn/aarch64/lib/libc.a(sleep.o)
 .debug_line    0x00000000000b2ea6       0x7a 0x1 /usr/local/popcorn/aarch64/lib/libc.a(unlink.o)
 .debug_line    0x00000000000b2f20       0x68 0x1 /usr/local/popcorn/aarch64/lib/libc.a(write.o)
 .debug_line    0x00000000000b2f88       0x35 0x1 /usr/local/popcorn/aarch64/lib/libc.a(__environ.o)
 .debug_line    0x00000000000b2fbd      0x298 0x1 /usr/local/popcorn/aarch64/lib/libc.a(__init_tls.o)
 .debug_line    0x00000000000b3255      0x123 0x1 /usr/local/popcorn/aarch64/lib/libc.a(platform.o)
 .debug_line    0x00000000000b3378      0x13b 0x1 /usr/local/popcorn/aarch64/lib/libc.a(strerror.o)
 .debug_line    0x00000000000b34b3       0x75 0x1 /usr/local/popcorn/aarch64/lib/libc.a(_Exit.o)
 .debug_line    0x00000000000b3528       0x5a 0x1 /usr/local/popcorn/aarch64/lib/libc.a(syscall.o)
 .debug_line    0x00000000000b3582       0xa0 0x1 /usr/local/popcorn/aarch64/lib/libc.a(procfdname.o)
 .debug_line    0x00000000000b3622       0x4a 0x1 /usr/local/popcorn/aarch64/lib/libc.a(__dlsym.o)
 .debug_line    0x00000000000b366c      0x11d 0x1 /usr/local/popcorn/aarch64/lib/libc.a(__lctrans.o)
 .debug_line    0x00000000000b3789      0x453 0x1 /usr/local/popcorn/aarch64/lib/libc.a(expand_heap.o)
 .debug_line    0x00000000000b3bdc       0xb4 0x1 /usr/local/popcorn/aarch64/lib/libc.a(__fpclassifyl.o)
 .debug_line    0x00000000000b3c90       0x88 0x1 /usr/local/popcorn/aarch64/lib/libc.a(__signbitl.o)
 .debug_line    0x00000000000b3d18       0xca 0x1 /usr/local/popcorn/aarch64/lib/libc.a(frexpl.o)
 .debug_line    0x00000000000b3de2       0xb8 0x1 /usr/local/popcorn/aarch64/lib/libc.a(mprotect.o)
 .debug_line    0x00000000000b3e9a       0x77 0x1 /usr/local/popcorn/aarch64/lib/libc.a(wctomb.o)
 .debug_line    0x00000000000b3f11       0xba 0x1 /usr/local/popcorn/aarch64/lib/libc.a(block.o)
 .debug_line    0x00000000000b3fcb      0x1a9 0x1 /usr/local/popcorn/aarch64/lib/libc.a(__lockfile.o)
 .debug_line    0x00000000000b4174       0xdb 0x1 /usr/local/popcorn/aarch64/lib/libc.a(__overflow.o)
 .debug_line    0x00000000000b424f       0xf0 0x1 /usr/local/popcorn/aarch64/lib/libc.a(__stdio_close.o)
 .debug_line    0x00000000000b433f       0xc6 0x1 /usr/local/popcorn/aarch64/lib/libc.a(__stdio_seek.o)
 .debug_line    0x00000000000b4405      0x198 0x1 /usr/local/popcorn/aarch64/lib/libc.a(__stdio_write.o)
 .debug_line    0x00000000000b459d      0x109 0x1 /usr/local/popcorn/aarch64/lib/libc.a(__stdout_write.o)
 .debug_line    0x00000000000b46a6       0xb8 0x1 /usr/local/popcorn/aarch64/lib/libc.a(__string_read.o)
 .debug_line    0x00000000000b475e       0xe2 0x1 /usr/local/popcorn/aarch64/lib/libc.a(__towrite.o)
 .debug_line    0x00000000000b4840      0x71f 0x1 /usr/local/popcorn/aarch64/lib/libc.a(vfscanf.o)
 .debug_line    0x00000000000b4f5f       0xd3 0x1 /usr/local/popcorn/aarch64/lib/libc.a(memchr.o)
 .debug_line    0x00000000000b5032       0xc1 0x1 /usr/local/popcorn/aarch64/lib/libc.a(stpcpy.o)
 .debug_line    0x00000000000b50f3       0xf0 0x1 /usr/local/popcorn/aarch64/lib/libc.a(stpncpy.o)
 .debug_line    0x00000000000b51e3       0x7a 0x1 /usr/local/popcorn/aarch64/lib/libc.a(strdup.o)
 .debug_line    0x00000000000b525d      0x105 0x1 /usr/local/popcorn/aarch64/lib/libc.a(__timedwait.o)
 .debug_line    0x00000000000b5362       0x6a 0x1 /usr/local/popcorn/aarch64/lib/libc.a(__cleartid_exit_nostack.o)
 .debug_line    0x00000000000b53cc       0x5b 0x1 /usr/local/popcorn/aarch64/lib/libc.a(__set_thread_area.o)
 .debug_line    0x00000000000b5427       0x56 0x1 /usr/local/popcorn/aarch64/lib/libc.a(__unmapself.o)
 .debug_line    0x00000000000b547d       0x5c 0x1 /usr/local/popcorn/aarch64/lib/libc.a(clone.o)
 .debug_line    0x00000000000b54d9      0x1ee 0x1 /usr/local/popcorn/aarch64/lib/libc.a(__secs_to_tm.o)
 .debug_line    0x00000000000b56c7      0xac5 0x1 /usr/local/popcorn/aarch64/lib/libc.a(__tz.o)
 .debug_line    0x00000000000b618c      0x122 0x1 /usr/local/popcorn/aarch64/lib/libc.a(__year_to_secs.o)
 .debug_line    0x00000000000b62ae       0xdb 0x1 /usr/local/popcorn/aarch64/lib/libc.a(clock_gettime.o)
 .debug_line    0x00000000000b6389       0x6f 0x1 /usr/local/popcorn/aarch64/lib/libc.a(nanosleep.o)
 .debug_line    0x00000000000b63f8      0xf0a 0x1 /usr/local/popcorn/aarch64/lib/libc.a(floatscan.o)
 .debug_line    0x00000000000b7302      0x3db 0x1 /usr/local/popcorn/aarch64/lib/libc.a(intscan.o)
 .debug_line    0x00000000000b76dd      0x14a 0x1 /usr/local/popcorn/aarch64/lib/libc.a(shgetc.o)
 .debug_line    0x00000000000b7827       0x4f 0x1 /usr/local/popcorn/aarch64/lib/libc.a(fabs.o)
 .debug_line    0x00000000000b7876       0x96 0x1 /usr/local/popcorn/aarch64/lib/libc.a(copysignl.o)
 .debug_line    0x00000000000b790c      0x1c4 0x1 /usr/local/popcorn/aarch64/lib/libc.a(fmodl.o)
 .debug_line    0x00000000000b7ad0       0xe1 0x1 /usr/local/popcorn/aarch64/lib/libc.a(scalbn.o)
 .debug_line    0x00000000000b7bb1       0xff 0x1 /usr/local/popcorn/aarch64/lib/libc.a(scalbnl.o)
 .debug_line    0x00000000000b7cb0      0x1a6 0x1 /usr/local/popcorn/aarch64/lib/libc.a(mbrtowc.o)
 .debug_line    0x00000000000b7e56       0x79 0x1 /usr/local/popcorn/aarch64/lib/libc.a(mbsinit.o)
 .debug_line    0x00000000000b7ecf      0x15f 0x1 /usr/local/popcorn/aarch64/lib/libc.a(wcrtomb.o)
 .debug_line    0x00000000000b802e      0x103 0x1 /usr/local/popcorn/aarch64/lib/libc.a(__stdio_exit.o)
 .debug_line    0x00000000000b8131       0xab 0x1 /usr/local/popcorn/aarch64/lib/libc.a(__uflow.o)
 .debug_line    0x00000000000b81dc       0xeb 0x1 /usr/local/popcorn/aarch64/lib/libc.a(__map_file.o)
 .debug_line    0x00000000000b82c7       0x67 0x1 /usr/local/popcorn/aarch64/lib/libc.a(__month_to_secs.o)
 .debug_line    0x00000000000b832e       0x59 0x1 /usr/local/popcorn/aarch64/lib/libc.a(internal.o)
 .debug_line    0x00000000000b8387       0xe9 0x1 /usr/local/popcorn/aarch64/lib/libc.a(__toread.o)

.stack_transform.unwind
                0x0000000000000000       0x30
 .stack_transform.unwind
                0x0000000000000000       0x18 0x4 /usr/local/popcorn/aarch64/lib/libc.a(__libc_start_main.o)
 .stack_transform.unwind
                0x0000000000000018       0x18 0x4 /usr/local/popcorn/aarch64/lib/libc.a(pthread_create.o)

.stack_transform.unwind_arange
                0x0000000000000000       0x30
 .stack_transform.unwind_arange
                0x0000000000000000       0x10 0x8 /usr/local/popcorn/aarch64/lib/libc.a(__libc_start_main.o)
 .stack_transform.unwind_arange
                0x0000000000000010       0x20 0x8 /usr/local/popcorn/aarch64/lib/libc.a(pthread_create.o)

.debug_aranges  0x0000000000000000      0x120
 .debug_aranges
                0x0000000000000000       0x30 0x1 /usr/local/popcorn/aarch64/lib/libc.a(dlsym.o)
 .debug_aranges
                0x0000000000000030       0x30 0x1 /usr/local/popcorn/aarch64/lib/libc.a(syscall.o)
 .debug_aranges
                0x0000000000000060       0x30 0x1 /usr/local/popcorn/aarch64/lib/libc.a(__cleartid_exit_nostack.o)
 .debug_aranges
                0x0000000000000090       0x30 0x1 /usr/local/popcorn/aarch64/lib/libc.a(__set_thread_area.o)
 .debug_aranges
                0x00000000000000c0       0x30 0x1 /usr/local/popcorn/aarch64/lib/libc.a(__unmapself.o)
 .debug_aranges
                0x00000000000000f0       0x30 0x1 /usr/local/popcorn/aarch64/lib/libc.a(clone.o)

.note.gnu.gold-version
                0x0000000000000000       0x1c
 ** note header
                0x0000000000000000       0x10
 ** fill        0x0000000000000010        0x9
 ** zero fill   0x0000000000000019        0x3

.symtab         0x0000000000000000    0x288d8
 ** symtab      0x0000000000000000    0x288d8

.strtab         0x0000000000000000    0x12536
 ** string table
                0x0000000000000000    0x12536

.shstrtab       0x0000000000000000      0x14b
 ** string table
                0x0000000000000000      0x14b
