Archive member included to satisfy reference by file (symbol)

/usr/local/popcorn/aarch64/lib/libc.a(__libc_start_main.o)
                              /usr/local/popcorn/aarch64/lib/crt1.o (__libc_start_main)
/usr/local/popcorn/aarch64/lib/libc.a(exit.o)
                              /usr/local/popcorn/aarch64/lib/libc.a(__libc_start_main.o) (exit)
/usr/local/popcorn/aarch64/lib/libc.a(libc.o)
                              /usr/local/popcorn/aarch64/lib/libc.a(__libc_start_main.o) (__hwcap)
/usr/local/popcorn/aarch64/lib/libc.a(printf.o)
                              migrate_aarch64.o (printf)
/usr/local/popcorn/aarch64/lib/libc.a(stdout.o)
                              /usr/local/popcorn/aarch64/lib/libc.a(printf.o) (stdout)
/usr/local/popcorn/aarch64/lib/libc.a(vfprintf.o)
                              /usr/local/popcorn/aarch64/lib/libc.a(printf.o) (vfprintf)
/usr/local/popcorn/aarch64/lib/libc.a(memset.o)
                              /usr/local/popcorn/aarch64/lib/libc.a(__libc_start_main.o) (memset)
/usr/local/popcorn/aarch64/lib/libc.a(strnlen.o)
                              /usr/local/popcorn/aarch64/lib/libc.a(vfprintf.o) (strnlen)
/usr/local/popcorn/aarch64/lib/libc.a(gettid.o)
                              migrate_aarch64.o (gettid)
/usr/local/popcorn/aarch64/lib/libc.a(sleep.o)
                              migrate_aarch64.o (sleep)
/usr/local/popcorn/aarch64/lib/libc.a(__environ.o)
                              /usr/local/popcorn/aarch64/lib/libc.a(__libc_start_main.o) (__environ)
/usr/local/popcorn/aarch64/lib/libc.a(__init_tls.o)
                              /usr/local/popcorn/aarch64/lib/libc.a(__libc_start_main.o) (__init_tls)
/usr/local/popcorn/aarch64/lib/libc.a(__errno_location.o)
                              /usr/local/popcorn/aarch64/lib/libc.a(vfprintf.o) (__errno_location)
/usr/local/popcorn/aarch64/lib/libc.a(strerror.o)
                              /usr/local/popcorn/aarch64/lib/libc.a(vfprintf.o) (strerror)
/usr/local/popcorn/aarch64/lib/libc.a(_Exit.o)
                              /usr/local/popcorn/aarch64/lib/libc.a(exit.o) (_Exit)
/usr/local/popcorn/aarch64/lib/libc.a(__lctrans.o)
                              /usr/local/popcorn/aarch64/lib/libc.a(strerror.o) (__lctrans)
/usr/local/popcorn/aarch64/lib/libc.a(__fpclassifyl.o)
                              /usr/local/popcorn/aarch64/lib/libc.a(vfprintf.o) (__fpclassifyl)
/usr/local/popcorn/aarch64/lib/libc.a(__signbitl.o)
                              /usr/local/popcorn/aarch64/lib/libc.a(vfprintf.o) (__signbitl)
/usr/local/popcorn/aarch64/lib/libc.a(frexpl.o)
                              /usr/local/popcorn/aarch64/lib/libc.a(vfprintf.o) (frexpl)
/usr/local/popcorn/aarch64/lib/libc.a(wctomb.o)
                              /usr/local/popcorn/aarch64/lib/libc.a(vfprintf.o) (wctomb)
/usr/local/popcorn/aarch64/lib/libc.a(__lockfile.o)
                              /usr/local/popcorn/aarch64/lib/libc.a(vfprintf.o) (__lockfile)
/usr/local/popcorn/aarch64/lib/libc.a(__stdio_close.o)
                              /usr/local/popcorn/aarch64/lib/libc.a(stdout.o) (__stdio_close)
/usr/local/popcorn/aarch64/lib/libc.a(__stdio_seek.o)
                              /usr/local/popcorn/aarch64/lib/libc.a(stdout.o) (__stdio_seek)
/usr/local/popcorn/aarch64/lib/libc.a(__stdout_write.o)
                              /usr/local/popcorn/aarch64/lib/libc.a(stdout.o) (__stdout_write)
/usr/local/popcorn/aarch64/lib/libc.a(fwrite.o)
                              /usr/local/popcorn/aarch64/lib/libc.a(vfprintf.o) (__fwritex)
/usr/local/popcorn/aarch64/lib/libc.a(memchr.o)
                              /usr/local/popcorn/aarch64/lib/libc.a(strnlen.o) (memchr)
/usr/local/popcorn/aarch64/lib/libc.a(memcpy.o)
                              /usr/local/popcorn/aarch64/lib/libc.a(__init_tls.o) (memcpy)
/usr/local/popcorn/aarch64/lib/libc.a(__wait.o)
                              /usr/local/popcorn/aarch64/lib/libc.a(__lockfile.o) (__wait)
/usr/local/popcorn/aarch64/lib/libc.a(__set_thread_area.o)
                              /usr/local/popcorn/aarch64/lib/libc.a(__init_tls.o) (__set_thread_area)
/usr/local/popcorn/aarch64/lib/libc.a(nanosleep.o)
                              /usr/local/popcorn/aarch64/lib/libc.a(sleep.o) (nanosleep)
/usr/local/popcorn/aarch64/lib/libc.a(syscall_ret.o)
                              /usr/local/popcorn/aarch64/lib/libc.a(__stdio_close.o) (__syscall_ret)
/usr/local/popcorn/aarch64/lib/libc.a(wcrtomb.o)
                              /usr/local/popcorn/aarch64/lib/libc.a(wctomb.o) (wcrtomb)
/usr/local/popcorn/aarch64/lib/libc.a(__stdio_write.o)
                              /usr/local/popcorn/aarch64/lib/libc.a(__stdout_write.o) (__stdio_write)
/usr/local/popcorn/aarch64/lib/libc.a(__towrite.o)
                              /usr/local/popcorn/aarch64/lib/libc.a(fwrite.o) (__towrite)
/usr/local/popcorn/aarch64/lib/libc.a(__syscall_cp.o)
                              /usr/local/popcorn/aarch64/lib/libc.a(nanosleep.o) (__syscall_cp)
/usr/local/popcorn/aarch64/lib/libc.a(syscall.o)
                              /usr/local/popcorn/aarch64/lib/libc.a(__syscall_cp.o) (__syscall)
/usr/local/popcorn/aarch64/lib/libc.a(__stdio_exit.o)
                              /usr/local/popcorn/aarch64/lib/libc.a(__towrite.o) (__stdio_exit_needed)
/usr/local/popcorn/aarch64/lib/libc.a(ofl.o)
                              /usr/local/popcorn/aarch64/lib/libc.a(__stdio_exit.o) (__ofl_lock)
/usr/local/popcorn/aarch64/lib/libc.a(__lock.o)
                              /usr/local/popcorn/aarch64/lib/libc.a(ofl.o) (__lock)
/usr/local/popcorn/aarch64/lib/libmigrate.a(migrate.o)
                              migrate_aarch64.o (check_migrate)
/usr/local/popcorn/aarch64/lib/libmigrate.a(migrate_powerpc64.o)
                              /usr/local/popcorn/aarch64/lib/libmigrate.a(migrate.o) (__migrate_fixup_powerpc64)
/usr/local/popcorn/aarch64/lib/libmigrate.a(migrate_aarch64.o)
                              /usr/local/popcorn/aarch64/lib/libmigrate.a(migrate.o) (__migrate_fixup_aarch64)
/usr/local/popcorn/aarch64/lib/libmigrate.a(migrate_x86_64.o)
                              /usr/local/popcorn/aarch64/lib/libmigrate.a(migrate.o) (__migrate_fixup_x86_64)
/usr/local/popcorn/aarch64/lib/libmigrate.a(migrate_riscv64.o)
                              /usr/local/popcorn/aarch64/lib/libmigrate.a(migrate.o) (__migrate_fixup_riscv64)
/usr/local/popcorn/aarch64/lib/libmigrate.a(mapping.o)
                              /usr/local/popcorn/aarch64/lib/libmigrate.a(migrate.o) (get_node_mapping)
/usr/local/popcorn/aarch64/lib/libstack-transform.a(userspace.o)
                              /usr/local/popcorn/aarch64/lib/libmigrate.a(migrate.o) (st_userspace_rewrite)
/usr/local/popcorn/aarch64/lib/libstack-transform.a(init.o)
                              /usr/local/popcorn/aarch64/lib/libstack-transform.a(userspace.o) (st_destroy)
/usr/local/popcorn/aarch64/lib/libstack-transform.a(rewrite.o)
                              /usr/local/popcorn/aarch64/lib/libstack-transform.a(userspace.o) (st_rewrite_stack)
/usr/local/popcorn/aarch64/lib/libstack-transform.a(unwind.o)
                              /usr/local/popcorn/aarch64/lib/libstack-transform.a(rewrite.o) (bootstrap_first_frame)
/usr/local/popcorn/aarch64/lib/libstack-transform.a(util.o)
                              /usr/local/popcorn/aarch64/lib/libstack-transform.a(rewrite.o) (get_function_address)
/usr/local/popcorn/aarch64/lib/libstack-transform.a(properties.o)
                              /usr/local/popcorn/aarch64/lib/libstack-transform.a(util.o) (properties_aarch64)
/usr/local/popcorn/aarch64/lib/libstack-transform.a(regs.o)
                              /usr/local/popcorn/aarch64/lib/libstack-transform.a(util.o) (regs_aarch64)
/usr/local/popcorn/aarch64/lib/libstack-transform.a(properties.o)
                              /usr/local/popcorn/aarch64/lib/libstack-transform.a(util.o) (properties_powerpc64)
/usr/local/popcorn/aarch64/lib/libstack-transform.a(regs.o)
                              /usr/local/popcorn/aarch64/lib/libstack-transform.a(util.o) (regs_powerpc64)
/usr/local/popcorn/aarch64/lib/libstack-transform.a(properties.o)
                              /usr/local/popcorn/aarch64/lib/libstack-transform.a(util.o) (properties_riscv64)
/usr/local/popcorn/aarch64/lib/libstack-transform.a(regs.o)
                              /usr/local/popcorn/aarch64/lib/libstack-transform.a(util.o) (regs_riscv64)
/usr/local/popcorn/aarch64/lib/libstack-transform.a(properties.o)
                              /usr/local/popcorn/aarch64/lib/libstack-transform.a(util.o) (properties_x86_64)
/usr/local/popcorn/aarch64/lib/libstack-transform.a(regs.o)
                              /usr/local/popcorn/aarch64/lib/libstack-transform.a(util.o) (regs_x86_64)
/usr/local/popcorn/aarch64/lib/libstack-transform.a(data.o)
                              /usr/local/popcorn/aarch64/lib/libstack-transform.a(rewrite.o) (get_savedfbp_loc)
/usr/local/popcorn/aarch64/lib/libelf.a(begin.o)
                              /usr/local/popcorn/aarch64/lib/libstack-transform.a(init.o) (elf_begin)
/usr/local/popcorn/aarch64/lib/libelf.a(end.o)
                              /usr/local/popcorn/aarch64/lib/libstack-transform.a(init.o) (elf_end)
/usr/local/popcorn/aarch64/lib/libelf.a(getdata.o)
                              /usr/local/popcorn/aarch64/lib/libstack-transform.a(util.o) (elf_getdata)
/usr/local/popcorn/aarch64/lib/libelf.a(getident.o)
                              /usr/local/popcorn/aarch64/lib/libstack-transform.a(init.o) (elf_getident)
/usr/local/popcorn/aarch64/lib/libelf.a(nextscn.o)
                              /usr/local/popcorn/aarch64/lib/libstack-transform.a(util.o) (elf_nextscn)
/usr/local/popcorn/aarch64/lib/libelf.a(strptr.o)
                              /usr/local/popcorn/aarch64/lib/libstack-transform.a(util.o) (elf_strptr)
/usr/local/popcorn/aarch64/lib/libelf.a(version.o)
                              /usr/local/popcorn/aarch64/lib/libstack-transform.a(userspace.o) (elf_version)
/usr/local/popcorn/aarch64/lib/libelf.a(32.getehdr.o)
                              /usr/local/popcorn/aarch64/lib/libstack-transform.a(init.o) (elf64_getehdr)
/usr/local/popcorn/aarch64/lib/libelf.a(32.xlatetof.o)
                              /usr/local/popcorn/aarch64/lib/libelf.a(getdata.o) (_elf32_xltsize)
/usr/local/popcorn/aarch64/lib/libelf.a(cook.o)
                              /usr/local/popcorn/aarch64/lib/libelf.a(getident.o) (_elf_cook)
/usr/local/popcorn/aarch64/lib/libelf.a(data.o)
                              /usr/local/popcorn/aarch64/lib/libelf.a(begin.o) (_elf_errno)
/usr/local/popcorn/aarch64/lib/libelf.a(input.o)
                              /usr/local/popcorn/aarch64/lib/libelf.a(begin.o) (_elf_mmap)
/usr/local/popcorn/aarch64/lib/libelf.a(x.elfext.o)
                              /usr/local/popcorn/aarch64/lib/libstack-transform.a(util.o) (elf_getshdrstrndx)
/usr/local/popcorn/aarch64/lib/libelf.a(64.xlatetof.o)
                              /usr/local/popcorn/aarch64/lib/libelf.a(getdata.o) (_elf64_xltsize)
/usr/local/popcorn/aarch64/lib/libelf.a(gelfshdr.o)
                              /usr/local/popcorn/aarch64/lib/libstack-transform.a(util.o) (gelf_getshdr)
/usr/local/popcorn/aarch64/lib/libelf.a(swap64.o)
                              /usr/local/popcorn/aarch64/lib/libelf.a(64.xlatetof.o) (_elf_load_i64L)
/usr/local/popcorn/aarch64/lib/libelf.a(verdef_32_tof.o)
                              /usr/local/popcorn/aarch64/lib/libelf.a(32.xlatetof.o) (_elf_verdef_32L11_tof)
/usr/local/popcorn/aarch64/lib/libelf.a(verdef_32_tom.o)
                              /usr/local/popcorn/aarch64/lib/libelf.a(32.xlatetof.o) (_elf_verdef_32L11_tom)
/usr/local/popcorn/aarch64/lib/libelf.a(verdef_64_tof.o)
                              /usr/local/popcorn/aarch64/lib/libelf.a(64.xlatetof.o) (_elf_verdef_64L11_tof)
/usr/local/popcorn/aarch64/lib/libelf.a(verdef_64_tom.o)
                              /usr/local/popcorn/aarch64/lib/libelf.a(64.xlatetof.o) (_elf_verdef_64L11_tom)
/usr/local/popcorn/aarch64/lib/libelf.a(getscn.o)
                              /usr/local/popcorn/aarch64/lib/libelf.a(strptr.o) (elf_getscn)
/usr/local/popcorn/aarch64/lib/libelf.a(newscn.o)
                              /usr/local/popcorn/aarch64/lib/libelf.a(x.elfext.o) (_elf_first_scn)
/usr/local/popcorn/aarch64/lib/libelf.a(32.fsize.o)
                              /usr/local/popcorn/aarch64/lib/libelf.a(cook.o) (_elf_fmsize)
/usr/local/popcorn/aarch64/lib/libc.a(arch_crash.o)
                              /usr/local/popcorn/aarch64/lib/libmigrate.a(migrate_aarch64.o) (crash_aarch64)
/usr/local/popcorn/aarch64/lib/libc.a(getenv.o)
                              /usr/local/popcorn/aarch64/lib/libmigrate.a(mapping.o) (getenv)
/usr/local/popcorn/aarch64/lib/libc.a(platform.o)
                              /usr/local/popcorn/aarch64/lib/libmigrate.a(migrate.o) (popcorn_getnid)
/usr/local/popcorn/aarch64/lib/libc.a(assert.o)
                              /usr/local/popcorn/aarch64/lib/libmigrate.a(migrate.o) (__assert_fail)
/usr/local/popcorn/aarch64/lib/libc.a(open.o)
                              /usr/local/popcorn/aarch64/lib/libstack-transform.a(init.o) (open)
/usr/local/popcorn/aarch64/lib/libc.a(calloc.o)
                              /usr/local/popcorn/aarch64/lib/libmigrate.a(mapping.o) (calloc)
/usr/local/popcorn/aarch64/lib/libc.a(lite_malloc.o)
                              /usr/local/popcorn/aarch64/lib/libc.a(calloc.o) (__malloc0)
/usr/local/popcorn/aarch64/lib/libc.a(malloc.o)
                              /usr/local/popcorn/aarch64/lib/libmigrate.a(mapping.o) (free)
/usr/local/popcorn/aarch64/lib/libc.a(popcorn_malloc.o)
                              /usr/local/popcorn/aarch64/lib/libc.a(calloc.o) (__popcorn_malloc0)
/usr/local/popcorn/aarch64/lib/libc.a(getrlimit.o)
                              /usr/local/popcorn/aarch64/lib/libstack-transform.a(userspace.o) (getrlimit)
/usr/local/popcorn/aarch64/lib/libc.a(madvise.o)
                              /usr/local/popcorn/aarch64/lib/libc.a(malloc.o) (__madvise)
/usr/local/popcorn/aarch64/lib/libc.a(mmap.o)
                              /usr/local/popcorn/aarch64/lib/libc.a(malloc.o) (__mmap)
/usr/local/popcorn/aarch64/lib/libc.a(mremap.o)
                              /usr/local/popcorn/aarch64/lib/libc.a(malloc.o) (__mremap)
/usr/local/popcorn/aarch64/lib/libc.a(munmap.o)
                              /usr/local/popcorn/aarch64/lib/libc.a(malloc.o) (__munmap)
/usr/local/popcorn/aarch64/lib/libc.a(fclose.o)
                              /usr/local/popcorn/aarch64/lib/libmigrate.a(mapping.o) (fclose)
/usr/local/popcorn/aarch64/lib/libc.a(fflush.o)
                              /usr/local/popcorn/aarch64/lib/libc.a(assert.o) (fflush)
/usr/local/popcorn/aarch64/lib/libc.a(fopen.o)
                              /usr/local/popcorn/aarch64/lib/libmigrate.a(mapping.o) (fopen)
/usr/local/popcorn/aarch64/lib/libc.a(fprintf.o)
                              /usr/local/popcorn/aarch64/lib/libmigrate.a(migrate.o) (fprintf)
/usr/local/popcorn/aarch64/lib/libc.a(fscanf.o)
                              /usr/local/popcorn/aarch64/lib/libmigrate.a(mapping.o) (fscanf)
/usr/local/popcorn/aarch64/lib/libc.a(fseek.o)
                              /usr/local/popcorn/aarch64/lib/libmigrate.a(mapping.o) (fseek)
/usr/local/popcorn/aarch64/lib/libc.a(getc.o)
                              /usr/local/popcorn/aarch64/lib/libmigrate.a(mapping.o) (getc)
/usr/local/popcorn/aarch64/lib/libc.a(getline.o)
                              /usr/local/popcorn/aarch64/lib/libstack-transform.a(userspace.o) (getline)
/usr/local/popcorn/aarch64/lib/libc.a(perror.o)
                              /usr/local/popcorn/aarch64/lib/libmigrate.a(migrate.o) (perror)
/usr/local/popcorn/aarch64/lib/libc.a(snprintf.o)
                              /usr/local/popcorn/aarch64/lib/libstack-transform.a(userspace.o) (snprintf)
/usr/local/popcorn/aarch64/lib/libc.a(sscanf.o)
                              /usr/local/popcorn/aarch64/lib/libstack-transform.a(userspace.o) (sscanf)
/usr/local/popcorn/aarch64/lib/libc.a(stderr.o)
                              /usr/local/popcorn/aarch64/lib/libmigrate.a(migrate.o) (stderr)
/usr/local/popcorn/aarch64/lib/libc.a(vfscanf.o)
                              /usr/local/popcorn/aarch64/lib/libc.a(fscanf.o) (vfscanf)
/usr/local/popcorn/aarch64/lib/libc.a(vsnprintf.o)
                              /usr/local/popcorn/aarch64/lib/libc.a(snprintf.o) (vsnprintf)
/usr/local/popcorn/aarch64/lib/libc.a(vsscanf.o)
                              /usr/local/popcorn/aarch64/lib/libc.a(sscanf.o) (vsscanf)
/usr/local/popcorn/aarch64/lib/libc.a(bsearch.o)
                              /usr/local/popcorn/aarch64/lib/libmigrate.a(mapping.o) (bsearch)
/usr/local/popcorn/aarch64/lib/libc.a(qsort.o)
                              /usr/local/popcorn/aarch64/lib/libmigrate.a(mapping.o) (qsort)
/usr/local/popcorn/aarch64/lib/libc.a(strtol.o)
                              /usr/local/popcorn/aarch64/lib/libelf.a(version.o) (strtol)
/usr/local/popcorn/aarch64/lib/libc.a(strchr.o)
                              /usr/local/popcorn/aarch64/lib/libc.a(fopen.o) (strchr)
/usr/local/popcorn/aarch64/lib/libc.a(strchrnul.o)
                              /usr/local/popcorn/aarch64/lib/libc.a(getenv.o) (__strchrnul)
/usr/local/popcorn/aarch64/lib/libc.a(strcmp.o)
                              /usr/local/popcorn/aarch64/lib/libstack-transform.a(util.o) (strcmp)
/usr/local/popcorn/aarch64/lib/libc.a(strlen.o)
                              /usr/local/popcorn/aarch64/lib/libc.a(perror.o) (strlen)
/usr/local/popcorn/aarch64/lib/libc.a(strncmp.o)
                              /usr/local/popcorn/aarch64/lib/libc.a(getenv.o) (strncmp)
/usr/local/popcorn/aarch64/lib/libc.a(pthread_attr_get.o)
                              /usr/local/popcorn/aarch64/lib/libstack-transform.a(userspace.o) (pthread_attr_getstack)
/usr/local/popcorn/aarch64/lib/libc.a(pthread_getattr_np.o)
                              /usr/local/popcorn/aarch64/lib/libstack-transform.a(userspace.o) (pthread_getattr_np)
/usr/local/popcorn/aarch64/lib/libc.a(pthread_migrate.o)
                              /usr/local/popcorn/aarch64/lib/libmigrate.a(migrate.o) (pthread_get_migrate_args)
/usr/local/popcorn/aarch64/lib/libc.a(pthread_self.o)
                              /usr/local/popcorn/aarch64/lib/libstack-transform.a(userspace.o) (pthread_self)
/usr/local/popcorn/aarch64/lib/libc.a(close.o)
                              /usr/local/popcorn/aarch64/lib/libstack-transform.a(init.o) (close)
/usr/local/popcorn/aarch64/lib/libc.a(getpid.o)
                              /usr/local/popcorn/aarch64/lib/libstack-transform.a(userspace.o) (getpid)
/usr/local/popcorn/aarch64/lib/libc.a(lseek.o)
                              /usr/local/popcorn/aarch64/lib/libelf.a(begin.o) (lseek)
/usr/local/popcorn/aarch64/lib/libc.a(read.o)
                              /usr/local/popcorn/aarch64/lib/libelf.a(input.o) (read)
/usr/local/popcorn/aarch64/lib/libc.a(abort.o)
                              /usr/local/popcorn/aarch64/lib/libc.a(assert.o) (abort)
/usr/local/popcorn/aarch64/lib/libc.a(floatscan.o)
                              /usr/local/popcorn/aarch64/lib/libc.a(vfscanf.o) (__floatscan)
/usr/local/popcorn/aarch64/lib/libc.a(intscan.o)
                              /usr/local/popcorn/aarch64/lib/libc.a(vfscanf.o) (__intscan)
/usr/local/popcorn/aarch64/lib/libc.a(shgetc.o)
                              /usr/local/popcorn/aarch64/lib/libc.a(vfscanf.o) (__shgetc)
/usr/local/popcorn/aarch64/lib/libc.a(expand_heap.o)
                              /usr/local/popcorn/aarch64/lib/libc.a(lite_malloc.o) (__expand_heap)
/usr/local/popcorn/aarch64/lib/libc.a(fabs.o)
                              /usr/local/popcorn/aarch64/lib/libc.a(floatscan.o) (fabs)
/usr/local/popcorn/aarch64/lib/libc.a(copysignl.o)
                              /usr/local/popcorn/aarch64/lib/libc.a(floatscan.o) (copysignl)
/usr/local/popcorn/aarch64/lib/libc.a(fmodl.o)
                              /usr/local/popcorn/aarch64/lib/libc.a(floatscan.o) (fmodl)
/usr/local/popcorn/aarch64/lib/libc.a(scalbn.o)
                              /usr/local/popcorn/aarch64/lib/libc.a(floatscan.o) (scalbn)
/usr/local/popcorn/aarch64/lib/libc.a(scalbnl.o)
                              /usr/local/popcorn/aarch64/lib/libc.a(floatscan.o) (scalbnl)
/usr/local/popcorn/aarch64/lib/libc.a(mbrtowc.o)
                              /usr/local/popcorn/aarch64/lib/libc.a(vfscanf.o) (mbrtowc)
/usr/local/popcorn/aarch64/lib/libc.a(mbsinit.o)
                              /usr/local/popcorn/aarch64/lib/libc.a(vfscanf.o) (mbsinit)
/usr/local/popcorn/aarch64/lib/libc.a(block.o)
                              /usr/local/popcorn/aarch64/lib/libc.a(abort.o) (__block_all_sigs)
/usr/local/popcorn/aarch64/lib/libc.a(raise.o)
                              /usr/local/popcorn/aarch64/lib/libc.a(abort.o) (raise)
/usr/local/popcorn/aarch64/lib/libc.a(__fdopen.o)
                              /usr/local/popcorn/aarch64/lib/libc.a(fopen.o) (__fdopen)
/usr/local/popcorn/aarch64/lib/libc.a(__fmodeflags.o)
                              /usr/local/popcorn/aarch64/lib/libc.a(fopen.o) (__fmodeflags)
/usr/local/popcorn/aarch64/lib/libc.a(__stdio_read.o)
                              /usr/local/popcorn/aarch64/lib/libc.a(__fdopen.o) (__stdio_read)
/usr/local/popcorn/aarch64/lib/libc.a(__string_read.o)
                              /usr/local/popcorn/aarch64/lib/libc.a(vsscanf.o) (__string_read)
/usr/local/popcorn/aarch64/lib/libc.a(__uflow.o)
                              /usr/local/popcorn/aarch64/lib/libc.a(getc.o) (__uflow)
/usr/local/popcorn/aarch64/lib/libc.a(fputc.o)
                              /usr/local/popcorn/aarch64/lib/libc.a(perror.o) (fputc)
/usr/local/popcorn/aarch64/lib/libc.a(getdelim.o)
                              /usr/local/popcorn/aarch64/lib/libc.a(getline.o) (getdelim)
/usr/local/popcorn/aarch64/lib/libc.a(ofl_add.o)
                              /usr/local/popcorn/aarch64/lib/libc.a(__fdopen.o) (__ofl_add)
/usr/local/popcorn/aarch64/lib/libc.a(internal.o)
                              /usr/local/popcorn/aarch64/lib/libc.a(mbrtowc.o) (__fsmu8)
/usr/local/popcorn/aarch64/lib/libc.a(__overflow.o)
                              /usr/local/popcorn/aarch64/lib/libc.a(fputc.o) (__overflow)
/usr/local/popcorn/aarch64/lib/libc.a(__toread.o)
                              /usr/local/popcorn/aarch64/lib/libc.a(__uflow.o) (__toread)
/usr/lib/gcc-cross/aarch64-linux-gnu/6/libgcc.a(addtf3.o)
                              /usr/local/popcorn/aarch64/lib/libc.a(vfprintf.o) (__addtf3)
/usr/lib/gcc-cross/aarch64-linux-gnu/6/libgcc.a(divtf3.o)
                              /usr/local/popcorn/aarch64/lib/libc.a(floatscan.o) (__divtf3)
/usr/lib/gcc-cross/aarch64-linux-gnu/6/libgcc.a(eqtf2.o)
                              /usr/local/popcorn/aarch64/lib/libc.a(vfprintf.o) (__eqtf2)
/usr/lib/gcc-cross/aarch64-linux-gnu/6/libgcc.a(getf2.o)
                              /usr/local/popcorn/aarch64/lib/libc.a(floatscan.o) (__getf2)
/usr/lib/gcc-cross/aarch64-linux-gnu/6/libgcc.a(letf2.o)
                              /usr/local/popcorn/aarch64/lib/libc.a(fmodl.o) (__letf2)
/usr/lib/gcc-cross/aarch64-linux-gnu/6/libgcc.a(multf3.o)
                              /usr/local/popcorn/aarch64/lib/libc.a(vfprintf.o) (__multf3)
/usr/lib/gcc-cross/aarch64-linux-gnu/6/libgcc.a(subtf3.o)
                              /usr/local/popcorn/aarch64/lib/libc.a(vfprintf.o) (__subtf3)
/usr/lib/gcc-cross/aarch64-linux-gnu/6/libgcc.a(unordtf2.o)
                              /usr/local/popcorn/aarch64/lib/libc.a(vfprintf.o) (__unordtf2)
/usr/lib/gcc-cross/aarch64-linux-gnu/6/libgcc.a(fixtfsi.o)
                              /usr/local/popcorn/aarch64/lib/libc.a(vfprintf.o) (__fixtfsi)
/usr/lib/gcc-cross/aarch64-linux-gnu/6/libgcc.a(fixunstfsi.o)
                              /usr/local/popcorn/aarch64/lib/libc.a(vfprintf.o) (__fixunstfsi)
/usr/lib/gcc-cross/aarch64-linux-gnu/6/libgcc.a(floatsitf.o)
                              /usr/local/popcorn/aarch64/lib/libc.a(vfprintf.o) (__floatsitf)
/usr/lib/gcc-cross/aarch64-linux-gnu/6/libgcc.a(floatunsitf.o)
                              /usr/local/popcorn/aarch64/lib/libc.a(vfprintf.o) (__floatunsitf)
/usr/lib/gcc-cross/aarch64-linux-gnu/6/libgcc.a(extendsftf2.o)
                              /usr/local/popcorn/aarch64/lib/libc.a(floatscan.o) (__extendsftf2)
/usr/lib/gcc-cross/aarch64-linux-gnu/6/libgcc.a(extenddftf2.o)
                              /usr/local/popcorn/aarch64/lib/libc.a(vfprintf.o) (__extenddftf2)
/usr/lib/gcc-cross/aarch64-linux-gnu/6/libgcc.a(trunctfsf2.o)
                              /usr/local/popcorn/aarch64/lib/libc.a(vfscanf.o) (__trunctfsf2)
/usr/lib/gcc-cross/aarch64-linux-gnu/6/libgcc.a(trunctfdf2.o)
                              /usr/local/popcorn/aarch64/lib/libc.a(vfscanf.o) (__trunctfdf2)
/usr/lib/gcc-cross/aarch64-linux-gnu/6/libgcc.a(sfp-exceptions.o)
                              /usr/lib/gcc-cross/aarch64-linux-gnu/6/libgcc.a(addtf3.o) (__sfp_handle_exceptions)

Allocating common symbols
Common symbol       size              file

__hwcap             0x8               /usr/local/popcorn/aarch64/lib/libc.a(libc.o)
__libc              0x70              /usr/local/popcorn/aarch64/lib/libc.a(libc.o)
mal                 0x20000           /usr/local/popcorn/aarch64/lib/libc.a(popcorn_malloc.o)
__sysinfo           0x8               /usr/local/popcorn/aarch64/lib/libc.a(libc.o)

Discarded input sections

 .note.GNU-stack
                0x0000000000000000        0x0 0x1 migrate_aarch64.o
 .llvm_addrsig  0x0000000000000000        0xd 0x1 migrate_aarch64.o
 .note.GNU-stack
                0x0000000000000000        0x0 0x1 /usr/local/popcorn/aarch64/lib/crt1.o
 .llvm_addrsig  0x0000000000000000        0x3 0x1 /usr/local/popcorn/aarch64/lib/crt1.o
 .note.GNU-stack
                0x0000000000000000        0x0 0x1 /usr/local/popcorn/aarch64/lib/libc.a(__libc_start_main.o)
 .llvm_addrsig  0x0000000000000000        0xb 0x1 /usr/local/popcorn/aarch64/lib/libc.a(__libc_start_main.o)
 .note.GNU-stack
                0x0000000000000000        0x0 0x1 /usr/local/popcorn/aarch64/lib/libc.a(exit.o)
 .llvm_addrsig  0x0000000000000000        0x8 0x1 /usr/local/popcorn/aarch64/lib/libc.a(exit.o)
 .note.GNU-stack
                0x0000000000000000        0x0 0x1 /usr/local/popcorn/aarch64/lib/libc.a(libc.o)
 .llvm_addrsig  0x0000000000000000        0x2 0x1 /usr/local/popcorn/aarch64/lib/libc.a(libc.o)
 .note.GNU-stack
                0x0000000000000000        0x0 0x1 /usr/local/popcorn/aarch64/lib/libc.a(printf.o)
 .llvm_addrsig  0x0000000000000000        0x0 0x1 /usr/local/popcorn/aarch64/lib/libc.a(printf.o)
 .note.GNU-stack
                0x0000000000000000        0x0 0x1 /usr/local/popcorn/aarch64/lib/libc.a(stdout.o)
 .llvm_addrsig  0x0000000000000000        0x5 0x1 /usr/local/popcorn/aarch64/lib/libc.a(stdout.o)
 .note.GNU-stack
                0x0000000000000000        0x0 0x1 /usr/local/popcorn/aarch64/lib/libc.a(vfprintf.o)
 .llvm_addrsig  0x0000000000000000        0x8 0x1 /usr/local/popcorn/aarch64/lib/libc.a(vfprintf.o)
 .note.GNU-stack
                0x0000000000000000        0x0 0x1 /usr/local/popcorn/aarch64/lib/libc.a(memset.o)
 .llvm_addrsig  0x0000000000000000        0x0 0x1 /usr/local/popcorn/aarch64/lib/libc.a(memset.o)
 .note.GNU-stack
                0x0000000000000000        0x0 0x1 /usr/local/popcorn/aarch64/lib/libc.a(strnlen.o)
 .llvm_addrsig  0x0000000000000000        0x0 0x1 /usr/local/popcorn/aarch64/lib/libc.a(strnlen.o)
 .note.GNU-stack
                0x0000000000000000        0x0 0x1 /usr/local/popcorn/aarch64/lib/libc.a(gettid.o)
 .llvm_addrsig  0x0000000000000000        0x0 0x1 /usr/local/popcorn/aarch64/lib/libc.a(gettid.o)
 .note.GNU-stack
                0x0000000000000000        0x0 0x1 /usr/local/popcorn/aarch64/lib/libc.a(sleep.o)
 .llvm_addrsig  0x0000000000000000        0x0 0x1 /usr/local/popcorn/aarch64/lib/libc.a(sleep.o)
 .note.GNU-stack
                0x0000000000000000        0x0 0x1 /usr/local/popcorn/aarch64/lib/libc.a(__environ.o)
 .llvm_addrsig  0x0000000000000000        0x1 0x1 /usr/local/popcorn/aarch64/lib/libc.a(__environ.o)
 .note.GNU-stack
                0x0000000000000000        0x0 0x1 /usr/local/popcorn/aarch64/lib/libc.a(__init_tls.o)
 .llvm_addrsig  0x0000000000000000        0x5 0x1 /usr/local/popcorn/aarch64/lib/libc.a(__init_tls.o)
 .note.GNU-stack
                0x0000000000000000        0x0 0x1 /usr/local/popcorn/aarch64/lib/libc.a(__errno_location.o)
 .llvm_addrsig  0x0000000000000000        0x0 0x1 /usr/local/popcorn/aarch64/lib/libc.a(__errno_location.o)
 .note.GNU-stack
                0x0000000000000000        0x0 0x1 /usr/local/popcorn/aarch64/lib/libc.a(strerror.o)
 .llvm_addrsig  0x0000000000000000        0x2 0x1 /usr/local/popcorn/aarch64/lib/libc.a(strerror.o)
 .note.GNU-stack
                0x0000000000000000        0x0 0x1 /usr/local/popcorn/aarch64/lib/libc.a(_Exit.o)
 .llvm_addrsig  0x0000000000000000        0x0 0x1 /usr/local/popcorn/aarch64/lib/libc.a(_Exit.o)
 .note.GNU-stack
                0x0000000000000000        0x0 0x1 /usr/local/popcorn/aarch64/lib/libc.a(__lctrans.o)
 .llvm_addrsig  0x0000000000000000        0x2 0x1 /usr/local/popcorn/aarch64/lib/libc.a(__lctrans.o)
 .note.GNU-stack
                0x0000000000000000        0x0 0x1 /usr/local/popcorn/aarch64/lib/libc.a(__fpclassifyl.o)
 .llvm_addrsig  0x0000000000000000        0x0 0x1 /usr/local/popcorn/aarch64/lib/libc.a(__fpclassifyl.o)
 .note.GNU-stack
                0x0000000000000000        0x0 0x1 /usr/local/popcorn/aarch64/lib/libc.a(__signbitl.o)
 .llvm_addrsig  0x0000000000000000        0x0 0x1 /usr/local/popcorn/aarch64/lib/libc.a(__signbitl.o)
 .note.GNU-stack
                0x0000000000000000        0x0 0x1 /usr/local/popcorn/aarch64/lib/libc.a(frexpl.o)
 .llvm_addrsig  0x0000000000000000        0x0 0x1 /usr/local/popcorn/aarch64/lib/libc.a(frexpl.o)
 .note.GNU-stack
                0x0000000000000000        0x0 0x1 /usr/local/popcorn/aarch64/lib/libc.a(wctomb.o)
 .llvm_addrsig  0x0000000000000000        0x0 0x1 /usr/local/popcorn/aarch64/lib/libc.a(wctomb.o)
 .note.GNU-stack
                0x0000000000000000        0x0 0x1 /usr/local/popcorn/aarch64/lib/libc.a(__lockfile.o)
 .llvm_addrsig  0x0000000000000000        0x0 0x1 /usr/local/popcorn/aarch64/lib/libc.a(__lockfile.o)
 .note.GNU-stack
                0x0000000000000000        0x0 0x1 /usr/local/popcorn/aarch64/lib/libc.a(__stdio_close.o)
 .llvm_addrsig  0x0000000000000000        0x2 0x1 /usr/local/popcorn/aarch64/lib/libc.a(__stdio_close.o)
 .note.GNU-stack
                0x0000000000000000        0x0 0x1 /usr/local/popcorn/aarch64/lib/libc.a(__stdio_seek.o)
 .llvm_addrsig  0x0000000000000000        0x0 0x1 /usr/local/popcorn/aarch64/lib/libc.a(__stdio_seek.o)
 .note.GNU-stack
                0x0000000000000000        0x0 0x1 /usr/local/popcorn/aarch64/lib/libc.a(__stdout_write.o)
 .llvm_addrsig  0x0000000000000000        0x1 0x1 /usr/local/popcorn/aarch64/lib/libc.a(__stdout_write.o)
 .note.GNU-stack
                0x0000000000000000        0x0 0x1 /usr/local/popcorn/aarch64/lib/libc.a(fwrite.o)
 .llvm_addrsig  0x0000000000000000        0x1 0x1 /usr/local/popcorn/aarch64/lib/libc.a(fwrite.o)
 .note.GNU-stack
                0x0000000000000000        0x0 0x1 /usr/local/popcorn/aarch64/lib/libc.a(memchr.o)
 .llvm_addrsig  0x0000000000000000        0x0 0x1 /usr/local/popcorn/aarch64/lib/libc.a(memchr.o)
 .note.GNU-stack
                0x0000000000000000        0x0 0x1 /usr/local/popcorn/aarch64/lib/libc.a(memcpy.o)
 .llvm_addrsig  0x0000000000000000        0x0 0x1 /usr/local/popcorn/aarch64/lib/libc.a(memcpy.o)
 .note.GNU-stack
                0x0000000000000000        0x0 0x1 /usr/local/popcorn/aarch64/lib/libc.a(__wait.o)
 .llvm_addrsig  0x0000000000000000        0x0 0x1 /usr/local/popcorn/aarch64/lib/libc.a(__wait.o)
 .note.GNU-stack
                0x0000000000000000        0x0 0x1 /usr/local/popcorn/aarch64/lib/libc.a(__set_thread_area.o)
 .note.GNU-stack
                0x0000000000000000        0x0 0x1 /usr/local/popcorn/aarch64/lib/libc.a(nanosleep.o)
 .llvm_addrsig  0x0000000000000000        0x0 0x1 /usr/local/popcorn/aarch64/lib/libc.a(nanosleep.o)
 .note.GNU-stack
                0x0000000000000000        0x0 0x1 /usr/local/popcorn/aarch64/lib/libc.a(syscall_ret.o)
 .llvm_addrsig  0x0000000000000000        0x0 0x1 /usr/local/popcorn/aarch64/lib/libc.a(syscall_ret.o)
 .note.GNU-stack
                0x0000000000000000        0x0 0x1 /usr/local/popcorn/aarch64/lib/libc.a(wcrtomb.o)
 .llvm_addrsig  0x0000000000000000        0x0 0x1 /usr/local/popcorn/aarch64/lib/libc.a(wcrtomb.o)
 .note.GNU-stack
                0x0000000000000000        0x0 0x1 /usr/local/popcorn/aarch64/lib/libc.a(__stdio_write.o)
 .llvm_addrsig  0x0000000000000000        0x0 0x1 /usr/local/popcorn/aarch64/lib/libc.a(__stdio_write.o)
 .note.GNU-stack
                0x0000000000000000        0x0 0x1 /usr/local/popcorn/aarch64/lib/libc.a(__towrite.o)
 .llvm_addrsig  0x0000000000000000        0x0 0x1 /usr/local/popcorn/aarch64/lib/libc.a(__towrite.o)
 .note.GNU-stack
                0x0000000000000000        0x0 0x1 /usr/local/popcorn/aarch64/lib/libc.a(__syscall_cp.o)
 .llvm_addrsig  0x0000000000000000        0x2 0x1 /usr/local/popcorn/aarch64/lib/libc.a(__syscall_cp.o)
 .note.GNU-stack
                0x0000000000000000        0x0 0x1 /usr/local/popcorn/aarch64/lib/libc.a(syscall.o)
 .note.GNU-stack
                0x0000000000000000        0x0 0x1 /usr/local/popcorn/aarch64/lib/libc.a(__stdio_exit.o)
 .llvm_addrsig  0x0000000000000000        0x4 0x1 /usr/local/popcorn/aarch64/lib/libc.a(__stdio_exit.o)
 .note.GNU-stack
                0x0000000000000000        0x0 0x1 /usr/local/popcorn/aarch64/lib/libc.a(ofl.o)
 .llvm_addrsig  0x0000000000000000        0x2 0x1 /usr/local/popcorn/aarch64/lib/libc.a(ofl.o)
 .note.GNU-stack
                0x0000000000000000        0x0 0x1 /usr/local/popcorn/aarch64/lib/libc.a(__lock.o)
 .llvm_addrsig  0x0000000000000000        0x1 0x1 /usr/local/popcorn/aarch64/lib/libc.a(__lock.o)
 .note.GNU-stack
                0x0000000000000000        0x0 0x1 /usr/local/popcorn/aarch64/lib/libmigrate.a(migrate.o)
 .llvm_addrsig  0x0000000000000000        0xf 0x1 /usr/local/popcorn/aarch64/lib/libmigrate.a(migrate.o)
 .note.GNU-stack
                0x0000000000000000        0x0 0x1 /usr/local/popcorn/aarch64/lib/libmigrate.a(mapping.o)
 .llvm_addrsig  0x0000000000000000        0x9 0x1 /usr/local/popcorn/aarch64/lib/libmigrate.a(mapping.o)
 .note.GNU-stack
                0x0000000000000000        0x0 0x1 /usr/local/popcorn/aarch64/lib/libstack-transform.a(userspace.o)
 .llvm_addrsig  0x0000000000000000        0xd 0x1 /usr/local/popcorn/aarch64/lib/libstack-transform.a(userspace.o)
 .note.GNU-stack
                0x0000000000000000        0x0 0x1 /usr/local/popcorn/aarch64/lib/libstack-transform.a(init.o)
 .llvm_addrsig  0x0000000000000000        0x7 0x1 /usr/local/popcorn/aarch64/lib/libstack-transform.a(init.o)
 .note.GNU-stack
                0x0000000000000000        0x0 0x1 /usr/local/popcorn/aarch64/lib/libstack-transform.a(rewrite.o)
 .llvm_addrsig  0x0000000000000000        0x4 0x1 /usr/local/popcorn/aarch64/lib/libstack-transform.a(rewrite.o)
 .note.GNU-stack
                0x0000000000000000        0x0 0x1 /usr/local/popcorn/aarch64/lib/libstack-transform.a(unwind.o)
 .llvm_addrsig  0x0000000000000000        0x0 0x1 /usr/local/popcorn/aarch64/lib/libstack-transform.a(unwind.o)
 .note.GNU-stack
                0x0000000000000000        0x0 0x1 /usr/local/popcorn/aarch64/lib/libstack-transform.a(util.o)
 .llvm_addrsig  0x0000000000000000        0xd 0x1 /usr/local/popcorn/aarch64/lib/libstack-transform.a(util.o)
 .note.GNU-stack
                0x0000000000000000        0x0 0x1 /usr/local/popcorn/aarch64/lib/libstack-transform.a(properties.o)
 .llvm_addrsig  0x0000000000000000        0x6 0x1 /usr/local/popcorn/aarch64/lib/libstack-transform.a(properties.o)
 .note.GNU-stack
                0x0000000000000000        0x0 0x1 /usr/local/popcorn/aarch64/lib/libstack-transform.a(regs.o)
 .llvm_addrsig  0x0000000000000000       0x13 0x1 /usr/local/popcorn/aarch64/lib/libstack-transform.a(regs.o)
 .note.GNU-stack
                0x0000000000000000        0x0 0x1 /usr/local/popcorn/aarch64/lib/libstack-transform.a(properties.o)
 .llvm_addrsig  0x0000000000000000        0x6 0x1 /usr/local/popcorn/aarch64/lib/libstack-transform.a(properties.o)
 .note.GNU-stack
                0x0000000000000000        0x0 0x1 /usr/local/popcorn/aarch64/lib/libstack-transform.a(regs.o)
 .llvm_addrsig  0x0000000000000000       0x13 0x1 /usr/local/popcorn/aarch64/lib/libstack-transform.a(regs.o)
 .note.GNU-stack
                0x0000000000000000        0x0 0x1 /usr/local/popcorn/aarch64/lib/libstack-transform.a(properties.o)
 .llvm_addrsig  0x0000000000000000        0x6 0x1 /usr/local/popcorn/aarch64/lib/libstack-transform.a(properties.o)
 .note.GNU-stack
                0x0000000000000000        0x0 0x1 /usr/local/popcorn/aarch64/lib/libstack-transform.a(regs.o)
 .llvm_addrsig  0x0000000000000000       0x13 0x1 /usr/local/popcorn/aarch64/lib/libstack-transform.a(regs.o)
 .note.GNU-stack
                0x0000000000000000        0x0 0x1 /usr/local/popcorn/aarch64/lib/libstack-transform.a(properties.o)
 .llvm_addrsig  0x0000000000000000        0x6 0x1 /usr/local/popcorn/aarch64/lib/libstack-transform.a(properties.o)
 .note.GNU-stack
                0x0000000000000000        0x0 0x1 /usr/local/popcorn/aarch64/lib/libstack-transform.a(regs.o)
 .llvm_addrsig  0x0000000000000000       0x15 0x1 /usr/local/popcorn/aarch64/lib/libstack-transform.a(regs.o)
 .note.GNU-stack
                0x0000000000000000        0x0 0x1 /usr/local/popcorn/aarch64/lib/libstack-transform.a(data.o)
 .llvm_addrsig  0x0000000000000000        0xb 0x1 /usr/local/popcorn/aarch64/lib/libstack-transform.a(data.o)
 .note.GNU-stack
                0x0000000000000000        0x0 0x1 /usr/local/popcorn/aarch64/lib/libelf.a(begin.o)
 .llvm_addrsig  0x0000000000000000        0x3 0x1 /usr/local/popcorn/aarch64/lib/libelf.a(begin.o)
 .note.GNU-stack
                0x0000000000000000        0x0 0x1 /usr/local/popcorn/aarch64/lib/libelf.a(end.o)
 .llvm_addrsig  0x0000000000000000        0x0 0x1 /usr/local/popcorn/aarch64/lib/libelf.a(end.o)
 .note.GNU-stack
                0x0000000000000000        0x0 0x1 /usr/local/popcorn/aarch64/lib/libelf.a(getdata.o)
 .llvm_addrsig  0x0000000000000000        0x0 0x1 /usr/local/popcorn/aarch64/lib/libelf.a(getdata.o)
 .note.GNU-stack
                0x0000000000000000        0x0 0x1 /usr/local/popcorn/aarch64/lib/libelf.a(getident.o)
 .llvm_addrsig  0x0000000000000000        0x0 0x1 /usr/local/popcorn/aarch64/lib/libelf.a(getident.o)
 .note.GNU-stack
                0x0000000000000000        0x0 0x1 /usr/local/popcorn/aarch64/lib/libelf.a(nextscn.o)
 .llvm_addrsig  0x0000000000000000        0x0 0x1 /usr/local/popcorn/aarch64/lib/libelf.a(nextscn.o)
 .note.GNU-stack
                0x0000000000000000        0x0 0x1 /usr/local/popcorn/aarch64/lib/libelf.a(strptr.o)
 .llvm_addrsig  0x0000000000000000        0x0 0x1 /usr/local/popcorn/aarch64/lib/libelf.a(strptr.o)
 .note.GNU-stack
                0x0000000000000000        0x0 0x1 /usr/local/popcorn/aarch64/lib/libelf.a(version.o)
 .llvm_addrsig  0x0000000000000000        0x1 0x1 /usr/local/popcorn/aarch64/lib/libelf.a(version.o)
 .note.GNU-stack
                0x0000000000000000        0x0 0x1 /usr/local/popcorn/aarch64/lib/libelf.a(32.getehdr.o)
 .llvm_addrsig  0x0000000000000000        0x0 0x1 /usr/local/popcorn/aarch64/lib/libelf.a(32.getehdr.o)
 .note.GNU-stack
                0x0000000000000000        0x0 0x1 /usr/local/popcorn/aarch64/lib/libelf.a(32.xlatetof.o)
 .llvm_addrsig  0x0000000000000000       0x41 0x1 /usr/local/popcorn/aarch64/lib/libelf.a(32.xlatetof.o)
 .note.GNU-stack
                0x0000000000000000        0x0 0x1 /usr/local/popcorn/aarch64/lib/libelf.a(cook.o)
 .llvm_addrsig  0x0000000000000000        0x0 0x1 /usr/local/popcorn/aarch64/lib/libelf.a(cook.o)
 .note.GNU-stack
                0x0000000000000000        0x0 0x1 /usr/local/popcorn/aarch64/lib/libelf.a(data.o)
 .llvm_addrsig  0x0000000000000000        0x0 0x1 /usr/local/popcorn/aarch64/lib/libelf.a(data.o)
 .note.GNU-stack
                0x0000000000000000        0x0 0x1 /usr/local/popcorn/aarch64/lib/libelf.a(input.o)
 .llvm_addrsig  0x0000000000000000        0x0 0x1 /usr/local/popcorn/aarch64/lib/libelf.a(input.o)
 .note.GNU-stack
                0x0000000000000000        0x0 0x1 /usr/local/popcorn/aarch64/lib/libelf.a(x.elfext.o)
 .llvm_addrsig  0x0000000000000000        0x0 0x1 /usr/local/popcorn/aarch64/lib/libelf.a(x.elfext.o)
 .note.GNU-stack
                0x0000000000000000        0x0 0x1 /usr/local/popcorn/aarch64/lib/libelf.a(64.xlatetof.o)
 .llvm_addrsig  0x0000000000000000       0x49 0x1 /usr/local/popcorn/aarch64/lib/libelf.a(64.xlatetof.o)
 .note.GNU-stack
                0x0000000000000000        0x0 0x1 /usr/local/popcorn/aarch64/lib/libelf.a(gelfshdr.o)
 .llvm_addrsig  0x0000000000000000        0x0 0x1 /usr/local/popcorn/aarch64/lib/libelf.a(gelfshdr.o)
 .note.GNU-stack
                0x0000000000000000        0x0 0x1 /usr/local/popcorn/aarch64/lib/libelf.a(swap64.o)
 .llvm_addrsig  0x0000000000000000        0x0 0x1 /usr/local/popcorn/aarch64/lib/libelf.a(swap64.o)
 .note.GNU-stack
                0x0000000000000000        0x0 0x1 /usr/local/popcorn/aarch64/lib/libelf.a(verdef_32_tof.o)
 .llvm_addrsig  0x0000000000000000        0x0 0x1 /usr/local/popcorn/aarch64/lib/libelf.a(verdef_32_tof.o)
 .note.GNU-stack
                0x0000000000000000        0x0 0x1 /usr/local/popcorn/aarch64/lib/libelf.a(verdef_32_tom.o)
 .llvm_addrsig  0x0000000000000000        0x0 0x1 /usr/local/popcorn/aarch64/lib/libelf.a(verdef_32_tom.o)
 .note.GNU-stack
                0x0000000000000000        0x0 0x1 /usr/local/popcorn/aarch64/lib/libelf.a(verdef_64_tof.o)
 .llvm_addrsig  0x0000000000000000        0x0 0x1 /usr/local/popcorn/aarch64/lib/libelf.a(verdef_64_tof.o)
 .note.GNU-stack
                0x0000000000000000        0x0 0x1 /usr/local/popcorn/aarch64/lib/libelf.a(verdef_64_tom.o)
 .llvm_addrsig  0x0000000000000000        0x0 0x1 /usr/local/popcorn/aarch64/lib/libelf.a(verdef_64_tom.o)
 .note.GNU-stack
                0x0000000000000000        0x0 0x1 /usr/local/popcorn/aarch64/lib/libelf.a(getscn.o)
 .llvm_addrsig  0x0000000000000000        0x0 0x1 /usr/local/popcorn/aarch64/lib/libelf.a(getscn.o)
 .note.GNU-stack
                0x0000000000000000        0x0 0x1 /usr/local/popcorn/aarch64/lib/libelf.a(newscn.o)
 .llvm_addrsig  0x0000000000000000        0x0 0x1 /usr/local/popcorn/aarch64/lib/libelf.a(newscn.o)
 .note.GNU-stack
                0x0000000000000000        0x0 0x1 /usr/local/popcorn/aarch64/lib/libelf.a(32.fsize.o)
 .llvm_addrsig  0x0000000000000000        0x0 0x1 /usr/local/popcorn/aarch64/lib/libelf.a(32.fsize.o)
 .note.GNU-stack
                0x0000000000000000        0x0 0x1 /usr/local/popcorn/aarch64/lib/libc.a(arch_crash.o)
 .llvm_addrsig  0x0000000000000000        0x5 0x1 /usr/local/popcorn/aarch64/lib/libc.a(arch_crash.o)
 .note.GNU-stack
                0x0000000000000000        0x0 0x1 /usr/local/popcorn/aarch64/lib/libc.a(getenv.o)
 .llvm_addrsig  0x0000000000000000        0x0 0x1 /usr/local/popcorn/aarch64/lib/libc.a(getenv.o)
 .note.GNU-stack
                0x0000000000000000        0x0 0x1 /usr/local/popcorn/aarch64/lib/libc.a(platform.o)
 .llvm_addrsig  0x0000000000000000        0x0 0x1 /usr/local/popcorn/aarch64/lib/libc.a(platform.o)
 .note.GNU-stack
                0x0000000000000000        0x0 0x1 /usr/local/popcorn/aarch64/lib/libc.a(assert.o)
 .llvm_addrsig  0x0000000000000000        0x1 0x1 /usr/local/popcorn/aarch64/lib/libc.a(assert.o)
 .note.GNU-stack
                0x0000000000000000        0x0 0x1 /usr/local/popcorn/aarch64/lib/libc.a(open.o)
 .llvm_addrsig  0x0000000000000000        0x1 0x1 /usr/local/popcorn/aarch64/lib/libc.a(open.o)
 .note.GNU-stack
                0x0000000000000000        0x0 0x1 /usr/local/popcorn/aarch64/lib/libc.a(calloc.o)
 .llvm_addrsig  0x0000000000000000        0x0 0x1 /usr/local/popcorn/aarch64/lib/libc.a(calloc.o)
 .note.GNU-stack
                0x0000000000000000        0x0 0x1 /usr/local/popcorn/aarch64/lib/libc.a(lite_malloc.o)
 .llvm_addrsig  0x0000000000000000        0x2 0x1 /usr/local/popcorn/aarch64/lib/libc.a(lite_malloc.o)
 .note.GNU-stack
                0x0000000000000000        0x0 0x1 /usr/local/popcorn/aarch64/lib/libc.a(malloc.o)
 .llvm_addrsig  0x0000000000000000        0x4 0x1 /usr/local/popcorn/aarch64/lib/libc.a(malloc.o)
 .note.GNU-stack
                0x0000000000000000        0x0 0x1 /usr/local/popcorn/aarch64/lib/libc.a(popcorn_malloc.o)
 .llvm_addrsig  0x0000000000000000        0x4 0x1 /usr/local/popcorn/aarch64/lib/libc.a(popcorn_malloc.o)
 .note.GNU-stack
                0x0000000000000000        0x0 0x1 /usr/local/popcorn/aarch64/lib/libc.a(getrlimit.o)
 .llvm_addrsig  0x0000000000000000        0x1 0x1 /usr/local/popcorn/aarch64/lib/libc.a(getrlimit.o)
 .note.GNU-stack
                0x0000000000000000        0x0 0x1 /usr/local/popcorn/aarch64/lib/libc.a(madvise.o)
 .llvm_addrsig  0x0000000000000000        0x1 0x1 /usr/local/popcorn/aarch64/lib/libc.a(madvise.o)
 .note.GNU-stack
                0x0000000000000000        0x0 0x1 /usr/local/popcorn/aarch64/lib/libc.a(mmap.o)
 .llvm_addrsig  0x0000000000000000        0x3 0x1 /usr/local/popcorn/aarch64/lib/libc.a(mmap.o)
 .note.GNU-stack
                0x0000000000000000        0x0 0x1 /usr/local/popcorn/aarch64/lib/libc.a(mremap.o)
 .llvm_addrsig  0x0000000000000000        0x3 0x1 /usr/local/popcorn/aarch64/lib/libc.a(mremap.o)
 .note.GNU-stack
                0x0000000000000000        0x0 0x1 /usr/local/popcorn/aarch64/lib/libc.a(munmap.o)
 .llvm_addrsig  0x0000000000000000        0x3 0x1 /usr/local/popcorn/aarch64/lib/libc.a(munmap.o)
 .note.GNU-stack
                0x0000000000000000        0x0 0x1 /usr/local/popcorn/aarch64/lib/libc.a(fclose.o)
 .llvm_addrsig  0x0000000000000000        0x2 0x1 /usr/local/popcorn/aarch64/lib/libc.a(fclose.o)
 .note.GNU-stack
                0x0000000000000000        0x0 0x1 /usr/local/popcorn/aarch64/lib/libc.a(fflush.o)
 .llvm_addrsig  0x0000000000000000        0x3 0x1 /usr/local/popcorn/aarch64/lib/libc.a(fflush.o)
 .note.GNU-stack
                0x0000000000000000        0x0 0x1 /usr/local/popcorn/aarch64/lib/libc.a(fopen.o)
 .llvm_addrsig  0x0000000000000000        0x2 0x1 /usr/local/popcorn/aarch64/lib/libc.a(fopen.o)
 .note.GNU-stack
                0x0000000000000000        0x0 0x1 /usr/local/popcorn/aarch64/lib/libc.a(fprintf.o)
 .llvm_addrsig  0x0000000000000000        0x0 0x1 /usr/local/popcorn/aarch64/lib/libc.a(fprintf.o)
 .note.GNU-stack
                0x0000000000000000        0x0 0x1 /usr/local/popcorn/aarch64/lib/libc.a(fscanf.o)
 .llvm_addrsig  0x0000000000000000        0x1 0x1 /usr/local/popcorn/aarch64/lib/libc.a(fscanf.o)
 .note.GNU-stack
                0x0000000000000000        0x0 0x1 /usr/local/popcorn/aarch64/lib/libc.a(fseek.o)
 .llvm_addrsig  0x0000000000000000        0x1 0x1 /usr/local/popcorn/aarch64/lib/libc.a(fseek.o)
 .note.GNU-stack
                0x0000000000000000        0x0 0x1 /usr/local/popcorn/aarch64/lib/libc.a(getc.o)
 .llvm_addrsig  0x0000000000000000        0x1 0x1 /usr/local/popcorn/aarch64/lib/libc.a(getc.o)
 .note.GNU-stack
                0x0000000000000000        0x0 0x1 /usr/local/popcorn/aarch64/lib/libc.a(getline.o)
 .llvm_addrsig  0x0000000000000000        0x0 0x1 /usr/local/popcorn/aarch64/lib/libc.a(getline.o)
 .note.GNU-stack
                0x0000000000000000        0x0 0x1 /usr/local/popcorn/aarch64/lib/libc.a(perror.o)
 .llvm_addrsig  0x0000000000000000        0x0 0x1 /usr/local/popcorn/aarch64/lib/libc.a(perror.o)
 .note.GNU-stack
                0x0000000000000000        0x0 0x1 /usr/local/popcorn/aarch64/lib/libc.a(snprintf.o)
 .llvm_addrsig  0x0000000000000000        0x0 0x1 /usr/local/popcorn/aarch64/lib/libc.a(snprintf.o)
 .note.GNU-stack
                0x0000000000000000        0x0 0x1 /usr/local/popcorn/aarch64/lib/libc.a(sscanf.o)
 .llvm_addrsig  0x0000000000000000        0x1 0x1 /usr/local/popcorn/aarch64/lib/libc.a(sscanf.o)
 .note.GNU-stack
                0x0000000000000000        0x0 0x1 /usr/local/popcorn/aarch64/lib/libc.a(stderr.o)
 .llvm_addrsig  0x0000000000000000        0x5 0x1 /usr/local/popcorn/aarch64/lib/libc.a(stderr.o)
 .note.GNU-stack
                0x0000000000000000        0x0 0x1 /usr/local/popcorn/aarch64/lib/libc.a(vfscanf.o)
 .llvm_addrsig  0x0000000000000000        0x1 0x1 /usr/local/popcorn/aarch64/lib/libc.a(vfscanf.o)
 .note.GNU-stack
                0x0000000000000000        0x0 0x1 /usr/local/popcorn/aarch64/lib/libc.a(vsnprintf.o)
 .llvm_addrsig  0x0000000000000000        0x1 0x1 /usr/local/popcorn/aarch64/lib/libc.a(vsnprintf.o)
 .note.GNU-stack
                0x0000000000000000        0x0 0x1 /usr/local/popcorn/aarch64/lib/libc.a(vsscanf.o)
 .llvm_addrsig  0x0000000000000000        0x2 0x1 /usr/local/popcorn/aarch64/lib/libc.a(vsscanf.o)
 .note.GNU-stack
                0x0000000000000000        0x0 0x1 /usr/local/popcorn/aarch64/lib/libc.a(bsearch.o)
 .llvm_addrsig  0x0000000000000000        0x0 0x1 /usr/local/popcorn/aarch64/lib/libc.a(bsearch.o)
 .note.GNU-stack
                0x0000000000000000        0x0 0x1 /usr/local/popcorn/aarch64/lib/libc.a(qsort.o)
 .llvm_addrsig  0x0000000000000000        0x1 0x1 /usr/local/popcorn/aarch64/lib/libc.a(qsort.o)
 .note.GNU-stack
                0x0000000000000000        0x0 0x1 /usr/local/popcorn/aarch64/lib/libc.a(strtol.o)
 .llvm_addrsig  0x0000000000000000        0x6 0x1 /usr/local/popcorn/aarch64/lib/libc.a(strtol.o)
 .note.GNU-stack
                0x0000000000000000        0x0 0x1 /usr/local/popcorn/aarch64/lib/libc.a(strchr.o)
 .llvm_addrsig  0x0000000000000000        0x0 0x1 /usr/local/popcorn/aarch64/lib/libc.a(strchr.o)
 .note.GNU-stack
                0x0000000000000000        0x0 0x1 /usr/local/popcorn/aarch64/lib/libc.a(strchrnul.o)
 .llvm_addrsig  0x0000000000000000        0x1 0x1 /usr/local/popcorn/aarch64/lib/libc.a(strchrnul.o)
 .note.GNU-stack
                0x0000000000000000        0x0 0x1 /usr/local/popcorn/aarch64/lib/libc.a(strcmp.o)
 .llvm_addrsig  0x0000000000000000        0x0 0x1 /usr/local/popcorn/aarch64/lib/libc.a(strcmp.o)
 .note.GNU-stack
                0x0000000000000000        0x0 0x1 /usr/local/popcorn/aarch64/lib/libc.a(strlen.o)
 .llvm_addrsig  0x0000000000000000        0x0 0x1 /usr/local/popcorn/aarch64/lib/libc.a(strlen.o)
 .note.GNU-stack
                0x0000000000000000        0x0 0x1 /usr/local/popcorn/aarch64/lib/libc.a(strncmp.o)
 .llvm_addrsig  0x0000000000000000        0x0 0x1 /usr/local/popcorn/aarch64/lib/libc.a(strncmp.o)
 .note.GNU-stack
                0x0000000000000000        0x0 0x1 /usr/local/popcorn/aarch64/lib/libc.a(pthread_attr_get.o)
 .llvm_addrsig  0x0000000000000000        0x0 0x1 /usr/local/popcorn/aarch64/lib/libc.a(pthread_attr_get.o)
 .note.GNU-stack
                0x0000000000000000        0x0 0x1 /usr/local/popcorn/aarch64/lib/libc.a(pthread_getattr_np.o)
 .llvm_addrsig  0x0000000000000000        0x0 0x1 /usr/local/popcorn/aarch64/lib/libc.a(pthread_getattr_np.o)
 .note.GNU-stack
                0x0000000000000000        0x0 0x1 /usr/local/popcorn/aarch64/lib/libc.a(pthread_migrate.o)
 .llvm_addrsig  0x0000000000000000        0x0 0x1 /usr/local/popcorn/aarch64/lib/libc.a(pthread_migrate.o)
 .note.GNU-stack
                0x0000000000000000        0x0 0x1 /usr/local/popcorn/aarch64/lib/libc.a(pthread_self.o)
 .llvm_addrsig  0x0000000000000000        0x1 0x1 /usr/local/popcorn/aarch64/lib/libc.a(pthread_self.o)
 .note.GNU-stack
                0x0000000000000000        0x0 0x1 /usr/local/popcorn/aarch64/lib/libc.a(close.o)
 .llvm_addrsig  0x0000000000000000        0x2 0x1 /usr/local/popcorn/aarch64/lib/libc.a(close.o)
 .note.GNU-stack
                0x0000000000000000        0x0 0x1 /usr/local/popcorn/aarch64/lib/libc.a(getpid.o)
 .llvm_addrsig  0x0000000000000000        0x0 0x1 /usr/local/popcorn/aarch64/lib/libc.a(getpid.o)
 .note.GNU-stack
                0x0000000000000000        0x0 0x1 /usr/local/popcorn/aarch64/lib/libc.a(lseek.o)
 .llvm_addrsig  0x0000000000000000        0x1 0x1 /usr/local/popcorn/aarch64/lib/libc.a(lseek.o)
 .note.GNU-stack
                0x0000000000000000        0x0 0x1 /usr/local/popcorn/aarch64/lib/libc.a(read.o)
 .llvm_addrsig  0x0000000000000000        0x0 0x1 /usr/local/popcorn/aarch64/lib/libc.a(read.o)
 .note.GNU-stack
                0x0000000000000000        0x0 0x1 /usr/local/popcorn/aarch64/lib/libc.a(abort.o)
 .llvm_addrsig  0x0000000000000000        0x0 0x1 /usr/local/popcorn/aarch64/lib/libc.a(abort.o)
 .note.GNU-stack
                0x0000000000000000        0x0 0x1 /usr/local/popcorn/aarch64/lib/libc.a(floatscan.o)
 .llvm_addrsig  0x0000000000000000        0x2 0x1 /usr/local/popcorn/aarch64/lib/libc.a(floatscan.o)
 .note.GNU-stack
                0x0000000000000000        0x0 0x1 /usr/local/popcorn/aarch64/lib/libc.a(intscan.o)
 .llvm_addrsig  0x0000000000000000        0x1 0x1 /usr/local/popcorn/aarch64/lib/libc.a(intscan.o)
 .note.GNU-stack
                0x0000000000000000        0x0 0x1 /usr/local/popcorn/aarch64/lib/libc.a(shgetc.o)
 .llvm_addrsig  0x0000000000000000        0x0 0x1 /usr/local/popcorn/aarch64/lib/libc.a(shgetc.o)
 .note.GNU-stack
                0x0000000000000000        0x0 0x1 /usr/local/popcorn/aarch64/lib/libc.a(expand_heap.o)
 .llvm_addrsig  0x0000000000000000        0x2 0x1 /usr/local/popcorn/aarch64/lib/libc.a(expand_heap.o)
 .note.GNU-stack
                0x0000000000000000        0x0 0x1 /usr/local/popcorn/aarch64/lib/libc.a(fabs.o)
 .llvm_addrsig  0x0000000000000000        0x0 0x1 /usr/local/popcorn/aarch64/lib/libc.a(fabs.o)
 .note.GNU-stack
                0x0000000000000000        0x0 0x1 /usr/local/popcorn/aarch64/lib/libc.a(copysignl.o)
 .llvm_addrsig  0x0000000000000000        0x0 0x1 /usr/local/popcorn/aarch64/lib/libc.a(copysignl.o)
 .note.GNU-stack
                0x0000000000000000        0x0 0x1 /usr/local/popcorn/aarch64/lib/libc.a(fmodl.o)
 .llvm_addrsig  0x0000000000000000        0x0 0x1 /usr/local/popcorn/aarch64/lib/libc.a(fmodl.o)
 .note.GNU-stack
                0x0000000000000000        0x0 0x1 /usr/local/popcorn/aarch64/lib/libc.a(scalbn.o)
 .llvm_addrsig  0x0000000000000000        0x0 0x1 /usr/local/popcorn/aarch64/lib/libc.a(scalbn.o)
 .note.GNU-stack
                0x0000000000000000        0x0 0x1 /usr/local/popcorn/aarch64/lib/libc.a(scalbnl.o)
 .llvm_addrsig  0x0000000000000000        0x0 0x1 /usr/local/popcorn/aarch64/lib/libc.a(scalbnl.o)
 .note.GNU-stack
                0x0000000000000000        0x0 0x1 /usr/local/popcorn/aarch64/lib/libc.a(mbrtowc.o)
 .llvm_addrsig  0x0000000000000000        0x0 0x1 /usr/local/popcorn/aarch64/lib/libc.a(mbrtowc.o)
 .note.GNU-stack
                0x0000000000000000        0x0 0x1 /usr/local/popcorn/aarch64/lib/libc.a(mbsinit.o)
 .llvm_addrsig  0x0000000000000000        0x0 0x1 /usr/local/popcorn/aarch64/lib/libc.a(mbsinit.o)
 .note.GNU-stack
                0x0000000000000000        0x0 0x1 /usr/local/popcorn/aarch64/lib/libc.a(block.o)
 .llvm_addrsig  0x0000000000000000        0x2 0x1 /usr/local/popcorn/aarch64/lib/libc.a(block.o)
 .note.GNU-stack
                0x0000000000000000        0x0 0x1 /usr/local/popcorn/aarch64/lib/libc.a(raise.o)
 .llvm_addrsig  0x0000000000000000        0x0 0x1 /usr/local/popcorn/aarch64/lib/libc.a(raise.o)
 .note.GNU-stack
                0x0000000000000000        0x0 0x1 /usr/local/popcorn/aarch64/lib/libc.a(__fdopen.o)
 .llvm_addrsig  0x0000000000000000        0x6 0x1 /usr/local/popcorn/aarch64/lib/libc.a(__fdopen.o)
 .note.GNU-stack
                0x0000000000000000        0x0 0x1 /usr/local/popcorn/aarch64/lib/libc.a(__fmodeflags.o)
 .llvm_addrsig  0x0000000000000000        0x0 0x1 /usr/local/popcorn/aarch64/lib/libc.a(__fmodeflags.o)
 .note.GNU-stack
                0x0000000000000000        0x0 0x1 /usr/local/popcorn/aarch64/lib/libc.a(__stdio_read.o)
 .llvm_addrsig  0x0000000000000000        0x0 0x1 /usr/local/popcorn/aarch64/lib/libc.a(__stdio_read.o)
 .note.GNU-stack
                0x0000000000000000        0x0 0x1 /usr/local/popcorn/aarch64/lib/libc.a(__string_read.o)
 .llvm_addrsig  0x0000000000000000        0x0 0x1 /usr/local/popcorn/aarch64/lib/libc.a(__string_read.o)
 .note.GNU-stack
                0x0000000000000000        0x0 0x1 /usr/local/popcorn/aarch64/lib/libc.a(__uflow.o)
 .llvm_addrsig  0x0000000000000000        0x0 0x1 /usr/local/popcorn/aarch64/lib/libc.a(__uflow.o)
 .note.GNU-stack
                0x0000000000000000        0x0 0x1 /usr/local/popcorn/aarch64/lib/libc.a(fputc.o)
 .llvm_addrsig  0x0000000000000000        0x0 0x1 /usr/local/popcorn/aarch64/lib/libc.a(fputc.o)
 .note.GNU-stack
                0x0000000000000000        0x0 0x1 /usr/local/popcorn/aarch64/lib/libc.a(getdelim.o)
 .llvm_addrsig  0x0000000000000000        0x1 0x1 /usr/local/popcorn/aarch64/lib/libc.a(getdelim.o)
 .note.GNU-stack
                0x0000000000000000        0x0 0x1 /usr/local/popcorn/aarch64/lib/libc.a(ofl_add.o)
 .llvm_addrsig  0x0000000000000000        0x0 0x1 /usr/local/popcorn/aarch64/lib/libc.a(ofl_add.o)
 .note.GNU-stack
                0x0000000000000000        0x0 0x1 /usr/local/popcorn/aarch64/lib/libc.a(internal.o)
 .llvm_addrsig  0x0000000000000000        0x0 0x1 /usr/local/popcorn/aarch64/lib/libc.a(internal.o)
 .note.GNU-stack
                0x0000000000000000        0x0 0x1 /usr/local/popcorn/aarch64/lib/libc.a(__overflow.o)
 .llvm_addrsig  0x0000000000000000        0x0 0x1 /usr/local/popcorn/aarch64/lib/libc.a(__overflow.o)
 .note.GNU-stack
                0x0000000000000000        0x0 0x1 /usr/local/popcorn/aarch64/lib/libc.a(__toread.o)
 .llvm_addrsig  0x0000000000000000        0x0 0x1 /usr/local/popcorn/aarch64/lib/libc.a(__toread.o)
 .note.GNU-stack
                0x0000000000000000        0x0 0x1 /usr/lib/gcc-cross/aarch64-linux-gnu/6/libgcc.a(addtf3.o)
 .note.GNU-stack
                0x0000000000000000        0x0 0x1 /usr/lib/gcc-cross/aarch64-linux-gnu/6/libgcc.a(divtf3.o)
 .note.GNU-stack
                0x0000000000000000        0x0 0x1 /usr/lib/gcc-cross/aarch64-linux-gnu/6/libgcc.a(eqtf2.o)
 .note.GNU-stack
                0x0000000000000000        0x0 0x1 /usr/lib/gcc-cross/aarch64-linux-gnu/6/libgcc.a(getf2.o)
 .note.GNU-stack
                0x0000000000000000        0x0 0x1 /usr/lib/gcc-cross/aarch64-linux-gnu/6/libgcc.a(letf2.o)
 .note.GNU-stack
                0x0000000000000000        0x0 0x1 /usr/lib/gcc-cross/aarch64-linux-gnu/6/libgcc.a(multf3.o)
 .note.GNU-stack
                0x0000000000000000        0x0 0x1 /usr/lib/gcc-cross/aarch64-linux-gnu/6/libgcc.a(subtf3.o)
 .note.GNU-stack
                0x0000000000000000        0x0 0x1 /usr/lib/gcc-cross/aarch64-linux-gnu/6/libgcc.a(unordtf2.o)
 .note.GNU-stack
                0x0000000000000000        0x0 0x1 /usr/lib/gcc-cross/aarch64-linux-gnu/6/libgcc.a(fixtfsi.o)
 .note.GNU-stack
                0x0000000000000000        0x0 0x1 /usr/lib/gcc-cross/aarch64-linux-gnu/6/libgcc.a(fixunstfsi.o)
 .note.GNU-stack
                0x0000000000000000        0x0 0x1 /usr/lib/gcc-cross/aarch64-linux-gnu/6/libgcc.a(floatsitf.o)
 .note.GNU-stack
                0x0000000000000000        0x0 0x1 /usr/lib/gcc-cross/aarch64-linux-gnu/6/libgcc.a(floatunsitf.o)
 .note.GNU-stack
                0x0000000000000000        0x0 0x1 /usr/lib/gcc-cross/aarch64-linux-gnu/6/libgcc.a(extendsftf2.o)
 .note.GNU-stack
                0x0000000000000000        0x0 0x1 /usr/lib/gcc-cross/aarch64-linux-gnu/6/libgcc.a(extenddftf2.o)
 .note.GNU-stack
                0x0000000000000000        0x0 0x1 /usr/lib/gcc-cross/aarch64-linux-gnu/6/libgcc.a(trunctfsf2.o)
 .note.GNU-stack
                0x0000000000000000        0x0 0x1 /usr/lib/gcc-cross/aarch64-linux-gnu/6/libgcc.a(trunctfdf2.o)
 .note.GNU-stack
                0x0000000000000000        0x0 0x1 /usr/lib/gcc-cross/aarch64-linux-gnu/6/libgcc.a(sfp-exceptions.o)

Memory Configuration

Name             Origin             Length             Attributes
*default*        0x0000000000000000 0xffffffffffffffff

Linker script and memory map

LOAD migrate_aarch64.o
LOAD /usr/local/popcorn/aarch64/lib/crt1.o
LOAD /usr/local/popcorn/aarch64/lib/libc.a
LOAD /usr/local/popcorn/aarch64/lib/libmigrate.a
LOAD /usr/local/popcorn/aarch64/lib/libstack-transform.a
LOAD /usr/local/popcorn/aarch64/lib/libelf.a
LOAD /usr/local/popcorn/aarch64/lib/libpthread.a
LOAD /usr/local/popcorn/aarch64/lib/libc.a
LOAD /usr/local/popcorn/aarch64/lib/libm.a
START GROUP
LOAD /usr/lib/gcc-cross/aarch64-linux-gnu/6/libgcc.a
LOAD /usr/lib/gcc-cross/aarch64-linux-gnu/6/libgcc_eh.a
END GROUP
                [!provide]                        PROVIDE (__executable_start = SEGMENT_START ("text-segment", 0x400000))
                0x0000000000400190                . = (SEGMENT_START ("text-segment", 0x400000) + SIZEOF_HEADERS)

.interp
 *(.interp)

.note.gnu.build-id
                0x0000000000400190       0x24
 *(.note.gnu.build-id)
 .note.gnu.build-id
                0x0000000000400190       0x24 0x4 migrate_aarch64.o

.hash
 *(.hash)

.gnu.hash
 *(.gnu.hash)

.dynsym
 *(.dynsym)

.dynstr
 *(.dynstr)

.gnu.version
 *(.gnu.version)

.gnu.version_d
 *(.gnu.version_d)

.gnu.version_r
 *(.gnu.version_r)

.rela.dyn       0x00000000004001b8        0x0
 *(.rela.init)
 *(.rela.text .rela.text.* .rela.gnu.linkonce.t.*)
 .rela.text     0x00000000004001b8        0x0 0x8 migrate_aarch64.o
 .rela.text.__init_libc
                0x00000000004001b8        0x0 0x8 migrate_aarch64.o
 .rela.text.__init_tp
                0x00000000004001b8        0x0 0x8 migrate_aarch64.o
 .rela.text.__copy_tls
                0x00000000004001b8        0x0 0x8 migrate_aarch64.o
 .rela.text.static_init_tls
                0x00000000004001b8        0x0 0x8 migrate_aarch64.o
 .rela.text.__stdio_exit
                0x00000000004001b8        0x0 0x8 migrate_aarch64.o
 .rela.text.__lock
                0x00000000004001b8        0x0 0x8 migrate_aarch64.o
 .rela.text.__st_userspace_ctor
                0x00000000004001b8        0x0 0x8 migrate_aarch64.o
 .rela.text.__st_userspace_dtor
                0x00000000004001b8        0x0 0x8 migrate_aarch64.o
 .rela.text.malloc
                0x00000000004001b8        0x0 0x8 migrate_aarch64.o
 .rela.text.lock_bin
                0x00000000004001b8        0x0 0x8 migrate_aarch64.o
 .rela.text.realloc
                0x00000000004001b8        0x0 0x8 migrate_aarch64.o
 .rela.text.free
                0x00000000004001b8        0x0 0x8 migrate_aarch64.o
 .rela.text.__init_malloc
                0x00000000004001b8        0x0 0x8 migrate_aarch64.o
 .rela.text.popcorn_malloc
                0x00000000004001b8        0x0 0x8 migrate_aarch64.o
 .rela.text.unbin
                0x00000000004001b8        0x0 0x8 migrate_aarch64.o
 .rela.text.unlock_bin
                0x00000000004001b8        0x0 0x8 migrate_aarch64.o
 .rela.text.popcorn_realloc
                0x00000000004001b8        0x0 0x8 migrate_aarch64.o
 .rela.text.popcorn_free
                0x00000000004001b8        0x0 0x8 migrate_aarch64.o
 .rela.text.pthread_getattr_np
                0x00000000004001b8        0x0 0x8 migrate_aarch64.o
 .rela.text.__expand_heap
                0x00000000004001b8        0x0 0x8 migrate_aarch64.o
 .rela.text.__expand_heap_node
                0x00000000004001b8        0x0 0x8 migrate_aarch64.o
 .rela.text.popcorn_get_arena
                0x00000000004001b8        0x0 0x8 migrate_aarch64.o
 .rela.text.__fdopen
                0x00000000004001b8        0x0 0x8 migrate_aarch64.o
 *(.rela.fini)
 *(.rela.rodata .rela.rodata.* .rela.gnu.linkonce.r.*)
 *(.rela.data .rela.data.* .rela.gnu.linkonce.d.*)
 *(.rela.tdata .rela.tdata.* .rela.gnu.linkonce.td.*)
 *(.rela.tbss .rela.tbss.* .rela.gnu.linkonce.tb.*)
 *(.rela.ctors)
 *(.rela.dtors)
 *(.rela.got)
 .rela.got      0x00000000004001b8        0x0 0x8 migrate_aarch64.o
 *(.rela.bss .rela.bss.* .rela.gnu.linkonce.b.*)
 *(.rela.ifunc)

.rela.plt       0x00000000004001b8        0x0
 *(.rela.plt)
                [!provide]                        PROVIDE (__rela_iplt_start = .)
 *(.rela.iplt)
 .rela.iplt     0x00000000004001b8        0x0 0x8 migrate_aarch64.o
                [!provide]                        PROVIDE (__rela_iplt_end = .)

.init
 *(SORT_NONE(.init))

.plt            0x00000000004001c0        0x0
 *(.plt)
 *(.iplt)
 .iplt          0x00000000004001c0        0x0 0x4 migrate_aarch64.o

.text           0x00000000004001c0    0x1dbac
 *(.text.unlikely .text.*_unlikely .text.unlikely.*)
 *(.text.exit .text.exit.*)
 .text.exit     0x00000000004001c0       0x24 0x4 /usr/local/popcorn/aarch64/lib/libc.a(exit.o)
                0x00000000004001c0                exit
 *(.text.startup .text.startup.*)
 *(.text.hot .text.hot.*)
 *(.text .stub .text.* .gnu.linkonce.t.*)
 .text          0x00000000004001e4        0x0 0x4 migrate_aarch64.o
 .text.func2    0x00000000004001e4       0x84 0x4 migrate_aarch64.o
                0x00000000004001e4                func2
 .text.func1    0x0000000000400268       0x90 0x4 migrate_aarch64.o
                0x0000000000400268                func1
 .text.main     0x00000000004002f8      0x134 0x4 migrate_aarch64.o
                0x00000000004002f8                main
 .text          0x000000000040042c       0x1c 0x4 /usr/local/popcorn/aarch64/lib/crt1.o
                0x000000000040042c                _start
 .text._start_c
                0x0000000000400448       0x30 0x4 /usr/local/popcorn/aarch64/lib/crt1.o
                0x0000000000400448                _start_c
 .text          0x0000000000400478        0x0 0x4 /usr/local/popcorn/aarch64/lib/libc.a(__libc_start_main.o)
 .text.dummy    0x0000000000400478        0x4 0x4 /usr/local/popcorn/aarch64/lib/libc.a(__libc_start_main.o)
                0x0000000000400478                _init
 .text.dummy1   0x000000000040047c        0x4 0x4 /usr/local/popcorn/aarch64/lib/libc.a(__libc_start_main.o)
                0x000000000040047c                __init_ssp
 .text.__init_libc
                0x0000000000400480      0x1e0 0x4 /usr/local/popcorn/aarch64/lib/libc.a(__libc_start_main.o)
                0x0000000000400480                __init_libc
 .text.libc_start_init
                0x0000000000400660       0x4c 0x4 /usr/local/popcorn/aarch64/lib/libc.a(__libc_start_main.o)
                0x0000000000400660                __libc_start_init
 .text.__libc_start_main
                0x00000000004006ac       0x50 0x4 /usr/local/popcorn/aarch64/lib/libc.a(__libc_start_main.o)
                0x00000000004006ac                __libc_start_main
 .text          0x00000000004006fc        0x0 0x4 /usr/local/popcorn/aarch64/lib/libc.a(exit.o)
 .text.libc_exit_fini
                0x00000000004006fc       0x48 0x4 /usr/local/popcorn/aarch64/lib/libc.a(exit.o)
                0x00000000004006fc                __libc_exit_fini
 .text.dummy    0x0000000000400744        0x4 0x4 /usr/local/popcorn/aarch64/lib/libc.a(exit.o)
                0x0000000000400744                __funcs_on_exit
                0x0000000000400744                _fini
 .text          0x0000000000400748        0x0 0x4 /usr/local/popcorn/aarch64/lib/libc.a(libc.o)
 .text          0x0000000000400748        0x0 0x4 /usr/local/popcorn/aarch64/lib/libc.a(printf.o)
 .text.printf   0x0000000000400748       0x84 0x4 /usr/local/popcorn/aarch64/lib/libc.a(printf.o)
                0x0000000000400748                printf
 .text          0x00000000004007cc        0x0 0x4 /usr/local/popcorn/aarch64/lib/libc.a(stdout.o)
 .text          0x00000000004007cc        0x0 0x4 /usr/local/popcorn/aarch64/lib/libc.a(vfprintf.o)
 .text.vfprintf
                0x00000000004007cc      0x18c 0x4 /usr/local/popcorn/aarch64/lib/libc.a(vfprintf.o)
                0x00000000004007cc                vfprintf
 .text.printf_core
                0x0000000000400958     0x1b80 0x4 /usr/local/popcorn/aarch64/lib/libc.a(vfprintf.o)
 .text.pop_arg  0x00000000004024d8      0x26c 0x4 /usr/local/popcorn/aarch64/lib/libc.a(vfprintf.o)
 .text.pad      0x0000000000402744       0xd8 0x4 /usr/local/popcorn/aarch64/lib/libc.a(vfprintf.o)
 .text          0x000000000040281c        0x0 0x4 /usr/local/popcorn/aarch64/lib/libc.a(memset.o)
 .text.memset   0x000000000040281c      0x140 0x4 /usr/local/popcorn/aarch64/lib/libc.a(memset.o)
                0x000000000040281c                memset
 .text          0x000000000040295c        0x0 0x4 /usr/local/popcorn/aarch64/lib/libc.a(strnlen.o)
 .text.strnlen  0x000000000040295c       0x38 0x4 /usr/local/popcorn/aarch64/lib/libc.a(strnlen.o)
                0x000000000040295c                strnlen
 .text          0x0000000000402994        0x0 0x4 /usr/local/popcorn/aarch64/lib/libc.a(gettid.o)
 .text.gettid   0x0000000000402994        0xc 0x4 /usr/local/popcorn/aarch64/lib/libc.a(gettid.o)
                0x0000000000402994                gettid
 .text          0x00000000004029a0        0x0 0x4 /usr/local/popcorn/aarch64/lib/libc.a(sleep.o)
 .text.sleep    0x00000000004029a0       0x38 0x4 /usr/local/popcorn/aarch64/lib/libc.a(sleep.o)
                0x00000000004029a0                sleep
 .text          0x00000000004029d8        0x0 0x4 /usr/local/popcorn/aarch64/lib/libc.a(__environ.o)
 .text          0x00000000004029d8        0x0 0x4 /usr/local/popcorn/aarch64/lib/libc.a(__init_tls.o)
 .text.__init_tp
                0x00000000004029d8       0x70 0x4 /usr/local/popcorn/aarch64/lib/libc.a(__init_tls.o)
                0x00000000004029d8                __init_tp
 .text.__copy_tls
                0x0000000000402a48       0x9c 0x4 /usr/local/popcorn/aarch64/lib/libc.a(__init_tls.o)
                0x0000000000402a48                __copy_tls
 .text.static_init_tls
                0x0000000000402ae4      0x144 0x4 /usr/local/popcorn/aarch64/lib/libc.a(__init_tls.o)
                0x0000000000402ae4                __init_tls
 .text          0x0000000000402c28        0x0 0x4 /usr/local/popcorn/aarch64/lib/libc.a(__errno_location.o)
 .text.__errno_location
                0x0000000000402c28        0xc 0x4 /usr/local/popcorn/aarch64/lib/libc.a(__errno_location.o)
                0x0000000000402c28                __errno_location
 .text          0x0000000000402c34        0x0 0x4 /usr/local/popcorn/aarch64/lib/libc.a(strerror.o)
 .text.__strerror_l
                0x0000000000402c34       0x64 0x4 /usr/local/popcorn/aarch64/lib/libc.a(strerror.o)
                0x0000000000402c34                strerror_l
                0x0000000000402c34                __strerror_l
 .text.strerror
                0x0000000000402c98        0xc 0x4 /usr/local/popcorn/aarch64/lib/libc.a(strerror.o)
                0x0000000000402c98                strerror
 .text          0x0000000000402ca4        0x0 0x4 /usr/local/popcorn/aarch64/lib/libc.a(_Exit.o)
 .text._Exit    0x0000000000402ca4       0x20 0x4 /usr/local/popcorn/aarch64/lib/libc.a(_Exit.o)
                0x0000000000402ca4                _Exit
 .text          0x0000000000402cc4        0x0 0x4 /usr/local/popcorn/aarch64/lib/libc.a(__lctrans.o)
 .text.dummy    0x0000000000402cc4        0x4 0x4 /usr/local/popcorn/aarch64/lib/libc.a(__lctrans.o)
                0x0000000000402cc4                __lctrans_impl
 .text.__lctrans
                0x0000000000402cc8        0x4 0x4 /usr/local/popcorn/aarch64/lib/libc.a(__lctrans.o)
                0x0000000000402cc8                __lctrans
 .text.__lctrans_cur
                0x0000000000402ccc       0x10 0x4 /usr/local/popcorn/aarch64/lib/libc.a(__lctrans.o)
                0x0000000000402ccc                __lctrans_cur
 .text          0x0000000000402cdc        0x0 0x4 /usr/local/popcorn/aarch64/lib/libc.a(__fpclassifyl.o)
 .text.__fpclassifyl
                0x0000000000402cdc       0x50 0x4 /usr/local/popcorn/aarch64/lib/libc.a(__fpclassifyl.o)
                0x0000000000402cdc                __fpclassifyl
 .text          0x0000000000402d2c        0x0 0x4 /usr/local/popcorn/aarch64/lib/libc.a(__signbitl.o)
 .text.__signbitl
                0x0000000000402d2c       0x14 0x4 /usr/local/popcorn/aarch64/lib/libc.a(__signbitl.o)
                0x0000000000402d2c                __signbitl
 .text          0x0000000000402d40        0x0 0x4 /usr/local/popcorn/aarch64/lib/libc.a(frexpl.o)
 .text.frexpl   0x0000000000402d40       0xb4 0x4 /usr/local/popcorn/aarch64/lib/libc.a(frexpl.o)
                0x0000000000402d40                frexpl
 .text          0x0000000000402df4        0x0 0x4 /usr/local/popcorn/aarch64/lib/libc.a(wctomb.o)
 .text.wctomb   0x0000000000402df4       0x1c 0x4 /usr/local/popcorn/aarch64/lib/libc.a(wctomb.o)
                0x0000000000402df4                wctomb
 .text          0x0000000000402e10        0x0 0x4 /usr/local/popcorn/aarch64/lib/libc.a(__lockfile.o)
 .text.__lockfile
                0x0000000000402e10       0x70 0x4 /usr/local/popcorn/aarch64/lib/libc.a(__lockfile.o)
                0x0000000000402e10                __lockfile
 .text.__unlockfile
                0x0000000000402e80       0x4c 0x4 /usr/local/popcorn/aarch64/lib/libc.a(__lockfile.o)
                0x0000000000402e80                __unlockfile
 .text          0x0000000000402ecc        0x0 0x4 /usr/local/popcorn/aarch64/lib/libc.a(__stdio_close.o)
 .text.dummy    0x0000000000402ecc        0x4 0x4 /usr/local/popcorn/aarch64/lib/libc.a(__stdio_close.o)
                0x0000000000402ecc                __aio_close
 .text.__stdio_close
                0x0000000000402ed0       0x28 0x4 /usr/local/popcorn/aarch64/lib/libc.a(__stdio_close.o)
                0x0000000000402ed0                __stdio_close
 .text          0x0000000000402ef8        0x0 0x4 /usr/local/popcorn/aarch64/lib/libc.a(__stdio_seek.o)
 .text.__stdio_seek
                0x0000000000402ef8       0x14 0x4 /usr/local/popcorn/aarch64/lib/libc.a(__stdio_seek.o)
                0x0000000000402ef8                __stdio_seek
 .text          0x0000000000402f0c        0x0 0x4 /usr/local/popcorn/aarch64/lib/libc.a(__stdout_write.o)
 .text.__stdout_write
                0x0000000000402f0c       0x68 0x4 /usr/local/popcorn/aarch64/lib/libc.a(__stdout_write.o)
                0x0000000000402f0c                __stdout_write
 .text          0x0000000000402f74        0x0 0x4 /usr/local/popcorn/aarch64/lib/libc.a(fwrite.o)
 .text.__fwritex
                0x0000000000402f74       0xf8 0x4 /usr/local/popcorn/aarch64/lib/libc.a(fwrite.o)
                0x0000000000402f74                __fwritex
 .text.fwrite   0x000000000040306c       0x9c 0x4 /usr/local/popcorn/aarch64/lib/libc.a(fwrite.o)
                0x000000000040306c                fwrite_unlocked
                0x000000000040306c                fwrite
 .text          0x0000000000403108        0x0 0x4 /usr/local/popcorn/aarch64/lib/libc.a(memchr.o)
 .text.memchr   0x0000000000403108       0xa8 0x4 /usr/local/popcorn/aarch64/lib/libc.a(memchr.o)
                0x0000000000403108                memchr
 .text          0x00000000004031b0        0x0 0x4 /usr/local/popcorn/aarch64/lib/libc.a(memcpy.o)
 .text.memcpy   0x00000000004031b0      0x400 0x4 /usr/local/popcorn/aarch64/lib/libc.a(memcpy.o)
                0x00000000004031b0                memcpy
 .text          0x00000000004035b0        0x0 0x4 /usr/local/popcorn/aarch64/lib/libc.a(__wait.o)
 .text.__wait   0x00000000004035b0       0xc4 0x4 /usr/local/popcorn/aarch64/lib/libc.a(__wait.o)
                0x00000000004035b0                __wait
 .text          0x0000000000403674        0x0 0x4 /usr/local/popcorn/aarch64/lib/libc.a(__set_thread_area.o)
 *fill*         0x0000000000403674        0xc 1f2003d5
 .text.__set_thread_area
                0x0000000000403680        0xc 0x10 /usr/local/popcorn/aarch64/lib/libc.a(__set_thread_area.o)
                0x0000000000403680                __set_thread_area
 .text          0x000000000040368c        0x0 0x4 /usr/local/popcorn/aarch64/lib/libc.a(nanosleep.o)
 .text.nanosleep
                0x000000000040368c       0x34 0x4 /usr/local/popcorn/aarch64/lib/libc.a(nanosleep.o)
                0x000000000040368c                nanosleep
 .text          0x00000000004036c0        0x0 0x4 /usr/local/popcorn/aarch64/lib/libc.a(syscall_ret.o)
 .text.__syscall_ret
                0x00000000004036c0       0x30 0x4 /usr/local/popcorn/aarch64/lib/libc.a(syscall_ret.o)
                0x00000000004036c0                __syscall_ret
 .text          0x00000000004036f0        0x0 0x4 /usr/local/popcorn/aarch64/lib/libc.a(wcrtomb.o)
 .text.wcrtomb  0x00000000004036f0      0x108 0x4 /usr/local/popcorn/aarch64/lib/libc.a(wcrtomb.o)
                0x00000000004036f0                wcrtomb
 .text          0x00000000004037f8        0x0 0x4 /usr/local/popcorn/aarch64/lib/libc.a(__stdio_write.o)
 .text.__stdio_write
                0x00000000004037f8      0x12c 0x4 /usr/local/popcorn/aarch64/lib/libc.a(__stdio_write.o)
                0x00000000004037f8                __stdio_write
 .text          0x0000000000403924        0x0 0x4 /usr/local/popcorn/aarch64/lib/libc.a(__towrite.o)
 .text.__towrite
                0x0000000000403924       0x4c 0x4 /usr/local/popcorn/aarch64/lib/libc.a(__towrite.o)
                0x0000000000403924                __towrite
 .text.__towrite_needs_stdio_exit
                0x0000000000403970        0x4 0x4 /usr/local/popcorn/aarch64/lib/libc.a(__towrite.o)
                0x0000000000403970                __towrite_needs_stdio_exit
 .text          0x0000000000403974        0x0 0x4 /usr/local/popcorn/aarch64/lib/libc.a(__syscall_cp.o)
 .text.sccp     0x0000000000403974        0x4 0x4 /usr/local/popcorn/aarch64/lib/libc.a(__syscall_cp.o)
                0x0000000000403974                __syscall_cp_c
 .text.__syscall_cp
                0x0000000000403978        0x4 0x4 /usr/local/popcorn/aarch64/lib/libc.a(__syscall_cp.o)
                0x0000000000403978                __syscall_cp
 .text          0x000000000040397c        0x0 0x4 /usr/local/popcorn/aarch64/lib/libc.a(syscall.o)
 *fill*         0x000000000040397c        0x4 1f2003d5
 .text.__syscall
                0x0000000000403980       0x28 0x10 /usr/local/popcorn/aarch64/lib/libc.a(syscall.o)
                0x0000000000403980                __syscall
 .text          0x00000000004039a8        0x0 0x4 /usr/local/popcorn/aarch64/lib/libc.a(__stdio_exit.o)
 .text.__stdio_exit
                0x00000000004039a8       0x48 0x4 /usr/local/popcorn/aarch64/lib/libc.a(__stdio_exit.o)
                0x00000000004039a8                __stdio_exit
                0x00000000004039a8                __stdio_exit_needed
 .text.close_file
                0x00000000004039f0       0x74 0x4 /usr/local/popcorn/aarch64/lib/libc.a(__stdio_exit.o)
 .text          0x0000000000403a64        0x0 0x4 /usr/local/popcorn/aarch64/lib/libc.a(ofl.o)
 .text.__ofl_lock
                0x0000000000403a64       0x24 0x4 /usr/local/popcorn/aarch64/lib/libc.a(ofl.o)
                0x0000000000403a64                __ofl_lock
 .text.__ofl_unlock
                0x0000000000403a88        0xc 0x4 /usr/local/popcorn/aarch64/lib/libc.a(ofl.o)
                0x0000000000403a88                __ofl_unlock
 .text          0x0000000000403a94        0x0 0x4 /usr/local/popcorn/aarch64/lib/libc.a(__lock.o)
 .text.__lock   0x0000000000403a94       0x60 0x4 /usr/local/popcorn/aarch64/lib/libc.a(__lock.o)
                0x0000000000403a94                __lock
 .text.__unlock
                0x0000000000403af4       0x54 0x4 /usr/local/popcorn/aarch64/lib/libc.a(__lock.o)
                0x0000000000403af4                __unlock
 .text          0x0000000000403b48        0x0 0x4 /usr/local/popcorn/aarch64/lib/libmigrate.a(migrate.o)
 .text.node_available
                0x0000000000403b48       0x58 0x4 /usr/local/popcorn/aarch64/lib/libmigrate.a(migrate.o)
                0x0000000000403b48                node_available
 .text.current_arch
                0x0000000000403ba0       0x70 0x4 /usr/local/popcorn/aarch64/lib/libmigrate.a(migrate.o)
                0x0000000000403ba0                current_arch
 .text.current_nid
                0x0000000000403c10       0x14 0x4 /usr/local/popcorn/aarch64/lib/libmigrate.a(migrate.o)
                0x0000000000403c10                current_nid
 .text.__init_nodes_info
                0x0000000000403c24       0x38 0x4 /usr/local/popcorn/aarch64/lib/libmigrate.a(migrate.o)
                0x0000000000403c24                __init_nodes_info
 .text.__migrate_shim_internal
                0x0000000000403c5c      0x520 0x4 /usr/local/popcorn/aarch64/lib/libmigrate.a(migrate.o)
                0x0000000000403c5c                __migrate_shim_internal
 .text.get_thread_pointer
                0x000000000040417c       0xa4 0x4 /usr/local/popcorn/aarch64/lib/libmigrate.a(migrate.o)
 .text.check_migrate
                0x0000000000404220       0x68 0x4 /usr/local/popcorn/aarch64/lib/libmigrate.a(migrate.o)
                0x0000000000404220                check_migrate
 .text.do_migrate
                0x0000000000404288       0x50 0x4 /usr/local/popcorn/aarch64/lib/libmigrate.a(migrate.o)
 .text.migrate  0x00000000004042d8       0x54 0x4 /usr/local/popcorn/aarch64/lib/libmigrate.a(migrate.o)
                0x00000000004042d8                migrate
 .text.migrate_schedule
                0x000000000040432c       0x68 0x4 /usr/local/popcorn/aarch64/lib/libmigrate.a(migrate.o)
                0x000000000040432c                migrate_schedule
 .text.get_call_site
                0x0000000000404394        0x8 0x4 /usr/local/popcorn/aarch64/lib/libmigrate.a(migrate.o)
 .text          0x000000000040439c        0x0 0x1 /usr/local/popcorn/aarch64/lib/libmigrate.a(migrate_powerpc64.o)
 *fill*         0x000000000040439c        0x4 1f2003d5
 .text.__migrate_fixup_powerpc64
                0x00000000004043a0        0x0 0x10 /usr/local/popcorn/aarch64/lib/libmigrate.a(migrate_powerpc64.o)
                0x00000000004043a0                __migrate_fixup_powerpc64
 .text          0x00000000004043a0        0x0 0x1 /usr/local/popcorn/aarch64/lib/libmigrate.a(migrate_aarch64.o)
 .text.__migrate_fixup_aarch64
                0x00000000004043a0       0x7c 0x10 /usr/local/popcorn/aarch64/lib/libmigrate.a(migrate_aarch64.o)
                0x00000000004043a0                __migrate_fixup_aarch64
 .text          0x000000000040441c        0x0 0x1 /usr/local/popcorn/aarch64/lib/libmigrate.a(migrate_x86_64.o)
 .text.__migrate_fixup_x86_64
                0x000000000040441c        0x0 0x1 /usr/local/popcorn/aarch64/lib/libmigrate.a(migrate_x86_64.o)
                0x000000000040441c                __migrate_fixup_x86_64
 .text          0x000000000040441c        0x0 0x1 /usr/local/popcorn/aarch64/lib/libmigrate.a(migrate_riscv64.o)
 *fill*         0x000000000040441c        0x4 1f2003d5
 .text.__migrate_fixup_riscv64
                0x0000000000404420        0x0 0x10 /usr/local/popcorn/aarch64/lib/libmigrate.a(migrate_riscv64.o)
                0x0000000000404420                __migrate_fixup_riscv64
 .text          0x0000000000404420        0x0 0x4 /usr/local/popcorn/aarch64/lib/libmigrate.a(mapping.o)
 .text.set_default_node
                0x0000000000404420       0x20 0x4 /usr/local/popcorn/aarch64/lib/libmigrate.a(mapping.o)
                0x0000000000404420                set_default_node
 .text.cleanup  0x0000000000404440       0xc4 0x4 /usr/local/popcorn/aarch64/lib/libmigrate.a(mapping.o)
 .text.region_compare
                0x0000000000404504       0x74 0x4 /usr/local/popcorn/aarch64/lib/libmigrate.a(mapping.o)
                0x0000000000404504                region_compare
 .text.read_mapping_schedule
                0x0000000000404578      0x284 0x4 /usr/local/popcorn/aarch64/lib/libmigrate.a(mapping.o)
 .text.region_find
                0x00000000004047fc       0x70 0x4 /usr/local/popcorn/aarch64/lib/libmigrate.a(mapping.o)
                0x00000000004047fc                region_find
 .text.get_node_mapping
                0x000000000040486c       0xc4 0x4 /usr/local/popcorn/aarch64/lib/libmigrate.a(mapping.o)
                0x000000000040486c                get_node_mapping
 .text          0x0000000000404930        0x0 0x4 /usr/local/popcorn/aarch64/lib/libstack-transform.a(userspace.o)
 .text.__st_userspace_ctor
                0x0000000000404930      0x3d4 0x4 /usr/local/popcorn/aarch64/lib/libstack-transform.a(userspace.o)
                0x0000000000404930                __st_userspace_ctor
 .text.__st_userspace_dtor
                0x0000000000404d04       0xc4 0x4 /usr/local/popcorn/aarch64/lib/libstack-transform.a(userspace.o)
                0x0000000000404d04                __st_userspace_dtor
 .text.get_stack_bounds
                0x0000000000404dc8       0xf0 0x4 /usr/local/popcorn/aarch64/lib/libstack-transform.a(userspace.o)
                0x0000000000404dc8                get_stack_bounds
 .text.st_userspace_rewrite
                0x0000000000404eb8      0x180 0x4 /usr/local/popcorn/aarch64/lib/libstack-transform.a(userspace.o)
                0x0000000000404eb8                st_userspace_rewrite
 .text          0x0000000000405038        0x0 0x4 /usr/local/popcorn/aarch64/lib/libstack-transform.a(init.o)
 .text.__st_ctor
                0x0000000000405038        0x4 0x4 /usr/local/popcorn/aarch64/lib/libstack-transform.a(init.o)
 .text.__st_dtor
                0x000000000040503c        0x4 0x4 /usr/local/popcorn/aarch64/lib/libstack-transform.a(init.o)
                0x000000000040503c                __st_dtor
 .text.st_init  0x0000000000405040      0x1e8 0x4 /usr/local/popcorn/aarch64/lib/libstack-transform.a(init.o)
                0x0000000000405040                st_init
 .text.st_destroy
                0x0000000000405228       0x38 0x4 /usr/local/popcorn/aarch64/lib/libstack-transform.a(init.o)
                0x0000000000405228                st_destroy
 .text          0x0000000000405260        0x0 0x4 /usr/local/popcorn/aarch64/lib/libstack-transform.a(rewrite.o)
 .text.st_rewrite_stack
                0x0000000000405260      0x6d4 0x4 /usr/local/popcorn/aarch64/lib/libstack-transform.a(rewrite.o)
                0x0000000000405260                st_rewrite_stack
 .text.rewrite_frame
                0x0000000000405934      0x498 0x4 /usr/local/popcorn/aarch64/lib/libstack-transform.a(rewrite.o)
 .text.st_rewrite_ondemand
                0x0000000000405dcc       0x2c 0x4 /usr/local/popcorn/aarch64/lib/libstack-transform.a(rewrite.o)
                0x0000000000405dcc                st_rewrite_ondemand
 .text.rewrite_val
                0x0000000000405df8      0x308 0x4 /usr/local/popcorn/aarch64/lib/libstack-transform.a(rewrite.o)
 .text          0x0000000000406100        0x0 0x4 /usr/local/popcorn/aarch64/lib/libstack-transform.a(unwind.o)
 .text.first_frame
                0x0000000000406100        0xc 0x4 /usr/local/popcorn/aarch64/lib/libstack-transform.a(unwind.o)
                0x0000000000406100                first_frame
 .text.calculate_cfa
                0x000000000040610c       0x3c 0x4 /usr/local/popcorn/aarch64/lib/libstack-transform.a(unwind.o)
                0x000000000040610c                calculate_cfa
 .text.bootstrap_first_frame
                0x0000000000406148       0x34 0x4 /usr/local/popcorn/aarch64/lib/libstack-transform.a(unwind.o)
                0x0000000000406148                bootstrap_first_frame
 .text.bootstrap_first_frame_funcentry
                0x000000000040617c       0x64 0x4 /usr/local/popcorn/aarch64/lib/libstack-transform.a(unwind.o)
                0x000000000040617c                bootstrap_first_frame_funcentry
 .text.pop_frame
                0x00000000004061e0      0x234 0x4 /usr/local/popcorn/aarch64/lib/libstack-transform.a(unwind.o)
                0x00000000004061e0                pop_frame
 .text.pop_frame_funcentry
                0x0000000000406414      0x18c 0x4 /usr/local/popcorn/aarch64/lib/libstack-transform.a(unwind.o)
                0x0000000000406414                pop_frame_funcentry
 .text.get_register_save_loc
                0x00000000004065a0       0x84 0x4 /usr/local/popcorn/aarch64/lib/libstack-transform.a(unwind.o)
                0x00000000004065a0                get_register_save_loc
 .text.clear_activation
                0x0000000000406624       0x4c 0x4 /usr/local/popcorn/aarch64/lib/libstack-transform.a(unwind.o)
                0x0000000000406624                clear_activation
 .text          0x0000000000406670        0x0 0x4 /usr/local/popcorn/aarch64/lib/libstack-transform.a(util.o)
 .text.arch_name
                0x0000000000406670       0x68 0x4 /usr/local/popcorn/aarch64/lib/libstack-transform.a(util.o)
                0x0000000000406670                arch_name
 .text.get_regops
                0x00000000004066d8       0x64 0x4 /usr/local/popcorn/aarch64/lib/libstack-transform.a(util.o)
                0x00000000004066d8                get_regops
 .text.get_properties
                0x000000000040673c       0x64 0x4 /usr/local/popcorn/aarch64/lib/libstack-transform.a(util.o)
                0x000000000040673c                get_properties
 .text.get_section
                0x00000000004067a0       0xbc 0x4 /usr/local/popcorn/aarch64/lib/libstack-transform.a(util.o)
                0x00000000004067a0                get_section
 .text.get_num_entries
                0x000000000040685c       0x60 0x4 /usr/local/popcorn/aarch64/lib/libstack-transform.a(util.o)
                0x000000000040685c                get_num_entries
 .text.get_section_data
                0x00000000004068bc       0x28 0x4 /usr/local/popcorn/aarch64/lib/libstack-transform.a(util.o)
                0x00000000004068bc                get_section_data
 .text.get_site_by_addr
                0x00000000004068e4       0x80 0x4 /usr/local/popcorn/aarch64/lib/libstack-transform.a(util.o)
                0x00000000004068e4                get_site_by_addr
 .text.get_site_by_id
                0x0000000000406964       0x78 0x4 /usr/local/popcorn/aarch64/lib/libstack-transform.a(util.o)
                0x0000000000406964                get_site_by_id
 .text.get_unwind_offset_by_addr
                0x00000000004069dc       0x94 0x4 /usr/local/popcorn/aarch64/lib/libstack-transform.a(util.o)
                0x00000000004069dc                get_unwind_offset_by_addr
 .text.get_function_address
                0x0000000000406a70       0x88 0x4 /usr/local/popcorn/aarch64/lib/libstack-transform.a(util.o)
                0x0000000000406a70                get_function_address
 .text          0x0000000000406af8        0x0 0x4 /usr/local/popcorn/aarch64/lib/libstack-transform.a(properties.o)
 .text.align_sp_aarch64
                0x0000000000406af8        0xc 0x4 /usr/local/popcorn/aarch64/lib/libstack-transform.a(properties.o)
 .text.is_callee_saved_aarch64
                0x0000000000406b04       0x2c 0x4 /usr/local/popcorn/aarch64/lib/libstack-transform.a(properties.o)
 .text.callee_reg_size_aarch64
                0x0000000000406b30       0x5c 0x4 /usr/local/popcorn/aarch64/lib/libstack-transform.a(properties.o)
 .text          0x0000000000406b8c        0x0 0x4 /usr/local/popcorn/aarch64/lib/libstack-transform.a(regs.o)
 .text.regset_default_aarch64
                0x0000000000406b8c        0xc 0x4 /usr/local/popcorn/aarch64/lib/libstack-transform.a(regs.o)
 .text.regset_init_aarch64
                0x0000000000406b98       0x2c 0x4 /usr/local/popcorn/aarch64/lib/libstack-transform.a(regs.o)
 .text.regset_free_aarch64
                0x0000000000406bc4        0x4 0x4 /usr/local/popcorn/aarch64/lib/libstack-transform.a(regs.o)
 .text.regset_clone_aarch64
                0x0000000000406bc8       0x14 0x4 /usr/local/popcorn/aarch64/lib/libstack-transform.a(regs.o)
 .text.regset_copyin_aarch64
                0x0000000000406bdc        0x8 0x4 /usr/local/popcorn/aarch64/lib/libstack-transform.a(regs.o)
 .text.regset_copyout_aarch64
                0x0000000000406be4       0x14 0x4 /usr/local/popcorn/aarch64/lib/libstack-transform.a(regs.o)
 .text.pc_aarch64
                0x0000000000406bf8        0x8 0x4 /usr/local/popcorn/aarch64/lib/libstack-transform.a(regs.o)
 .text.sp_aarch64
                0x0000000000406c00        0x8 0x4 /usr/local/popcorn/aarch64/lib/libstack-transform.a(regs.o)
 .text.fbp_aarch64
                0x0000000000406c08        0x8 0x4 /usr/local/popcorn/aarch64/lib/libstack-transform.a(regs.o)
 .text.ra_reg_aarch64
                0x0000000000406c10        0x8 0x4 /usr/local/popcorn/aarch64/lib/libstack-transform.a(regs.o)
 .text.set_pc_aarch64
                0x0000000000406c18        0x8 0x4 /usr/local/popcorn/aarch64/lib/libstack-transform.a(regs.o)
 .text.set_sp_aarch64
                0x0000000000406c20        0x8 0x4 /usr/local/popcorn/aarch64/lib/libstack-transform.a(regs.o)
 .text.set_fbp_aarch64
                0x0000000000406c28        0x8 0x4 /usr/local/popcorn/aarch64/lib/libstack-transform.a(regs.o)
 .text.set_ra_reg_aarch64
                0x0000000000406c30        0x8 0x4 /usr/local/popcorn/aarch64/lib/libstack-transform.a(regs.o)
 .text.setup_fbp_aarch64
                0x0000000000406c38        0xc 0x4 /usr/local/popcorn/aarch64/lib/libstack-transform.a(regs.o)
 .text.reg_size_aarch64
                0x0000000000406c44       0x54 0x4 /usr/local/popcorn/aarch64/lib/libstack-transform.a(regs.o)
 .text.reg_aarch64
                0x0000000000406c98      0x248 0x4 /usr/local/popcorn/aarch64/lib/libstack-transform.a(regs.o)
 .text          0x0000000000406ee0        0x0 0x4 /usr/local/popcorn/aarch64/lib/libstack-transform.a(properties.o)
 .text.align_sp_powerpc64
                0x0000000000406ee0       0x14 0x4 /usr/local/popcorn/aarch64/lib/libstack-transform.a(properties.o)
 .text.is_callee_saved_powerpc64
                0x0000000000406ef4       0x38 0x4 /usr/local/popcorn/aarch64/lib/libstack-transform.a(properties.o)
 .text.callee_reg_size_powerpc64
                0x0000000000406f2c       0x5c 0x4 /usr/local/popcorn/aarch64/lib/libstack-transform.a(properties.o)
 .text          0x0000000000406f88        0x0 0x4 /usr/local/popcorn/aarch64/lib/libstack-transform.a(regs.o)
 .text.regset_default_powerpc64
                0x0000000000406f88        0xc 0x4 /usr/local/popcorn/aarch64/lib/libstack-transform.a(regs.o)
 .text.regset_init_powerpc64
                0x0000000000406f94       0x2c 0x4 /usr/local/popcorn/aarch64/lib/libstack-transform.a(regs.o)
 .text.regset_free_powerpc64
                0x0000000000406fc0        0x4 0x4 /usr/local/popcorn/aarch64/lib/libstack-transform.a(regs.o)
 .text.regset_clone_powerpc64
                0x0000000000406fc4       0x14 0x4 /usr/local/popcorn/aarch64/lib/libstack-transform.a(regs.o)
 .text.regset_copyin_powerpc64
                0x0000000000406fd8        0x8 0x4 /usr/local/popcorn/aarch64/lib/libstack-transform.a(regs.o)
 .text.regset_copyout_powerpc64
                0x0000000000406fe0       0x14 0x4 /usr/local/popcorn/aarch64/lib/libstack-transform.a(regs.o)
 .text.pc_powerpc64
                0x0000000000406ff4        0x8 0x4 /usr/local/popcorn/aarch64/lib/libstack-transform.a(regs.o)
 .text.sp_powerpc64
                0x0000000000406ffc        0x8 0x4 /usr/local/popcorn/aarch64/lib/libstack-transform.a(regs.o)
 .text.fbp_powerpc64
                0x0000000000407004        0x8 0x4 /usr/local/popcorn/aarch64/lib/libstack-transform.a(regs.o)
 .text.ra_reg_powerpc64
                0x000000000040700c        0x8 0x4 /usr/local/popcorn/aarch64/lib/libstack-transform.a(regs.o)
 .text.set_pc_powerpc64
                0x0000000000407014        0x8 0x4 /usr/local/popcorn/aarch64/lib/libstack-transform.a(regs.o)
 .text.set_sp_powerpc64
                0x000000000040701c        0x8 0x4 /usr/local/popcorn/aarch64/lib/libstack-transform.a(regs.o)
 .text.set_fbp_powerpc64
                0x0000000000407024        0x8 0x4 /usr/local/popcorn/aarch64/lib/libstack-transform.a(regs.o)
 .text.set_ra_reg_powerpc64
                0x000000000040702c        0x8 0x4 /usr/local/popcorn/aarch64/lib/libstack-transform.a(regs.o)
 .text.setup_fbp_powerpc64
                0x0000000000407034        0xc 0x4 /usr/local/popcorn/aarch64/lib/libstack-transform.a(regs.o)
 .text.reg_size_powerpc64
                0x0000000000407040       0x60 0x4 /usr/local/popcorn/aarch64/lib/libstack-transform.a(regs.o)
 .text.reg_powerpc64
                0x00000000004070a0      0x360 0x4 /usr/local/popcorn/aarch64/lib/libstack-transform.a(regs.o)
 .text          0x0000000000407400        0x0 0x4 /usr/local/popcorn/aarch64/lib/libstack-transform.a(properties.o)
 .text.align_sp_riscv64
                0x0000000000407400        0xc 0x4 /usr/local/popcorn/aarch64/lib/libstack-transform.a(properties.o)
 .text.is_callee_saved_riscv64
                0x000000000040740c       0x30 0x4 /usr/local/popcorn/aarch64/lib/libstack-transform.a(properties.o)
 .text.callee_reg_size_riscv64
                0x000000000040743c       0x60 0x4 /usr/local/popcorn/aarch64/lib/libstack-transform.a(properties.o)
 .text          0x000000000040749c        0x0 0x4 /usr/local/popcorn/aarch64/lib/libstack-transform.a(regs.o)
 .text.regset_default_riscv64
                0x000000000040749c        0xc 0x4 /usr/local/popcorn/aarch64/lib/libstack-transform.a(regs.o)
 .text.regset_init_riscv64
                0x00000000004074a8       0x2c 0x4 /usr/local/popcorn/aarch64/lib/libstack-transform.a(regs.o)
 .text.regset_free_riscv64
                0x00000000004074d4        0x4 0x4 /usr/local/popcorn/aarch64/lib/libstack-transform.a(regs.o)
 .text.regset_clone_riscv64
                0x00000000004074d8       0x14 0x4 /usr/local/popcorn/aarch64/lib/libstack-transform.a(regs.o)
 .text.regset_copyin_riscv64
                0x00000000004074ec        0x8 0x4 /usr/local/popcorn/aarch64/lib/libstack-transform.a(regs.o)
 .text.regset_copyout_riscv64
                0x00000000004074f4       0x14 0x4 /usr/local/popcorn/aarch64/lib/libstack-transform.a(regs.o)
 .text.pc_riscv64
                0x0000000000407508        0x8 0x4 /usr/local/popcorn/aarch64/lib/libstack-transform.a(regs.o)
 .text.sp_riscv64
                0x0000000000407510        0x8 0x4 /usr/local/popcorn/aarch64/lib/libstack-transform.a(regs.o)
 .text.fbp_riscv64
                0x0000000000407518        0x8 0x4 /usr/local/popcorn/aarch64/lib/libstack-transform.a(regs.o)
 .text.ra_reg_riscv64
                0x0000000000407520        0x8 0x4 /usr/local/popcorn/aarch64/lib/libstack-transform.a(regs.o)
 .text.set_pc_riscv64
                0x0000000000407528        0x8 0x4 /usr/local/popcorn/aarch64/lib/libstack-transform.a(regs.o)
 .text.set_sp_riscv64
                0x0000000000407530        0x8 0x4 /usr/local/popcorn/aarch64/lib/libstack-transform.a(regs.o)
 .text.set_fbp_riscv64
                0x0000000000407538        0x8 0x4 /usr/local/popcorn/aarch64/lib/libstack-transform.a(regs.o)
 .text.set_ra_reg_riscv64
                0x0000000000407540        0x8 0x4 /usr/local/popcorn/aarch64/lib/libstack-transform.a(regs.o)
 .text.setup_fbp_riscv64
                0x0000000000407548        0xc 0x4 /usr/local/popcorn/aarch64/lib/libstack-transform.a(regs.o)
 .text.reg_size_riscv64
                0x0000000000407554       0x40 0x4 /usr/local/popcorn/aarch64/lib/libstack-transform.a(regs.o)
 .text.reg_riscv64
                0x0000000000407594       0x40 0x4 /usr/local/popcorn/aarch64/lib/libstack-transform.a(regs.o)
 .text          0x00000000004075d4        0x0 0x4 /usr/local/popcorn/aarch64/lib/libstack-transform.a(properties.o)
 .text.align_sp_x86_64
                0x00000000004075d4       0x10 0x4 /usr/local/popcorn/aarch64/lib/libstack-transform.a(properties.o)
 .text.is_callee_saved_x86_64
                0x00000000004075e4       0x28 0x4 /usr/local/popcorn/aarch64/lib/libstack-transform.a(properties.o)
 .text.callee_reg_size_x86_64
                0x000000000040760c       0x54 0x4 /usr/local/popcorn/aarch64/lib/libstack-transform.a(properties.o)
 .text          0x0000000000407660        0x0 0x4 /usr/local/popcorn/aarch64/lib/libstack-transform.a(regs.o)
 .text.regset_default_x86_64
                0x0000000000407660        0xc 0x4 /usr/local/popcorn/aarch64/lib/libstack-transform.a(regs.o)
 .text.regset_init_x86_64
                0x000000000040766c       0x2c 0x4 /usr/local/popcorn/aarch64/lib/libstack-transform.a(regs.o)
 .text.regset_free_x86_64
                0x0000000000407698        0x4 0x4 /usr/local/popcorn/aarch64/lib/libstack-transform.a(regs.o)
 .text.regset_clone_x86_64
                0x000000000040769c       0x14 0x4 /usr/local/popcorn/aarch64/lib/libstack-transform.a(regs.o)
 .text.regset_copyin_x86_64
                0x00000000004076b0        0x8 0x4 /usr/local/popcorn/aarch64/lib/libstack-transform.a(regs.o)
 .text.regset_copyout_x86_64
                0x00000000004076b8       0x14 0x4 /usr/local/popcorn/aarch64/lib/libstack-transform.a(regs.o)
 .text.pc_x86_64
                0x00000000004076cc        0x8 0x4 /usr/local/popcorn/aarch64/lib/libstack-transform.a(regs.o)
 .text.sp_x86_64
                0x00000000004076d4        0x8 0x4 /usr/local/popcorn/aarch64/lib/libstack-transform.a(regs.o)
 .text.fbp_x86_64
                0x00000000004076dc        0x8 0x4 /usr/local/popcorn/aarch64/lib/libstack-transform.a(regs.o)
 .text.ra_reg_x86_64
                0x00000000004076e4       0x2c 0x4 /usr/local/popcorn/aarch64/lib/libstack-transform.a(regs.o)
 .text.set_pc_x86_64
                0x0000000000407710        0x8 0x4 /usr/local/popcorn/aarch64/lib/libstack-transform.a(regs.o)
 .text.set_sp_x86_64
                0x0000000000407718        0x8 0x4 /usr/local/popcorn/aarch64/lib/libstack-transform.a(regs.o)
 .text.set_fbp_x86_64
                0x0000000000407720        0x8 0x4 /usr/local/popcorn/aarch64/lib/libstack-transform.a(regs.o)
 .text.set_ra_reg_x86_64
                0x0000000000407728       0x2c 0x4 /usr/local/popcorn/aarch64/lib/libstack-transform.a(regs.o)
 .text.setup_fbp_x86_64
                0x0000000000407754        0xc 0x4 /usr/local/popcorn/aarch64/lib/libstack-transform.a(regs.o)
 .text.reg_size_x86_64
                0x0000000000407760       0x54 0x4 /usr/local/popcorn/aarch64/lib/libstack-transform.a(regs.o)
 .text.reg_x86_64
                0x00000000004077b4      0x150 0x4 /usr/local/popcorn/aarch64/lib/libstack-transform.a(regs.o)
 .text          0x0000000000407904        0x0 0x4 /usr/local/popcorn/aarch64/lib/libstack-transform.a(data.o)
 .text.put_val  0x0000000000407904      0x290 0x4 /usr/local/popcorn/aarch64/lib/libstack-transform.a(data.o)
                0x0000000000407904                put_val
 .text.get_dest_loc
                0x0000000000407b94       0xd4 0x4 /usr/local/popcorn/aarch64/lib/libstack-transform.a(data.o)
 .text.put_val_arch
                0x0000000000407c68      0x460 0x4 /usr/local/popcorn/aarch64/lib/libstack-transform.a(data.o)
                0x0000000000407c68                put_val_arch
 .text.put_val_data
                0x00000000004080c8      0x114 0x4 /usr/local/popcorn/aarch64/lib/libstack-transform.a(data.o)
                0x00000000004080c8                put_val_data
 .text.points_to_stack
                0x00000000004081dc      0x170 0x4 /usr/local/popcorn/aarch64/lib/libstack-transform.a(data.o)
                0x00000000004081dc                points_to_stack
 .text.points_to_data
                0x000000000040834c      0x1b8 0x4 /usr/local/popcorn/aarch64/lib/libstack-transform.a(data.o)
                0x000000000040834c                points_to_data
 .text.set_return_address
                0x0000000000408504       0x24 0x4 /usr/local/popcorn/aarch64/lib/libstack-transform.a(data.o)
                0x0000000000408504                set_return_address
 .text.set_return_address_funcentry
                0x0000000000408528       0x48 0x4 /usr/local/popcorn/aarch64/lib/libstack-transform.a(data.o)
                0x0000000000408528                set_return_address_funcentry
 .text.get_savedfbp_loc
                0x0000000000408570       0x90 0x4 /usr/local/popcorn/aarch64/lib/libstack-transform.a(data.o)
                0x0000000000408570                get_savedfbp_loc
 .text          0x0000000000408600        0x0 0x4 /usr/local/popcorn/aarch64/lib/libelf.a(begin.o)
 .text.elf_begin
                0x0000000000408600      0xd04 0x4 /usr/local/popcorn/aarch64/lib/libelf.a(begin.o)
                0x0000000000408600                elf_begin
 .text._elf_check_type
                0x0000000000409304      0x2cc 0x4 /usr/local/popcorn/aarch64/lib/libelf.a(begin.o)
 .text.elf_memory
                0x00000000004095d0       0xd0 0x4 /usr/local/popcorn/aarch64/lib/libelf.a(begin.o)
                0x00000000004095d0                elf_memory
 .text.gelf_getclass
                0x00000000004096a0       0x28 0x4 /usr/local/popcorn/aarch64/lib/libelf.a(begin.o)
                0x00000000004096a0                gelf_getclass
 .text          0x00000000004096c8        0x0 0x4 /usr/local/popcorn/aarch64/lib/libelf.a(end.o)
 .text.elf_end  0x00000000004096c8      0x1d4 0x4 /usr/local/popcorn/aarch64/lib/libelf.a(end.o)
                0x00000000004096c8                elf_end
 .text          0x000000000040989c        0x0 0x4 /usr/local/popcorn/aarch64/lib/libelf.a(getdata.o)
 .text.elf_getdata
                0x000000000040989c      0x258 0x4 /usr/local/popcorn/aarch64/lib/libelf.a(getdata.o)
                0x000000000040989c                elf_getdata
 .text          0x0000000000409af4        0x0 0x4 /usr/local/popcorn/aarch64/lib/libelf.a(getident.o)
 .text.elf_getident
                0x0000000000409af4       0x94 0x4 /usr/local/popcorn/aarch64/lib/libelf.a(getident.o)
                0x0000000000409af4                elf_getident
 .text          0x0000000000409b88        0x0 0x4 /usr/local/popcorn/aarch64/lib/libelf.a(nextscn.o)
 .text.elf_nextscn
                0x0000000000409b88       0xd4 0x4 /usr/local/popcorn/aarch64/lib/libelf.a(nextscn.o)
                0x0000000000409b88                elf_nextscn
 .text          0x0000000000409c5c        0x0 0x4 /usr/local/popcorn/aarch64/lib/libelf.a(strptr.o)
 .text.elf_strptr
                0x0000000000409c5c      0x19c 0x4 /usr/local/popcorn/aarch64/lib/libelf.a(strptr.o)
                0x0000000000409c5c                elf_strptr
 .text          0x0000000000409df8        0x0 0x4 /usr/local/popcorn/aarch64/lib/libelf.a(version.o)
 .text.elf_version
                0x0000000000409df8       0x90 0x4 /usr/local/popcorn/aarch64/lib/libelf.a(version.o)
                0x0000000000409df8                elf_version
 .text          0x0000000000409e88        0x0 0x4 /usr/local/popcorn/aarch64/lib/libelf.a(32.getehdr.o)
 .text._elf_getehdr
                0x0000000000409e88       0x94 0x4 /usr/local/popcorn/aarch64/lib/libelf.a(32.getehdr.o)
                0x0000000000409e88                _elf_getehdr
 .text.elf32_getehdr
                0x0000000000409f1c       0x94 0x4 /usr/local/popcorn/aarch64/lib/libelf.a(32.getehdr.o)
                0x0000000000409f1c                elf32_getehdr
 .text.elf64_getehdr
                0x0000000000409fb0       0x94 0x4 /usr/local/popcorn/aarch64/lib/libelf.a(32.getehdr.o)
                0x0000000000409fb0                elf64_getehdr
 .text          0x000000000040a044        0x0 0x4 /usr/local/popcorn/aarch64/lib/libelf.a(32.xlatetof.o)
 .text._elf32_xltsize
                0x000000000040a044       0xac 0x4 /usr/local/popcorn/aarch64/lib/libelf.a(32.xlatetof.o)
                0x000000000040a044                _elf32_xltsize
 .text.elf32_xlatetom
                0x000000000040a0f0      0x130 0x4 /usr/local/popcorn/aarch64/lib/libelf.a(32.xlatetof.o)
                0x000000000040a0f0                elf32_xlatetom
 .text.elf32_xlatetof
                0x000000000040a220      0x130 0x4 /usr/local/popcorn/aarch64/lib/libelf.a(32.xlatetof.o)
                0x000000000040a220                elf32_xlatetof
 .text.byte_copy
                0x000000000040a350       0xf0 0x4 /usr/local/popcorn/aarch64/lib/libelf.a(32.xlatetof.o)
 .text.addr_32L__tom
                0x000000000040a440       0x2c 0x4 /usr/local/popcorn/aarch64/lib/libelf.a(32.xlatetof.o)
 .text.addr_32L__tof
                0x000000000040a46c       0x48 0x4 /usr/local/popcorn/aarch64/lib/libelf.a(32.xlatetof.o)
 .text.dyn_32L11_tom
                0x000000000040a4b4       0x38 0x4 /usr/local/popcorn/aarch64/lib/libelf.a(32.xlatetof.o)
 .text.dyn_32L11_tof
                0x000000000040a4ec       0x70 0x4 /usr/local/popcorn/aarch64/lib/libelf.a(32.xlatetof.o)
 .text.ehdr_32L11_tom
                0x000000000040a55c       0xe0 0x4 /usr/local/popcorn/aarch64/lib/libelf.a(32.xlatetof.o)
 .text.ehdr_32L11_tof
                0x000000000040a63c      0x1ac 0x4 /usr/local/popcorn/aarch64/lib/libelf.a(32.xlatetof.o)
 .text.half_32L__tom
                0x000000000040a7e8       0xbc 0x4 /usr/local/popcorn/aarch64/lib/libelf.a(32.xlatetof.o)
 .text.half_32L__tof
                0x000000000040a8a4       0xbc 0x4 /usr/local/popcorn/aarch64/lib/libelf.a(32.xlatetof.o)
 .text.off_32L__tom
                0x000000000040a960       0x2c 0x4 /usr/local/popcorn/aarch64/lib/libelf.a(32.xlatetof.o)
 .text.off_32L__tof
                0x000000000040a98c       0x48 0x4 /usr/local/popcorn/aarch64/lib/libelf.a(32.xlatetof.o)
 .text.phdr_32L11_tom
                0x000000000040a9d4       0x68 0x4 /usr/local/popcorn/aarch64/lib/libelf.a(32.xlatetof.o)
 .text.phdr_32L11_tof
                0x000000000040aa3c      0x148 0x4 /usr/local/popcorn/aarch64/lib/libelf.a(32.xlatetof.o)
 .text.rela_32L11_tom
                0x000000000040ab84       0x5c 0x4 /usr/local/popcorn/aarch64/lib/libelf.a(32.xlatetof.o)
 .text.rela_32L11_tof
                0x000000000040abe0       0xb0 0x4 /usr/local/popcorn/aarch64/lib/libelf.a(32.xlatetof.o)
 .text.rel_32L11_tom
                0x000000000040ac90       0x38 0x4 /usr/local/popcorn/aarch64/lib/libelf.a(32.xlatetof.o)
 .text.rel_32L11_tof
                0x000000000040acc8       0x70 0x4 /usr/local/popcorn/aarch64/lib/libelf.a(32.xlatetof.o)
 .text.shdr_32L11_tom
                0x000000000040ad38       0x94 0x4 /usr/local/popcorn/aarch64/lib/libelf.a(32.xlatetof.o)
 .text.shdr_32L11_tof
                0x000000000040adcc      0x1ac 0x4 /usr/local/popcorn/aarch64/lib/libelf.a(32.xlatetof.o)
 .text.sword_32L__tom
                0x000000000040af78       0x2c 0x4 /usr/local/popcorn/aarch64/lib/libelf.a(32.xlatetof.o)
 .text.sword_32L__tof
                0x000000000040afa4       0x48 0x4 /usr/local/popcorn/aarch64/lib/libelf.a(32.xlatetof.o)
 .text.sym_32L11_tom
                0x000000000040afec       0x58 0x4 /usr/local/popcorn/aarch64/lib/libelf.a(32.xlatetof.o)
 .text.sym_32L11_tof
                0x000000000040b044       0xb4 0x4 /usr/local/popcorn/aarch64/lib/libelf.a(32.xlatetof.o)
 .text.word_32L__tom
                0x000000000040b0f8       0x2c 0x4 /usr/local/popcorn/aarch64/lib/libelf.a(32.xlatetof.o)
 .text.word_32L__tof
                0x000000000040b124       0x48 0x4 /usr/local/popcorn/aarch64/lib/libelf.a(32.xlatetof.o)
 .text.addr_32M__tom
                0x000000000040b16c       0x28 0x4 /usr/local/popcorn/aarch64/lib/libelf.a(32.xlatetof.o)
 .text.addr_32M__tof
                0x000000000040b194       0x44 0x4 /usr/local/popcorn/aarch64/lib/libelf.a(32.xlatetof.o)
 .text.dyn_32M11_tom
                0x000000000040b1d8       0x3c 0x4 /usr/local/popcorn/aarch64/lib/libelf.a(32.xlatetof.o)
 .text.dyn_32M11_tof
                0x000000000040b214       0x6c 0x4 /usr/local/popcorn/aarch64/lib/libelf.a(32.xlatetof.o)
 .text.ehdr_32M11_tom
                0x000000000040b280      0x134 0x4 /usr/local/popcorn/aarch64/lib/libelf.a(32.xlatetof.o)
 .text.ehdr_32M11_tof
                0x000000000040b3b4      0x1ac 0x4 /usr/local/popcorn/aarch64/lib/libelf.a(32.xlatetof.o)
 .text.half_32M__tom
                0x000000000040b560       0xbc 0x4 /usr/local/popcorn/aarch64/lib/libelf.a(32.xlatetof.o)
 .text.half_32M__tof
                0x000000000040b61c       0xb8 0x4 /usr/local/popcorn/aarch64/lib/libelf.a(32.xlatetof.o)
 .text.off_32M__tom
                0x000000000040b6d4       0x28 0x4 /usr/local/popcorn/aarch64/lib/libelf.a(32.xlatetof.o)
 .text.off_32M__tof
                0x000000000040b6fc       0x44 0x4 /usr/local/popcorn/aarch64/lib/libelf.a(32.xlatetof.o)
 .text.phdr_32M11_tom
                0x000000000040b740       0x84 0x4 /usr/local/popcorn/aarch64/lib/libelf.a(32.xlatetof.o)
 .text.phdr_32M11_tof
                0x000000000040b7c4      0x144 0x4 /usr/local/popcorn/aarch64/lib/libelf.a(32.xlatetof.o)
 .text.rela_32M11_tom
                0x000000000040b908       0x64 0x4 /usr/local/popcorn/aarch64/lib/libelf.a(32.xlatetof.o)
 .text.rela_32M11_tof
                0x000000000040b96c       0xac 0x4 /usr/local/popcorn/aarch64/lib/libelf.a(32.xlatetof.o)
 .text.rel_32M11_tom
                0x000000000040ba18       0x3c 0x4 /usr/local/popcorn/aarch64/lib/libelf.a(32.xlatetof.o)
 .text.rel_32M11_tof
                0x000000000040ba54       0x6c 0x4 /usr/local/popcorn/aarch64/lib/libelf.a(32.xlatetof.o)
 .text.shdr_32M11_tom
                0x000000000040bac0       0xb8 0x4 /usr/local/popcorn/aarch64/lib/libelf.a(32.xlatetof.o)
 .text.shdr_32M11_tof
                0x000000000040bb78      0x1a8 0x4 /usr/local/popcorn/aarch64/lib/libelf.a(32.xlatetof.o)
 .text.sword_32M__tom
                0x000000000040bd20       0x28 0x4 /usr/local/popcorn/aarch64/lib/libelf.a(32.xlatetof.o)
 .text.sword_32M__tof
                0x000000000040bd48       0x44 0x4 /usr/local/popcorn/aarch64/lib/libelf.a(32.xlatetof.o)
 .text.sym_32M11_tom
                0x000000000040bd8c       0x68 0x4 /usr/local/popcorn/aarch64/lib/libelf.a(32.xlatetof.o)
 .text.sym_32M11_tof
                0x000000000040bdf4       0xb0 0x4 /usr/local/popcorn/aarch64/lib/libelf.a(32.xlatetof.o)
 .text.word_32M__tom
                0x000000000040bea4       0x28 0x4 /usr/local/popcorn/aarch64/lib/libelf.a(32.xlatetof.o)
 .text.word_32M__tof
                0x000000000040becc       0x44 0x4 /usr/local/popcorn/aarch64/lib/libelf.a(32.xlatetof.o)
 .text.array_copy
                0x000000000040bf10      0x138 0x4 /usr/local/popcorn/aarch64/lib/libelf.a(32.xlatetof.o)
 .text          0x000000000040c048        0x0 0x4 /usr/local/popcorn/aarch64/lib/libelf.a(cook.o)
 .text._elf_scn_type
                0x000000000040c048       0xa4 0x4 /usr/local/popcorn/aarch64/lib/libelf.a(cook.o)
                0x000000000040c048                _elf_scn_type
 .text._elf_xlatetom
                0x000000000040c0ec       0x50 0x4 /usr/local/popcorn/aarch64/lib/libelf.a(cook.o)
                0x000000000040c0ec                _elf_xlatetom
 .text._elf_cook
                0x000000000040c13c      0x7d4 0x4 /usr/local/popcorn/aarch64/lib/libelf.a(cook.o)
                0x000000000040c13c                _elf_cook
 .text._elf_item
                0x000000000040c910      0x1c0 0x4 /usr/local/popcorn/aarch64/lib/libelf.a(cook.o)
 .text          0x000000000040cad0        0x0 0x4 /usr/local/popcorn/aarch64/lib/libelf.a(data.o)
 .text          0x000000000040cad0        0x0 0x4 /usr/local/popcorn/aarch64/lib/libelf.a(input.o)
 .text._elf_read
                0x000000000040cad0      0x120 0x4 /usr/local/popcorn/aarch64/lib/libelf.a(input.o)
                0x000000000040cad0                _elf_read
 .text._elf_mmap
                0x000000000040cbf0       0x60 0x4 /usr/local/popcorn/aarch64/lib/libelf.a(input.o)
                0x000000000040cbf0                _elf_mmap
 .text          0x000000000040cc50        0x0 0x4 /usr/local/popcorn/aarch64/lib/libelf.a(x.elfext.o)
 .text.elf_getphdrnum
                0x000000000040cc50       0x70 0x4 /usr/local/popcorn/aarch64/lib/libelf.a(x.elfext.o)
                0x000000000040cc50                elf_getphdrnum
 .text.elf_getshdrnum
                0x000000000040ccc0       0x7c 0x4 /usr/local/popcorn/aarch64/lib/libelf.a(x.elfext.o)
                0x000000000040ccc0                elf_getshdrnum
 .text.elf_getshdrstrndx
                0x000000000040cd3c      0x10c 0x4 /usr/local/popcorn/aarch64/lib/libelf.a(x.elfext.o)
                0x000000000040cd3c                elf_getshdrstrndx
 .text.elf_getphnum
                0x000000000040ce48       0x70 0x4 /usr/local/popcorn/aarch64/lib/libelf.a(x.elfext.o)
                0x000000000040ce48                elf_getphnum
 .text.elf_getshnum
                0x000000000040ceb8       0x7c 0x4 /usr/local/popcorn/aarch64/lib/libelf.a(x.elfext.o)
                0x000000000040ceb8                elf_getshnum
 .text.elf_getshstrndx
                0x000000000040cf34      0x110 0x4 /usr/local/popcorn/aarch64/lib/libelf.a(x.elfext.o)
                0x000000000040cf34                elf_getshstrndx
 .text.elfx_update_shstrndx
                0x000000000040d044       0xf8 0x4 /usr/local/popcorn/aarch64/lib/libelf.a(x.elfext.o)
                0x000000000040d044                elfx_update_shstrndx
 .text          0x000000000040d13c        0x0 0x4 /usr/local/popcorn/aarch64/lib/libelf.a(64.xlatetof.o)
 .text._elf64_xltsize
                0x000000000040d13c       0xac 0x4 /usr/local/popcorn/aarch64/lib/libelf.a(64.xlatetof.o)
                0x000000000040d13c                _elf64_xltsize
 .text.elf64_xlatetom
                0x000000000040d1e8      0x130 0x4 /usr/local/popcorn/aarch64/lib/libelf.a(64.xlatetof.o)
                0x000000000040d1e8                elf64_xlatetom
 .text.elf64_xlatetof
                0x000000000040d318      0x130 0x4 /usr/local/popcorn/aarch64/lib/libelf.a(64.xlatetof.o)
                0x000000000040d318                elf64_xlatetof
 .text.gelf_xlatetom
                0x000000000040d448      0x1a4 0x4 /usr/local/popcorn/aarch64/lib/libelf.a(64.xlatetof.o)
                0x000000000040d448                gelf_xlatetom
 .text.gelf_xlatetof
                0x000000000040d5ec      0x1a4 0x4 /usr/local/popcorn/aarch64/lib/libelf.a(64.xlatetof.o)
                0x000000000040d5ec                gelf_xlatetof
 .text.byte_copy
                0x000000000040d790       0xf0 0x4 /usr/local/popcorn/aarch64/lib/libelf.a(64.xlatetof.o)
 .text.addr_64L__tom
                0x000000000040d880       0x54 0x4 /usr/local/popcorn/aarch64/lib/libelf.a(64.xlatetof.o)
 .text.addr_64L__tof
                0x000000000040d8d4       0x54 0x4 /usr/local/popcorn/aarch64/lib/libelf.a(64.xlatetof.o)
 .text.dyn_64L11_tom
                0x000000000040d928       0x64 0x4 /usr/local/popcorn/aarch64/lib/libelf.a(64.xlatetof.o)
 .text.dyn_64L11_tof
                0x000000000040d98c       0x64 0x4 /usr/local/popcorn/aarch64/lib/libelf.a(64.xlatetof.o)
 .text.ehdr_64L11_tom
                0x000000000040d9f0       0xcc 0x4 /usr/local/popcorn/aarch64/lib/libelf.a(64.xlatetof.o)
 .text.ehdr_64L11_tof
                0x000000000040dabc      0x144 0x4 /usr/local/popcorn/aarch64/lib/libelf.a(64.xlatetof.o)
 .text.half_64L__tom
                0x000000000040dc00       0xbc 0x4 /usr/local/popcorn/aarch64/lib/libelf.a(64.xlatetof.o)
 .text.half_64L__tof
                0x000000000040dcbc       0xbc 0x4 /usr/local/popcorn/aarch64/lib/libelf.a(64.xlatetof.o)
 .text.off_64L__tom
                0x000000000040dd78       0x54 0x4 /usr/local/popcorn/aarch64/lib/libelf.a(64.xlatetof.o)
 .text.off_64L__tof
                0x000000000040ddcc       0x54 0x4 /usr/local/popcorn/aarch64/lib/libelf.a(64.xlatetof.o)
 .text.phdr_64L11_tom
                0x000000000040de20       0xdc 0x4 /usr/local/popcorn/aarch64/lib/libelf.a(64.xlatetof.o)
 .text.phdr_64L11_tof
                0x000000000040defc      0x114 0x4 /usr/local/popcorn/aarch64/lib/libelf.a(64.xlatetof.o)
 .text.rela_64L11_tom
                0x000000000040e010       0x88 0x4 /usr/local/popcorn/aarch64/lib/libelf.a(64.xlatetof.o)
 .text.rela_64L11_tof
                0x000000000040e098       0x88 0x4 /usr/local/popcorn/aarch64/lib/libelf.a(64.xlatetof.o)
 .text.rel_64L11_tom
                0x000000000040e120       0x64 0x4 /usr/local/popcorn/aarch64/lib/libelf.a(64.xlatetof.o)
 .text.rel_64L11_tof
                0x000000000040e184       0x64 0x4 /usr/local/popcorn/aarch64/lib/libelf.a(64.xlatetof.o)
 .text.shdr_64L11_tom
                0x000000000040e1e8       0xcc 0x4 /usr/local/popcorn/aarch64/lib/libelf.a(64.xlatetof.o)
 .text.shdr_64L11_tof
                0x000000000040e2b4      0x13c 0x4 /usr/local/popcorn/aarch64/lib/libelf.a(64.xlatetof.o)
 .text.sword_64L__tom
                0x000000000040e3f0       0x2c 0x4 /usr/local/popcorn/aarch64/lib/libelf.a(64.xlatetof.o)
 .text.sword_64L__tof
                0x000000000040e41c       0x48 0x4 /usr/local/popcorn/aarch64/lib/libelf.a(64.xlatetof.o)
 .text.sym_64L11_tom
                0x000000000040e464       0x9c 0x4 /usr/local/popcorn/aarch64/lib/libelf.a(64.xlatetof.o)
 .text.sym_64L11_tof
                0x000000000040e500       0xc0 0x4 /usr/local/popcorn/aarch64/lib/libelf.a(64.xlatetof.o)
 .text.word_64L__tom
                0x000000000040e5c0       0x2c 0x4 /usr/local/popcorn/aarch64/lib/libelf.a(64.xlatetof.o)
 .text.word_64L__tof
                0x000000000040e5ec       0x48 0x4 /usr/local/popcorn/aarch64/lib/libelf.a(64.xlatetof.o)
 .text.sxword_64L__tom
                0x000000000040e634       0x54 0x4 /usr/local/popcorn/aarch64/lib/libelf.a(64.xlatetof.o)
 .text.sxword_64L__tof
                0x000000000040e688       0x54 0x4 /usr/local/popcorn/aarch64/lib/libelf.a(64.xlatetof.o)
 .text.xword_64L__tom
                0x000000000040e6dc       0x54 0x4 /usr/local/popcorn/aarch64/lib/libelf.a(64.xlatetof.o)
 .text.xword_64L__tof
                0x000000000040e730       0x54 0x4 /usr/local/popcorn/aarch64/lib/libelf.a(64.xlatetof.o)
 .text.addr_64M__tom
                0x000000000040e784       0x54 0x4 /usr/local/popcorn/aarch64/lib/libelf.a(64.xlatetof.o)
 .text.addr_64M__tof
                0x000000000040e7d8       0x54 0x4 /usr/local/popcorn/aarch64/lib/libelf.a(64.xlatetof.o)
 .text.dyn_64M11_tom
                0x000000000040e82c       0x64 0x4 /usr/local/popcorn/aarch64/lib/libelf.a(64.xlatetof.o)
 .text.dyn_64M11_tof
                0x000000000040e890       0x64 0x4 /usr/local/popcorn/aarch64/lib/libelf.a(64.xlatetof.o)
 .text.ehdr_64M11_tom
                0x000000000040e8f4      0x114 0x4 /usr/local/popcorn/aarch64/lib/libelf.a(64.xlatetof.o)
 .text.ehdr_64M11_tof
                0x000000000040ea08      0x144 0x4 /usr/local/popcorn/aarch64/lib/libelf.a(64.xlatetof.o)
 .text.half_64M__tom
                0x000000000040eb4c       0xbc 0x4 /usr/local/popcorn/aarch64/lib/libelf.a(64.xlatetof.o)
 .text.half_64M__tof
                0x000000000040ec08       0xb8 0x4 /usr/local/popcorn/aarch64/lib/libelf.a(64.xlatetof.o)
 .text.off_64M__tom
                0x000000000040ecc0       0x54 0x4 /usr/local/popcorn/aarch64/lib/libelf.a(64.xlatetof.o)
 .text.off_64M__tof
                0x000000000040ed14       0x54 0x4 /usr/local/popcorn/aarch64/lib/libelf.a(64.xlatetof.o)
 .text.phdr_64M11_tom
                0x000000000040ed68       0xcc 0x4 /usr/local/popcorn/aarch64/lib/libelf.a(64.xlatetof.o)
 .text.phdr_64M11_tof
                0x000000000040ee34       0xfc 0x4 /usr/local/popcorn/aarch64/lib/libelf.a(64.xlatetof.o)
 .text.rela_64M11_tom
                0x000000000040ef30       0x88 0x4 /usr/local/popcorn/aarch64/lib/libelf.a(64.xlatetof.o)
 .text.rela_64M11_tof
                0x000000000040efb8       0x88 0x4 /usr/local/popcorn/aarch64/lib/libelf.a(64.xlatetof.o)
 .text.rel_64M11_tom
                0x000000000040f040       0x64 0x4 /usr/local/popcorn/aarch64/lib/libelf.a(64.xlatetof.o)
 .text.rel_64M11_tof
                0x000000000040f0a4       0x64 0x4 /usr/local/popcorn/aarch64/lib/libelf.a(64.xlatetof.o)
 .text.shdr_64M11_tom
                0x000000000040f108       0xc4 0x4 /usr/local/popcorn/aarch64/lib/libelf.a(64.xlatetof.o)
 .text.shdr_64M11_tof
                0x000000000040f1cc      0x124 0x4 /usr/local/popcorn/aarch64/lib/libelf.a(64.xlatetof.o)
 .text.sword_64M__tom
                0x000000000040f2f0       0x28 0x4 /usr/local/popcorn/aarch64/lib/libelf.a(64.xlatetof.o)
 .text.sword_64M__tof
                0x000000000040f318       0x44 0x4 /usr/local/popcorn/aarch64/lib/libelf.a(64.xlatetof.o)
 .text.sym_64M11_tom
                0x000000000040f35c       0xa8 0x4 /usr/local/popcorn/aarch64/lib/libelf.a(64.xlatetof.o)
 .text.sym_64M11_tof
                0x000000000040f404       0xc0 0x4 /usr/local/popcorn/aarch64/lib/libelf.a(64.xlatetof.o)
 .text.word_64M__tom
                0x000000000040f4c4       0x28 0x4 /usr/local/popcorn/aarch64/lib/libelf.a(64.xlatetof.o)
 .text.word_64M__tof
                0x000000000040f4ec       0x44 0x4 /usr/local/popcorn/aarch64/lib/libelf.a(64.xlatetof.o)
 .text.sxword_64M__tom
                0x000000000040f530       0x54 0x4 /usr/local/popcorn/aarch64/lib/libelf.a(64.xlatetof.o)
 .text.sxword_64M__tof
                0x000000000040f584       0x54 0x4 /usr/local/popcorn/aarch64/lib/libelf.a(64.xlatetof.o)
 .text.xword_64M__tom
                0x000000000040f5d8       0x54 0x4 /usr/local/popcorn/aarch64/lib/libelf.a(64.xlatetof.o)
 .text.xword_64M__tof
                0x000000000040f62c       0x54 0x4 /usr/local/popcorn/aarch64/lib/libelf.a(64.xlatetof.o)
 .text.array_copy
                0x000000000040f680      0x138 0x4 /usr/local/popcorn/aarch64/lib/libelf.a(64.xlatetof.o)
 .text          0x000000000040f7b8        0x0 0x4 /usr/local/popcorn/aarch64/lib/libelf.a(gelfshdr.o)
 .text.gelf_getshdr
                0x000000000040f7b8      0x104 0x4 /usr/local/popcorn/aarch64/lib/libelf.a(gelfshdr.o)
                0x000000000040f7b8                gelf_getshdr
 .text.gelf_update_shdr
                0x000000000040f8bc       0xec 0x4 /usr/local/popcorn/aarch64/lib/libelf.a(gelfshdr.o)
                0x000000000040f8bc                gelf_update_shdr
 .text          0x000000000040f9a8        0x0 0x4 /usr/local/popcorn/aarch64/lib/libelf.a(swap64.o)
 .text._elf_load_u64L
                0x000000000040f9a8        0x8 0x4 /usr/local/popcorn/aarch64/lib/libelf.a(swap64.o)
                0x000000000040f9a8                _elf_load_u64L
 .text._elf_load_u64M
                0x000000000040f9b0        0xc 0x4 /usr/local/popcorn/aarch64/lib/libelf.a(swap64.o)
                0x000000000040f9b0                _elf_load_u64M
 .text._elf_load_i64L
                0x000000000040f9bc        0x8 0x4 /usr/local/popcorn/aarch64/lib/libelf.a(swap64.o)
                0x000000000040f9bc                _elf_load_i64L
 .text._elf_load_i64M
                0x000000000040f9c4        0xc 0x4 /usr/local/popcorn/aarch64/lib/libelf.a(swap64.o)
                0x000000000040f9c4                _elf_load_i64M
 .text._elf_store_u64L
                0x000000000040f9d0        0x8 0x4 /usr/local/popcorn/aarch64/lib/libelf.a(swap64.o)
                0x000000000040f9d0                _elf_store_u64L
 .text._elf_store_u64M
                0x000000000040f9d8        0xc 0x4 /usr/local/popcorn/aarch64/lib/libelf.a(swap64.o)
                0x000000000040f9d8                _elf_store_u64M
 .text._elf_store_i64L
                0x000000000040f9e4        0x8 0x4 /usr/local/popcorn/aarch64/lib/libelf.a(swap64.o)
                0x000000000040f9e4                _elf_store_i64L
 .text._elf_store_i64M
                0x000000000040f9ec        0xc 0x4 /usr/local/popcorn/aarch64/lib/libelf.a(swap64.o)
                0x000000000040f9ec                _elf_store_i64M
 .text          0x000000000040f9f8        0x0 0x4 /usr/local/popcorn/aarch64/lib/libelf.a(verdef_32_tof.o)
 .text._elf_verdef_32L11_tof
                0x000000000040f9f8        0x8 0x4 /usr/local/popcorn/aarch64/lib/libelf.a(verdef_32_tof.o)
                0x000000000040f9f8                _elf_verdef_32L11_tof
 .text.xlt_verdef
                0x000000000040fa00      0x280 0x4 /usr/local/popcorn/aarch64/lib/libelf.a(verdef_32_tof.o)
 .text._elf_verdef_32M11_tof
                0x000000000040fc80        0x8 0x4 /usr/local/popcorn/aarch64/lib/libelf.a(verdef_32_tof.o)
                0x000000000040fc80                _elf_verdef_32M11_tof
 .text._elf_verneed_32L11_tof
                0x000000000040fc88        0x8 0x4 /usr/local/popcorn/aarch64/lib/libelf.a(verdef_32_tof.o)
                0x000000000040fc88                _elf_verneed_32L11_tof
 .text.xlt_verneed
                0x000000000040fc90      0x300 0x4 /usr/local/popcorn/aarch64/lib/libelf.a(verdef_32_tof.o)
 .text._elf_verneed_32M11_tof
                0x000000000040ff90        0x8 0x4 /usr/local/popcorn/aarch64/lib/libelf.a(verdef_32_tof.o)
                0x000000000040ff90                _elf_verneed_32M11_tof
 .text          0x000000000040ff98        0x0 0x4 /usr/local/popcorn/aarch64/lib/libelf.a(verdef_32_tom.o)
 .text._elf_verdef_32L11_tom
                0x000000000040ff98        0x8 0x4 /usr/local/popcorn/aarch64/lib/libelf.a(verdef_32_tom.o)
                0x000000000040ff98                _elf_verdef_32L11_tom
 .text.xlt_verdef
                0x000000000040ffa0      0x27c 0x4 /usr/local/popcorn/aarch64/lib/libelf.a(verdef_32_tom.o)
 .text._elf_verdef_32M11_tom
                0x000000000041021c        0x8 0x4 /usr/local/popcorn/aarch64/lib/libelf.a(verdef_32_tom.o)
                0x000000000041021c                _elf_verdef_32M11_tom
 .text._elf_verneed_32L11_tom
                0x0000000000410224        0x8 0x4 /usr/local/popcorn/aarch64/lib/libelf.a(verdef_32_tom.o)
                0x0000000000410224                _elf_verneed_32L11_tom
 .text.xlt_verneed
                0x000000000041022c      0x254 0x4 /usr/local/popcorn/aarch64/lib/libelf.a(verdef_32_tom.o)
 .text._elf_verneed_32M11_tom
                0x0000000000410480        0x8 0x4 /usr/local/popcorn/aarch64/lib/libelf.a(verdef_32_tom.o)
                0x0000000000410480                _elf_verneed_32M11_tom
 .text          0x0000000000410488        0x0 0x4 /usr/local/popcorn/aarch64/lib/libelf.a(verdef_64_tof.o)
 .text._elf_verdef_64L11_tof
                0x0000000000410488        0x8 0x4 /usr/local/popcorn/aarch64/lib/libelf.a(verdef_64_tof.o)
                0x0000000000410488                _elf_verdef_64L11_tof
 .text.xlt_verdef
                0x0000000000410490      0x280 0x4 /usr/local/popcorn/aarch64/lib/libelf.a(verdef_64_tof.o)
 .text._elf_verdef_64M11_tof
                0x0000000000410710        0x8 0x4 /usr/local/popcorn/aarch64/lib/libelf.a(verdef_64_tof.o)
                0x0000000000410710                _elf_verdef_64M11_tof
 .text._elf_verneed_64L11_tof
                0x0000000000410718        0x8 0x4 /usr/local/popcorn/aarch64/lib/libelf.a(verdef_64_tof.o)
                0x0000000000410718                _elf_verneed_64L11_tof
 .text.xlt_verneed
                0x0000000000410720      0x300 0x4 /usr/local/popcorn/aarch64/lib/libelf.a(verdef_64_tof.o)
 .text._elf_verneed_64M11_tof
                0x0000000000410a20        0x8 0x4 /usr/local/popcorn/aarch64/lib/libelf.a(verdef_64_tof.o)
                0x0000000000410a20                _elf_verneed_64M11_tof
 .text          0x0000000000410a28        0x0 0x4 /usr/local/popcorn/aarch64/lib/libelf.a(verdef_64_tom.o)
 .text._elf_verdef_64L11_tom
                0x0000000000410a28        0x8 0x4 /usr/local/popcorn/aarch64/lib/libelf.a(verdef_64_tom.o)
                0x0000000000410a28                _elf_verdef_64L11_tom
 .text.xlt_verdef
                0x0000000000410a30      0x27c 0x4 /usr/local/popcorn/aarch64/lib/libelf.a(verdef_64_tom.o)
 .text._elf_verdef_64M11_tom
                0x0000000000410cac        0x8 0x4 /usr/local/popcorn/aarch64/lib/libelf.a(verdef_64_tom.o)
                0x0000000000410cac                _elf_verdef_64M11_tom
 .text._elf_verneed_64L11_tom
                0x0000000000410cb4        0x8 0x4 /usr/local/popcorn/aarch64/lib/libelf.a(verdef_64_tom.o)
                0x0000000000410cb4                _elf_verneed_64L11_tom
 .text.xlt_verneed
                0x0000000000410cbc      0x254 0x4 /usr/local/popcorn/aarch64/lib/libelf.a(verdef_64_tom.o)
 .text._elf_verneed_64M11_tom
                0x0000000000410f10        0x8 0x4 /usr/local/popcorn/aarch64/lib/libelf.a(verdef_64_tom.o)
                0x0000000000410f10                _elf_verneed_64M11_tom
 .text          0x0000000000410f18        0x0 0x4 /usr/local/popcorn/aarch64/lib/libelf.a(getscn.o)
 .text.elf_getscn
                0x0000000000410f18       0x90 0x4 /usr/local/popcorn/aarch64/lib/libelf.a(getscn.o)
                0x0000000000410f18                elf_getscn
 .text          0x0000000000410fa8        0x0 0x4 /usr/local/popcorn/aarch64/lib/libelf.a(newscn.o)
 .text._elf_update_shnum
                0x0000000000410fa8       0x7c 0x4 /usr/local/popcorn/aarch64/lib/libelf.a(newscn.o)
                0x0000000000410fa8                _elf_update_shnum
 .text._elf_first_scn
                0x0000000000411024      0x114 0x4 /usr/local/popcorn/aarch64/lib/libelf.a(newscn.o)
                0x0000000000411024                _elf_first_scn
 .text.elf_newscn
                0x0000000000411138      0x284 0x4 /usr/local/popcorn/aarch64/lib/libelf.a(newscn.o)
                0x0000000000411138                elf_newscn
 .text          0x00000000004113bc        0x0 0x4 /usr/local/popcorn/aarch64/lib/libelf.a(32.fsize.o)
 .text.elf32_fsize
                0x00000000004113bc       0x4c 0x4 /usr/local/popcorn/aarch64/lib/libelf.a(32.fsize.o)
                0x00000000004113bc                elf32_fsize
 .text.elf64_fsize
                0x0000000000411408       0x4c 0x4 /usr/local/popcorn/aarch64/lib/libelf.a(32.fsize.o)
                0x0000000000411408                elf64_fsize
 .text.gelf_fsize
                0x0000000000411454       0x90 0x4 /usr/local/popcorn/aarch64/lib/libelf.a(32.fsize.o)
                0x0000000000411454                gelf_fsize
 .text.gelf_msize
                0x00000000004114e4       0xa8 0x4 /usr/local/popcorn/aarch64/lib/libelf.a(32.fsize.o)
                0x00000000004114e4                gelf_msize
 .text          0x000000000041158c        0x0 0x4 /usr/local/popcorn/aarch64/lib/libc.a(arch_crash.o)
 .text.__crash_aarch64
                0x000000000041158c       0x30 0x4 /usr/local/popcorn/aarch64/lib/libc.a(arch_crash.o)
                0x000000000041158c                crash_aarch64
                0x000000000041158c                __crash_aarch64
 .text.__crash_powerpc64
                0x00000000004115bc        0x8 0x4 /usr/local/popcorn/aarch64/lib/libc.a(arch_crash.o)
                0x00000000004115bc                __crash_powerpc64
                0x00000000004115bc                crash_powerpc64
 .text.__crash_riscv64
                0x00000000004115c4        0x8 0x4 /usr/local/popcorn/aarch64/lib/libc.a(arch_crash.o)
                0x00000000004115c4                crash_riscv64
                0x00000000004115c4                __crash_riscv64
 .text.__crash_x86_64
                0x00000000004115cc        0x8 0x4 /usr/local/popcorn/aarch64/lib/libc.a(arch_crash.o)
                0x00000000004115cc                crash_x86_64
                0x00000000004115cc                __crash_x86_64
 .text.__crash  0x00000000004115d4       0x30 0x4 /usr/local/popcorn/aarch64/lib/libc.a(arch_crash.o)
                0x00000000004115d4                crash
                0x00000000004115d4                __crash
 .text          0x0000000000411604        0x0 0x4 /usr/local/popcorn/aarch64/lib/libc.a(getenv.o)
 .text.getenv   0x0000000000411604       0x8c 0x4 /usr/local/popcorn/aarch64/lib/libc.a(getenv.o)
                0x0000000000411604                getenv
 .text          0x0000000000411690        0x0 0x4 /usr/local/popcorn/aarch64/lib/libc.a(platform.o)
 .text.popcorn_getnid
                0x0000000000411690       0x34 0x4 /usr/local/popcorn/aarch64/lib/libc.a(platform.o)
                0x0000000000411690                popcorn_getnid
 .text.popcorn_getthreadinfo
                0x00000000004116c4       0x1c 0x4 /usr/local/popcorn/aarch64/lib/libc.a(platform.o)
                0x00000000004116c4                popcorn_getthreadinfo
 .text.popcorn_getnodeinfo
                0x00000000004116e0       0x90 0x4 /usr/local/popcorn/aarch64/lib/libc.a(platform.o)
                0x00000000004116e0                popcorn_getnodeinfo
 .text          0x0000000000411770        0x0 0x4 /usr/local/popcorn/aarch64/lib/libc.a(assert.o)
 .text.__assert_fail
                0x0000000000411770       0x3c 0x4 /usr/local/popcorn/aarch64/lib/libc.a(assert.o)
                0x0000000000411770                __assert_fail
 .text          0x00000000004117ac        0x0 0x4 /usr/local/popcorn/aarch64/lib/libc.a(open.o)
 .text.open     0x00000000004117ac      0x108 0x4 /usr/local/popcorn/aarch64/lib/libc.a(open.o)
                0x00000000004117ac                open64
                0x00000000004117ac                open
 .text          0x00000000004118b4        0x0 0x4 /usr/local/popcorn/aarch64/lib/libc.a(calloc.o)
 .text.calloc   0x00000000004118b4       0x48 0x4 /usr/local/popcorn/aarch64/lib/libc.a(calloc.o)
                0x00000000004118b4                calloc
 .text.popcorn_calloc
                0x00000000004118fc       0x4c 0x4 /usr/local/popcorn/aarch64/lib/libc.a(calloc.o)
                0x00000000004118fc                popcorn_calloc
 .text.popcorn_calloc_cur
                0x0000000000411948       0x64 0x4 /usr/local/popcorn/aarch64/lib/libc.a(calloc.o)
                0x0000000000411948                popcorn_calloc_cur
 .text          0x00000000004119ac        0x0 0x4 /usr/local/popcorn/aarch64/lib/libc.a(lite_malloc.o)
 .text.__simple_malloc
                0x00000000004119ac      0x110 0x4 /usr/local/popcorn/aarch64/lib/libc.a(lite_malloc.o)
 .text          0x0000000000411abc        0x0 0x4 /usr/local/popcorn/aarch64/lib/libc.a(malloc.o)
 .text.__init_malloc
                0x0000000000411abc       0x14 0x4 /usr/local/popcorn/aarch64/lib/libc.a(malloc.o)
 .text.malloc   0x0000000000411ad0      0x5d0 0x4 /usr/local/popcorn/aarch64/lib/libc.a(malloc.o)
                0x0000000000411ad0                malloc
 .text.alloc_rev
                0x00000000004120a0       0xc8 0x4 /usr/local/popcorn/aarch64/lib/libc.a(malloc.o)
 .text.lock_bin
                0x0000000000412168       0xc8 0x4 /usr/local/popcorn/aarch64/lib/libc.a(malloc.o)
 .text.unbin    0x0000000000412230       0x9c 0x4 /usr/local/popcorn/aarch64/lib/libc.a(malloc.o)
 .text.unlock_bin
                0x00000000004122cc       0x74 0x4 /usr/local/popcorn/aarch64/lib/libc.a(malloc.o)
 .text.__malloc0
                0x0000000000412340      0x128 0x4 /usr/local/popcorn/aarch64/lib/libc.a(malloc.o)
                0x0000000000412340                __malloc0
 .text.realloc  0x0000000000412468      0x258 0x4 /usr/local/popcorn/aarch64/lib/libc.a(malloc.o)
                0x0000000000412468                realloc
 .text.free     0x00000000004126c0      0x500 0x4 /usr/local/popcorn/aarch64/lib/libc.a(malloc.o)
                0x00000000004126c0                free
 .text.alloc_fwd
                0x0000000000412bc0       0xc8 0x4 /usr/local/popcorn/aarch64/lib/libc.a(malloc.o)
 .text          0x0000000000412c88        0x0 0x4 /usr/local/popcorn/aarch64/lib/libc.a(popcorn_malloc.o)
 .text.__init_malloc
                0x0000000000412c88       0x14 0x4 /usr/local/popcorn/aarch64/lib/libc.a(popcorn_malloc.o)
 .text.popcorn_malloc
                0x0000000000412c9c      0xa9c 0x4 /usr/local/popcorn/aarch64/lib/libc.a(popcorn_malloc.o)
                0x0000000000412c9c                popcorn_malloc
 .text.lock_bin
                0x0000000000413738       0xd4 0x4 /usr/local/popcorn/aarch64/lib/libc.a(popcorn_malloc.o)
 .text.unbin    0x000000000041380c       0xa0 0x4 /usr/local/popcorn/aarch64/lib/libc.a(popcorn_malloc.o)
 .text.unlock_bin
                0x00000000004138ac       0x80 0x4 /usr/local/popcorn/aarch64/lib/libc.a(popcorn_malloc.o)
 .text.__popcorn_malloc0
                0x000000000041392c      0x128 0x4 /usr/local/popcorn/aarch64/lib/libc.a(popcorn_malloc.o)
                0x000000000041392c                __popcorn_malloc0
 .text.popcorn_malloc_cur
                0x0000000000413a54       0x28 0x4 /usr/local/popcorn/aarch64/lib/libc.a(popcorn_malloc.o)
                0x0000000000413a54                popcorn_malloc_cur
 .text.popcorn_realloc
                0x0000000000413a7c      0x270 0x4 /usr/local/popcorn/aarch64/lib/libc.a(popcorn_malloc.o)
                0x0000000000413a7c                popcorn_realloc
 .text.popcorn_free
                0x0000000000413cec      0x788 0x4 /usr/local/popcorn/aarch64/lib/libc.a(popcorn_malloc.o)
                0x0000000000413cec                popcorn_free
 .text.alloc_fwd
                0x0000000000414474       0xe4 0x4 /usr/local/popcorn/aarch64/lib/libc.a(popcorn_malloc.o)
 .text.popcorn_realloc_cur
                0x0000000000414558       0x30 0x4 /usr/local/popcorn/aarch64/lib/libc.a(popcorn_malloc.o)
                0x0000000000414558                popcorn_realloc_cur
 .text          0x0000000000414588        0x0 0x4 /usr/local/popcorn/aarch64/lib/libc.a(getrlimit.o)
 .text.getrlimit
                0x0000000000414588       0xe4 0x4 /usr/local/popcorn/aarch64/lib/libc.a(getrlimit.o)
                0x0000000000414588                getrlimit
                0x0000000000414588                getrlimit64
 .text          0x000000000041466c        0x0 0x4 /usr/local/popcorn/aarch64/lib/libc.a(madvise.o)
 .text.__madvise
                0x000000000041466c       0x20 0x4 /usr/local/popcorn/aarch64/lib/libc.a(madvise.o)
                0x000000000041466c                madvise
                0x000000000041466c                __madvise
 .text          0x000000000041468c        0x0 0x4 /usr/local/popcorn/aarch64/lib/libc.a(mmap.o)
 .text.dummy    0x000000000041468c        0x4 0x4 /usr/local/popcorn/aarch64/lib/libc.a(mmap.o)
                0x000000000041468c                __vm_wait
 .text.__mmap   0x0000000000414690       0xbc 0x4 /usr/local/popcorn/aarch64/lib/libc.a(mmap.o)
                0x0000000000414690                __mmap
                0x0000000000414690                mmap
                0x0000000000414690                mmap64
 .text          0x000000000041474c        0x0 0x4 /usr/local/popcorn/aarch64/lib/libc.a(mremap.o)
 .text.dummy    0x000000000041474c        0x4 0x4 /usr/local/popcorn/aarch64/lib/libc.a(mremap.o)
 .text.__mremap
                0x0000000000414750      0x104 0x4 /usr/local/popcorn/aarch64/lib/libc.a(mremap.o)
                0x0000000000414750                mremap
                0x0000000000414750                __mremap
 .text          0x0000000000414854        0x0 0x4 /usr/local/popcorn/aarch64/lib/libc.a(munmap.o)
 .text.dummy    0x0000000000414854        0x4 0x4 /usr/local/popcorn/aarch64/lib/libc.a(munmap.o)
 .text.__munmap
                0x0000000000414858       0x38 0x4 /usr/local/popcorn/aarch64/lib/libc.a(munmap.o)
                0x0000000000414858                munmap
                0x0000000000414858                __munmap
 .text          0x0000000000414890        0x0 0x4 /usr/local/popcorn/aarch64/lib/libc.a(fclose.o)
 .text.dummy    0x0000000000414890        0x4 0x4 /usr/local/popcorn/aarch64/lib/libc.a(fclose.o)
                0x0000000000414890                __unlist_locked_file
 .text.fclose   0x0000000000414894       0xd4 0x4 /usr/local/popcorn/aarch64/lib/libc.a(fclose.o)
                0x0000000000414894                fclose
 .text          0x0000000000414968        0x0 0x4 /usr/local/popcorn/aarch64/lib/libc.a(fflush.o)
 .text.fflush   0x0000000000414968      0x15c 0x4 /usr/local/popcorn/aarch64/lib/libc.a(fflush.o)
                0x0000000000414968                fflush
                0x0000000000414968                fflush_unlocked
 .text          0x0000000000414ac4        0x0 0x4 /usr/local/popcorn/aarch64/lib/libc.a(fopen.o)
 .text.fopen    0x0000000000414ac4       0xc0 0x4 /usr/local/popcorn/aarch64/lib/libc.a(fopen.o)
                0x0000000000414ac4                fopen
                0x0000000000414ac4                fopen64
 .text          0x0000000000414b84        0x0 0x4 /usr/local/popcorn/aarch64/lib/libc.a(fprintf.o)
 .text.fprintf  0x0000000000414b84       0x68 0x4 /usr/local/popcorn/aarch64/lib/libc.a(fprintf.o)
                0x0000000000414b84                fprintf
 .text          0x0000000000414bec        0x0 0x4 /usr/local/popcorn/aarch64/lib/libc.a(fscanf.o)
 .text.fscanf   0x0000000000414bec       0x68 0x4 /usr/local/popcorn/aarch64/lib/libc.a(fscanf.o)
                0x0000000000414bec                fscanf
                0x0000000000414bec                __isoc99_fscanf
 .text          0x0000000000414c54        0x0 0x4 /usr/local/popcorn/aarch64/lib/libc.a(fseek.o)
 .text.__fseeko_unlocked
                0x0000000000414c54       0xb8 0x4 /usr/local/popcorn/aarch64/lib/libc.a(fseek.o)
                0x0000000000414c54                __fseeko_unlocked
 .text.__fseeko
                0x0000000000414d0c       0x7c 0x4 /usr/local/popcorn/aarch64/lib/libc.a(fseek.o)
                0x0000000000414d0c                fseeko
                0x0000000000414d0c                __fseeko
                0x0000000000414d0c                fseeko64
 .text.fseek    0x0000000000414d88        0x4 0x4 /usr/local/popcorn/aarch64/lib/libc.a(fseek.o)
                0x0000000000414d88                fseek
 .text          0x0000000000414d8c        0x0 0x4 /usr/local/popcorn/aarch64/lib/libc.a(getc.o)
 .text.getc     0x0000000000414d8c       0xa0 0x4 /usr/local/popcorn/aarch64/lib/libc.a(getc.o)
                0x0000000000414d8c                getc
                0x0000000000414d8c                _IO_getc
 .text          0x0000000000414e2c        0x0 0x4 /usr/local/popcorn/aarch64/lib/libc.a(getline.o)
 .text.getline  0x0000000000414e2c        0xc 0x4 /usr/local/popcorn/aarch64/lib/libc.a(getline.o)
                0x0000000000414e2c                getline
 .text          0x0000000000414e38        0x0 0x4 /usr/local/popcorn/aarch64/lib/libc.a(perror.o)
 .text.perror   0x0000000000414e38       0xd0 0x4 /usr/local/popcorn/aarch64/lib/libc.a(perror.o)
                0x0000000000414e38                perror
 .text          0x0000000000414f08        0x0 0x4 /usr/local/popcorn/aarch64/lib/libc.a(snprintf.o)
 .text.snprintf
                0x0000000000414f08       0x68 0x4 /usr/local/popcorn/aarch64/lib/libc.a(snprintf.o)
                0x0000000000414f08                snprintf
 .text          0x0000000000414f70        0x0 0x4 /usr/local/popcorn/aarch64/lib/libc.a(sscanf.o)
 .text.sscanf   0x0000000000414f70       0x68 0x4 /usr/local/popcorn/aarch64/lib/libc.a(sscanf.o)
                0x0000000000414f70                sscanf
                0x0000000000414f70                __isoc99_sscanf
 .text          0x0000000000414fd8        0x0 0x4 /usr/local/popcorn/aarch64/lib/libc.a(stderr.o)
 .text          0x0000000000414fd8        0x0 0x4 /usr/local/popcorn/aarch64/lib/libc.a(vfscanf.o)
 .text.vfscanf  0x0000000000414fd8      0xcb4 0x4 /usr/local/popcorn/aarch64/lib/libc.a(vfscanf.o)
                0x0000000000414fd8                __isoc99_vfscanf
                0x0000000000414fd8                vfscanf
 .text          0x0000000000415c8c        0x0 0x4 /usr/local/popcorn/aarch64/lib/libc.a(vsnprintf.o)
 .text.vsnprintf
                0x0000000000415c8c       0xd0 0x4 /usr/local/popcorn/aarch64/lib/libc.a(vsnprintf.o)
                0x0000000000415c8c                vsnprintf
 .text.sn_write
                0x0000000000415d5c       0xd8 0x4 /usr/local/popcorn/aarch64/lib/libc.a(vsnprintf.o)
 .text          0x0000000000415e34        0x0 0x4 /usr/local/popcorn/aarch64/lib/libc.a(vsscanf.o)
 .text.vsscanf  0x0000000000415e34       0x78 0x4 /usr/local/popcorn/aarch64/lib/libc.a(vsscanf.o)
                0x0000000000415e34                vsscanf
                0x0000000000415e34                __isoc99_vsscanf
 .text.do_read  0x0000000000415eac        0x4 0x4 /usr/local/popcorn/aarch64/lib/libc.a(vsscanf.o)
 .text          0x0000000000415eb0        0x0 0x4 /usr/local/popcorn/aarch64/lib/libc.a(bsearch.o)
 .text.bsearch  0x0000000000415eb0       0x84 0x4 /usr/local/popcorn/aarch64/lib/libc.a(bsearch.o)
                0x0000000000415eb0                bsearch
 .text          0x0000000000415f34        0x0 0x4 /usr/local/popcorn/aarch64/lib/libc.a(qsort.o)
 .text.qsort    0x0000000000415f34      0x328 0x4 /usr/local/popcorn/aarch64/lib/libc.a(qsort.o)
                0x0000000000415f34                qsort
 .text.sift     0x000000000041625c      0x110 0x4 /usr/local/popcorn/aarch64/lib/libc.a(qsort.o)
 .text.trinkle  0x000000000041636c      0x1e0 0x4 /usr/local/popcorn/aarch64/lib/libc.a(qsort.o)
 .text.cycle    0x000000000041654c       0xbc 0x4 /usr/local/popcorn/aarch64/lib/libc.a(qsort.o)
 .text          0x0000000000416608        0x0 0x4 /usr/local/popcorn/aarch64/lib/libc.a(strtol.o)
 .text.strtoull
                0x0000000000416608        0x8 0x4 /usr/local/popcorn/aarch64/lib/libc.a(strtol.o)
                0x0000000000416608                __strtoull_internal
                0x0000000000416608                strtoull
 .text.strtox   0x0000000000416610       0xb0 0x4 /usr/local/popcorn/aarch64/lib/libc.a(strtol.o)
 .text.strtoll  0x00000000004166c0        0x8 0x4 /usr/local/popcorn/aarch64/lib/libc.a(strtol.o)
                0x00000000004166c0                __strtoll_internal
                0x00000000004166c0                strtoll
 .text.strtoul  0x00000000004166c8        0x8 0x4 /usr/local/popcorn/aarch64/lib/libc.a(strtol.o)
                0x00000000004166c8                strtoul
                0x00000000004166c8                __strtoul_internal
 .text.strtol   0x00000000004166d0        0x8 0x4 /usr/local/popcorn/aarch64/lib/libc.a(strtol.o)
                0x00000000004166d0                __strtol_internal
                0x00000000004166d0                strtol
 .text.strtoimax
                0x00000000004166d8        0x8 0x4 /usr/local/popcorn/aarch64/lib/libc.a(strtol.o)
                0x00000000004166d8                strtoimax
                0x00000000004166d8                __strtoimax_internal
 .text.strtoumax
                0x00000000004166e0        0x8 0x4 /usr/local/popcorn/aarch64/lib/libc.a(strtol.o)
                0x00000000004166e0                strtoumax
                0x00000000004166e0                __strtoumax_internal
 .text          0x00000000004166e8        0x0 0x4 /usr/local/popcorn/aarch64/lib/libc.a(strchr.o)
 .text.strchr   0x00000000004166e8       0x2c 0x4 /usr/local/popcorn/aarch64/lib/libc.a(strchr.o)
                0x00000000004166e8                strchr
 .text          0x0000000000416714        0x0 0x4 /usr/local/popcorn/aarch64/lib/libc.a(strchrnul.o)
 .text.__strchrnul
                0x0000000000416714       0xd4 0x4 /usr/local/popcorn/aarch64/lib/libc.a(strchrnul.o)
                0x0000000000416714                __strchrnul
                0x0000000000416714                strchrnul
 .text          0x00000000004167e8        0x0 0x4 /usr/local/popcorn/aarch64/lib/libc.a(strcmp.o)
 .text.strcmp   0x00000000004167e8       0x28 0x4 /usr/local/popcorn/aarch64/lib/libc.a(strcmp.o)
                0x00000000004167e8                strcmp
 .text          0x0000000000416810        0x0 0x4 /usr/local/popcorn/aarch64/lib/libc.a(strlen.o)
 .text.strlen   0x0000000000416810       0x74 0x4 /usr/local/popcorn/aarch64/lib/libc.a(strlen.o)
                0x0000000000416810                strlen
 .text          0x0000000000416884        0x0 0x4 /usr/local/popcorn/aarch64/lib/libc.a(strncmp.o)
 .text.strncmp  0x0000000000416884       0x48 0x4 /usr/local/popcorn/aarch64/lib/libc.a(strncmp.o)
                0x0000000000416884                strncmp
 .text          0x00000000004168cc        0x0 0x4 /usr/local/popcorn/aarch64/lib/libc.a(pthread_attr_get.o)
 .text.pthread_attr_getdetachstate
                0x00000000004168cc       0x10 0x4 /usr/local/popcorn/aarch64/lib/libc.a(pthread_attr_get.o)
                0x00000000004168cc                pthread_attr_getdetachstate
 .text.pthread_attr_getguardsize
                0x00000000004168dc       0x10 0x4 /usr/local/popcorn/aarch64/lib/libc.a(pthread_attr_get.o)
                0x00000000004168dc                pthread_attr_getguardsize
 .text.pthread_attr_getinheritsched
                0x00000000004168ec       0x10 0x4 /usr/local/popcorn/aarch64/lib/libc.a(pthread_attr_get.o)
                0x00000000004168ec                pthread_attr_getinheritsched
 .text.pthread_attr_getschedparam
                0x00000000004168fc       0x10 0x4 /usr/local/popcorn/aarch64/lib/libc.a(pthread_attr_get.o)
                0x00000000004168fc                pthread_attr_getschedparam
 .text.pthread_attr_getschedpolicy
                0x000000000041690c       0x10 0x4 /usr/local/popcorn/aarch64/lib/libc.a(pthread_attr_get.o)
                0x000000000041690c                pthread_attr_getschedpolicy
 .text.pthread_attr_getscope
                0x000000000041691c        0xc 0x4 /usr/local/popcorn/aarch64/lib/libc.a(pthread_attr_get.o)
                0x000000000041691c                pthread_attr_getscope
 .text.pthread_attr_getstack
                0x0000000000416928       0x2c 0x4 /usr/local/popcorn/aarch64/lib/libc.a(pthread_attr_get.o)
                0x0000000000416928                pthread_attr_getstack
 .text.pthread_attr_getstacksize
                0x0000000000416954       0x10 0x4 /usr/local/popcorn/aarch64/lib/libc.a(pthread_attr_get.o)
                0x0000000000416954                pthread_attr_getstacksize
 .text.pthread_barrierattr_getpshared
                0x0000000000416964       0x18 0x4 /usr/local/popcorn/aarch64/lib/libc.a(pthread_attr_get.o)
                0x0000000000416964                pthread_barrierattr_getpshared
 .text.pthread_condattr_getclock
                0x000000000041697c       0x14 0x4 /usr/local/popcorn/aarch64/lib/libc.a(pthread_attr_get.o)
                0x000000000041697c                pthread_condattr_getclock
 .text.pthread_condattr_getpshared
                0x0000000000416990       0x14 0x4 /usr/local/popcorn/aarch64/lib/libc.a(pthread_attr_get.o)
                0x0000000000416990                pthread_condattr_getpshared
 .text.pthread_mutexattr_getprotocol
                0x00000000004169a4        0xc 0x4 /usr/local/popcorn/aarch64/lib/libc.a(pthread_attr_get.o)
                0x00000000004169a4                pthread_mutexattr_getprotocol
 .text.pthread_mutexattr_getpshared
                0x00000000004169b0       0x14 0x4 /usr/local/popcorn/aarch64/lib/libc.a(pthread_attr_get.o)
                0x00000000004169b0                pthread_mutexattr_getpshared
 .text.pthread_mutexattr_getrobust
                0x00000000004169c4       0x14 0x4 /usr/local/popcorn/aarch64/lib/libc.a(pthread_attr_get.o)
                0x00000000004169c4                pthread_mutexattr_getrobust
 .text.pthread_mutexattr_gettype
                0x00000000004169d8       0x14 0x4 /usr/local/popcorn/aarch64/lib/libc.a(pthread_attr_get.o)
                0x00000000004169d8                pthread_mutexattr_gettype
 .text.pthread_rwlockattr_getpshared
                0x00000000004169ec       0x10 0x4 /usr/local/popcorn/aarch64/lib/libc.a(pthread_attr_get.o)
                0x00000000004169ec                pthread_rwlockattr_getpshared
 .text          0x00000000004169fc        0x0 0x4 /usr/local/popcorn/aarch64/lib/libc.a(pthread_getattr_np.o)
 .text.pthread_getattr_np
                0x00000000004169fc      0x110 0x4 /usr/local/popcorn/aarch64/lib/libc.a(pthread_getattr_np.o)
                0x00000000004169fc                pthread_getattr_np
 .text          0x0000000000416b0c        0x0 0x4 /usr/local/popcorn/aarch64/lib/libc.a(pthread_migrate.o)
 .text.pthread_set_migrate_args
                0x0000000000416b0c        0xc 0x4 /usr/local/popcorn/aarch64/lib/libc.a(pthread_migrate.o)
                0x0000000000416b0c                pthread_set_migrate_args
 .text.pthread_get_migrate_args
                0x0000000000416b18        0xc 0x4 /usr/local/popcorn/aarch64/lib/libc.a(pthread_migrate.o)
                0x0000000000416b18                pthread_get_migrate_args
 .text          0x0000000000416b24        0x0 0x4 /usr/local/popcorn/aarch64/lib/libc.a(pthread_self.o)
 .text.__pthread_self_internal
                0x0000000000416b24        0xc 0x4 /usr/local/popcorn/aarch64/lib/libc.a(pthread_self.o)
                0x0000000000416b24                pthread_self
                0x0000000000416b24                thrd_current
 .text          0x0000000000416b30        0x0 0x4 /usr/local/popcorn/aarch64/lib/libc.a(close.o)
 .text.dummy    0x0000000000416b30        0x4 0x4 /usr/local/popcorn/aarch64/lib/libc.a(close.o)
 .text.close    0x0000000000416b34       0x44 0x4 /usr/local/popcorn/aarch64/lib/libc.a(close.o)
                0x0000000000416b34                close
 .text          0x0000000000416b78        0x0 0x4 /usr/local/popcorn/aarch64/lib/libc.a(getpid.o)
 .text.getpid   0x0000000000416b78        0xc 0x4 /usr/local/popcorn/aarch64/lib/libc.a(getpid.o)
                0x0000000000416b78                getpid
 .text          0x0000000000416b84        0x0 0x4 /usr/local/popcorn/aarch64/lib/libc.a(lseek.o)
 .text.lseek    0x0000000000416b84       0x14 0x4 /usr/local/popcorn/aarch64/lib/libc.a(lseek.o)
                0x0000000000416b84                lseek
                0x0000000000416b84                lseek64
 .text          0x0000000000416b98        0x0 0x4 /usr/local/popcorn/aarch64/lib/libc.a(read.o)
 .text.read     0x0000000000416b98       0x30 0x4 /usr/local/popcorn/aarch64/lib/libc.a(read.o)
                0x0000000000416b98                read
 .text          0x0000000000416bc8        0x0 0x4 /usr/local/popcorn/aarch64/lib/libc.a(abort.o)
 .text.abort    0x0000000000416bc8       0x34 0x4 /usr/local/popcorn/aarch64/lib/libc.a(abort.o)
                0x0000000000416bc8                abort
 .text          0x0000000000416bfc        0x0 0x4 /usr/local/popcorn/aarch64/lib/libc.a(floatscan.o)
 .text.__floatscan
                0x0000000000416bfc     0x18d0 0x4 /usr/local/popcorn/aarch64/lib/libc.a(floatscan.o)
                0x0000000000416bfc                __floatscan
 .text.scanexp  0x00000000004184cc      0x250 0x4 /usr/local/popcorn/aarch64/lib/libc.a(floatscan.o)
 .text          0x000000000041871c        0x0 0x4 /usr/local/popcorn/aarch64/lib/libc.a(intscan.o)
 .text.__intscan
                0x000000000041871c      0x6f4 0x4 /usr/local/popcorn/aarch64/lib/libc.a(intscan.o)
                0x000000000041871c                __intscan
 .text          0x0000000000418e10        0x0 0x4 /usr/local/popcorn/aarch64/lib/libc.a(shgetc.o)
 .text.__shlim  0x0000000000418e10       0x2c 0x4 /usr/local/popcorn/aarch64/lib/libc.a(shgetc.o)
                0x0000000000418e10                __shlim
 .text.__shgetc
                0x0000000000418e3c       0xdc 0x4 /usr/local/popcorn/aarch64/lib/libc.a(shgetc.o)
                0x0000000000418e3c                __shgetc
 .text          0x0000000000418f18        0x0 0x4 /usr/local/popcorn/aarch64/lib/libc.a(expand_heap.o)
 .text.__expand_heap
                0x0000000000418f18      0x1b4 0x4 /usr/local/popcorn/aarch64/lib/libc.a(expand_heap.o)
                0x0000000000418f18                __expand_heap
 .text.__expand_heap_node
                0x00000000004190cc      0x238 0x4 /usr/local/popcorn/aarch64/lib/libc.a(expand_heap.o)
                0x00000000004190cc                __expand_heap_node
 .text.popcorn_get_arena
                0x0000000000419304      0x12c 0x4 /usr/local/popcorn/aarch64/lib/libc.a(expand_heap.o)
                0x0000000000419304                popcorn_get_arena
 .text          0x0000000000419430        0x0 0x4 /usr/local/popcorn/aarch64/lib/libc.a(fabs.o)
 .text.fabs     0x0000000000419430        0x8 0x4 /usr/local/popcorn/aarch64/lib/libc.a(fabs.o)
                0x0000000000419430                fabs
 .text          0x0000000000419438        0x0 0x4 /usr/local/popcorn/aarch64/lib/libc.a(copysignl.o)
 .text.copysignl
                0x0000000000419438       0x2c 0x4 /usr/local/popcorn/aarch64/lib/libc.a(copysignl.o)
                0x0000000000419438                copysignl
 .text          0x0000000000419464        0x0 0x4 /usr/local/popcorn/aarch64/lib/libc.a(fmodl.o)
 .text.fmodl    0x0000000000419464      0x224 0x4 /usr/local/popcorn/aarch64/lib/libc.a(fmodl.o)
                0x0000000000419464                fmodl
 .text          0x0000000000419688        0x0 0x4 /usr/local/popcorn/aarch64/lib/libc.a(scalbn.o)
 .text.scalbn   0x0000000000419688       0x98 0x4 /usr/local/popcorn/aarch64/lib/libc.a(scalbn.o)
                0x0000000000419688                scalbn
 .text          0x0000000000419720        0x0 0x4 /usr/local/popcorn/aarch64/lib/libc.a(scalbnl.o)
 .text.scalbnl  0x0000000000419720       0xd4 0x4 /usr/local/popcorn/aarch64/lib/libc.a(scalbnl.o)
                0x0000000000419720                scalbnl
 .text          0x00000000004197f4        0x0 0x4 /usr/local/popcorn/aarch64/lib/libc.a(mbrtowc.o)
 .text.mbrtowc  0x00000000004197f4      0x148 0x4 /usr/local/popcorn/aarch64/lib/libc.a(mbrtowc.o)
                0x00000000004197f4                mbrtowc
 .text          0x000000000041993c        0x0 0x4 /usr/local/popcorn/aarch64/lib/libc.a(mbsinit.o)
 .text.mbsinit  0x000000000041993c       0x1c 0x4 /usr/local/popcorn/aarch64/lib/libc.a(mbsinit.o)
                0x000000000041993c                mbsinit
 .text          0x0000000000419958        0x0 0x4 /usr/local/popcorn/aarch64/lib/libc.a(block.o)
 .text.__block_all_sigs
                0x0000000000419958       0x20 0x4 /usr/local/popcorn/aarch64/lib/libc.a(block.o)
                0x0000000000419958                __block_all_sigs
 .text.__block_app_sigs
                0x0000000000419978       0x20 0x4 /usr/local/popcorn/aarch64/lib/libc.a(block.o)
                0x0000000000419978                __block_app_sigs
 .text.__restore_sigs
                0x0000000000419998       0x1c 0x4 /usr/local/popcorn/aarch64/lib/libc.a(block.o)
                0x0000000000419998                __restore_sigs
 .text          0x00000000004199b4        0x0 0x4 /usr/local/popcorn/aarch64/lib/libc.a(raise.o)
 .text.raise    0x00000000004199b4       0x58 0x4 /usr/local/popcorn/aarch64/lib/libc.a(raise.o)
                0x00000000004199b4                raise
 .text          0x0000000000419a0c        0x0 0x4 /usr/local/popcorn/aarch64/lib/libc.a(__fdopen.o)
 .text.__fdopen
                0x0000000000419a0c      0x1a0 0x4 /usr/local/popcorn/aarch64/lib/libc.a(__fdopen.o)
                0x0000000000419a0c                fdopen
                0x0000000000419a0c                __fdopen
 .text          0x0000000000419bac        0x0 0x4 /usr/local/popcorn/aarch64/lib/libc.a(__fmodeflags.o)
 .text.__fmodeflags
                0x0000000000419bac       0x94 0x4 /usr/local/popcorn/aarch64/lib/libc.a(__fmodeflags.o)
                0x0000000000419bac                __fmodeflags
 .text          0x0000000000419c40        0x0 0x4 /usr/local/popcorn/aarch64/lib/libc.a(__stdio_read.o)
 .text.__stdio_read
                0x0000000000419c40       0xe4 0x4 /usr/local/popcorn/aarch64/lib/libc.a(__stdio_read.o)
                0x0000000000419c40                __stdio_read
 .text          0x0000000000419d24        0x0 0x4 /usr/local/popcorn/aarch64/lib/libc.a(__string_read.o)
 .text.__string_read
                0x0000000000419d24       0x84 0x4 /usr/local/popcorn/aarch64/lib/libc.a(__string_read.o)
                0x0000000000419d24                __string_read
 .text          0x0000000000419da8        0x0 0x4 /usr/local/popcorn/aarch64/lib/libc.a(__uflow.o)
 .text.__uflow  0x0000000000419da8       0x4c 0x4 /usr/local/popcorn/aarch64/lib/libc.a(__uflow.o)
                0x0000000000419da8                __uflow
 .text          0x0000000000419df4        0x0 0x4 /usr/local/popcorn/aarch64/lib/libc.a(fputc.o)
 .text.fputc    0x0000000000419df4       0xd4 0x4 /usr/local/popcorn/aarch64/lib/libc.a(fputc.o)
                0x0000000000419df4                fputc
 .text          0x0000000000419ec8        0x0 0x4 /usr/local/popcorn/aarch64/lib/libc.a(getdelim.o)
 .text.getdelim
                0x0000000000419ec8      0x274 0x4 /usr/local/popcorn/aarch64/lib/libc.a(getdelim.o)
                0x0000000000419ec8                __getdelim
                0x0000000000419ec8                getdelim
 .text          0x000000000041a13c        0x0 0x4 /usr/local/popcorn/aarch64/lib/libc.a(ofl_add.o)
 .text.__ofl_add
                0x000000000041a13c       0x40 0x4 /usr/local/popcorn/aarch64/lib/libc.a(ofl_add.o)
                0x000000000041a13c                __ofl_add
 .text          0x000000000041a17c        0x0 0x4 /usr/local/popcorn/aarch64/lib/libc.a(internal.o)
 .text          0x000000000041a17c        0x0 0x4 /usr/local/popcorn/aarch64/lib/libc.a(__overflow.o)
 .text.__overflow
                0x000000000041a17c       0xa4 0x4 /usr/local/popcorn/aarch64/lib/libc.a(__overflow.o)
                0x000000000041a17c                __overflow
 .text          0x000000000041a220        0x0 0x4 /usr/local/popcorn/aarch64/lib/libc.a(__toread.o)
 .text.__toread
                0x000000000041a220       0x84 0x4 /usr/local/popcorn/aarch64/lib/libc.a(__toread.o)
                0x000000000041a220                __toread
 .text.__toread_needs_stdio_exit
                0x000000000041a2a4        0x4 0x4 /usr/local/popcorn/aarch64/lib/libc.a(__toread.o)
                0x000000000041a2a4                __toread_needs_stdio_exit
 .text          0x000000000041a2a8      0xca4 0x8 /usr/lib/gcc-cross/aarch64-linux-gnu/6/libgcc.a(addtf3.o)
                0x000000000041a2a8                __addtf3
 *fill*         0x000000000041af4c        0x4 1f2003d5
 .text          0x000000000041af50      0x948 0x8 /usr/lib/gcc-cross/aarch64-linux-gnu/6/libgcc.a(divtf3.o)
                0x000000000041af50                __divtf3
 .text          0x000000000041b898      0x110 0x8 /usr/lib/gcc-cross/aarch64-linux-gnu/6/libgcc.a(eqtf2.o)
                0x000000000041b898                __eqtf2
                0x000000000041b898                __netf2
 .text          0x000000000041b9a8      0x154 0x8 /usr/lib/gcc-cross/aarch64-linux-gnu/6/libgcc.a(getf2.o)
                0x000000000041b9a8                __getf2
                0x000000000041b9a8                __gttf2
 *fill*         0x000000000041bafc        0x4 1f2003d5
 .text          0x000000000041bb00      0x174 0x8 /usr/lib/gcc-cross/aarch64-linux-gnu/6/libgcc.a(letf2.o)
                0x000000000041bb00                __letf2
                0x000000000041bb00                __lttf2
 *fill*         0x000000000041bc74        0x4 1f2003d5
 .text          0x000000000041bc78      0x790 0x8 /usr/lib/gcc-cross/aarch64-linux-gnu/6/libgcc.a(multf3.o)
                0x000000000041bc78                __multf3
 .text          0x000000000041c408      0xcb8 0x8 /usr/lib/gcc-cross/aarch64-linux-gnu/6/libgcc.a(subtf3.o)
                0x000000000041c408                __subtf3
 .text          0x000000000041d0c0       0xd0 0x8 /usr/lib/gcc-cross/aarch64-linux-gnu/6/libgcc.a(unordtf2.o)
                0x000000000041d0c0                __unordtf2
 .text          0x000000000041d190      0x100 0x8 /usr/lib/gcc-cross/aarch64-linux-gnu/6/libgcc.a(fixtfsi.o)
                0x000000000041d190                __fixtfsi
 .text          0x000000000041d290       0xec 0x8 /usr/lib/gcc-cross/aarch64-linux-gnu/6/libgcc.a(fixunstfsi.o)
                0x000000000041d290                __fixunstfsi
 *fill*         0x000000000041d37c        0x4 1f2003d5
 .text          0x000000000041d380       0x7c 0x8 /usr/lib/gcc-cross/aarch64-linux-gnu/6/libgcc.a(floatsitf.o)
                0x000000000041d380                __floatsitf
 *fill*         0x000000000041d3fc        0x4 1f2003d5
 .text          0x000000000041d400       0x70 0x8 /usr/lib/gcc-cross/aarch64-linux-gnu/6/libgcc.a(floatunsitf.o)
                0x000000000041d400                __floatunsitf
 .text          0x000000000041d470       0xf0 0x8 /usr/lib/gcc-cross/aarch64-linux-gnu/6/libgcc.a(extendsftf2.o)
                0x000000000041d470                __extendsftf2
 .text          0x000000000041d560      0x114 0x8 /usr/lib/gcc-cross/aarch64-linux-gnu/6/libgcc.a(extenddftf2.o)
                0x000000000041d560                __extenddftf2
 *fill*         0x000000000041d674        0x4 1f2003d5
 .text          0x000000000041d678      0x318 0x8 /usr/lib/gcc-cross/aarch64-linux-gnu/6/libgcc.a(trunctfsf2.o)
                0x000000000041d678                __trunctfsf2
 .text          0x000000000041d990      0x370 0x8 /usr/lib/gcc-cross/aarch64-linux-gnu/6/libgcc.a(trunctfdf2.o)
                0x000000000041d990                __trunctfdf2
 .text          0x000000000041dd00       0x6c 0x8 /usr/lib/gcc-cross/aarch64-linux-gnu/6/libgcc.a(sfp-exceptions.o)
                0x000000000041dd00                __sfp_handle_exceptions
 *(.gnu.warning)

.fini
 *(SORT_NONE(.fini))
                [!provide]                        PROVIDE (__etext = .)
                [!provide]                        PROVIDE (_etext = .)
                [!provide]                        PROVIDE (etext = .)

.rodata         0x000000000041dd70     0x2a6f
 *(.rodata .rodata.* .gnu.linkonce.r.*)
 .rodata.migrate__str__test1__mi
                0x000000000041dd70       0x1b 0x1 migrate_aarch64.o
                0x000000000041dd70                migrate__str__test1__mi
 .rodata.migrate__str_1__test1__Do
                0x000000000041dd8b       0x16 0x1 migrate_aarch64.o
                0x000000000041dd8b                migrate__str_1__test1__Do
 .rodata.migrate__str_2__test2__Th
                0x000000000041dda1       0x68 0x1 migrate_aarch64.o
                0x000000000041dda1                migrate__str_2__test2__Th
 .rodata.migrate__str_3__test2__Mi
                0x000000000041de09       0x41 0x1 migrate_aarch64.o
                0x000000000041de09                migrate__str_3__test2__Mi
 .rodata.src_env___libc_start_main__str_
                0x000000000041de4a        0x1 0x1 /usr/local/popcorn/aarch64/lib/libc.a(__libc_start_main.o)
                0x000000000041de4a                src_env___libc_start_main__str_
 *fill*         0x000000000041de4b        0x1 
 .rodata.src_env___libc_start_main___const___init_libc_pfd_
                0x000000000041de4c       0x18 0x4 /usr/local/popcorn/aarch64/lib/libc.a(__libc_start_main.o)
                0x000000000041de4c                src_env___libc_start_main___const___init_libc_pfd_
 .rodata.src_env___libc_start_main__str_1__dev_null_
                0x000000000041de64        0xa 0x1 /usr/local/popcorn/aarch64/lib/libc.a(__libc_start_main.o)
                0x000000000041de64                src_env___libc_start_main__str_1__dev_null_
 *fill*         0x000000000041de6e        0x2 
 .rodata.stdout
                0x000000000041de70        0x8 0x8 /usr/local/popcorn/aarch64/lib/libc.a(stdout.o)
                0x000000000041de70                stdout
 *fill*         0x000000000041de78        0x8 
 .rodata.cst16  0x000000000041de80       0xb0 0x10 /usr/local/popcorn/aarch64/lib/libc.a(vfprintf.o)
 .rodata.printf_core
                0x000000000041df30       0x5c 0x2 /usr/local/popcorn/aarch64/lib/libc.a(vfprintf.o)
 .rodata.pop_arg
                0x000000000041df8c       0x12 0x1 /usr/local/popcorn/aarch64/lib/libc.a(vfprintf.o)
 .rodata.src_stdio_vfprintf__str______0X0x_
                0x000000000041df9e        0xa 0x1 /usr/local/popcorn/aarch64/lib/libc.a(vfprintf.o)
                0x000000000041df9e                src_stdio_vfprintf__str______0X0x_
 .rodata.src_stdio_vfprintf__str_1__null__
                0x000000000041dfa8        0x7 0x1 /usr/local/popcorn/aarch64/lib/libc.a(vfprintf.o)
                0x000000000041dfa8                src_stdio_vfprintf__str_1__null__
 .rodata.src_stdio_vfprintf_c_states
                0x000000000041dfaf      0x1d0 0x1 /usr/local/popcorn/aarch64/lib/libc.a(vfprintf.o)
 .rodata.src_stdio_vfprintf_c_xdigits
                0x000000000041e17f       0x10 0x1 /usr/local/popcorn/aarch64/lib/libc.a(vfprintf.o)
 .rodata.src_stdio_vfprintf__str_3__0X_0X_0X_
                0x000000000041e18f       0x13 0x1 /usr/local/popcorn/aarch64/lib/libc.a(vfprintf.o)
                0x000000000041e18f                src_stdio_vfprintf__str_3__0X_0X_0X_
 .rodata.src_stdio_vfprintf__str_4_inf_
                0x000000000041e1a2        0x4 0x1 /usr/local/popcorn/aarch64/lib/libc.a(vfprintf.o)
                0x000000000041e1a2                src_stdio_vfprintf__str_4_inf_
 .rodata.src_stdio_vfprintf__str_5_INF_
                0x000000000041e1a6        0x4 0x1 /usr/local/popcorn/aarch64/lib/libc.a(vfprintf.o)
                0x000000000041e1a6                src_stdio_vfprintf__str_5_INF_
 .rodata.src_stdio_vfprintf__str_6_nan_
                0x000000000041e1aa        0x4 0x1 /usr/local/popcorn/aarch64/lib/libc.a(vfprintf.o)
                0x000000000041e1aa                src_stdio_vfprintf__str_6_nan_
 .rodata.src_stdio_vfprintf__str_7_NAN_
                0x000000000041e1ae        0x4 0x1 /usr/local/popcorn/aarch64/lib/libc.a(vfprintf.o)
                0x000000000041e1ae                src_stdio_vfprintf__str_7_NAN_
 .rodata.src_stdio_vfprintf__str_8___
                0x000000000041e1b2        0x2 0x1 /usr/local/popcorn/aarch64/lib/libc.a(vfprintf.o)
                0x000000000041e1b2                src_stdio_vfprintf__str_8___
 .rodata.src_errno_strerror_c_errid
                0x000000000041e1b4       0x58 0x1 /usr/local/popcorn/aarch64/lib/libc.a(strerror.o)
 .rodata.src_errno_strerror_c_errmsg
                0x000000000041e20c      0x70c 0x1 /usr/local/popcorn/aarch64/lib/libc.a(strerror.o)
 *fill*         0x000000000041e918        0x8 
 .rodata.cst16  0x000000000041e920       0x10 0x10 /usr/local/popcorn/aarch64/lib/libc.a(frexpl.o)
                                         0x20 (size before relaxing)
 .rodata.__migrate_shim_internal
                0x000000000041e930       0x10 0x4 /usr/local/popcorn/aarch64/lib/libmigrate.a(migrate.o)
 .rodata.get_thread_pointer
                0x000000000041e940       0x10 0x4 /usr/local/popcorn/aarch64/lib/libmigrate.a(migrate.o)
 .rodata.src_migrate__str_Destinatio
                0x000000000041e950       0x29 0x1 /usr/local/popcorn/aarch64/lib/libmigrate.a(migrate.o)
                0x000000000041e950                src_migrate__str_Destinatio
 .rodata.src_migrate__str_1_0_____Unsu
                0x000000000041e979       0x21 0x1 /usr/local/popcorn/aarch64/lib/libmigrate.a(migrate.o)
                0x000000000041e979                src_migrate__str_1_0_____Unsu
 .rodata.src_migrate__str_2_src_migrat
                0x000000000041e99a        0xe 0x1 /usr/local/popcorn/aarch64/lib/libmigrate.a(migrate.o)
                0x000000000041e99a                src_migrate__str_2_src_migrat
 .rodata.src_migrate___func_____migrate_shim_internal___migrate_
                0x000000000041e9a8       0x18 0x1 /usr/local/popcorn/aarch64/lib/libmigrate.a(migrate.o)
                0x000000000041e9a8                src_migrate___func_____migrate_shim_internal___migrate_
 .rodata.src_migrate__str_3_Could_not_
                0x000000000041e9c0       0x1a 0x1 /usr/local/popcorn/aarch64/lib/libmigrate.a(migrate.o)
                0x000000000041e9c0                src_migrate__str_3_Could_not_
 .rodata.src_migrate__str_4_Could_not_
                0x000000000041e9da       0x1a 0x1 /usr/local/popcorn/aarch64/lib/libmigrate.a(migrate.o)
                0x000000000041e9da                src_migrate__str_4_Could_not_
 .rodata.src_migrate___func___get_thread_pointer_get_thread
                0x000000000041e9f4       0x13 0x1 /usr/local/popcorn/aarch64/lib/libmigrate.a(migrate.o)
                0x000000000041e9f4                src_migrate___func___get_thread_pointer_get_thread
 .rodata.src_mapping__str_POPCORN_TH
                0x000000000041ea07       0x18 0x1 /usr/local/popcorn/aarch64/lib/libmigrate.a(mapping.o)
                0x000000000041ea07                src_mapping__str_POPCORN_TH
 .rodata.src_mapping__str_1_thread_sch
                0x000000000041ea1f       0x14 0x1 /usr/local/popcorn/aarch64/lib/libmigrate.a(mapping.o)
                0x000000000041ea1f                src_mapping__str_1_thread_sch
 .rodata.src_mapping__str_2_r_
                0x000000000041ea33        0x2 0x1 /usr/local/popcorn/aarch64/lib/libmigrate.a(mapping.o)
                0x000000000041ea33                src_mapping__str_2_r_
 .rodata.src_mapping__str_3__lu__lu_
                0x000000000041ea35        0x8 0x1 /usr/local/popcorn/aarch64/lib/libmigrate.a(mapping.o)
                0x000000000041ea35                src_mapping__str_3__lu__lu_
 .rodata.src_mapping__str_4__d_
                0x000000000041ea3d        0x3 0x1 /usr/local/popcorn/aarch64/lib/libmigrate.a(mapping.o)
                0x000000000041ea3d                src_mapping__str_4__d_
 .rodata.src_userspace__str_ST_AARCH64
                0x000000000041ea40        0xf 0x1 /usr/local/popcorn/aarch64/lib/libstack-transform.a(userspace.o)
                0x000000000041ea40                src_userspace__str_ST_AARCH64
 .rodata.src_userspace__str_1__s_aarch64
                0x000000000041ea4f        0xb 0x1 /usr/local/popcorn/aarch64/lib/libstack-transform.a(userspace.o)
                0x000000000041ea4f                src_userspace__str_1__s_aarch64
 .rodata.src_userspace__str_2_ST_POWERPC
                0x000000000041ea5a       0x11 0x1 /usr/local/popcorn/aarch64/lib/libstack-transform.a(userspace.o)
                0x000000000041ea5a                src_userspace__str_2_ST_POWERPC
 .rodata.src_userspace__str_3__s_powerpc
                0x000000000041ea6b        0xd 0x1 /usr/local/popcorn/aarch64/lib/libstack-transform.a(userspace.o)
                0x000000000041ea6b                src_userspace__str_3__s_powerpc
 .rodata.src_userspace__str_4_ST_RISCV64
                0x000000000041ea78        0xf 0x1 /usr/local/popcorn/aarch64/lib/libstack-transform.a(userspace.o)
                0x000000000041ea78                src_userspace__str_4_ST_RISCV64
 .rodata.src_userspace__str_5__s_riscv64
                0x000000000041ea87        0xb 0x1 /usr/local/popcorn/aarch64/lib/libstack-transform.a(userspace.o)
                0x000000000041ea87                src_userspace__str_5__s_riscv64
 .rodata.src_userspace__str_6_ST_X86_64_
                0x000000000041ea92        0xe 0x1 /usr/local/popcorn/aarch64/lib/libstack-transform.a(userspace.o)
                0x000000000041ea92                src_userspace__str_6_ST_X86_64_
 .rodata.src_userspace__str_7__s_x86_64_
                0x000000000041eaa0        0xa 0x1 /usr/local/popcorn/aarch64/lib/libstack-transform.a(userspace.o)
                0x000000000041eaa0                src_userspace__str_7__s_x86_64_
 .rodata.src_userspace__str_8__proc__d_m
                0x000000000041eaaa        0xe 0x1 /usr/local/popcorn/aarch64/lib/libstack-transform.a(userspace.o)
                0x000000000041eaaa                src_userspace__str_8__proc__d_m
 .rodata.src_userspace__str_9_r_
                0x000000000041eab8        0x2 0x1 /usr/local/popcorn/aarch64/lib/libstack-transform.a(userspace.o)
                0x000000000041eab8                src_userspace__str_9_r_
 .rodata.src_userspace__str_10__lx__lx__s
                0x000000000041eaba       0x19 0x1 /usr/local/popcorn/aarch64/lib/libstack-transform.a(userspace.o)
                0x000000000041eaba                src_userspace__str_10__lx__lx__s
 .rodata.src_userspace__str_11__stack__
                0x000000000041ead3        0x8 0x1 /usr/local/popcorn/aarch64/lib/libstack-transform.a(userspace.o)
                0x000000000041ead3                src_userspace__str_11__stack__
 *fill*         0x000000000041eadb        0x5 
 .rodata.src_userspace_switch_table_st_userspace_rewrite_12_
                0x000000000041eae0       0x20 0x8 /usr/local/popcorn/aarch64/lib/libstack-transform.a(userspace.o)
                0x000000000041eae0                src_userspace_switch_table_st_userspace_rewrite_12_
 .rodata.src_init__str__stack_tra
                0x000000000041eb00       0x1f 0x1 /usr/local/popcorn/aarch64/lib/libstack-transform.a(init.o)
                0x000000000041eb00                src_init__str__stack_tra
 .rodata.src_init__str_1__stack_tra
                0x000000000041eb1f       0x18 0x1 /usr/local/popcorn/aarch64/lib/libstack-transform.a(init.o)
                0x000000000041eb1f                src_init__str_1__stack_tra
 .rodata.src_init__str_2__stack_tra
                0x000000000041eb37       0x14 0x1 /usr/local/popcorn/aarch64/lib/libstack-transform.a(init.o)
                0x000000000041eb37                src_init__str_2__stack_tra
 .rodata.src_init__str_3__stack_tra
                0x000000000041eb4b       0x16 0x1 /usr/local/popcorn/aarch64/lib/libstack-transform.a(init.o)
                0x000000000041eb4b                src_init__str_3__stack_tra
 .rodata.src_init__str_4__stack_tra
                0x000000000041eb61       0x16 0x1 /usr/local/popcorn/aarch64/lib/libstack-transform.a(init.o)
                0x000000000041eb61                src_init__str_4__stack_tra
 .rodata.src_init__str_5__stack_tra
                0x000000000041eb77       0x1c 0x1 /usr/local/popcorn/aarch64/lib/libstack-transform.a(init.o)
                0x000000000041eb77                src_init__str_5__stack_tra
 *fill*         0x000000000041eb93        0x5 
 .rodata.cst8   0x000000000041eb98        0x8 0x8 /usr/local/popcorn/aarch64/lib/libstack-transform.a(rewrite.o)
 .rodata.src_rewrite__str__src_rewri
                0x000000000041eba0       0x42 0x1 /usr/local/popcorn/aarch64/lib/libstack-transform.a(rewrite.o)
                0x000000000041eba0                src_rewrite__str__src_rewri
 .rodata.src_rewrite__str_1__src_rewri
                0x000000000041ebe2       0x68 0x1 /usr/local/popcorn/aarch64/lib/libstack-transform.a(rewrite.o)
                0x000000000041ebe2                src_rewrite__str_1__src_rewri
 .rodata.src_rewrite__str_2__src_rewri
                0x000000000041ec4a       0x54 0x1 /usr/local/popcorn/aarch64/lib/libstack-transform.a(rewrite.o)
                0x000000000041ec4a                src_rewrite__str_2__src_rewri
 .rodata.src_rewrite__str_3__src_rewri
                0x000000000041ec9e       0x61 0x1 /usr/local/popcorn/aarch64/lib/libstack-transform.a(rewrite.o)
                0x000000000041ec9e                src_rewrite__str_3__src_rewri
 .rodata.src_util__str_aarch64_
                0x000000000041ecff        0x8 0x1 /usr/local/popcorn/aarch64/lib/libstack-transform.a(util.o)
                0x000000000041ecff                src_util__str_aarch64_
 .rodata.src_util__str_1_powerpc64_
                0x000000000041ed07        0xa 0x1 /usr/local/popcorn/aarch64/lib/libstack-transform.a(util.o)
                0x000000000041ed07                src_util__str_1_powerpc64_
 .rodata.src_util__str_2_riscv64_
                0x000000000041ed11        0x8 0x1 /usr/local/popcorn/aarch64/lib/libstack-transform.a(util.o)
                0x000000000041ed11                src_util__str_2_riscv64_
 .rodata.src_util__str_3_x86_64_
                0x000000000041ed19        0x7 0x1 /usr/local/popcorn/aarch64/lib/libstack-transform.a(util.o)
                0x000000000041ed19                src_util__str_3_x86_64_
 .rodata.src_util__str_4_unknown_un
                0x000000000041ed20       0x21 0x1 /usr/local/popcorn/aarch64/lib/libstack-transform.a(util.o)
                0x000000000041ed20                src_util__str_4_unknown_un
 *fill*         0x000000000041ed41        0x1 
 .rodata.src_arch_aarch64_properties_c_callee_saved_aarch64
                0x000000000041ed42       0x28 0x2 /usr/local/popcorn/aarch64/lib/libstack-transform.a(properties.o)
 .rodata.src_arch_aarch64_properties_c_callee_saved_size_aarch64
                0x000000000041ed6a       0x28 0x2 /usr/local/popcorn/aarch64/lib/libstack-transform.a(properties.o)
 *fill*         0x000000000041ed92        0x6 
 .rodata.properties_aarch64
                0x000000000041ed98       0x38 0x8 /usr/local/popcorn/aarch64/lib/libstack-transform.a(properties.o)
                0x000000000041ed98                properties_aarch64
 .rodata.src_arch_aarch64_properties__str__src_arch_
                0x000000000041edd0       0x51 0x1 /usr/local/popcorn/aarch64/lib/libstack-transform.a(properties.o)
                0x000000000041edd0                src_arch_aarch64_properties__str__src_arch_
 .rodata.reg_aarch64
                0x000000000041ee21       0x60 0x1 /usr/local/popcorn/aarch64/lib/libstack-transform.a(regs.o)
 *fill*         0x000000000041ee81        0x7 
 .rodata.regs_aarch64
                0x000000000041ee88       0xa8 0x8 /usr/local/popcorn/aarch64/lib/libstack-transform.a(regs.o)
                0x000000000041ee88                regs_aarch64
 .rodata.src_arch_aarch64_regs__str__src_arch_
                0x000000000041ef30       0x4c 0x1 /usr/local/popcorn/aarch64/lib/libstack-transform.a(regs.o)
                0x000000000041ef30                src_arch_aarch64_regs__str__src_arch_
 .rodata.src_arch_aarch64_regs__str_1__src_arch_
                0x000000000041ef7c       0x4c 0x1 /usr/local/popcorn/aarch64/lib/libstack-transform.a(regs.o)
                0x000000000041ef7c                src_arch_aarch64_regs__str_1__src_arch_
 .rodata.is_callee_saved_powerpc64
                0x000000000041efc8       0x41 0x1 /usr/local/popcorn/aarch64/lib/libstack-transform.a(properties.o)
 .rodata.callee_reg_size_powerpc64
                0x000000000041f009       0x42 0x1 /usr/local/popcorn/aarch64/lib/libstack-transform.a(properties.o)
 *fill*         0x000000000041f04b        0x1 
 .rodata.src_arch_powerpc64_properties_c_callee_saved_powerpc64
                0x000000000041f04c       0x4e 0x2 /usr/local/popcorn/aarch64/lib/libstack-transform.a(properties.o)
 .rodata.src_arch_powerpc64_properties_c_callee_saved_size_powerpc64
                0x000000000041f09a       0x4c 0x2 /usr/local/popcorn/aarch64/lib/libstack-transform.a(properties.o)
 *fill*         0x000000000041f0e6        0x2 
 .rodata.properties_powerpc64
                0x000000000041f0e8       0x38 0x8 /usr/local/popcorn/aarch64/lib/libstack-transform.a(properties.o)
                0x000000000041f0e8                properties_powerpc64
 .rodata.src_arch_powerpc64_properties__str__src_arch_
                0x000000000041f120       0x56 0x1 /usr/local/popcorn/aarch64/lib/libstack-transform.a(properties.o)
                0x000000000041f120                src_arch_powerpc64_properties__str__src_arch_
 .rodata.reg_powerpc64
                0x000000000041f176       0x43 0x1 /usr/local/popcorn/aarch64/lib/libstack-transform.a(regs.o)
 *fill*         0x000000000041f1b9        0x7 
 .rodata.regs_powerpc64
                0x000000000041f1c0       0xa8 0x8 /usr/local/popcorn/aarch64/lib/libstack-transform.a(regs.o)
                0x000000000041f1c0                regs_powerpc64
 .rodata.src_arch_powerpc64_regs__str__src_arch_
                0x000000000041f268       0x50 0x1 /usr/local/popcorn/aarch64/lib/libstack-transform.a(regs.o)
                0x000000000041f268                src_arch_powerpc64_regs__str__src_arch_
 .rodata.src_arch_powerpc64_regs__str_1__src_arch_
                0x000000000041f2b8       0x50 0x1 /usr/local/popcorn/aarch64/lib/libstack-transform.a(regs.o)
                0x000000000041f2b8                src_arch_powerpc64_regs__str_1__src_arch_
 .rodata.src_arch_riscv64_properties_c_callee_saved_riscv64
                0x000000000041f308       0x30 0x2 /usr/local/popcorn/aarch64/lib/libstack-transform.a(properties.o)
 .rodata.src_arch_riscv64_properties_c_callee_saved_size_riscv64
                0x000000000041f338       0x30 0x2 /usr/local/popcorn/aarch64/lib/libstack-transform.a(properties.o)
 .rodata.properties_riscv64
                0x000000000041f368       0x38 0x8 /usr/local/popcorn/aarch64/lib/libstack-transform.a(properties.o)
                0x000000000041f368                properties_riscv64
 .rodata.src_arch_riscv64_properties__str__src_arch_
                0x000000000041f3a0       0x52 0x1 /usr/local/popcorn/aarch64/lib/libstack-transform.a(properties.o)
                0x000000000041f3a0                src_arch_riscv64_properties__str__src_arch_
 *fill*         0x000000000041f3f2        0x6 
 .rodata.regs_riscv64
                0x000000000041f3f8       0xa8 0x8 /usr/local/popcorn/aarch64/lib/libstack-transform.a(regs.o)
                0x000000000041f3f8                regs_riscv64
 .rodata.src_arch_riscv64_regs__str__src_arch_
                0x000000000041f4a0       0x4c 0x1 /usr/local/popcorn/aarch64/lib/libstack-transform.a(regs.o)
                0x000000000041f4a0                src_arch_riscv64_regs__str__src_arch_
 .rodata.src_arch_riscv64_regs__str_1__src_arch_
                0x000000000041f4ec       0x4c 0x1 /usr/local/popcorn/aarch64/lib/libstack-transform.a(regs.o)
                0x000000000041f4ec                src_arch_riscv64_regs__str_1__src_arch_
 .rodata.src_arch_x86_64_properties_c_callee_saved_x86_64
                0x000000000041f538        0xe 0x2 /usr/local/popcorn/aarch64/lib/libstack-transform.a(properties.o)
 .rodata.src_arch_x86_64_properties_c_callee_saved_size_x86_64
                0x000000000041f546        0xe 0x2 /usr/local/popcorn/aarch64/lib/libstack-transform.a(properties.o)
 *fill*         0x000000000041f554        0x4 
 .rodata.properties_x86_64
                0x000000000041f558       0x38 0x8 /usr/local/popcorn/aarch64/lib/libstack-transform.a(properties.o)
                0x000000000041f558                properties_x86_64
 .rodata.src_arch_x86_64_properties__str__src_arch_
                0x000000000041f590       0x4f 0x1 /usr/local/popcorn/aarch64/lib/libstack-transform.a(properties.o)
                0x000000000041f590                src_arch_x86_64_properties__str__src_arch_
 .rodata.reg_x86_64
                0x000000000041f5df       0x21 0x1 /usr/local/popcorn/aarch64/lib/libstack-transform.a(regs.o)
 .rodata.regs_x86_64
                0x000000000041f600       0xa8 0x8 /usr/local/popcorn/aarch64/lib/libstack-transform.a(regs.o)
                0x000000000041f600                regs_x86_64
 .rodata.src_arch_x86_64_regs__str__src_arch_
                0x000000000041f6a8       0x4b 0x1 /usr/local/popcorn/aarch64/lib/libstack-transform.a(regs.o)
                0x000000000041f6a8                src_arch_x86_64_regs__str__src_arch_
 .rodata.src_arch_x86_64_regs__str_1__src_arch_
                0x000000000041f6f3       0x4b 0x1 /usr/local/popcorn/aarch64/lib/libstack-transform.a(regs.o)
                0x000000000041f6f3                src_arch_x86_64_regs__str_1__src_arch_
 .rodata.src_arch_x86_64_regs__str_2__src_arch_
                0x000000000041f73e       0x4a 0x1 /usr/local/popcorn/aarch64/lib/libstack-transform.a(regs.o)
                0x000000000041f73e                src_arch_x86_64_regs__str_2__src_arch_
 .rodata.src_arch_x86_64_regs__str_3__src_arch_
                0x000000000041f788       0x4a 0x1 /usr/local/popcorn/aarch64/lib/libstack-transform.a(regs.o)
                0x000000000041f788                src_arch_x86_64_regs__str_3__src_arch_
 .rodata.put_val_arch
                0x000000000041f7d2       0x16 0x1 /usr/local/popcorn/aarch64/lib/libstack-transform.a(data.o)
 .rodata.points_to_stack
                0x000000000041f7e8        0x5 0x1 /usr/local/popcorn/aarch64/lib/libstack-transform.a(data.o)
 .rodata.src_data__str__src_data_
                0x000000000041f7ed       0x50 0x1 /usr/local/popcorn/aarch64/lib/libstack-transform.a(data.o)
                0x000000000041f7ed                src_data__str__src_data_
 .rodata.src_data__str_1__src_data_
                0x000000000041f83d       0x3d 0x1 /usr/local/popcorn/aarch64/lib/libstack-transform.a(data.o)
                0x000000000041f83d                src_data__str_1__src_data_
 .rodata.src_data__str_2__src_data_
                0x000000000041f87a       0x30 0x1 /usr/local/popcorn/aarch64/lib/libstack-transform.a(data.o)
                0x000000000041f87a                src_data__str_2__src_data_
 .rodata.src_data__str_3__src_data_
                0x000000000041f8aa       0x49 0x1 /usr/local/popcorn/aarch64/lib/libstack-transform.a(data.o)
                0x000000000041f8aa                src_data__str_3__src_data_
 .rodata.src_data__str_4__src_data_
                0x000000000041f8f3       0x3f 0x1 /usr/local/popcorn/aarch64/lib/libstack-transform.a(data.o)
                0x000000000041f8f3                src_data__str_4__src_data_
 .rodata.src_data__str_5__src_data_
                0x000000000041f932       0x3d 0x1 /usr/local/popcorn/aarch64/lib/libstack-transform.a(data.o)
                0x000000000041f932                src_data__str_5__src_data_
 .rodata.src_data__str_6__src_data_
                0x000000000041f96f       0x3f 0x1 /usr/local/popcorn/aarch64/lib/libstack-transform.a(data.o)
                0x000000000041f96f                src_data__str_6__src_data_
 .rodata.src_data__str_7__src_data_
                0x000000000041f9ae       0x37 0x1 /usr/local/popcorn/aarch64/lib/libstack-transform.a(data.o)
                0x000000000041f9ae                src_data__str_7__src_data_
 .rodata.src_data__str_8__src_data_
                0x000000000041f9e5       0x37 0x1 /usr/local/popcorn/aarch64/lib/libstack-transform.a(data.o)
                0x000000000041f9e5                src_data__str_8__src_data_
 .rodata.src_data__str_9__src_data_
                0x000000000041fa1c       0x3f 0x1 /usr/local/popcorn/aarch64/lib/libstack-transform.a(data.o)
                0x000000000041fa1c                src_data__str_9__src_data_
 .rodata.src_data__str_10__src_data_
                0x000000000041fa5b       0x3f 0x1 /usr/local/popcorn/aarch64/lib/libstack-transform.a(data.o)
                0x000000000041fa5b                src_data__str_10__src_data_
 .rodata.elf_begin
                0x000000000041fa9a       0x10 0x2 /usr/local/popcorn/aarch64/lib/libelf.a(begin.o)
 *fill*         0x000000000041faaa        0x6 
 .rodata.begin_c__elf_init
                0x000000000041fab0       0xe0 0x8 /usr/local/popcorn/aarch64/lib/libelf.a(begin.o)
 .rodata.begin_c_fmag
                0x000000000041fb90        0x3 0x1 /usr/local/popcorn/aarch64/lib/libelf.a(begin.o)
 .rodata.begin__str__ELF_
                0x000000000041fb93        0x5 0x1 /usr/local/popcorn/aarch64/lib/libelf.a(begin.o)
                0x000000000041fb93                begin__str__ELF_
 .rodata.begin__str_1___arch___
                0x000000000041fb98        0x9 0x1 /usr/local/popcorn/aarch64/lib/libelf.a(begin.o)
                0x000000000041fb98                begin__str_1___arch___
 .rodata.version__str_LIBELF_SAN
                0x000000000041fba1       0x15 0x1 /usr/local/popcorn/aarch64/lib/libelf.a(version.o)
                0x000000000041fba1                version__str_LIBELF_SAN
 *fill*         0x000000000041fbb6        0x2 
 .rodata.32_xlatetof_c_xlate32_11
                0x000000000041fbb8      0x220 0x8 /usr/local/popcorn/aarch64/lib/libelf.a(32.xlatetof.o)
 .rodata._elf_scn_type
                0x000000000041fdd8       0x11 0x1 /usr/local/popcorn/aarch64/lib/libelf.a(cook.o)
 .rodata._elf_cook
                0x000000000041fde9       0x22 0x1 /usr/local/popcorn/aarch64/lib/libelf.a(cook.o)
 *fill*         0x000000000041fe0b        0x5 
 .rodata._elf_scn_init
                0x000000000041fe10       0xa0 0x8 /usr/local/popcorn/aarch64/lib/libelf.a(cook.o)
                0x000000000041fe10                _elf_scn_init
 .rodata._elf_data_init
                0x000000000041feb0       0x58 0x8 /usr/local/popcorn/aarch64/lib/libelf.a(cook.o)
                0x000000000041feb0                _elf_data_init
 .rodata.64_xlatetof_c_xlate64_11
                0x000000000041ff08      0x220 0x8 /usr/local/popcorn/aarch64/lib/libelf.a(64.xlatetof.o)
 .rodata._elf_fmsize
                0x0000000000420128      0x220 0x8 /usr/local/popcorn/aarch64/lib/libelf.a(32.fsize.o)
                0x0000000000420128                _elf_fmsize
 *fill*         0x0000000000420348        0x8 
 .rodata.cst16  0x0000000000420350       0x30 0x10 /usr/local/popcorn/aarch64/lib/libc.a(platform.o)
 .rodata.src_exit_assert__str_Assertion_
                0x0000000000420380       0x23 0x1 /usr/local/popcorn/aarch64/lib/libc.a(assert.o)
                0x0000000000420380                src_exit_assert__str_Assertion_
 .rodata.src_malloc_malloc_c_bin_tab
                0x00000000004203a3       0x3c 0x1 /usr/local/popcorn/aarch64/lib/libc.a(malloc.o)
 .rodata.src_malloc_popcorn_malloc_c_bin_tab
                0x00000000004203df       0x3c 0x1 /usr/local/popcorn/aarch64/lib/libc.a(popcorn_malloc.o)
 .rodata.src_stdio_fopen__str_rwa_
                0x000000000042041b        0x4 0x1 /usr/local/popcorn/aarch64/lib/libc.a(fopen.o)
                0x000000000042041b                src_stdio_fopen__str_rwa_
 *fill*         0x000000000042041f        0x1 
 .rodata.stderr
                0x0000000000420420        0x8 0x8 /usr/local/popcorn/aarch64/lib/libc.a(stderr.o)
                0x0000000000420420                stderr
 .rodata.vfscanf
                0x0000000000420428       0xce 0x2 /usr/local/popcorn/aarch64/lib/libc.a(vfscanf.o)
 *fill*         0x00000000004204f6        0x2 
 .rodata.src_stdlib_qsort___const_qsort_p_
                0x00000000004204f8       0x10 0x8 /usr/local/popcorn/aarch64/lib/libc.a(qsort.o)
                0x00000000004204f8                src_stdlib_qsort___const_qsort_p_
 *fill*         0x0000000000420508        0x8 
 .rodata.cst16  0x0000000000420510       0x50 0x10 /usr/local/popcorn/aarch64/lib/libc.a(floatscan.o)
                                         0x90 (size before relaxing)
 .rodata.src_internal_floatscan_c_decfloat_p10s
                0x0000000000420560       0x20 0x4 /usr/local/popcorn/aarch64/lib/libc.a(floatscan.o)
 .rodata.src_internal_floatscan_switch_table___floatscan_
                0x0000000000420580        0xc 0x4 /usr/local/popcorn/aarch64/lib/libc.a(floatscan.o)
                0x0000000000420580                src_internal_floatscan_switch_table___floatscan_
 .rodata.src_internal_floatscan_switch_table___floatscan_2_
                0x000000000042058c        0xc 0x4 /usr/local/popcorn/aarch64/lib/libc.a(floatscan.o)
                0x000000000042058c                src_internal_floatscan_switch_table___floatscan_2_
 .rodata.src_internal_intscan_c_table
                0x0000000000420598      0x101 0x1 /usr/local/popcorn/aarch64/lib/libc.a(intscan.o)
 .rodata.src_internal_intscan__str__________
                0x0000000000420699        0x9 0x1 /usr/local/popcorn/aarch64/lib/libc.a(intscan.o)
                0x0000000000420699                src_internal_intscan__str__________
 *fill*         0x00000000004206a2        0xe 
 .rodata.cst16  0x00000000004206b0       0x10 0x10 /usr/local/popcorn/aarch64/lib/libc.a(fmodl.o)
                                         0x30 (size before relaxing)
 .rodata.cst16  0x00000000004206c0       0x20 0x10 /usr/local/popcorn/aarch64/lib/libc.a(scalbnl.o)
 .rodata.src_signal_block_c_all_mask
                0x00000000004206e0        0x8 0x8 /usr/local/popcorn/aarch64/lib/libc.a(block.o)
 .rodata.src_signal_block_c_app_mask
                0x00000000004206e8        0x8 0x8 /usr/local/popcorn/aarch64/lib/libc.a(block.o)
 .rodata.src_stdio___fdopen__str_rwa_
                0x00000000004206f0        0x4 0x1 /usr/local/popcorn/aarch64/lib/libc.a(__fdopen.o)
                0x00000000004206f0                src_stdio___fdopen__str_rwa_
 .rodata.__fsmu8
                0x00000000004206f4       0xcc 0x4 /usr/local/popcorn/aarch64/lib/libc.a(internal.o)
                0x00000000004206f4                __fsmu8
 .rodata        0x00000000004207c0        0xf 0x4 /usr/lib/gcc-cross/aarch64-linux-gnu/6/libgcc.a(divtf3.o)
 *fill*         0x00000000004207cf        0x1 
 .rodata        0x00000000004207d0        0xf 0x4 /usr/lib/gcc-cross/aarch64-linux-gnu/6/libgcc.a(multf3.o)

.llvm_stackmaps
                0x00000000004207e0      0xb58
 .llvm_stackmaps
                0x00000000004207e0      0x408 0x8 migrate_aarch64.o
 .llvm_stackmaps
                0x0000000000420be8       0x48 0x8 /usr/local/popcorn/aarch64/lib/libc.a(__libc_start_main.o)
 .llvm_stackmaps
                0x0000000000420c30      0x498 0x8 /usr/local/popcorn/aarch64/lib/libmigrate.a(migrate.o)
 .llvm_stackmaps
                0x00000000004210c8      0x270 0x8 /usr/local/popcorn/aarch64/lib/libmigrate.a(mapping.o)

.rodata1
 *(.rodata1)

.eh_frame_hdr
 *(.eh_frame_hdr)
 *(.eh_frame_entry .eh_frame_entry.*)

.eh_frame       0x0000000000421338       0x6c
 *(.eh_frame)
 .eh_frame      0x0000000000421338       0x6c 0x8 migrate_aarch64.o
                                         0x70 (size before relaxing)
 *(.eh_frame.*)

.gcc_except_table
 *(.gcc_except_table .gcc_except_table.*)

.gnu_extab
 *(.gnu_extab*)

.exception_ranges
 *(.exception_ranges*)
                0x0000000000431f78                . = DATA_SEGMENT_ALIGN (CONSTANT (MAXPAGESIZE), CONSTANT (COMMONPAGESIZE))

.eh_frame
 *(.eh_frame)
 *(.eh_frame.*)

.gnu_extab
 *(.gnu_extab)

.gcc_except_table
 *(.gcc_except_table .gcc_except_table.*)

.exception_ranges
 *(.exception_ranges*)

.tdata          0x0000000000431f78        0x0
                [!provide]                        PROVIDE (__tdata_start = .)
 *(.tdata .tdata.* .gnu.linkonce.td.*)

.tbss           0x0000000000431f78    0xde0b0
 *(.tbss .tbss.* .gnu.linkonce.tb.*)
 .tbss.src_userspace_c_bounds
                0x0000000000431f78       0x10 0x8 /usr/local/popcorn/aarch64/lib/libstack-transform.a(userspace.o)
 .tbss.src_rewrite_c_src_ctx
                0x0000000000431f88     0xb050 0x8 /usr/local/popcorn/aarch64/lib/libstack-transform.a(rewrite.o)
 .tbss.src_rewrite_c_src_regs
                0x000000000043cfd8    0x62000 0x1 /usr/local/popcorn/aarch64/lib/libstack-transform.a(rewrite.o)
 .tbss.src_rewrite_c_src_callee
                0x000000000049efd8     0x2000 0x1 /usr/local/popcorn/aarch64/lib/libstack-transform.a(rewrite.o)
 .tbss.src_rewrite_c_dest_ctx
                0x00000000004a0fd8     0xb050 0x8 /usr/local/popcorn/aarch64/lib/libstack-transform.a(rewrite.o)
 .tbss.src_rewrite_c_dest_regs
                0x00000000004ac028    0x62000 0x1 /usr/local/popcorn/aarch64/lib/libstack-transform.a(rewrite.o)
 .tbss.src_rewrite_c_dest_callee
                0x000000000050e028     0x2000 0x1 /usr/local/popcorn/aarch64/lib/libstack-transform.a(rewrite.o)
 *(.tcommon)

.preinit_array  0x0000000000431f78        0x0
                [!provide]                        PROVIDE (__preinit_array_start = .)
 *(.preinit_array)
                [!provide]                        PROVIDE (__preinit_array_end = .)

.init_array     0x0000000000431f78       0x28
                0x0000000000431f78                PROVIDE (__init_array_start = .)
 *(SORT_BY_INIT_PRIORITY(.init_array.*) SORT_BY_INIT_PRIORITY(.ctors.*))
 *(.init_array EXCLUDE_FILE(*crtend?.o *crtend.o *crtbegin?.o *crtbegin.o) .ctors)
 .init_array    0x0000000000431f78        0x8 0x8 /usr/local/popcorn/aarch64/lib/libmigrate.a(migrate.o)
 .init_array    0x0000000000431f80        0x8 0x8 /usr/local/popcorn/aarch64/lib/libmigrate.a(mapping.o)
 .init_array    0x0000000000431f88        0x8 0x8 /usr/local/popcorn/aarch64/lib/libstack-transform.a(init.o)
 .init_array    0x0000000000431f90        0x8 0x8 /usr/local/popcorn/aarch64/lib/libc.a(malloc.o)
 .init_array    0x0000000000431f98        0x8 0x8 /usr/local/popcorn/aarch64/lib/libc.a(popcorn_malloc.o)
                0x0000000000431fa0                PROVIDE (__init_array_end = .)

.fini_array     0x0000000000431fa0        0x8
                0x0000000000431fa0                PROVIDE (__fini_array_start = .)
 *(SORT_BY_INIT_PRIORITY(.fini_array.*) SORT_BY_INIT_PRIORITY(.dtors.*))
 *(.fini_array EXCLUDE_FILE(*crtend?.o *crtend.o *crtbegin?.o *crtbegin.o) .dtors)
 .fini_array    0x0000000000431fa0        0x8 0x8 /usr/local/popcorn/aarch64/lib/libmigrate.a(mapping.o)
                0x0000000000431fa8                PROVIDE (__fini_array_end = .)

.ctors
 *crtbegin.o(.ctors)
 *crtbegin?.o(.ctors)
 *(EXCLUDE_FILE(*crtend?.o *crtend.o) .ctors)
 *(SORT_BY_NAME(.ctors.*))
 *(.ctors)

.dtors
 *crtbegin.o(.dtors)
 *crtbegin?.o(.dtors)
 *(EXCLUDE_FILE(*crtend?.o *crtend.o) .dtors)
 *(SORT_BY_NAME(.dtors.*))
 *(.dtors)

.jcr
 *(.jcr)

.data.rel.ro
 *(.data.rel.ro.local* .gnu.linkonce.d.rel.ro.local.*)
 *(.data.rel.ro .data.rel.ro.* .gnu.linkonce.d.rel.ro.*)

.dynamic
 *(.dynamic)

.got            0x0000000000431fa8       0x40
 *(.got)
 .got           0x0000000000431fa8       0x40 0x8 migrate_aarch64.o
                0x0000000000431fa8                _GLOBAL_OFFSET_TABLE_
 *(.igot)
                0x0000000000431fe8                . = DATA_SEGMENT_RELRO_END (., 0x18)

.got.plt        0x0000000000431fe8       0x18
 *(.got.plt)
 .got.plt       0x0000000000431fe8       0x18 0x8 migrate_aarch64.o
 *(.igot.plt)
 .igot.plt      0x0000000000432000        0x0 0x8 migrate_aarch64.o

.data           0x0000000000432000      0x1e8
                [!provide]                        PROVIDE (__data_start = .)
 *(.data .data.* .gnu.linkonce.d.*)
 .data.src_stdio_stdout_c_f
                0x0000000000432000       0xe8 0x8 /usr/local/popcorn/aarch64/lib/libc.a(stdout.o)
 .data.__stdout_used
                0x00000000004320e8        0x8 0x8 /usr/local/popcorn/aarch64/lib/libc.a(stdout.o)
                0x00000000004320e8                __stdout_used
 .data.src_migrate_c_origin_nid
                0x00000000004320f0        0x4 0x4 /usr/local/popcorn/aarch64/lib/libmigrate.a(migrate.o)
 .data          0x00000000004320f4        0x0 0x1 /usr/local/popcorn/aarch64/lib/libmigrate.a(migrate_powerpc64.o)
 .data          0x00000000004320f4        0x0 0x1 /usr/local/popcorn/aarch64/lib/libmigrate.a(migrate_aarch64.o)
 .data          0x00000000004320f4        0x0 0x1 /usr/local/popcorn/aarch64/lib/libmigrate.a(migrate_x86_64.o)
 .data          0x00000000004320f4        0x0 0x1 /usr/local/popcorn/aarch64/lib/libmigrate.a(migrate_riscv64.o)
 .data._elf_sanity_checks
                0x00000000004320f4        0x4 0x4 /usr/local/popcorn/aarch64/lib/libelf.a(data.o)
                0x00000000004320f4                _elf_sanity_checks
 .data.src_stdio_stderr_c_f
                0x00000000004320f8       0xe8 0x8 /usr/local/popcorn/aarch64/lib/libc.a(stderr.o)
 .data.__stderr_used
                0x00000000004321e0        0x8 0x8 /usr/local/popcorn/aarch64/lib/libc.a(stderr.o)
                0x00000000004321e0                __stderr_used
 .data          0x00000000004321e8        0x0 0x1 /usr/lib/gcc-cross/aarch64-linux-gnu/6/libgcc.a(addtf3.o)
 .data          0x00000000004321e8        0x0 0x1 /usr/lib/gcc-cross/aarch64-linux-gnu/6/libgcc.a(divtf3.o)
 .data          0x00000000004321e8        0x0 0x1 /usr/lib/gcc-cross/aarch64-linux-gnu/6/libgcc.a(eqtf2.o)
 .data          0x00000000004321e8        0x0 0x1 /usr/lib/gcc-cross/aarch64-linux-gnu/6/libgcc.a(getf2.o)
 .data          0x00000000004321e8        0x0 0x1 /usr/lib/gcc-cross/aarch64-linux-gnu/6/libgcc.a(letf2.o)
 .data          0x00000000004321e8        0x0 0x1 /usr/lib/gcc-cross/aarch64-linux-gnu/6/libgcc.a(multf3.o)
 .data          0x00000000004321e8        0x0 0x1 /usr/lib/gcc-cross/aarch64-linux-gnu/6/libgcc.a(subtf3.o)
 .data          0x00000000004321e8        0x0 0x1 /usr/lib/gcc-cross/aarch64-linux-gnu/6/libgcc.a(unordtf2.o)
 .data          0x00000000004321e8        0x0 0x1 /usr/lib/gcc-cross/aarch64-linux-gnu/6/libgcc.a(fixtfsi.o)
 .data          0x00000000004321e8        0x0 0x1 /usr/lib/gcc-cross/aarch64-linux-gnu/6/libgcc.a(fixunstfsi.o)
 .data          0x00000000004321e8        0x0 0x1 /usr/lib/gcc-cross/aarch64-linux-gnu/6/libgcc.a(floatsitf.o)
 .data          0x00000000004321e8        0x0 0x1 /usr/lib/gcc-cross/aarch64-linux-gnu/6/libgcc.a(floatunsitf.o)
 .data          0x00000000004321e8        0x0 0x1 /usr/lib/gcc-cross/aarch64-linux-gnu/6/libgcc.a(extendsftf2.o)
 .data          0x00000000004321e8        0x0 0x1 /usr/lib/gcc-cross/aarch64-linux-gnu/6/libgcc.a(extenddftf2.o)
 .data          0x00000000004321e8        0x0 0x1 /usr/lib/gcc-cross/aarch64-linux-gnu/6/libgcc.a(trunctfsf2.o)
 .data          0x00000000004321e8        0x0 0x1 /usr/lib/gcc-cross/aarch64-linux-gnu/6/libgcc.a(trunctfdf2.o)
 .data          0x00000000004321e8        0x0 0x1 /usr/lib/gcc-cross/aarch64-linux-gnu/6/libgcc.a(sfp-exceptions.o)

.data1
 *(.data1)
                0x00000000004321e8                _edata = .
                [!provide]                        PROVIDE (edata = .)
                0x00000000004321e8                . = .
                0x00000000004321e8                __bss_start = .
                0x00000000004321e8                __bss_start__ = .

.bss            0x0000000000433000    0x23000
 *(.dynbss)
 *(.bss .bss.* .gnu.linkonce.b.*)
 .bss.ret       0x0000000000433000        0x8 0x8 migrate_aarch64.o
                0x0000000000433000                ret
 .bss.tid_main  0x0000000000433008        0x4 0x4 migrate_aarch64.o
                0x0000000000433008                tid_main
 *fill*         0x000000000043300c        0x4 
 .bss.__popcorn_stack_base
                0x0000000000433010        0x8 0x8 /usr/local/popcorn/aarch64/lib/libc.a(__libc_start_main.o)
                0x0000000000433010                __popcorn_stack_base
 .bss.__progname
                0x0000000000433018        0x8 0x8 /usr/local/popcorn/aarch64/lib/libc.a(libc.o)
                0x0000000000433018                __progname
                0x0000000000433018                program_invocation_short_name
 .bss.__progname_full
                0x0000000000433020        0x8 0x8 /usr/local/popcorn/aarch64/lib/libc.a(libc.o)
                0x0000000000433020                program_invocation_name
                0x0000000000433020                __progname_full
 .bss.src_stdio_stdout_c_buf
                0x0000000000433028      0x408 0x1 /usr/local/popcorn/aarch64/lib/libc.a(stdout.o)
 .bss.__environ
                0x0000000000433430        0x8 0x8 /usr/local/popcorn/aarch64/lib/libc.a(__environ.o)
                0x0000000000433430                _environ
                0x0000000000433430                __environ
                0x0000000000433430                environ
                0x0000000000433430                ___environ
 .bss.src_env___init_tls_c_main_tls
                0x0000000000433438       0x30 0x8 /usr/local/popcorn/aarch64/lib/libc.a(__init_tls.o)
 .bss.src_env___init_tls_c_builtin_tls
                0x0000000000433468      0x1a8 0x8 /usr/local/popcorn/aarch64/lib/libc.a(__init_tls.o)
 .bss.src_stdio___stdio_exit_c_dummy_file
                0x0000000000433610        0x8 0x8 /usr/local/popcorn/aarch64/lib/libc.a(__stdio_exit.o)
                0x0000000000433610                __stdin_used
 .bss.src_stdio_ofl_c_ofl_lock
                0x0000000000433618        0x8 0x4 /usr/local/popcorn/aarch64/lib/libc.a(ofl.o)
 .bss.src_stdio_ofl_c_ofl_head
                0x0000000000433620        0x8 0x8 /usr/local/popcorn/aarch64/lib/libc.a(ofl.o)
 .bss.src_migrate_c_ni
                0x0000000000433628      0x180 0x4 /usr/local/popcorn/aarch64/lib/libmigrate.a(migrate.o)
 .bss           0x00000000004337a8        0x0 0x1 /usr/local/popcorn/aarch64/lib/libmigrate.a(migrate_powerpc64.o)
 .bss           0x00000000004337a8        0x0 0x1 /usr/local/popcorn/aarch64/lib/libmigrate.a(migrate_aarch64.o)
 .bss           0x00000000004337a8        0x0 0x1 /usr/local/popcorn/aarch64/lib/libmigrate.a(migrate_x86_64.o)
 .bss           0x00000000004337a8        0x0 0x1 /usr/local/popcorn/aarch64/lib/libmigrate.a(migrate_riscv64.o)
 .bss.src_mapping_c_default_node
                0x00000000004337a8        0x4 0x4 /usr/local/popcorn/aarch64/lib/libmigrate.a(mapping.o)
 *fill*         0x00000000004337ac        0x4 
 .bss.src_mapping_c_mappings
                0x00000000004337b0        0x8 0x8 /usr/local/popcorn/aarch64/lib/libmigrate.a(mapping.o)
 .bss.src_mapping_c_num_mappings
                0x00000000004337b8        0x8 0x8 /usr/local/popcorn/aarch64/lib/libmigrate.a(mapping.o)
 .bss.aarch64_fn
                0x00000000004337c0        0x8 0x8 /usr/local/popcorn/aarch64/lib/libstack-transform.a(userspace.o)
                0x00000000004337c0                aarch64_fn
 .bss.powerpc64_fn
                0x00000000004337c8        0x8 0x8 /usr/local/popcorn/aarch64/lib/libstack-transform.a(userspace.o)
                0x00000000004337c8                powerpc64_fn
 .bss.riscv64_fn
                0x00000000004337d0        0x8 0x8 /usr/local/popcorn/aarch64/lib/libstack-transform.a(userspace.o)
                0x00000000004337d0                riscv64_fn
 .bss.x86_64_fn
                0x00000000004337d8        0x8 0x8 /usr/local/popcorn/aarch64/lib/libstack-transform.a(userspace.o)
                0x00000000004337d8                x86_64_fn
 .bss.src_userspace_c_aarch64_handle
                0x00000000004337e0        0x8 0x8 /usr/local/popcorn/aarch64/lib/libstack-transform.a(userspace.o)
 .bss.src_userspace_c_alloc_aarch64_fn
                0x00000000004337e8        0x1 0x1 /usr/local/popcorn/aarch64/lib/libstack-transform.a(userspace.o)
 *fill*         0x00000000004337e9        0x7 
 .bss.src_userspace_c_powerpc64_handle
                0x00000000004337f0        0x8 0x8 /usr/local/popcorn/aarch64/lib/libstack-transform.a(userspace.o)
 .bss.src_userspace_c_alloc_powerpc64_fn
                0x00000000004337f8        0x1 0x1 /usr/local/popcorn/aarch64/lib/libstack-transform.a(userspace.o)
 *fill*         0x00000000004337f9        0x7 
 .bss.src_userspace_c_riscv64_handle
                0x0000000000433800        0x8 0x8 /usr/local/popcorn/aarch64/lib/libstack-transform.a(userspace.o)
 .bss.src_userspace_c_alloc_riscv64_fn
                0x0000000000433808        0x1 0x1 /usr/local/popcorn/aarch64/lib/libstack-transform.a(userspace.o)
 *fill*         0x0000000000433809        0x7 
 .bss.src_userspace_c_x86_64_handle
                0x0000000000433810        0x8 0x8 /usr/local/popcorn/aarch64/lib/libstack-transform.a(userspace.o)
 .bss.src_userspace_c_alloc_x86_64_fn
                0x0000000000433818        0x1 0x1 /usr/local/popcorn/aarch64/lib/libstack-transform.a(userspace.o)
 *fill*         0x0000000000433819        0x3 
 .bss._elf_version
                0x000000000043381c        0x4 0x4 /usr/local/popcorn/aarch64/lib/libelf.a(data.o)
                0x000000000043381c                _elf_version
 .bss._elf_errno
                0x0000000000433820        0x4 0x4 /usr/local/popcorn/aarch64/lib/libelf.a(data.o)
                0x0000000000433820                _elf_errno
 .bss._elf_fill
                0x0000000000433824        0x4 0x4 /usr/local/popcorn/aarch64/lib/libelf.a(data.o)
                0x0000000000433824                _elf_fill
 .bss.src_malloc_lite_malloc_c___simple_malloc_cur
                0x0000000000433828        0x8 0x8 /usr/local/popcorn/aarch64/lib/libc.a(lite_malloc.o)
 .bss.src_malloc_lite_malloc_c___simple_malloc_end
                0x0000000000433830        0x8 0x8 /usr/local/popcorn/aarch64/lib/libc.a(lite_malloc.o)
 .bss.src_malloc_lite_malloc_c___simple_malloc_lock
                0x0000000000433838        0x8 0x4 /usr/local/popcorn/aarch64/lib/libc.a(lite_malloc.o)
 *fill*         0x0000000000433840      0x7c0 
 .bss.src_malloc_malloc_c_mal
                0x0000000000434000     0x1000 0x1000 /usr/local/popcorn/aarch64/lib/libc.a(malloc.o)
 .bss.src_malloc_malloc_c_expand_heap_heap_lock
                0x0000000000435000        0x8 0x4 /usr/local/popcorn/aarch64/lib/libc.a(malloc.o)
 .bss.src_malloc_malloc_c_expand_heap_end
                0x0000000000435008        0x8 0x8 /usr/local/popcorn/aarch64/lib/libc.a(malloc.o)
 .bss.src_malloc_popcorn_malloc_c_expand_heap_heap_lock
                0x0000000000435010      0x100 0x4 /usr/local/popcorn/aarch64/lib/libc.a(popcorn_malloc.o)
 .bss.src_malloc_popcorn_malloc_c_expand_heap_end
                0x0000000000435110      0x100 0x8 /usr/local/popcorn/aarch64/lib/libc.a(popcorn_malloc.o)
 .bss.src_stdio_fflush_c_dummy
                0x0000000000435210        0x8 0x8 /usr/local/popcorn/aarch64/lib/libc.a(fflush.o)
 .bss.src_stdio_stderr_c_buf
                0x0000000000435218        0x8 0x1 /usr/local/popcorn/aarch64/lib/libc.a(stderr.o)
 .bss.src_malloc_expand_heap_c___expand_heap_brk
                0x0000000000435220        0x8 0x8 /usr/local/popcorn/aarch64/lib/libc.a(expand_heap.o)
 .bss.src_malloc_expand_heap_c___expand_heap_mmap_step
                0x0000000000435228        0x4 0x4 /usr/local/popcorn/aarch64/lib/libc.a(expand_heap.o)
 *fill*         0x000000000043522c        0x4 
 .bss.src_malloc_expand_heap_c___expand_heap_node_node_arenas
                0x0000000000435230      0x100 0x8 /usr/local/popcorn/aarch64/lib/libc.a(expand_heap.o)
 .bss.src_malloc_expand_heap_c___expand_heap_node_node_sizes
                0x0000000000435330      0x100 0x8 /usr/local/popcorn/aarch64/lib/libc.a(expand_heap.o)
 .bss.src_malloc_expand_heap_c_arena_start
                0x0000000000435430        0x8 0x8 /usr/local/popcorn/aarch64/lib/libc.a(expand_heap.o)
 .bss.src_malloc_expand_heap_c_set_arena_start_lock
                0x0000000000435438        0x8 0x4 /usr/local/popcorn/aarch64/lib/libc.a(expand_heap.o)
 .bss.src_multibyte_mbrtowc_c_mbrtowc_internal_state
                0x0000000000435440        0x4 0x4 /usr/local/popcorn/aarch64/lib/libc.a(mbrtowc.o)
 .bss           0x0000000000435444        0x0 0x1 /usr/lib/gcc-cross/aarch64-linux-gnu/6/libgcc.a(addtf3.o)
 .bss           0x0000000000435444        0x0 0x1 /usr/lib/gcc-cross/aarch64-linux-gnu/6/libgcc.a(divtf3.o)
 .bss           0x0000000000435444        0x0 0x1 /usr/lib/gcc-cross/aarch64-linux-gnu/6/libgcc.a(eqtf2.o)
 .bss           0x0000000000435444        0x0 0x1 /usr/lib/gcc-cross/aarch64-linux-gnu/6/libgcc.a(getf2.o)
 .bss           0x0000000000435444        0x0 0x1 /usr/lib/gcc-cross/aarch64-linux-gnu/6/libgcc.a(letf2.o)
 .bss           0x0000000000435444        0x0 0x1 /usr/lib/gcc-cross/aarch64-linux-gnu/6/libgcc.a(multf3.o)
 .bss           0x0000000000435444        0x0 0x1 /usr/lib/gcc-cross/aarch64-linux-gnu/6/libgcc.a(subtf3.o)
 .bss           0x0000000000435444        0x0 0x1 /usr/lib/gcc-cross/aarch64-linux-gnu/6/libgcc.a(unordtf2.o)
 .bss           0x0000000000435444        0x0 0x1 /usr/lib/gcc-cross/aarch64-linux-gnu/6/libgcc.a(fixtfsi.o)
 .bss           0x0000000000435444        0x0 0x1 /usr/lib/gcc-cross/aarch64-linux-gnu/6/libgcc.a(fixunstfsi.o)
 .bss           0x0000000000435444        0x0 0x1 /usr/lib/gcc-cross/aarch64-linux-gnu/6/libgcc.a(floatsitf.o)
 .bss           0x0000000000435444        0x0 0x1 /usr/lib/gcc-cross/aarch64-linux-gnu/6/libgcc.a(floatunsitf.o)
 .bss           0x0000000000435444        0x0 0x1 /usr/lib/gcc-cross/aarch64-linux-gnu/6/libgcc.a(extendsftf2.o)
 .bss           0x0000000000435444        0x0 0x1 /usr/lib/gcc-cross/aarch64-linux-gnu/6/libgcc.a(extenddftf2.o)
 .bss           0x0000000000435444        0x0 0x1 /usr/lib/gcc-cross/aarch64-linux-gnu/6/libgcc.a(trunctfsf2.o)
 .bss           0x0000000000435444        0x0 0x1 /usr/lib/gcc-cross/aarch64-linux-gnu/6/libgcc.a(trunctfdf2.o)
 .bss           0x0000000000435444        0x0 0x1 /usr/lib/gcc-cross/aarch64-linux-gnu/6/libgcc.a(sfp-exceptions.o)
 *(COMMON)
 *fill*         0x0000000000435444        0x4 
 COMMON         0x0000000000435448       0x80 0x8 /usr/local/popcorn/aarch64/lib/libc.a(libc.o)
                0x0000000000435448                __hwcap
                0x0000000000435450                __libc
                0x00000000004354c0                __sysinfo
 *fill*         0x00000000004354c8      0xb38 
 COMMON         0x0000000000436000    0x20000 0x1000 /usr/local/popcorn/aarch64/lib/libc.a(popcorn_malloc.o)
                0x0000000000436000                mal
                0x0000000000456000                . = ALIGN ((. != 0x0)?0x8:0x1)
                0x0000000000456000                _bss_end__ = .
                0x0000000000456000                __bss_end__ = .
                0x0000000000456000                . = ALIGN (0x8)
                0x0000000000456000                . = SEGMENT_START ("ldata-segment", .)
                0x0000000000456000                . = ALIGN (0x8)
                0x0000000000456000                __end__ = .
                0x0000000000456000                _end = .
                [!provide]                        PROVIDE (end = .)
                0x0000000000456000                . = DATA_SEGMENT_END (.)

.stab
 *(.stab)

.stabstr
 *(.stabstr)

.stab.excl
 *(.stab.excl)

.stab.exclstr
 *(.stab.exclstr)

.stab.index
 *(.stab.index)

.stab.indexstr
 *(.stab.indexstr)

.comment        0x0000000000000000     0x3cb3
 *(.comment)
 .comment       0x0000000000000000       0x68 0x1 migrate_aarch64.o
                                         0x69 (size before relaxing)
 .comment       0x0000000000000068       0x69 0x1 /usr/local/popcorn/aarch64/lib/crt1.o
 .comment       0x00000000000000d1       0x69 0x1 /usr/local/popcorn/aarch64/lib/libc.a(__libc_start_main.o)
 .comment       0x000000000000013a       0x69 0x1 /usr/local/popcorn/aarch64/lib/libc.a(exit.o)
 .comment       0x00000000000001a3       0x69 0x1 /usr/local/popcorn/aarch64/lib/libc.a(libc.o)
 .comment       0x000000000000020c       0x69 0x1 /usr/local/popcorn/aarch64/lib/libc.a(printf.o)
 .comment       0x0000000000000275       0x69 0x1 /usr/local/popcorn/aarch64/lib/libc.a(stdout.o)
 .comment       0x00000000000002de       0x69 0x1 /usr/local/popcorn/aarch64/lib/libc.a(vfprintf.o)
 .comment       0x0000000000000347       0x69 0x1 /usr/local/popcorn/aarch64/lib/libc.a(memset.o)
 .comment       0x00000000000003b0       0x69 0x1 /usr/local/popcorn/aarch64/lib/libc.a(strnlen.o)
 .comment       0x0000000000000419       0x69 0x1 /usr/local/popcorn/aarch64/lib/libc.a(gettid.o)
 .comment       0x0000000000000482       0x69 0x1 /usr/local/popcorn/aarch64/lib/libc.a(sleep.o)
 .comment       0x00000000000004eb       0x69 0x1 /usr/local/popcorn/aarch64/lib/libc.a(__environ.o)
 .comment       0x0000000000000554       0x69 0x1 /usr/local/popcorn/aarch64/lib/libc.a(__init_tls.o)
 .comment       0x00000000000005bd       0x69 0x1 /usr/local/popcorn/aarch64/lib/libc.a(__errno_location.o)
 .comment       0x0000000000000626       0x69 0x1 /usr/local/popcorn/aarch64/lib/libc.a(strerror.o)
 .comment       0x000000000000068f       0x69 0x1 /usr/local/popcorn/aarch64/lib/libc.a(_Exit.o)
 .comment       0x00000000000006f8       0x69 0x1 /usr/local/popcorn/aarch64/lib/libc.a(__lctrans.o)
 .comment       0x0000000000000761       0x69 0x1 /usr/local/popcorn/aarch64/lib/libc.a(__fpclassifyl.o)
 .comment       0x00000000000007ca       0x69 0x1 /usr/local/popcorn/aarch64/lib/libc.a(__signbitl.o)
 .comment       0x0000000000000833       0x69 0x1 /usr/local/popcorn/aarch64/lib/libc.a(frexpl.o)
 .comment       0x000000000000089c       0x69 0x1 /usr/local/popcorn/aarch64/lib/libc.a(wctomb.o)
 .comment       0x0000000000000905       0x69 0x1 /usr/local/popcorn/aarch64/lib/libc.a(__lockfile.o)
 .comment       0x000000000000096e       0x69 0x1 /usr/local/popcorn/aarch64/lib/libc.a(__stdio_close.o)
 .comment       0x00000000000009d7       0x69 0x1 /usr/local/popcorn/aarch64/lib/libc.a(__stdio_seek.o)
 .comment       0x0000000000000a40       0x69 0x1 /usr/local/popcorn/aarch64/lib/libc.a(__stdout_write.o)
 .comment       0x0000000000000aa9       0x69 0x1 /usr/local/popcorn/aarch64/lib/libc.a(fwrite.o)
 .comment       0x0000000000000b12       0x69 0x1 /usr/local/popcorn/aarch64/lib/libc.a(memchr.o)
 .comment       0x0000000000000b7b       0x69 0x1 /usr/local/popcorn/aarch64/lib/libc.a(memcpy.o)
 .comment       0x0000000000000be4       0x69 0x1 /usr/local/popcorn/aarch64/lib/libc.a(__wait.o)
 .comment       0x0000000000000c4d       0x69 0x1 /usr/local/popcorn/aarch64/lib/libc.a(nanosleep.o)
 .comment       0x0000000000000cb6       0x69 0x1 /usr/local/popcorn/aarch64/lib/libc.a(syscall_ret.o)
 .comment       0x0000000000000d1f       0x69 0x1 /usr/local/popcorn/aarch64/lib/libc.a(wcrtomb.o)
 .comment       0x0000000000000d88       0x69 0x1 /usr/local/popcorn/aarch64/lib/libc.a(__stdio_write.o)
 .comment       0x0000000000000df1       0x69 0x1 /usr/local/popcorn/aarch64/lib/libc.a(__towrite.o)
 .comment       0x0000000000000e5a       0x69 0x1 /usr/local/popcorn/aarch64/lib/libc.a(__syscall_cp.o)
 .comment       0x0000000000000ec3       0x69 0x1 /usr/local/popcorn/aarch64/lib/libc.a(__stdio_exit.o)
 .comment       0x0000000000000f2c       0x69 0x1 /usr/local/popcorn/aarch64/lib/libc.a(ofl.o)
 .comment       0x0000000000000f95       0x69 0x1 /usr/local/popcorn/aarch64/lib/libc.a(__lock.o)
 .comment       0x0000000000000ffe       0x69 0x1 /usr/local/popcorn/aarch64/lib/libmigrate.a(migrate.o)
 .comment       0x0000000000001067       0x69 0x1 /usr/local/popcorn/aarch64/lib/libmigrate.a(mapping.o)
 .comment       0x00000000000010d0       0x69 0x1 /usr/local/popcorn/aarch64/lib/libstack-transform.a(userspace.o)
 .comment       0x0000000000001139       0x69 0x1 /usr/local/popcorn/aarch64/lib/libstack-transform.a(init.o)
 .comment       0x00000000000011a2       0x69 0x1 /usr/local/popcorn/aarch64/lib/libstack-transform.a(rewrite.o)
 .comment       0x000000000000120b       0x69 0x1 /usr/local/popcorn/aarch64/lib/libstack-transform.a(unwind.o)
 .comment       0x0000000000001274       0x69 0x1 /usr/local/popcorn/aarch64/lib/libstack-transform.a(util.o)
 .comment       0x00000000000012dd       0x69 0x1 /usr/local/popcorn/aarch64/lib/libstack-transform.a(properties.o)
 .comment       0x0000000000001346       0x69 0x1 /usr/local/popcorn/aarch64/lib/libstack-transform.a(regs.o)
 .comment       0x00000000000013af       0x69 0x1 /usr/local/popcorn/aarch64/lib/libstack-transform.a(properties.o)
 .comment       0x0000000000001418       0x69 0x1 /usr/local/popcorn/aarch64/lib/libstack-transform.a(regs.o)
 .comment       0x0000000000001481       0x69 0x1 /usr/local/popcorn/aarch64/lib/libstack-transform.a(properties.o)
 .comment       0x00000000000014ea       0x69 0x1 /usr/local/popcorn/aarch64/lib/libstack-transform.a(regs.o)
 .comment       0x0000000000001553       0x69 0x1 /usr/local/popcorn/aarch64/lib/libstack-transform.a(properties.o)
 .comment       0x00000000000015bc       0x69 0x1 /usr/local/popcorn/aarch64/lib/libstack-transform.a(regs.o)
 .comment       0x0000000000001625       0x69 0x1 /usr/local/popcorn/aarch64/lib/libstack-transform.a(data.o)
 .comment       0x000000000000168e       0x69 0x1 /usr/local/popcorn/aarch64/lib/libelf.a(begin.o)
 .comment       0x00000000000016f7       0x69 0x1 /usr/local/popcorn/aarch64/lib/libelf.a(end.o)
 .comment       0x0000000000001760       0x69 0x1 /usr/local/popcorn/aarch64/lib/libelf.a(getdata.o)
 .comment       0x00000000000017c9       0x69 0x1 /usr/local/popcorn/aarch64/lib/libelf.a(getident.o)
 .comment       0x0000000000001832       0x69 0x1 /usr/local/popcorn/aarch64/lib/libelf.a(nextscn.o)
 .comment       0x000000000000189b       0x69 0x1 /usr/local/popcorn/aarch64/lib/libelf.a(strptr.o)
 .comment       0x0000000000001904       0x69 0x1 /usr/local/popcorn/aarch64/lib/libelf.a(version.o)
 .comment       0x000000000000196d       0x69 0x1 /usr/local/popcorn/aarch64/lib/libelf.a(32.getehdr.o)
 .comment       0x00000000000019d6       0x69 0x1 /usr/local/popcorn/aarch64/lib/libelf.a(32.xlatetof.o)
 .comment       0x0000000000001a3f       0x69 0x1 /usr/local/popcorn/aarch64/lib/libelf.a(cook.o)
 .comment       0x0000000000001aa8       0x69 0x1 /usr/local/popcorn/aarch64/lib/libelf.a(data.o)
 .comment       0x0000000000001b11       0x69 0x1 /usr/local/popcorn/aarch64/lib/libelf.a(input.o)
 .comment       0x0000000000001b7a       0x69 0x1 /usr/local/popcorn/aarch64/lib/libelf.a(x.elfext.o)
 .comment       0x0000000000001be3       0x69 0x1 /usr/local/popcorn/aarch64/lib/libelf.a(64.xlatetof.o)
 .comment       0x0000000000001c4c       0x69 0x1 /usr/local/popcorn/aarch64/lib/libelf.a(gelfshdr.o)
 .comment       0x0000000000001cb5       0x69 0x1 /usr/local/popcorn/aarch64/lib/libelf.a(swap64.o)
 .comment       0x0000000000001d1e       0x69 0x1 /usr/local/popcorn/aarch64/lib/libelf.a(verdef_32_tof.o)
 .comment       0x0000000000001d87       0x69 0x1 /usr/local/popcorn/aarch64/lib/libelf.a(verdef_32_tom.o)
 .comment       0x0000000000001df0       0x69 0x1 /usr/local/popcorn/aarch64/lib/libelf.a(verdef_64_tof.o)
 .comment       0x0000000000001e59       0x69 0x1 /usr/local/popcorn/aarch64/lib/libelf.a(verdef_64_tom.o)
 .comment       0x0000000000001ec2       0x69 0x1 /usr/local/popcorn/aarch64/lib/libelf.a(getscn.o)
 .comment       0x0000000000001f2b       0x69 0x1 /usr/local/popcorn/aarch64/lib/libelf.a(newscn.o)
 .comment       0x0000000000001f94       0x69 0x1 /usr/local/popcorn/aarch64/lib/libelf.a(32.fsize.o)
 .comment       0x0000000000001ffd       0x69 0x1 /usr/local/popcorn/aarch64/lib/libc.a(arch_crash.o)
 .comment       0x0000000000002066       0x69 0x1 /usr/local/popcorn/aarch64/lib/libc.a(getenv.o)
 .comment       0x00000000000020cf       0x69 0x1 /usr/local/popcorn/aarch64/lib/libc.a(platform.o)
 .comment       0x0000000000002138       0x69 0x1 /usr/local/popcorn/aarch64/lib/libc.a(assert.o)
 .comment       0x00000000000021a1       0x69 0x1 /usr/local/popcorn/aarch64/lib/libc.a(open.o)
 .comment       0x000000000000220a       0x69 0x1 /usr/local/popcorn/aarch64/lib/libc.a(calloc.o)
 .comment       0x0000000000002273       0x69 0x1 /usr/local/popcorn/aarch64/lib/libc.a(lite_malloc.o)
 .comment       0x00000000000022dc       0x69 0x1 /usr/local/popcorn/aarch64/lib/libc.a(malloc.o)
 .comment       0x0000000000002345       0x69 0x1 /usr/local/popcorn/aarch64/lib/libc.a(popcorn_malloc.o)
 .comment       0x00000000000023ae       0x69 0x1 /usr/local/popcorn/aarch64/lib/libc.a(getrlimit.o)
 .comment       0x0000000000002417       0x69 0x1 /usr/local/popcorn/aarch64/lib/libc.a(madvise.o)
 .comment       0x0000000000002480       0x69 0x1 /usr/local/popcorn/aarch64/lib/libc.a(mmap.o)
 .comment       0x00000000000024e9       0x69 0x1 /usr/local/popcorn/aarch64/lib/libc.a(mremap.o)
 .comment       0x0000000000002552       0x69 0x1 /usr/local/popcorn/aarch64/lib/libc.a(munmap.o)
 .comment       0x00000000000025bb       0x69 0x1 /usr/local/popcorn/aarch64/lib/libc.a(fclose.o)
 .comment       0x0000000000002624       0x69 0x1 /usr/local/popcorn/aarch64/lib/libc.a(fflush.o)
 .comment       0x000000000000268d       0x69 0x1 /usr/local/popcorn/aarch64/lib/libc.a(fopen.o)
 .comment       0x00000000000026f6       0x69 0x1 /usr/local/popcorn/aarch64/lib/libc.a(fprintf.o)
 .comment       0x000000000000275f       0x69 0x1 /usr/local/popcorn/aarch64/lib/libc.a(fscanf.o)
 .comment       0x00000000000027c8       0x69 0x1 /usr/local/popcorn/aarch64/lib/libc.a(fseek.o)
 .comment       0x0000000000002831       0x69 0x1 /usr/local/popcorn/aarch64/lib/libc.a(getc.o)
 .comment       0x000000000000289a       0x69 0x1 /usr/local/popcorn/aarch64/lib/libc.a(getline.o)
 .comment       0x0000000000002903       0x69 0x1 /usr/local/popcorn/aarch64/lib/libc.a(perror.o)
 .comment       0x000000000000296c       0x69 0x1 /usr/local/popcorn/aarch64/lib/libc.a(snprintf.o)
 .comment       0x00000000000029d5       0x69 0x1 /usr/local/popcorn/aarch64/lib/libc.a(sscanf.o)
 .comment       0x0000000000002a3e       0x69 0x1 /usr/local/popcorn/aarch64/lib/libc.a(stderr.o)
 .comment       0x0000000000002aa7       0x69 0x1 /usr/local/popcorn/aarch64/lib/libc.a(vfscanf.o)
 .comment       0x0000000000002b10       0x69 0x1 /usr/local/popcorn/aarch64/lib/libc.a(vsnprintf.o)
 .comment       0x0000000000002b79       0x69 0x1 /usr/local/popcorn/aarch64/lib/libc.a(vsscanf.o)
 .comment       0x0000000000002be2       0x69 0x1 /usr/local/popcorn/aarch64/lib/libc.a(bsearch.o)
 .comment       0x0000000000002c4b       0x69 0x1 /usr/local/popcorn/aarch64/lib/libc.a(qsort.o)
 .comment       0x0000000000002cb4       0x69 0x1 /usr/local/popcorn/aarch64/lib/libc.a(strtol.o)
 .comment       0x0000000000002d1d       0x69 0x1 /usr/local/popcorn/aarch64/lib/libc.a(strchr.o)
 .comment       0x0000000000002d86       0x69 0x1 /usr/local/popcorn/aarch64/lib/libc.a(strchrnul.o)
 .comment       0x0000000000002def       0x69 0x1 /usr/local/popcorn/aarch64/lib/libc.a(strcmp.o)
 .comment       0x0000000000002e58       0x69 0x1 /usr/local/popcorn/aarch64/lib/libc.a(strlen.o)
 .comment       0x0000000000002ec1       0x69 0x1 /usr/local/popcorn/aarch64/lib/libc.a(strncmp.o)
 .comment       0x0000000000002f2a       0x69 0x1 /usr/local/popcorn/aarch64/lib/libc.a(pthread_attr_get.o)
 .comment       0x0000000000002f93       0x69 0x1 /usr/local/popcorn/aarch64/lib/libc.a(pthread_getattr_np.o)
 .comment       0x0000000000002ffc       0x69 0x1 /usr/local/popcorn/aarch64/lib/libc.a(pthread_migrate.o)
 .comment       0x0000000000003065       0x69 0x1 /usr/local/popcorn/aarch64/lib/libc.a(pthread_self.o)
 .comment       0x00000000000030ce       0x69 0x1 /usr/local/popcorn/aarch64/lib/libc.a(close.o)
 .comment       0x0000000000003137       0x69 0x1 /usr/local/popcorn/aarch64/lib/libc.a(getpid.o)
 .comment       0x00000000000031a0       0x69 0x1 /usr/local/popcorn/aarch64/lib/libc.a(lseek.o)
 .comment       0x0000000000003209       0x69 0x1 /usr/local/popcorn/aarch64/lib/libc.a(read.o)
 .comment       0x0000000000003272       0x69 0x1 /usr/local/popcorn/aarch64/lib/libc.a(abort.o)
 .comment       0x00000000000032db       0x69 0x1 /usr/local/popcorn/aarch64/lib/libc.a(floatscan.o)
 .comment       0x0000000000003344       0x69 0x1 /usr/local/popcorn/aarch64/lib/libc.a(intscan.o)
 .comment       0x00000000000033ad       0x69 0x1 /usr/local/popcorn/aarch64/lib/libc.a(shgetc.o)
 .comment       0x0000000000003416       0x69 0x1 /usr/local/popcorn/aarch64/lib/libc.a(expand_heap.o)
 .comment       0x000000000000347f       0x69 0x1 /usr/local/popcorn/aarch64/lib/libc.a(fabs.o)
 .comment       0x00000000000034e8       0x69 0x1 /usr/local/popcorn/aarch64/lib/libc.a(copysignl.o)
 .comment       0x0000000000003551       0x69 0x1 /usr/local/popcorn/aarch64/lib/libc.a(fmodl.o)
 .comment       0x00000000000035ba       0x69 0x1 /usr/local/popcorn/aarch64/lib/libc.a(scalbn.o)
 .comment       0x0000000000003623       0x69 0x1 /usr/local/popcorn/aarch64/lib/libc.a(scalbnl.o)
 .comment       0x000000000000368c       0x69 0x1 /usr/local/popcorn/aarch64/lib/libc.a(mbrtowc.o)
 .comment       0x00000000000036f5       0x69 0x1 /usr/local/popcorn/aarch64/lib/libc.a(mbsinit.o)
 .comment       0x000000000000375e       0x69 0x1 /usr/local/popcorn/aarch64/lib/libc.a(block.o)
 .comment       0x00000000000037c7       0x69 0x1 /usr/local/popcorn/aarch64/lib/libc.a(raise.o)
 .comment       0x0000000000003830       0x69 0x1 /usr/local/popcorn/aarch64/lib/libc.a(__fdopen.o)
 .comment       0x0000000000003899       0x69 0x1 /usr/local/popcorn/aarch64/lib/libc.a(__fmodeflags.o)
 .comment       0x0000000000003902       0x69 0x1 /usr/local/popcorn/aarch64/lib/libc.a(__stdio_read.o)
 .comment       0x000000000000396b       0x69 0x1 /usr/local/popcorn/aarch64/lib/libc.a(__string_read.o)
 .comment       0x00000000000039d4       0x69 0x1 /usr/local/popcorn/aarch64/lib/libc.a(__uflow.o)
 .comment       0x0000000000003a3d       0x69 0x1 /usr/local/popcorn/aarch64/lib/libc.a(fputc.o)
 .comment       0x0000000000003aa6       0x69 0x1 /usr/local/popcorn/aarch64/lib/libc.a(getdelim.o)
 .comment       0x0000000000003b0f       0x69 0x1 /usr/local/popcorn/aarch64/lib/libc.a(ofl_add.o)
 .comment       0x0000000000003b78       0x69 0x1 /usr/local/popcorn/aarch64/lib/libc.a(internal.o)
 .comment       0x0000000000003be1       0x69 0x1 /usr/local/popcorn/aarch64/lib/libc.a(__overflow.o)
 .comment       0x0000000000003c4a       0x69 0x1 /usr/local/popcorn/aarch64/lib/libc.a(__toread.o)

.stack_transform.unwind
                0x0000000000000000       0xbc
 .stack_transform.unwind
                0x0000000000000000       0x28 0x4 migrate_aarch64.o
 .stack_transform.unwind
                0x0000000000000028       0x18 0x4 /usr/local/popcorn/aarch64/lib/libc.a(__libc_start_main.o)
 .stack_transform.unwind
                0x0000000000000040       0x5c 0x4 /usr/local/popcorn/aarch64/lib/libmigrate.a(migrate.o)
 .stack_transform.unwind
                0x000000000000009c       0x20 0x4 /usr/local/popcorn/aarch64/lib/libmigrate.a(mapping.o)

.stack_transform.unwind_arange
                0x0000000000000000      0x100
 .stack_transform.unwind_arange
                0x0000000000000000       0x30 0x8 migrate_aarch64.o
 .stack_transform.unwind_arange
                0x0000000000000030       0x10 0x8 /usr/local/popcorn/aarch64/lib/libc.a(__libc_start_main.o)
 .stack_transform.unwind_arange
                0x0000000000000040       0x90 0x8 /usr/local/popcorn/aarch64/lib/libmigrate.a(migrate.o)
 .stack_transform.unwind_arange
                0x00000000000000d0       0x30 0x8 /usr/local/popcorn/aarch64/lib/libmigrate.a(mapping.o)

.gnu.build.attributes
 *(.gnu.build.attributes .gnu.build.attributes.*)

.debug
 *(.debug)

.line
 *(.line)

.debug_srcinfo
 *(.debug_srcinfo)

.debug_sfnames
 *(.debug_sfnames)

.debug_aranges  0x0000000000000000       0x60
 *(.debug_aranges)
 .debug_aranges
                0x0000000000000000       0x30 0x1 /usr/local/popcorn/aarch64/lib/libc.a(__set_thread_area.o)
 .debug_aranges
                0x0000000000000030       0x30 0x1 /usr/local/popcorn/aarch64/lib/libc.a(syscall.o)

.debug_pubnames
 *(.debug_pubnames)

.debug_info     0x0000000000000000    0x1ec27
 *(.debug_info .gnu.linkonce.wi.*)
 .debug_info    0x0000000000000000      0x122 0x1 migrate_aarch64.o
 .debug_info    0x0000000000000122       0x93 0x1 /usr/local/popcorn/aarch64/lib/crt1.o
 .debug_info    0x00000000000001b5      0x40d 0x1 /usr/local/popcorn/aarch64/lib/libc.a(__libc_start_main.o)
 .debug_info    0x00000000000005c2       0xb0 0x1 /usr/local/popcorn/aarch64/lib/libc.a(exit.o)
 .debug_info    0x0000000000000672      0x1d7 0x1 /usr/local/popcorn/aarch64/lib/libc.a(libc.o)
 .debug_info    0x0000000000000849       0xe8 0x1 /usr/local/popcorn/aarch64/lib/libc.a(printf.o)
 .debug_info    0x0000000000000931      0x337 0x1 /usr/local/popcorn/aarch64/lib/libc.a(stdout.o)
 .debug_info    0x0000000000000c68     0x118d 0x1 /usr/local/popcorn/aarch64/lib/libc.a(vfprintf.o)
 .debug_info    0x0000000000001df5      0x118 0x1 /usr/local/popcorn/aarch64/lib/libc.a(memset.o)
 .debug_info    0x0000000000001f0d       0x95 0x1 /usr/local/popcorn/aarch64/lib/libc.a(strnlen.o)
 .debug_info    0x0000000000001fa2       0xb5 0x1 /usr/local/popcorn/aarch64/lib/libc.a(gettid.o)
 .debug_info    0x0000000000002057       0xa0 0x1 /usr/local/popcorn/aarch64/lib/libc.a(sleep.o)
 .debug_info    0x00000000000020f7       0x45 0x1 /usr/local/popcorn/aarch64/lib/libc.a(__environ.o)
 .debug_info    0x000000000000213c      0x7fb 0x1 /usr/local/popcorn/aarch64/lib/libc.a(__init_tls.o)
 .debug_info    0x0000000000002937      0x3a8 0x1 /usr/local/popcorn/aarch64/lib/libc.a(__errno_location.o)
 .debug_info    0x0000000000002cdf      0x4a0 0x1 /usr/local/popcorn/aarch64/lib/libc.a(strerror.o)
 .debug_info    0x000000000000317f       0xff 0x1 /usr/local/popcorn/aarch64/lib/libc.a(_Exit.o)
 .debug_info    0x000000000000327e      0x46e 0x1 /usr/local/popcorn/aarch64/lib/libc.a(__lctrans.o)
 .debug_info    0x00000000000036ec      0x134 0x1 /usr/local/popcorn/aarch64/lib/libc.a(__fpclassifyl.o)
 .debug_info    0x0000000000003820      0x124 0x1 /usr/local/popcorn/aarch64/lib/libc.a(__signbitl.o)
 .debug_info    0x0000000000003944      0x149 0x1 /usr/local/popcorn/aarch64/lib/libc.a(frexpl.o)
 .debug_info    0x0000000000003a8d       0x88 0x1 /usr/local/popcorn/aarch64/lib/libc.a(wctomb.o)
 .debug_info    0x0000000000003b15      0x91f 0x1 /usr/local/popcorn/aarch64/lib/libc.a(__lockfile.o)
 .debug_info    0x0000000000004434      0x392 0x1 /usr/local/popcorn/aarch64/lib/libc.a(__stdio_close.o)
 .debug_info    0x00000000000047c6      0x3e6 0x1 /usr/local/popcorn/aarch64/lib/libc.a(__stdio_seek.o)
 .debug_info    0x0000000000004bac      0x42c 0x1 /usr/local/popcorn/aarch64/lib/libc.a(__stdout_write.o)
 .debug_info    0x0000000000004fd8      0x3d7 0x1 /usr/local/popcorn/aarch64/lib/libc.a(fwrite.o)
 .debug_info    0x00000000000053af       0xf3 0x1 /usr/local/popcorn/aarch64/lib/libc.a(memchr.o)
 .debug_info    0x00000000000054a2      0x112 0x1 /usr/local/popcorn/aarch64/lib/libc.a(memcpy.o)
 .debug_info    0x00000000000055b4      0x3db 0x1 /usr/local/popcorn/aarch64/lib/libc.a(__wait.o)
 .debug_info    0x000000000000598f      0x112 0x1 /usr/local/popcorn/aarch64/lib/libc.a(__set_thread_area.o)
 .debug_info    0x0000000000005aa1       0xaf 0x1 /usr/local/popcorn/aarch64/lib/libc.a(nanosleep.o)
 .debug_info    0x0000000000005b50       0x62 0x1 /usr/local/popcorn/aarch64/lib/libc.a(syscall_ret.o)
 .debug_info    0x0000000000005bb2      0x467 0x1 /usr/local/popcorn/aarch64/lib/libc.a(wcrtomb.o)
 .debug_info    0x0000000000006019      0x463 0x1 /usr/local/popcorn/aarch64/lib/libc.a(__stdio_write.o)
 .debug_info    0x000000000000647c      0x316 0x1 /usr/local/popcorn/aarch64/lib/libc.a(__towrite.o)
 .debug_info    0x0000000000006792      0x143 0x1 /usr/local/popcorn/aarch64/lib/libc.a(__syscall_cp.o)
 .debug_info    0x00000000000068d5      0x102 0x1 /usr/local/popcorn/aarch64/lib/libc.a(syscall.o)
 .debug_info    0x00000000000069d7      0x33c 0x1 /usr/local/popcorn/aarch64/lib/libc.a(__stdio_exit.o)
 .debug_info    0x0000000000006d13      0x341 0x1 /usr/local/popcorn/aarch64/lib/libc.a(ofl.o)
 .debug_info    0x0000000000007054      0x376 0x1 /usr/local/popcorn/aarch64/lib/libc.a(__lock.o)
 .debug_info    0x00000000000073ca      0x71e 0x1 /usr/local/popcorn/aarch64/lib/libmigrate.a(migrate.o)
 .debug_info    0x0000000000007ae8      0x291 0x1 /usr/local/popcorn/aarch64/lib/libmigrate.a(mapping.o)
 .debug_info    0x0000000000007d79      0xd10 0x1 /usr/local/popcorn/aarch64/lib/libstack-transform.a(userspace.o)
 .debug_info    0x0000000000008a89      0x865 0x1 /usr/local/popcorn/aarch64/lib/libstack-transform.a(init.o)
 .debug_info    0x00000000000092ee      0xf02 0x1 /usr/local/popcorn/aarch64/lib/libstack-transform.a(rewrite.o)
 .debug_info    0x000000000000a1f0      0xd40 0x1 /usr/local/popcorn/aarch64/lib/libstack-transform.a(unwind.o)
 .debug_info    0x000000000000af30      0xc42 0x1 /usr/local/popcorn/aarch64/lib/libstack-transform.a(util.o)
 .debug_info    0x000000000000bb72      0x1f3 0x1 /usr/local/popcorn/aarch64/lib/libstack-transform.a(properties.o)
 .debug_info    0x000000000000bd65      0x65a 0x1 /usr/local/popcorn/aarch64/lib/libstack-transform.a(regs.o)
 .debug_info    0x000000000000c3bf      0x20e 0x1 /usr/local/popcorn/aarch64/lib/libstack-transform.a(properties.o)
 .debug_info    0x000000000000c5cd      0x653 0x1 /usr/local/popcorn/aarch64/lib/libstack-transform.a(regs.o)
 .debug_info    0x000000000000cc20      0x1f3 0x1 /usr/local/popcorn/aarch64/lib/libstack-transform.a(properties.o)
 .debug_info    0x000000000000ce13      0x63b 0x1 /usr/local/popcorn/aarch64/lib/libstack-transform.a(regs.o)
 .debug_info    0x000000000000d44e      0x1f3 0x1 /usr/local/popcorn/aarch64/lib/libstack-transform.a(properties.o)
 .debug_info    0x000000000000d641      0x782 0x1 /usr/local/popcorn/aarch64/lib/libstack-transform.a(regs.o)
 .debug_info    0x000000000000ddc3      0xf42 0x1 /usr/local/popcorn/aarch64/lib/libstack-transform.a(data.o)
 .debug_info    0x000000000000ed05      0x20b 0x1 /usr/local/popcorn/aarch64/lib/libc.a(arch_crash.o)
 .debug_info    0x000000000000ef10       0xa5 0x1 /usr/local/popcorn/aarch64/lib/libc.a(getenv.o)
 .debug_info    0x000000000000efb5      0x292 0x1 /usr/local/popcorn/aarch64/lib/libc.a(platform.o)
 .debug_info    0x000000000000f247       0x95 0x1 /usr/local/popcorn/aarch64/lib/libc.a(assert.o)
 .debug_info    0x000000000000f2dc      0x1e2 0x1 /usr/local/popcorn/aarch64/lib/libc.a(open.o)
 .debug_info    0x000000000000f4be      0x136 0x1 /usr/local/popcorn/aarch64/lib/libc.a(calloc.o)
 .debug_info    0x000000000000f5f4      0x12d 0x1 /usr/local/popcorn/aarch64/lib/libc.a(lite_malloc.o)
 .debug_info    0x000000000000f721     0x1ee2 0x1 /usr/local/popcorn/aarch64/lib/libc.a(malloc.o)
 .debug_info    0x0000000000011603     0x302d 0x1 /usr/local/popcorn/aarch64/lib/libc.a(popcorn_malloc.o)
 .debug_info    0x0000000000014630      0x257 0x1 /usr/local/popcorn/aarch64/lib/libc.a(getrlimit.o)
 .debug_info    0x0000000000014887      0x14d 0x1 /usr/local/popcorn/aarch64/lib/libc.a(madvise.o)
 .debug_info    0x00000000000149d4      0x221 0x1 /usr/local/popcorn/aarch64/lib/libc.a(mmap.o)
 .debug_info    0x0000000000014bf5      0x234 0x1 /usr/local/popcorn/aarch64/lib/libc.a(mremap.o)
 .debug_info    0x0000000000014e29      0x12f 0x1 /usr/local/popcorn/aarch64/lib/libc.a(munmap.o)
 .debug_info    0x0000000000014f58      0x373 0x1 /usr/local/popcorn/aarch64/lib/libc.a(fclose.o)
 .debug_info    0x00000000000152cb      0x35c 0x1 /usr/local/popcorn/aarch64/lib/libc.a(fflush.o)
 .debug_info    0x0000000000015627      0x562 0x1 /usr/local/popcorn/aarch64/lib/libc.a(fopen.o)
 .debug_info    0x0000000000015b89      0x112 0x1 /usr/local/popcorn/aarch64/lib/libc.a(fprintf.o)
 .debug_info    0x0000000000015c9b      0x112 0x1 /usr/local/popcorn/aarch64/lib/libc.a(fscanf.o)
 .debug_info    0x0000000000015dad      0x3c7 0x1 /usr/local/popcorn/aarch64/lib/libc.a(fseek.o)
 .debug_info    0x0000000000016174      0x310 0x1 /usr/local/popcorn/aarch64/lib/libc.a(getc.o)
 .debug_info    0x0000000000016484       0xd1 0x1 /usr/local/popcorn/aarch64/lib/libc.a(getline.o)
 .debug_info    0x0000000000016555      0x334 0x1 /usr/local/popcorn/aarch64/lib/libc.a(perror.o)
 .debug_info    0x0000000000016889      0x122 0x1 /usr/local/popcorn/aarch64/lib/libc.a(snprintf.o)
 .debug_info    0x00000000000169ab       0xf7 0x1 /usr/local/popcorn/aarch64/lib/libc.a(sscanf.o)
 .debug_info    0x0000000000016aa2      0x336 0x1 /usr/local/popcorn/aarch64/lib/libc.a(stderr.o)
 .debug_info    0x0000000000016dd8      0x75f 0x1 /usr/local/popcorn/aarch64/lib/libc.a(vfscanf.o)
 .debug_info    0x0000000000017537      0x468 0x1 /usr/local/popcorn/aarch64/lib/libc.a(vsnprintf.o)
 .debug_info    0x000000000001799f      0x3d1 0x1 /usr/local/popcorn/aarch64/lib/libc.a(vsscanf.o)
 .debug_info    0x0000000000017d70       0xeb 0x1 /usr/local/popcorn/aarch64/lib/libc.a(bsearch.o)
 .debug_info    0x0000000000017e5b      0x673 0x1 /usr/local/popcorn/aarch64/lib/libc.a(qsort.o)
 .debug_info    0x00000000000184ce      0x5dc 0x1 /usr/local/popcorn/aarch64/lib/libc.a(strtol.o)
 .debug_info    0x0000000000018aaa       0x9b 0x1 /usr/local/popcorn/aarch64/lib/libc.a(strchr.o)
 .debug_info    0x0000000000018b45       0xcd 0x1 /usr/local/popcorn/aarch64/lib/libc.a(strchrnul.o)
 .debug_info    0x0000000000018c12       0x87 0x1 /usr/local/popcorn/aarch64/lib/libc.a(strcmp.o)
 .debug_info    0x0000000000018c99       0xb0 0x1 /usr/local/popcorn/aarch64/lib/libc.a(strlen.o)
 .debug_info    0x0000000000018d49       0xca 0x1 /usr/local/popcorn/aarch64/lib/libc.a(strncmp.o)
 .debug_info    0x0000000000018e13      0x5ba 0x1 /usr/local/popcorn/aarch64/lib/libc.a(pthread_attr_get.o)
 .debug_info    0x00000000000193cd      0x431 0x1 /usr/local/popcorn/aarch64/lib/libc.a(pthread_getattr_np.o)
 .debug_info    0x00000000000197fe      0x3e4 0x1 /usr/local/popcorn/aarch64/lib/libc.a(pthread_migrate.o)
 .debug_info    0x0000000000019be2      0x3af 0x1 /usr/local/popcorn/aarch64/lib/libc.a(pthread_self.o)
 .debug_info    0x0000000000019f91       0x98 0x1 /usr/local/popcorn/aarch64/lib/libc.a(close.o)
 .debug_info    0x000000000001a029       0xb5 0x1 /usr/local/popcorn/aarch64/lib/libc.a(getpid.o)
 .debug_info    0x000000000001a0de      0x145 0x1 /usr/local/popcorn/aarch64/lib/libc.a(lseek.o)
 .debug_info    0x000000000001a223       0x9e 0x1 /usr/local/popcorn/aarch64/lib/libc.a(read.o)
 .debug_info    0x000000000001a2c1       0x6e 0x1 /usr/local/popcorn/aarch64/lib/libc.a(abort.o)
 .debug_info    0x000000000001a32f      0x93c 0x1 /usr/local/popcorn/aarch64/lib/libc.a(floatscan.o)
 .debug_info    0x000000000001ac6b      0x3f0 0x1 /usr/local/popcorn/aarch64/lib/libc.a(intscan.o)
 .debug_info    0x000000000001b05b      0x340 0x1 /usr/local/popcorn/aarch64/lib/libc.a(shgetc.o)
 .debug_info    0x000000000001b39b      0x81e 0x1 /usr/local/popcorn/aarch64/lib/libc.a(expand_heap.o)
 .debug_info    0x000000000001bbb9       0x5a 0x1 /usr/local/popcorn/aarch64/lib/libc.a(fabs.o)
 .debug_info    0x000000000001bc13      0x13a 0x1 /usr/local/popcorn/aarch64/lib/libc.a(copysignl.o)
 .debug_info    0x000000000001bd4d      0x1cb 0x1 /usr/local/popcorn/aarch64/lib/libc.a(fmodl.o)
 .debug_info    0x000000000001bf18       0xc9 0x1 /usr/local/popcorn/aarch64/lib/libc.a(scalbn.o)
 .debug_info    0x000000000001bfe1      0x135 0x1 /usr/local/popcorn/aarch64/lib/libc.a(scalbnl.o)
 .debug_info    0x000000000001c116      0x517 0x1 /usr/local/popcorn/aarch64/lib/libc.a(mbrtowc.o)
 .debug_info    0x000000000001c62d       0xa1 0x1 /usr/local/popcorn/aarch64/lib/libc.a(mbsinit.o)
 .debug_info    0x000000000001c6ce      0x27a 0x1 /usr/local/popcorn/aarch64/lib/libc.a(block.o)
 .debug_info    0x000000000001c948      0x1b4 0x1 /usr/local/popcorn/aarch64/lib/libc.a(raise.o)
 .debug_info    0x000000000001cafc      0x59b 0x1 /usr/local/popcorn/aarch64/lib/libc.a(__fdopen.o)
 .debug_info    0x000000000001d097       0x7b 0x1 /usr/local/popcorn/aarch64/lib/libc.a(__fmodeflags.o)
 .debug_info    0x000000000001d112      0x431 0x1 /usr/local/popcorn/aarch64/lib/libc.a(__stdio_read.o)
 .debug_info    0x000000000001d543      0x34c 0x1 /usr/local/popcorn/aarch64/lib/libc.a(__string_read.o)
 .debug_info    0x000000000001d88f      0x310 0x1 /usr/local/popcorn/aarch64/lib/libc.a(__uflow.o)
 .debug_info    0x000000000001db9f      0x310 0x1 /usr/local/popcorn/aarch64/lib/libc.a(fputc.o)
 .debug_info    0x000000000001deaf      0x3d0 0x1 /usr/local/popcorn/aarch64/lib/libc.a(getdelim.o)
 .debug_info    0x000000000001e27f      0x315 0x1 /usr/local/popcorn/aarch64/lib/libc.a(ofl_add.o)
 .debug_info    0x000000000001e594       0x5e 0x1 /usr/local/popcorn/aarch64/lib/libc.a(internal.o)
 .debug_info    0x000000000001e5f2      0x31f 0x1 /usr/local/popcorn/aarch64/lib/libc.a(__overflow.o)
 .debug_info    0x000000000001e911      0x316 0x1 /usr/local/popcorn/aarch64/lib/libc.a(__toread.o)

.debug_abbrev   0x0000000000000000     0x7465
 *(.debug_abbrev)
 .debug_abbrev  0x0000000000000000       0x8d 0x1 migrate_aarch64.o
 .debug_abbrev  0x000000000000008d       0x5e 0x1 /usr/local/popcorn/aarch64/lib/crt1.o
 .debug_abbrev  0x00000000000000eb      0x1a7 0x1 /usr/local/popcorn/aarch64/lib/libc.a(__libc_start_main.o)
 .debug_abbrev  0x0000000000000292       0x97 0x1 /usr/local/popcorn/aarch64/lib/libc.a(exit.o)
 .debug_abbrev  0x0000000000000329       0x93 0x1 /usr/local/popcorn/aarch64/lib/libc.a(libc.o)
 .debug_abbrev  0x00000000000003bc       0xa9 0x1 /usr/local/popcorn/aarch64/lib/libc.a(printf.o)
 .debug_abbrev  0x0000000000000465       0xc8 0x1 /usr/local/popcorn/aarch64/lib/libc.a(stdout.o)
 .debug_abbrev  0x000000000000052d      0x266 0x1 /usr/local/popcorn/aarch64/lib/libc.a(vfprintf.o)
 .debug_abbrev  0x0000000000000793       0x7c 0x1 /usr/local/popcorn/aarch64/lib/libc.a(memset.o)
 .debug_abbrev  0x000000000000080f       0x6f 0x1 /usr/local/popcorn/aarch64/lib/libc.a(strnlen.o)
 .debug_abbrev  0x000000000000087e       0x98 0x1 /usr/local/popcorn/aarch64/lib/libc.a(gettid.o)
 .debug_abbrev  0x0000000000000916       0x7d 0x1 /usr/local/popcorn/aarch64/lib/libc.a(sleep.o)
 .debug_abbrev  0x0000000000000993       0x33 0x1 /usr/local/popcorn/aarch64/lib/libc.a(__environ.o)
 .debug_abbrev  0x00000000000009c6      0x1b3 0x1 /usr/local/popcorn/aarch64/lib/libc.a(__init_tls.o)
 .debug_abbrev  0x0000000000000b79      0x123 0x1 /usr/local/popcorn/aarch64/lib/libc.a(__errno_location.o)
 .debug_abbrev  0x0000000000000c9c      0x155 0x1 /usr/local/popcorn/aarch64/lib/libc.a(strerror.o)
 .debug_abbrev  0x0000000000000df1       0xaf 0x1 /usr/local/popcorn/aarch64/lib/libc.a(_Exit.o)
 .debug_abbrev  0x0000000000000ea0      0x152 0x1 /usr/local/popcorn/aarch64/lib/libc.a(__lctrans.o)
 .debug_abbrev  0x0000000000000ff2       0x88 0x1 /usr/local/popcorn/aarch64/lib/libc.a(__fpclassifyl.o)
 .debug_abbrev  0x000000000000107a       0x88 0x1 /usr/local/popcorn/aarch64/lib/libc.a(__signbitl.o)
 .debug_abbrev  0x0000000000001102       0x8f 0x1 /usr/local/popcorn/aarch64/lib/libc.a(frexpl.o)
 .debug_abbrev  0x0000000000001191       0x59 0x1 /usr/local/popcorn/aarch64/lib/libc.a(wctomb.o)
 .debug_abbrev  0x00000000000011ea      0x1c2 0x1 /usr/local/popcorn/aarch64/lib/libc.a(__lockfile.o)
 .debug_abbrev  0x00000000000013ac      0x139 0x1 /usr/local/popcorn/aarch64/lib/libc.a(__stdio_close.o)
 .debug_abbrev  0x00000000000014e5      0x129 0x1 /usr/local/popcorn/aarch64/lib/libc.a(__stdio_seek.o)
 .debug_abbrev  0x000000000000160e      0x117 0x1 /usr/local/popcorn/aarch64/lib/libc.a(__stdout_write.o)
 .debug_abbrev  0x0000000000001725       0xf8 0x1 /usr/local/popcorn/aarch64/lib/libc.a(fwrite.o)
 .debug_abbrev  0x000000000000181d       0x82 0x1 /usr/local/popcorn/aarch64/lib/libc.a(memchr.o)
 .debug_abbrev  0x000000000000189f       0x8f 0x1 /usr/local/popcorn/aarch64/lib/libc.a(memcpy.o)
 .debug_abbrev  0x000000000000192e       0xdb 0x1 /usr/local/popcorn/aarch64/lib/libc.a(__wait.o)
 .debug_abbrev  0x0000000000001a09       0x28 0x1 /usr/local/popcorn/aarch64/lib/libc.a(__set_thread_area.o)
 .debug_abbrev  0x0000000000001a31       0x7c 0x1 /usr/local/popcorn/aarch64/lib/libc.a(nanosleep.o)
 .debug_abbrev  0x0000000000001aad       0x45 0x1 /usr/local/popcorn/aarch64/lib/libc.a(syscall_ret.o)
 .debug_abbrev  0x0000000000001af2      0x151 0x1 /usr/local/popcorn/aarch64/lib/libc.a(wcrtomb.o)
 .debug_abbrev  0x0000000000001c43      0x14f 0x1 /usr/local/popcorn/aarch64/lib/libc.a(__stdio_write.o)
 .debug_abbrev  0x0000000000001d92       0xdc 0x1 /usr/local/popcorn/aarch64/lib/libc.a(__towrite.o)
 .debug_abbrev  0x0000000000001e6e       0x67 0x1 /usr/local/popcorn/aarch64/lib/libc.a(__syscall_cp.o)
 .debug_abbrev  0x0000000000001ed5       0x28 0x1 /usr/local/popcorn/aarch64/lib/libc.a(syscall.o)
 .debug_abbrev  0x0000000000001efd       0xf8 0x1 /usr/local/popcorn/aarch64/lib/libc.a(__stdio_exit.o)
 .debug_abbrev  0x0000000000001ff5       0xde 0x1 /usr/local/popcorn/aarch64/lib/libc.a(ofl.o)
 .debug_abbrev  0x00000000000020d3       0xd1 0x1 /usr/local/popcorn/aarch64/lib/libc.a(__lock.o)
 .debug_abbrev  0x00000000000021a4      0x1c2 0x1 /usr/local/popcorn/aarch64/lib/libmigrate.a(migrate.o)
 .debug_abbrev  0x0000000000002366       0xdb 0x1 /usr/local/popcorn/aarch64/lib/libmigrate.a(mapping.o)
 .debug_abbrev  0x0000000000002441      0x210 0x1 /usr/local/popcorn/aarch64/lib/libstack-transform.a(userspace.o)
 .debug_abbrev  0x0000000000002651      0x14e 0x1 /usr/local/popcorn/aarch64/lib/libstack-transform.a(init.o)
 .debug_abbrev  0x000000000000279f      0x233 0x1 /usr/local/popcorn/aarch64/lib/libstack-transform.a(rewrite.o)
 .debug_abbrev  0x00000000000029d2      0x1d1 0x1 /usr/local/popcorn/aarch64/lib/libstack-transform.a(unwind.o)
 .debug_abbrev  0x0000000000002ba3      0x19c 0x1 /usr/local/popcorn/aarch64/lib/libstack-transform.a(util.o)
 .debug_abbrev  0x0000000000002d3f       0xca 0x1 /usr/local/popcorn/aarch64/lib/libstack-transform.a(properties.o)
 .debug_abbrev  0x0000000000002e09      0x139 0x1 /usr/local/popcorn/aarch64/lib/libstack-transform.a(regs.o)
 .debug_abbrev  0x0000000000002f42       0xd9 0x1 /usr/local/popcorn/aarch64/lib/libstack-transform.a(properties.o)
 .debug_abbrev  0x000000000000301b      0x139 0x1 /usr/local/popcorn/aarch64/lib/libstack-transform.a(regs.o)
 .debug_abbrev  0x0000000000003154       0xca 0x1 /usr/local/popcorn/aarch64/lib/libstack-transform.a(properties.o)
 .debug_abbrev  0x000000000000321e      0x139 0x1 /usr/local/popcorn/aarch64/lib/libstack-transform.a(regs.o)
 .debug_abbrev  0x0000000000003357       0xca 0x1 /usr/local/popcorn/aarch64/lib/libstack-transform.a(properties.o)
 .debug_abbrev  0x0000000000003421      0x139 0x1 /usr/local/popcorn/aarch64/lib/libstack-transform.a(regs.o)
 .debug_abbrev  0x000000000000355a      0x211 0x1 /usr/local/popcorn/aarch64/lib/libstack-transform.a(data.o)
 .debug_abbrev  0x000000000000376b       0x8c 0x1 /usr/local/popcorn/aarch64/lib/libc.a(arch_crash.o)
 .debug_abbrev  0x00000000000037f7       0x76 0x1 /usr/local/popcorn/aarch64/lib/libc.a(getenv.o)
 .debug_abbrev  0x000000000000386d       0xec 0x1 /usr/local/popcorn/aarch64/lib/libc.a(platform.o)
 .debug_abbrev  0x0000000000003959       0x54 0x1 /usr/local/popcorn/aarch64/lib/libc.a(assert.o)
 .debug_abbrev  0x00000000000039ad       0xea 0x1 /usr/local/popcorn/aarch64/lib/libc.a(open.o)
 .debug_abbrev  0x0000000000003a97       0xa3 0x1 /usr/local/popcorn/aarch64/lib/libc.a(calloc.o)
 .debug_abbrev  0x0000000000003b3a       0xa3 0x1 /usr/local/popcorn/aarch64/lib/libc.a(lite_malloc.o)
 .debug_abbrev  0x0000000000003bdd      0x2a6 0x1 /usr/local/popcorn/aarch64/lib/libc.a(malloc.o)
 .debug_abbrev  0x0000000000003e83      0x29f 0x1 /usr/local/popcorn/aarch64/lib/libc.a(popcorn_malloc.o)
 .debug_abbrev  0x0000000000004122      0x10e 0x1 /usr/local/popcorn/aarch64/lib/libc.a(getrlimit.o)
 .debug_abbrev  0x0000000000004230       0xa3 0x1 /usr/local/popcorn/aarch64/lib/libc.a(madvise.o)
 .debug_abbrev  0x00000000000042d3       0xc5 0x1 /usr/local/popcorn/aarch64/lib/libc.a(mmap.o)
 .debug_abbrev  0x0000000000004398       0xe6 0x1 /usr/local/popcorn/aarch64/lib/libc.a(mremap.o)
 .debug_abbrev  0x000000000000447e       0xca 0x1 /usr/local/popcorn/aarch64/lib/libc.a(munmap.o)
 .debug_abbrev  0x0000000000004548      0x103 0x1 /usr/local/popcorn/aarch64/lib/libc.a(fclose.o)
 .debug_abbrev  0x000000000000464b       0xf7 0x1 /usr/local/popcorn/aarch64/lib/libc.a(fflush.o)
 .debug_abbrev  0x0000000000004742      0x13c 0x1 /usr/local/popcorn/aarch64/lib/libc.a(fopen.o)
 .debug_abbrev  0x000000000000487e       0xbf 0x1 /usr/local/popcorn/aarch64/lib/libc.a(fprintf.o)
 .debug_abbrev  0x000000000000493d       0xbf 0x1 /usr/local/popcorn/aarch64/lib/libc.a(fscanf.o)
 .debug_abbrev  0x00000000000049fc       0xe5 0x1 /usr/local/popcorn/aarch64/lib/libc.a(fseek.o)
 .debug_abbrev  0x0000000000004ae1       0xd8 0x1 /usr/local/popcorn/aarch64/lib/libc.a(getc.o)
 .debug_abbrev  0x0000000000004bb9       0x76 0x1 /usr/local/popcorn/aarch64/lib/libc.a(getline.o)
 .debug_abbrev  0x0000000000004c2f       0xd6 0x1 /usr/local/popcorn/aarch64/lib/libc.a(perror.o)
 .debug_abbrev  0x0000000000004d05       0xa9 0x1 /usr/local/popcorn/aarch64/lib/libc.a(snprintf.o)
 .debug_abbrev  0x0000000000004dae       0xa9 0x1 /usr/local/popcorn/aarch64/lib/libc.a(sscanf.o)
 .debug_abbrev  0x0000000000004e57       0xbf 0x1 /usr/local/popcorn/aarch64/lib/libc.a(stderr.o)
 .debug_abbrev  0x0000000000004f16      0x1cc 0x1 /usr/local/popcorn/aarch64/lib/libc.a(vfscanf.o)
 .debug_abbrev  0x00000000000050e2      0x12d 0x1 /usr/local/popcorn/aarch64/lib/libc.a(vsnprintf.o)
 .debug_abbrev  0x000000000000520f      0x111 0x1 /usr/local/popcorn/aarch64/lib/libc.a(vsscanf.o)
 .debug_abbrev  0x0000000000005320       0x8f 0x1 /usr/local/popcorn/aarch64/lib/libc.a(bsearch.o)
 .debug_abbrev  0x00000000000053af      0x181 0x1 /usr/local/popcorn/aarch64/lib/libc.a(qsort.o)
 .debug_abbrev  0x0000000000005530      0x144 0x1 /usr/local/popcorn/aarch64/lib/libc.a(strtol.o)
 .debug_abbrev  0x0000000000005674       0x62 0x1 /usr/local/popcorn/aarch64/lib/libc.a(strchr.o)
 .debug_abbrev  0x00000000000056d6       0x74 0x1 /usr/local/popcorn/aarch64/lib/libc.a(strchrnul.o)
 .debug_abbrev  0x000000000000574a       0x53 0x1 /usr/local/popcorn/aarch64/lib/libc.a(strcmp.o)
 .debug_abbrev  0x000000000000579d       0x74 0x1 /usr/local/popcorn/aarch64/lib/libc.a(strlen.o)
 .debug_abbrev  0x0000000000005811       0x83 0x1 /usr/local/popcorn/aarch64/lib/libc.a(strncmp.o)
 .debug_abbrev  0x0000000000005894      0x103 0x1 /usr/local/popcorn/aarch64/lib/libc.a(pthread_attr_get.o)
 .debug_abbrev  0x0000000000005997      0x11f 0x1 /usr/local/popcorn/aarch64/lib/libc.a(pthread_getattr_np.o)
 .debug_abbrev  0x0000000000005ab6      0x145 0x1 /usr/local/popcorn/aarch64/lib/libc.a(pthread_migrate.o)
 .debug_abbrev  0x0000000000005bfb      0x11f 0x1 /usr/local/popcorn/aarch64/lib/libc.a(pthread_self.o)
 .debug_abbrev  0x0000000000005d1a       0x78 0x1 /usr/local/popcorn/aarch64/lib/libc.a(close.o)
 .debug_abbrev  0x0000000000005d92       0x98 0x1 /usr/local/popcorn/aarch64/lib/libc.a(getpid.o)
 .debug_abbrev  0x0000000000005e2a       0x9e 0x1 /usr/local/popcorn/aarch64/lib/libc.a(lseek.o)
 .debug_abbrev  0x0000000000005ec8       0x57 0x1 /usr/local/popcorn/aarch64/lib/libc.a(read.o)
 .debug_abbrev  0x0000000000005f1f       0x63 0x1 /usr/local/popcorn/aarch64/lib/libc.a(abort.o)
 .debug_abbrev  0x0000000000005f82      0x1d1 0x1 /usr/local/popcorn/aarch64/lib/libc.a(floatscan.o)
 .debug_abbrev  0x0000000000006153      0x147 0x1 /usr/local/popcorn/aarch64/lib/libc.a(intscan.o)
 .debug_abbrev  0x000000000000629a       0xfc 0x1 /usr/local/popcorn/aarch64/lib/libc.a(shgetc.o)
 .debug_abbrev  0x0000000000006396      0x14b 0x1 /usr/local/popcorn/aarch64/lib/libc.a(expand_heap.o)
 .debug_abbrev  0x00000000000064e1       0x45 0x1 /usr/local/popcorn/aarch64/lib/libc.a(fabs.o)
 .debug_abbrev  0x0000000000006526       0x97 0x1 /usr/local/popcorn/aarch64/lib/libc.a(copysignl.o)
 .debug_abbrev  0x00000000000065bd       0x88 0x1 /usr/local/popcorn/aarch64/lib/libc.a(fmodl.o)
 .debug_abbrev  0x0000000000006645       0x7b 0x1 /usr/local/popcorn/aarch64/lib/libc.a(scalbn.o)
 .debug_abbrev  0x00000000000066c0       0x88 0x1 /usr/local/popcorn/aarch64/lib/libc.a(scalbnl.o)
 .debug_abbrev  0x0000000000006748      0x17c 0x1 /usr/local/popcorn/aarch64/lib/libc.a(mbrtowc.o)
 .debug_abbrev  0x00000000000068c4       0x7c 0x1 /usr/local/popcorn/aarch64/lib/libc.a(mbsinit.o)
 .debug_abbrev  0x0000000000006940       0xeb 0x1 /usr/local/popcorn/aarch64/lib/libc.a(block.o)
 .debug_abbrev  0x0000000000006a2b       0xf8 0x1 /usr/local/popcorn/aarch64/lib/libc.a(raise.o)
 .debug_abbrev  0x0000000000006b23      0x13e 0x1 /usr/local/popcorn/aarch64/lib/libc.a(__fdopen.o)
 .debug_abbrev  0x0000000000006c61       0x62 0x1 /usr/local/popcorn/aarch64/lib/libc.a(__fmodeflags.o)
 .debug_abbrev  0x0000000000006cc3      0x14f 0x1 /usr/local/popcorn/aarch64/lib/libc.a(__stdio_read.o)
 .debug_abbrev  0x0000000000006e12       0xd8 0x1 /usr/local/popcorn/aarch64/lib/libc.a(__string_read.o)
 .debug_abbrev  0x0000000000006eea       0xd8 0x1 /usr/local/popcorn/aarch64/lib/libc.a(__uflow.o)
 .debug_abbrev  0x0000000000006fc2       0xc9 0x1 /usr/local/popcorn/aarch64/lib/libc.a(fputc.o)
 .debug_abbrev  0x000000000000708b       0xf3 0x1 /usr/local/popcorn/aarch64/lib/libc.a(getdelim.o)
 .debug_abbrev  0x000000000000717e       0xd8 0x1 /usr/local/popcorn/aarch64/lib/libc.a(ofl_add.o)
 .debug_abbrev  0x0000000000007256       0x5b 0x1 /usr/local/popcorn/aarch64/lib/libc.a(internal.o)
 .debug_abbrev  0x00000000000072b1       0xd8 0x1 /usr/local/popcorn/aarch64/lib/libc.a(__overflow.o)
 .debug_abbrev  0x0000000000007389       0xdc 0x1 /usr/local/popcorn/aarch64/lib/libc.a(__toread.o)

.debug_line     0x0000000000000000     0xf2b1
 *(.debug_line .debug_line.* .debug_line_end)
 .debug_line    0x0000000000000000       0xf9 0x1 migrate_aarch64.o
 .debug_line    0x00000000000000f9       0x49 0x1 /usr/local/popcorn/aarch64/lib/crt1.o
 .debug_line    0x0000000000000142      0x26e 0x1 /usr/local/popcorn/aarch64/lib/libc.a(__libc_start_main.o)
 .debug_line    0x00000000000003b0       0xb0 0x1 /usr/local/popcorn/aarch64/lib/libc.a(exit.o)
 .debug_line    0x0000000000000460       0x6d 0x1 /usr/local/popcorn/aarch64/lib/libc.a(libc.o)
 .debug_line    0x00000000000004cd       0x89 0x1 /usr/local/popcorn/aarch64/lib/libc.a(printf.o)
 .debug_line    0x0000000000000556       0x7c 0x1 /usr/local/popcorn/aarch64/lib/libc.a(stdout.o)
 .debug_line    0x00000000000005d2     0x12e4 0x1 /usr/local/popcorn/aarch64/lib/libc.a(vfprintf.o)
 .debug_line    0x00000000000018b6      0x14d 0x1 /usr/local/popcorn/aarch64/lib/libc.a(memset.o)
 .debug_line    0x0000000000001a03       0x74 0x1 /usr/local/popcorn/aarch64/lib/libc.a(strnlen.o)
 .debug_line    0x0000000000001a77       0x93 0x1 /usr/local/popcorn/aarch64/lib/libc.a(gettid.o)
 .debug_line    0x0000000000001b0a       0x7d 0x1 /usr/local/popcorn/aarch64/lib/libc.a(sleep.o)
 .debug_line    0x0000000000001b87       0x35 0x1 /usr/local/popcorn/aarch64/lib/libc.a(__environ.o)
 .debug_line    0x0000000000001bbc      0x298 0x1 /usr/local/popcorn/aarch64/lib/libc.a(__init_tls.o)
 .debug_line    0x0000000000001e54       0xe0 0x1 /usr/local/popcorn/aarch64/lib/libc.a(__errno_location.o)
 .debug_line    0x0000000000001f34      0x13b 0x1 /usr/local/popcorn/aarch64/lib/libc.a(strerror.o)
 .debug_line    0x000000000000206f       0x75 0x1 /usr/local/popcorn/aarch64/lib/libc.a(_Exit.o)
 .debug_line    0x00000000000020e4      0x11d 0x1 /usr/local/popcorn/aarch64/lib/libc.a(__lctrans.o)
 .debug_line    0x0000000000002201       0xb4 0x1 /usr/local/popcorn/aarch64/lib/libc.a(__fpclassifyl.o)
 .debug_line    0x00000000000022b5       0x88 0x1 /usr/local/popcorn/aarch64/lib/libc.a(__signbitl.o)
 .debug_line    0x000000000000233d       0xca 0x1 /usr/local/popcorn/aarch64/lib/libc.a(frexpl.o)
 .debug_line    0x0000000000002407       0x77 0x1 /usr/local/popcorn/aarch64/lib/libc.a(wctomb.o)
 .debug_line    0x000000000000247e      0x1a9 0x1 /usr/local/popcorn/aarch64/lib/libc.a(__lockfile.o)
 .debug_line    0x0000000000002627       0xf0 0x1 /usr/local/popcorn/aarch64/lib/libc.a(__stdio_close.o)
 .debug_line    0x0000000000002717       0xc6 0x1 /usr/local/popcorn/aarch64/lib/libc.a(__stdio_seek.o)
 .debug_line    0x00000000000027dd      0x109 0x1 /usr/local/popcorn/aarch64/lib/libc.a(__stdout_write.o)
 .debug_line    0x00000000000028e6      0x146 0x1 /usr/local/popcorn/aarch64/lib/libc.a(fwrite.o)
 .debug_line    0x0000000000002a2c       0xd3 0x1 /usr/local/popcorn/aarch64/lib/libc.a(memchr.o)
 .debug_line    0x0000000000002aff      0x31a 0x1 /usr/local/popcorn/aarch64/lib/libc.a(memcpy.o)
 .debug_line    0x0000000000002e19      0x138 0x1 /usr/local/popcorn/aarch64/lib/libc.a(__wait.o)
 .debug_line    0x0000000000002f51       0x5b 0x1 /usr/local/popcorn/aarch64/lib/libc.a(__set_thread_area.o)
 .debug_line    0x0000000000002fac       0x6f 0x1 /usr/local/popcorn/aarch64/lib/libc.a(nanosleep.o)
 .debug_line    0x000000000000301b       0x60 0x1 /usr/local/popcorn/aarch64/lib/libc.a(syscall_ret.o)
 .debug_line    0x000000000000307b      0x15f 0x1 /usr/local/popcorn/aarch64/lib/libc.a(wcrtomb.o)
 .debug_line    0x00000000000031da      0x198 0x1 /usr/local/popcorn/aarch64/lib/libc.a(__stdio_write.o)
 .debug_line    0x0000000000003372       0xe2 0x1 /usr/local/popcorn/aarch64/lib/libc.a(__towrite.o)
 .debug_line    0x0000000000003454       0x85 0x1 /usr/local/popcorn/aarch64/lib/libc.a(__syscall_cp.o)
 .debug_line    0x00000000000034d9       0x5a 0x1 /usr/local/popcorn/aarch64/lib/libc.a(syscall.o)
 .debug_line    0x0000000000003533      0x103 0x1 /usr/local/popcorn/aarch64/lib/libc.a(__stdio_exit.o)
 .debug_line    0x0000000000003636       0xaa 0x1 /usr/local/popcorn/aarch64/lib/libc.a(ofl.o)
 .debug_line    0x00000000000036e0      0x127 0x1 /usr/local/popcorn/aarch64/lib/libc.a(__lock.o)
 .debug_line    0x0000000000003807      0x54c 0x1 /usr/local/popcorn/aarch64/lib/libmigrate.a(migrate.o)
 .debug_line    0x0000000000003d53      0x356 0x1 /usr/local/popcorn/aarch64/lib/libmigrate.a(mapping.o)
 .debug_line    0x00000000000040a9      0x553 0x1 /usr/local/popcorn/aarch64/lib/libstack-transform.a(userspace.o)
 .debug_line    0x00000000000045fc      0x31c 0x1 /usr/local/popcorn/aarch64/lib/libstack-transform.a(init.o)
 .debug_line    0x0000000000004918      0x852 0x1 /usr/local/popcorn/aarch64/lib/libstack-transform.a(rewrite.o)
 .debug_line    0x000000000000516a      0x55d 0x1 /usr/local/popcorn/aarch64/lib/libstack-transform.a(unwind.o)
 .debug_line    0x00000000000056c7      0x4b1 0x1 /usr/local/popcorn/aarch64/lib/libstack-transform.a(util.o)
 .debug_line    0x0000000000005b78      0x107 0x1 /usr/local/popcorn/aarch64/lib/libstack-transform.a(properties.o)
 .debug_line    0x0000000000005c7f      0x544 0x1 /usr/local/popcorn/aarch64/lib/libstack-transform.a(regs.o)
 .debug_line    0x00000000000061c3      0x119 0x1 /usr/local/popcorn/aarch64/lib/libstack-transform.a(properties.o)
 .debug_line    0x00000000000062dc      0x4c4 0x1 /usr/local/popcorn/aarch64/lib/libstack-transform.a(regs.o)
 .debug_line    0x00000000000067a0      0x107 0x1 /usr/local/popcorn/aarch64/lib/libstack-transform.a(properties.o)
 .debug_line    0x00000000000068a7      0x2b0 0x1 /usr/local/popcorn/aarch64/lib/libstack-transform.a(regs.o)
 .debug_line    0x0000000000006b57       0xfd 0x1 /usr/local/popcorn/aarch64/lib/libstack-transform.a(properties.o)
 .debug_line    0x0000000000006c54      0x3f7 0x1 /usr/local/popcorn/aarch64/lib/libstack-transform.a(regs.o)
 .debug_line    0x000000000000704b      0x94d 0x1 /usr/local/popcorn/aarch64/lib/libstack-transform.a(data.o)
 .debug_line    0x0000000000007998       0xba 0x1 /usr/local/popcorn/aarch64/lib/libc.a(arch_crash.o)
 .debug_line    0x0000000000007a52       0xae 0x1 /usr/local/popcorn/aarch64/lib/libc.a(getenv.o)
 .debug_line    0x0000000000007b00      0x123 0x1 /usr/local/popcorn/aarch64/lib/libc.a(platform.o)
 .debug_line    0x0000000000007c23       0x56 0x1 /usr/local/popcorn/aarch64/lib/libc.a(assert.o)
 .debug_line    0x0000000000007c79       0xc8 0x1 /usr/local/popcorn/aarch64/lib/libc.a(open.o)
 .debug_line    0x0000000000007d41      0x121 0x1 /usr/local/popcorn/aarch64/lib/libc.a(calloc.o)
 .debug_line    0x0000000000007e62       0xfd 0x1 /usr/local/popcorn/aarch64/lib/libc.a(lite_malloc.o)
 .debug_line    0x0000000000007f5f      0xdca 0x1 /usr/local/popcorn/aarch64/lib/libc.a(malloc.o)
 .debug_line    0x0000000000008d29     0x12fb 0x1 /usr/local/popcorn/aarch64/lib/libc.a(popcorn_malloc.o)
 .debug_line    0x000000000000a024       0xfb 0x1 /usr/local/popcorn/aarch64/lib/libc.a(getrlimit.o)
 .debug_line    0x000000000000a11f       0xa6 0x1 /usr/local/popcorn/aarch64/lib/libc.a(madvise.o)
 .debug_line    0x000000000000a1c5       0xf4 0x1 /usr/local/popcorn/aarch64/lib/libc.a(mmap.o)
 .debug_line    0x000000000000a2b9       0xec 0x1 /usr/local/popcorn/aarch64/lib/libc.a(mremap.o)
 .debug_line    0x000000000000a3a5       0xae 0x1 /usr/local/popcorn/aarch64/lib/libc.a(munmap.o)
 .debug_line    0x000000000000a453      0x104 0x1 /usr/local/popcorn/aarch64/lib/libc.a(fclose.o)
 .debug_line    0x000000000000a557      0x139 0x1 /usr/local/popcorn/aarch64/lib/libc.a(fflush.o)
 .debug_line    0x000000000000a690      0x119 0x1 /usr/local/popcorn/aarch64/lib/libc.a(fopen.o)
 .debug_line    0x000000000000a7a9       0x72 0x1 /usr/local/popcorn/aarch64/lib/libc.a(fprintf.o)
 .debug_line    0x000000000000a81b       0x71 0x1 /usr/local/popcorn/aarch64/lib/libc.a(fscanf.o)
 .debug_line    0x000000000000a88c      0x129 0x1 /usr/local/popcorn/aarch64/lib/libc.a(fseek.o)
 .debug_line    0x000000000000a9b5       0xab 0x1 /usr/local/popcorn/aarch64/lib/libc.a(getc.o)
 .debug_line    0x000000000000aa60       0x69 0x1 /usr/local/popcorn/aarch64/lib/libc.a(getline.o)
 .debug_line    0x000000000000aac9       0xd4 0x1 /usr/local/popcorn/aarch64/lib/libc.a(perror.o)
 .debug_line    0x000000000000ab9d       0x73 0x1 /usr/local/popcorn/aarch64/lib/libc.a(snprintf.o)
 .debug_line    0x000000000000ac10       0x71 0x1 /usr/local/popcorn/aarch64/lib/libc.a(sscanf.o)
 .debug_line    0x000000000000ac81       0x7c 0x1 /usr/local/popcorn/aarch64/lib/libc.a(stderr.o)
 .debug_line    0x000000000000acfd      0x71f 0x1 /usr/local/popcorn/aarch64/lib/libc.a(vfscanf.o)
 .debug_line    0x000000000000b41c      0x133 0x1 /usr/local/popcorn/aarch64/lib/libc.a(vsnprintf.o)
 .debug_line    0x000000000000b54f       0xb8 0x1 /usr/local/popcorn/aarch64/lib/libc.a(vsscanf.o)
 .debug_line    0x000000000000b607       0x92 0x1 /usr/local/popcorn/aarch64/lib/libc.a(bsearch.o)
 .debug_line    0x000000000000b699      0x4ac 0x1 /usr/local/popcorn/aarch64/lib/libc.a(qsort.o)
 .debug_line    0x000000000000bb45      0x172 0x1 /usr/local/popcorn/aarch64/lib/libc.a(strtol.o)
 .debug_line    0x000000000000bcb7       0x57 0x1 /usr/local/popcorn/aarch64/lib/libc.a(strchr.o)
 .debug_line    0x000000000000bd0e       0xcc 0x1 /usr/local/popcorn/aarch64/lib/libc.a(strchrnul.o)
 .debug_line    0x000000000000bdda       0x62 0x1 /usr/local/popcorn/aarch64/lib/libc.a(strcmp.o)
 .debug_line    0x000000000000be3c       0xb6 0x1 /usr/local/popcorn/aarch64/lib/libc.a(strlen.o)
 .debug_line    0x000000000000bef2       0xa2 0x1 /usr/local/popcorn/aarch64/lib/libc.a(strncmp.o)
 .debug_line    0x000000000000bf94      0x2af 0x1 /usr/local/popcorn/aarch64/lib/libc.a(pthread_attr_get.o)
 .debug_line    0x000000000000c243      0x13f 0x1 /usr/local/popcorn/aarch64/lib/libc.a(pthread_getattr_np.o)
 .debug_line    0x000000000000c382      0x105 0x1 /usr/local/popcorn/aarch64/lib/libc.a(pthread_migrate.o)
 .debug_line    0x000000000000c487       0xdc 0x1 /usr/local/popcorn/aarch64/lib/libc.a(pthread_self.o)
 .debug_line    0x000000000000c563       0x6e 0x1 /usr/local/popcorn/aarch64/lib/libc.a(close.o)
 .debug_line    0x000000000000c5d1       0x93 0x1 /usr/local/popcorn/aarch64/lib/libc.a(getpid.o)
 .debug_line    0x000000000000c664       0xa2 0x1 /usr/local/popcorn/aarch64/lib/libc.a(lseek.o)
 .debug_line    0x000000000000c706       0x67 0x1 /usr/local/popcorn/aarch64/lib/libc.a(read.o)
 .debug_line    0x000000000000c76d       0x75 0x1 /usr/local/popcorn/aarch64/lib/libc.a(abort.o)
 .debug_line    0x000000000000c7e2      0xf0a 0x1 /usr/local/popcorn/aarch64/lib/libc.a(floatscan.o)
 .debug_line    0x000000000000d6ec      0x3db 0x1 /usr/local/popcorn/aarch64/lib/libc.a(intscan.o)
 .debug_line    0x000000000000dac7      0x14a 0x1 /usr/local/popcorn/aarch64/lib/libc.a(shgetc.o)
 .debug_line    0x000000000000dc11      0x453 0x1 /usr/local/popcorn/aarch64/lib/libc.a(expand_heap.o)
 .debug_line    0x000000000000e064       0x4f 0x1 /usr/local/popcorn/aarch64/lib/libc.a(fabs.o)
 .debug_line    0x000000000000e0b3       0x96 0x1 /usr/local/popcorn/aarch64/lib/libc.a(copysignl.o)
 .debug_line    0x000000000000e149      0x1c4 0x1 /usr/local/popcorn/aarch64/lib/libc.a(fmodl.o)
 .debug_line    0x000000000000e30d       0xe1 0x1 /usr/local/popcorn/aarch64/lib/libc.a(scalbn.o)
 .debug_line    0x000000000000e3ee       0xff 0x1 /usr/local/popcorn/aarch64/lib/libc.a(scalbnl.o)
 .debug_line    0x000000000000e4ed      0x1a6 0x1 /usr/local/popcorn/aarch64/lib/libc.a(mbrtowc.o)
 .debug_line    0x000000000000e693       0x79 0x1 /usr/local/popcorn/aarch64/lib/libc.a(mbsinit.o)
 .debug_line    0x000000000000e70c       0xba 0x1 /usr/local/popcorn/aarch64/lib/libc.a(block.o)
 .debug_line    0x000000000000e7c6       0xa4 0x1 /usr/local/popcorn/aarch64/lib/libc.a(raise.o)
 .debug_line    0x000000000000e86a      0x1b8 0x1 /usr/local/popcorn/aarch64/lib/libc.a(__fdopen.o)
 .debug_line    0x000000000000ea22       0x87 0x1 /usr/local/popcorn/aarch64/lib/libc.a(__fmodeflags.o)
 .debug_line    0x000000000000eaa9      0x141 0x1 /usr/local/popcorn/aarch64/lib/libc.a(__stdio_read.o)
 .debug_line    0x000000000000ebea       0xb8 0x1 /usr/local/popcorn/aarch64/lib/libc.a(__string_read.o)
 .debug_line    0x000000000000eca2       0xab 0x1 /usr/local/popcorn/aarch64/lib/libc.a(__uflow.o)
 .debug_line    0x000000000000ed4d       0xad 0x1 /usr/local/popcorn/aarch64/lib/libc.a(fputc.o)
 .debug_line    0x000000000000edfa      0x1f0 0x1 /usr/local/popcorn/aarch64/lib/libc.a(getdelim.o)
 .debug_line    0x000000000000efea       0xaa 0x1 /usr/local/popcorn/aarch64/lib/libc.a(ofl_add.o)
 .debug_line    0x000000000000f094       0x59 0x1 /usr/local/popcorn/aarch64/lib/libc.a(internal.o)
 .debug_line    0x000000000000f0ed       0xdb 0x1 /usr/local/popcorn/aarch64/lib/libc.a(__overflow.o)
 .debug_line    0x000000000000f1c8       0xe9 0x1 /usr/local/popcorn/aarch64/lib/libc.a(__toread.o)

.debug_frame    0x0000000000000000     0x3540
 *(.debug_frame)
 .debug_frame   0x0000000000000000       0x38 0x8 /usr/local/popcorn/aarch64/lib/crt1.o
 .debug_frame   0x0000000000000038       0xc0 0x8 /usr/local/popcorn/aarch64/lib/libc.a(__libc_start_main.o)
 .debug_frame   0x00000000000000f8       0x80 0x8 /usr/local/popcorn/aarch64/lib/libc.a(exit.o)
 .debug_frame   0x0000000000000178       0x40 0x8 /usr/local/popcorn/aarch64/lib/libc.a(printf.o)
 .debug_frame   0x00000000000001b8       0xe0 0x8 /usr/local/popcorn/aarch64/lib/libc.a(vfprintf.o)
 .debug_frame   0x0000000000000298       0x30 0x8 /usr/local/popcorn/aarch64/lib/libc.a(memset.o)
 .debug_frame   0x00000000000002c8       0x40 0x8 /usr/local/popcorn/aarch64/lib/libc.a(strnlen.o)
 .debug_frame   0x0000000000000308       0x30 0x8 /usr/local/popcorn/aarch64/lib/libc.a(gettid.o)
 .debug_frame   0x0000000000000338       0x38 0x8 /usr/local/popcorn/aarch64/lib/libc.a(sleep.o)
 .debug_frame   0x0000000000000370       0x90 0x8 /usr/local/popcorn/aarch64/lib/libc.a(__init_tls.o)
 .debug_frame   0x0000000000000400       0x30 0x8 /usr/local/popcorn/aarch64/lib/libc.a(__errno_location.o)
 .debug_frame   0x0000000000000430       0x48 0x8 /usr/local/popcorn/aarch64/lib/libc.a(strerror.o)
 .debug_frame   0x0000000000000478       0x30 0x8 /usr/local/popcorn/aarch64/lib/libc.a(_Exit.o)
 .debug_frame   0x00000000000004a8       0x60 0x8 /usr/local/popcorn/aarch64/lib/libc.a(__lctrans.o)
 .debug_frame   0x0000000000000508       0x38 0x8 /usr/local/popcorn/aarch64/lib/libc.a(__fpclassifyl.o)
 .debug_frame   0x0000000000000540       0x38 0x8 /usr/local/popcorn/aarch64/lib/libc.a(__signbitl.o)
 .debug_frame   0x0000000000000578       0x40 0x8 /usr/local/popcorn/aarch64/lib/libc.a(frexpl.o)
 .debug_frame   0x00000000000005b8       0x38 0x8 /usr/local/popcorn/aarch64/lib/libc.a(wctomb.o)
 .debug_frame   0x00000000000005f0       0x58 0x8 /usr/local/popcorn/aarch64/lib/libc.a(__lockfile.o)
 .debug_frame   0x0000000000000648       0x50 0x8 /usr/local/popcorn/aarch64/lib/libc.a(__stdio_close.o)
 .debug_frame   0x0000000000000698       0x30 0x8 /usr/local/popcorn/aarch64/lib/libc.a(__stdio_seek.o)
 .debug_frame   0x00000000000006c8       0x38 0x8 /usr/local/popcorn/aarch64/lib/libc.a(__stdout_write.o)
 .debug_frame   0x0000000000000700       0x78 0x8 /usr/local/popcorn/aarch64/lib/libc.a(fwrite.o)
 .debug_frame   0x0000000000000778       0x30 0x8 /usr/local/popcorn/aarch64/lib/libc.a(memchr.o)
 .debug_frame   0x00000000000007a8       0x30 0x8 /usr/local/popcorn/aarch64/lib/libc.a(memcpy.o)
 .debug_frame   0x00000000000007d8       0x30 0x8 /usr/local/popcorn/aarch64/lib/libc.a(__wait.o)
 .debug_frame   0x0000000000000808       0x38 0x8 /usr/local/popcorn/aarch64/lib/libc.a(nanosleep.o)
 .debug_frame   0x0000000000000840       0x40 0x8 /usr/local/popcorn/aarch64/lib/libc.a(syscall_ret.o)
 .debug_frame   0x0000000000000880       0x38 0x8 /usr/local/popcorn/aarch64/lib/libc.a(wcrtomb.o)
 .debug_frame   0x00000000000008b8       0x48 0x8 /usr/local/popcorn/aarch64/lib/libc.a(__stdio_write.o)
 .debug_frame   0x0000000000000900       0x48 0x8 /usr/local/popcorn/aarch64/lib/libc.a(__towrite.o)
 .debug_frame   0x0000000000000948       0x48 0x8 /usr/local/popcorn/aarch64/lib/libc.a(__syscall_cp.o)
 .debug_frame   0x0000000000000990       0x68 0x8 /usr/local/popcorn/aarch64/lib/libc.a(__stdio_exit.o)
 .debug_frame   0x00000000000009f8       0x50 0x8 /usr/local/popcorn/aarch64/lib/libc.a(ofl.o)
 .debug_frame   0x0000000000000a48       0x58 0x8 /usr/local/popcorn/aarch64/lib/libc.a(__lock.o)
 .debug_frame   0x0000000000000aa0      0x198 0x8 /usr/local/popcorn/aarch64/lib/libmigrate.a(migrate.o)
 .debug_frame   0x0000000000000c38       0xe0 0x8 /usr/local/popcorn/aarch64/lib/libmigrate.a(mapping.o)
 .debug_frame   0x0000000000000d18       0xc0 0x8 /usr/local/popcorn/aarch64/lib/libstack-transform.a(userspace.o)
 .debug_frame   0x0000000000000dd8       0x98 0x8 /usr/local/popcorn/aarch64/lib/libstack-transform.a(init.o)
 .debug_frame   0x0000000000000e70       0xe0 0x8 /usr/local/popcorn/aarch64/lib/libstack-transform.a(rewrite.o)
 .debug_frame   0x0000000000000f50      0x150 0x8 /usr/local/popcorn/aarch64/lib/libstack-transform.a(unwind.o)
 .debug_frame   0x00000000000010a0      0x130 0x8 /usr/local/popcorn/aarch64/lib/libstack-transform.a(util.o)
 .debug_frame   0x00000000000011d0       0x68 0x8 /usr/local/popcorn/aarch64/lib/libstack-transform.a(properties.o)
 .debug_frame   0x0000000000001238      0x1d8 0x8 /usr/local/popcorn/aarch64/lib/libstack-transform.a(regs.o)
 .debug_frame   0x0000000000001410       0x68 0x8 /usr/local/popcorn/aarch64/lib/libstack-transform.a(properties.o)
 .debug_frame   0x0000000000001478      0x1d8 0x8 /usr/local/popcorn/aarch64/lib/libstack-transform.a(regs.o)
 .debug_frame   0x0000000000001650       0x68 0x8 /usr/local/popcorn/aarch64/lib/libstack-transform.a(properties.o)
 .debug_frame   0x00000000000016b8      0x1d0 0x8 /usr/local/popcorn/aarch64/lib/libstack-transform.a(regs.o)
 .debug_frame   0x0000000000001888       0x68 0x8 /usr/local/popcorn/aarch64/lib/libstack-transform.a(properties.o)
 .debug_frame   0x00000000000018f0      0x1e8 0x8 /usr/local/popcorn/aarch64/lib/libstack-transform.a(regs.o)
 .debug_frame   0x0000000000001ad8      0x178 0x8 /usr/local/popcorn/aarch64/lib/libstack-transform.a(data.o)
 .debug_frame   0x0000000000001c50       0x90 0x8 /usr/local/popcorn/aarch64/lib/libc.a(arch_crash.o)
 .debug_frame   0x0000000000001ce0       0x40 0x8 /usr/local/popcorn/aarch64/lib/libc.a(getenv.o)
 .debug_frame   0x0000000000001d20       0x80 0x8 /usr/local/popcorn/aarch64/lib/libc.a(platform.o)
 .debug_frame   0x0000000000001da0       0x38 0x8 /usr/local/popcorn/aarch64/lib/libc.a(assert.o)
 .debug_frame   0x0000000000001dd8       0x40 0x8 /usr/local/popcorn/aarch64/lib/libc.a(open.o)
 .debug_frame   0x0000000000001e18       0x80 0x8 /usr/local/popcorn/aarch64/lib/libc.a(calloc.o)
 .debug_frame   0x0000000000001e98       0x40 0x8 /usr/local/popcorn/aarch64/lib/libc.a(lite_malloc.o)
 .debug_frame   0x0000000000001ed8      0x1b0 0x8 /usr/local/popcorn/aarch64/lib/libc.a(malloc.o)
 .debug_frame   0x0000000000002088      0x1d8 0x8 /usr/local/popcorn/aarch64/lib/libc.a(popcorn_malloc.o)
 .debug_frame   0x0000000000002260       0x40 0x8 /usr/local/popcorn/aarch64/lib/libc.a(getrlimit.o)
 .debug_frame   0x00000000000022a0       0x38 0x8 /usr/local/popcorn/aarch64/lib/libc.a(madvise.o)
 .debug_frame   0x00000000000022d8       0x60 0x8 /usr/local/popcorn/aarch64/lib/libc.a(mmap.o)
 .debug_frame   0x0000000000002338       0x60 0x8 /usr/local/popcorn/aarch64/lib/libc.a(mremap.o)
 .debug_frame   0x0000000000002398       0x58 0x8 /usr/local/popcorn/aarch64/lib/libc.a(munmap.o)
 .debug_frame   0x00000000000023f0       0x58 0x8 /usr/local/popcorn/aarch64/lib/libc.a(fclose.o)
 .debug_frame   0x0000000000002448       0x40 0x8 /usr/local/popcorn/aarch64/lib/libc.a(fflush.o)
 .debug_frame   0x0000000000002488       0x40 0x8 /usr/local/popcorn/aarch64/lib/libc.a(fopen.o)
 .debug_frame   0x00000000000024c8       0x38 0x8 /usr/local/popcorn/aarch64/lib/libc.a(fprintf.o)
 .debug_frame   0x0000000000002500       0x38 0x8 /usr/local/popcorn/aarch64/lib/libc.a(fscanf.o)
 .debug_frame   0x0000000000002538       0x88 0x8 /usr/local/popcorn/aarch64/lib/libc.a(fseek.o)
 .debug_frame   0x00000000000025c0       0x40 0x8 /usr/local/popcorn/aarch64/lib/libc.a(getc.o)
 .debug_frame   0x0000000000002600       0x30 0x8 /usr/local/popcorn/aarch64/lib/libc.a(getline.o)
 .debug_frame   0x0000000000002630       0x40 0x8 /usr/local/popcorn/aarch64/lib/libc.a(perror.o)
 .debug_frame   0x0000000000002670       0x38 0x8 /usr/local/popcorn/aarch64/lib/libc.a(snprintf.o)
 .debug_frame   0x00000000000026a8       0x38 0x8 /usr/local/popcorn/aarch64/lib/libc.a(sscanf.o)
 .debug_frame   0x00000000000026e0       0x50 0x8 /usr/local/popcorn/aarch64/lib/libc.a(vfscanf.o)
 .debug_frame   0x0000000000002730       0x78 0x8 /usr/local/popcorn/aarch64/lib/libc.a(vsnprintf.o)
 .debug_frame   0x00000000000027a8       0x58 0x8 /usr/local/popcorn/aarch64/lib/libc.a(vsscanf.o)
 .debug_frame   0x0000000000002800       0x48 0x8 /usr/local/popcorn/aarch64/lib/libc.a(bsearch.o)
 .debug_frame   0x0000000000002848       0xf8 0x8 /usr/local/popcorn/aarch64/lib/libc.a(qsort.o)
 .debug_frame   0x0000000000002940       0xd8 0x8 /usr/local/popcorn/aarch64/lib/libc.a(strtol.o)
 .debug_frame   0x0000000000002a18       0x40 0x8 /usr/local/popcorn/aarch64/lib/libc.a(strchr.o)
 .debug_frame   0x0000000000002a58       0x40 0x8 /usr/local/popcorn/aarch64/lib/libc.a(strchrnul.o)
 .debug_frame   0x0000000000002a98       0x30 0x8 /usr/local/popcorn/aarch64/lib/libc.a(strcmp.o)
 .debug_frame   0x0000000000002ac8       0x30 0x8 /usr/local/popcorn/aarch64/lib/libc.a(strlen.o)
 .debug_frame   0x0000000000002af8       0x30 0x8 /usr/local/popcorn/aarch64/lib/libc.a(strncmp.o)
 .debug_frame   0x0000000000002b28      0x198 0x8 /usr/local/popcorn/aarch64/lib/libc.a(pthread_attr_get.o)
 .debug_frame   0x0000000000002cc0       0x40 0x8 /usr/local/popcorn/aarch64/lib/libc.a(pthread_getattr_np.o)
 .debug_frame   0x0000000000002d00       0x48 0x8 /usr/local/popcorn/aarch64/lib/libc.a(pthread_migrate.o)
 .debug_frame   0x0000000000002d48       0x30 0x8 /usr/local/popcorn/aarch64/lib/libc.a(pthread_self.o)
 .debug_frame   0x0000000000002d78       0x50 0x8 /usr/local/popcorn/aarch64/lib/libc.a(close.o)
 .debug_frame   0x0000000000002dc8       0x30 0x8 /usr/local/popcorn/aarch64/lib/libc.a(getpid.o)
 .debug_frame   0x0000000000002df8       0x30 0x8 /usr/local/popcorn/aarch64/lib/libc.a(lseek.o)
 .debug_frame   0x0000000000002e28       0x38 0x8 /usr/local/popcorn/aarch64/lib/libc.a(read.o)
 .debug_frame   0x0000000000002e60       0x40 0x8 /usr/local/popcorn/aarch64/lib/libc.a(abort.o)
 .debug_frame   0x0000000000002ea0       0x80 0x8 /usr/local/popcorn/aarch64/lib/libc.a(floatscan.o)
 .debug_frame   0x0000000000002f20       0x50 0x8 /usr/local/popcorn/aarch64/lib/libc.a(intscan.o)
 .debug_frame   0x0000000000002f70       0x58 0x8 /usr/local/popcorn/aarch64/lib/libc.a(shgetc.o)
 .debug_frame   0x0000000000002fc8       0x98 0x8 /usr/local/popcorn/aarch64/lib/libc.a(expand_heap.o)
 .debug_frame   0x0000000000003060       0x30 0x8 /usr/local/popcorn/aarch64/lib/libc.a(fabs.o)
 .debug_frame   0x0000000000003090       0x38 0x8 /usr/local/popcorn/aarch64/lib/libc.a(copysignl.o)
 .debug_frame   0x00000000000030c8       0x48 0x8 /usr/local/popcorn/aarch64/lib/libc.a(fmodl.o)
 .debug_frame   0x0000000000003110       0x30 0x8 /usr/local/popcorn/aarch64/lib/libc.a(scalbn.o)
 .debug_frame   0x0000000000003140       0x40 0x8 /usr/local/popcorn/aarch64/lib/libc.a(scalbnl.o)
 .debug_frame   0x0000000000003180       0x38 0x8 /usr/local/popcorn/aarch64/lib/libc.a(mbrtowc.o)
 .debug_frame   0x00000000000031b8       0x30 0x8 /usr/local/popcorn/aarch64/lib/libc.a(mbsinit.o)
 .debug_frame   0x00000000000031e8       0x60 0x8 /usr/local/popcorn/aarch64/lib/libc.a(block.o)
 .debug_frame   0x0000000000003248       0x40 0x8 /usr/local/popcorn/aarch64/lib/libc.a(raise.o)
 .debug_frame   0x0000000000003288       0x40 0x8 /usr/local/popcorn/aarch64/lib/libc.a(__fdopen.o)
 .debug_frame   0x00000000000032c8       0x40 0x8 /usr/local/popcorn/aarch64/lib/libc.a(__fmodeflags.o)
 .debug_frame   0x0000000000003308       0x48 0x8 /usr/local/popcorn/aarch64/lib/libc.a(__stdio_read.o)
 .debug_frame   0x0000000000003350       0x48 0x8 /usr/local/popcorn/aarch64/lib/libc.a(__string_read.o)
 .debug_frame   0x0000000000003398       0x40 0x8 /usr/local/popcorn/aarch64/lib/libc.a(__uflow.o)
 .debug_frame   0x00000000000033d8       0x40 0x8 /usr/local/popcorn/aarch64/lib/libc.a(fputc.o)
 .debug_frame   0x0000000000003418       0x50 0x8 /usr/local/popcorn/aarch64/lib/libc.a(getdelim.o)
 .debug_frame   0x0000000000003468       0x40 0x8 /usr/local/popcorn/aarch64/lib/libc.a(ofl_add.o)
 .debug_frame   0x00000000000034a8       0x40 0x8 /usr/local/popcorn/aarch64/lib/libc.a(__overflow.o)
 .debug_frame   0x00000000000034e8       0x58 0x8 /usr/local/popcorn/aarch64/lib/libc.a(__toread.o)

.debug_str      0x0000000000000000     0x34d0
 *(.debug_str)
 .debug_str     0x0000000000000000       0xcd 0x1 migrate_aarch64.o
                                         0xfd (size before relaxing)
 .debug_str     0x00000000000000cd       0x4f 0x1 /usr/local/popcorn/aarch64/lib/crt1.o
                                         0xd5 (size before relaxing)
 .debug_str     0x000000000000011c       0xde 0x1 /usr/local/popcorn/aarch64/lib/libc.a(__libc_start_main.o)
                                        0x1db (size before relaxing)
 .debug_str     0x00000000000001fa       0x24 0x1 /usr/local/popcorn/aarch64/lib/libc.a(exit.o)
                                         0xf4 (size before relaxing)
 .debug_str     0x000000000000021e       0xe7 0x1 /usr/local/popcorn/aarch64/lib/libc.a(libc.o)
                                        0x1e0 (size before relaxing)
 .debug_str     0x0000000000000305       0x61 0x1 /usr/local/popcorn/aarch64/lib/libc.a(printf.o)
                                        0x123 (size before relaxing)
 .debug_str     0x0000000000000366       0xe7 0x1 /usr/local/popcorn/aarch64/lib/libc.a(stdout.o)
                                        0x24e (size before relaxing)
 .debug_str     0x000000000000044d      0x13d 0x1 /usr/local/popcorn/aarch64/lib/libc.a(vfprintf.o)
                                        0x426 (size before relaxing)
 .debug_str     0x000000000000058a       0x27 0x1 /usr/local/popcorn/aarch64/lib/libc.a(memset.o)
                                        0x12f (size before relaxing)
 .debug_str     0x00000000000005b1       0x1d 0x1 /usr/local/popcorn/aarch64/lib/libc.a(strnlen.o)
                                         0xe4 (size before relaxing)
 .debug_str     0x00000000000005ce       0x2c 0x1 /usr/local/popcorn/aarch64/lib/libc.a(gettid.o)
                                         0xe4 (size before relaxing)
 .debug_str     0x00000000000005fa       0x3a 0x1 /usr/local/popcorn/aarch64/lib/libc.a(sleep.o)
                                         0xfc (size before relaxing)
 .debug_str     0x0000000000000634       0x1e 0x1 /usr/local/popcorn/aarch64/lib/libc.a(__environ.o)
                                         0xc6 (size before relaxing)
 .debug_str     0x0000000000000652      0x261 0x1 /usr/local/popcorn/aarch64/lib/libc.a(__init_tls.o)
                                        0x44c (size before relaxing)
 .debug_str     0x00000000000008b3       0x3d 0x1 /usr/local/popcorn/aarch64/lib/libc.a(__errno_location.o)
                                        0x2fa (size before relaxing)
 .debug_str     0x00000000000008f0       0x38 0x1 /usr/local/popcorn/aarch64/lib/libc.a(strerror.o)
                                        0x31c (size before relaxing)
 .debug_str     0x0000000000000928       0x17 0x1 /usr/local/popcorn/aarch64/lib/libc.a(_Exit.o)
                                         0xdf (size before relaxing)
 .debug_str     0x000000000000093f       0x32 0x1 /usr/local/popcorn/aarch64/lib/libc.a(__lctrans.o)
                                        0x316 (size before relaxing)
 .debug_str     0x0000000000000971       0x3f 0x1 /usr/local/popcorn/aarch64/lib/libc.a(__fpclassifyl.o)
                                        0x149 (size before relaxing)
 .debug_str     0x00000000000009b0       0x21 0x1 /usr/local/popcorn/aarch64/lib/libc.a(__signbitl.o)
                                        0x141 (size before relaxing)
 .debug_str     0x00000000000009d1       0x19 0x1 /usr/local/popcorn/aarch64/lib/libc.a(frexpl.o)
                                        0x13e (size before relaxing)
 .debug_str     0x00000000000009ea       0x1e 0x1 /usr/local/popcorn/aarch64/lib/libc.a(wctomb.o)
                                         0xe4 (size before relaxing)
 .debug_str     0x0000000000000a08       0x67 0x1 /usr/local/popcorn/aarch64/lib/libc.a(__lockfile.o)
                                        0x46f (size before relaxing)
 .debug_str     0x0000000000000a6f       0x28 0x1 /usr/local/popcorn/aarch64/lib/libc.a(__stdio_close.o)
                                        0x269 (size before relaxing)
 .debug_str     0x0000000000000a97       0x2d 0x1 /usr/local/popcorn/aarch64/lib/libc.a(__stdio_seek.o)
                                        0x276 (size before relaxing)
 .debug_str     0x0000000000000ac4       0x58 0x1 /usr/local/popcorn/aarch64/lib/libc.a(__stdout_write.o)
                                        0x2b0 (size before relaxing)
 .debug_str     0x0000000000000b1c       0x2a 0x1 /usr/local/popcorn/aarch64/lib/libc.a(fwrite.o)
                                        0x271 (size before relaxing)
 .debug_str     0x0000000000000b46       0x1b 0x1 /usr/local/popcorn/aarch64/lib/libc.a(memchr.o)
                                        0x101 (size before relaxing)
 .debug_str     0x0000000000000b61       0x1b 0x1 /usr/local/popcorn/aarch64/lib/libc.a(memcpy.o)
                                        0x11c (size before relaxing)
 .debug_str     0x0000000000000b7c       0x44 0x1 /usr/local/popcorn/aarch64/lib/libc.a(__wait.o)
                                        0x14e (size before relaxing)
 .debug_str     0x0000000000000bc0       0x27 0x1 /usr/local/popcorn/aarch64/lib/libc.a(nanosleep.o)
                                         0xf6 (size before relaxing)
 .debug_str     0x0000000000000be7       0x2b 0x1 /usr/local/popcorn/aarch64/lib/libc.a(syscall_ret.o)
                                         0xeb (size before relaxing)
 .debug_str     0x0000000000000c12       0x40 0x1 /usr/local/popcorn/aarch64/lib/libc.a(wcrtomb.o)
                                        0x341 (size before relaxing)
 .debug_str     0x0000000000000c52       0x57 0x1 /usr/local/popcorn/aarch64/lib/libc.a(__stdio_write.o)
                                        0x2a8 (size before relaxing)
 .debug_str     0x0000000000000ca9       0x3b 0x1 /usr/local/popcorn/aarch64/lib/libc.a(__towrite.o)
                                        0x261 (size before relaxing)
 .debug_str     0x0000000000000ce4       0x3d 0x1 /usr/local/popcorn/aarch64/lib/libc.a(__syscall_cp.o)
                                         0xf5 (size before relaxing)
 .debug_str     0x0000000000000d21       0x3c 0x1 /usr/local/popcorn/aarch64/lib/libc.a(__stdio_exit.o)
                                        0x262 (size before relaxing)
 .debug_str     0x0000000000000d5d       0x31 0x1 /usr/local/popcorn/aarch64/lib/libc.a(ofl.o)
                                        0x25e (size before relaxing)
 .debug_str     0x0000000000000d8e       0x2b 0x1 /usr/local/popcorn/aarch64/lib/libc.a(__lock.o)
                                        0x137 (size before relaxing)
 .debug_str     0x0000000000000db9      0x2ba 0x1 /usr/local/popcorn/aarch64/lib/libmigrate.a(migrate.o)
                                        0x3e0 (size before relaxing)
 .debug_str     0x0000000000001073       0x95 0x1 /usr/local/popcorn/aarch64/lib/libmigrate.a(mapping.o)
                                        0x1b1 (size before relaxing)
 .debug_str     0x0000000000001108      0x552 0x1 /usr/local/popcorn/aarch64/lib/libstack-transform.a(userspace.o)
                                        0x7df (size before relaxing)
 .debug_str     0x000000000000165a       0xee 0x1 /usr/local/popcorn/aarch64/lib/libstack-transform.a(init.o)
                                        0x606 (size before relaxing)
 .debug_str     0x0000000000001748      0x23d 0x1 /usr/local/popcorn/aarch64/lib/libstack-transform.a(rewrite.o)
                                        0x7ca (size before relaxing)
 .debug_str     0x0000000000001985      0x12b 0x1 /usr/local/popcorn/aarch64/lib/libstack-transform.a(unwind.o)
                                        0x719 (size before relaxing)
 .debug_str     0x0000000000001ab0      0x253 0x1 /usr/local/popcorn/aarch64/lib/libstack-transform.a(util.o)
                                        0x798 (size before relaxing)
 .debug_str     0x0000000000001d03       0x8c 0x1 /usr/local/popcorn/aarch64/lib/libstack-transform.a(properties.o)
                                        0x239 (size before relaxing)
 .debug_str     0x0000000000001d8f      0x10e 0x1 /usr/local/popcorn/aarch64/lib/libstack-transform.a(regs.o)
                                        0x379 (size before relaxing)
 .debug_str     0x0000000000001e9d       0xa2 0x1 /usr/local/popcorn/aarch64/lib/libstack-transform.a(properties.o)
                                        0x251 (size before relaxing)
 .debug_str     0x0000000000001f3f      0x113 0x1 /usr/local/popcorn/aarch64/lib/libstack-transform.a(regs.o)
                                        0x396 (size before relaxing)
 .debug_str     0x0000000000002052       0x8c 0x1 /usr/local/popcorn/aarch64/lib/libstack-transform.a(properties.o)
                                        0x239 (size before relaxing)
 .debug_str     0x00000000000020de       0xf9 0x1 /usr/local/popcorn/aarch64/lib/libstack-transform.a(regs.o)
                                        0x367 (size before relaxing)
 .debug_str     0x00000000000021d7       0x86 0x1 /usr/local/popcorn/aarch64/lib/libstack-transform.a(properties.o)
                                        0x232 (size before relaxing)
 .debug_str     0x000000000000225d       0xec 0x1 /usr/local/popcorn/aarch64/lib/libstack-transform.a(regs.o)
                                        0x3e7 (size before relaxing)
 .debug_str     0x0000000000002349      0x13c 0x1 /usr/local/popcorn/aarch64/lib/libstack-transform.a(data.o)
                                        0x770 (size before relaxing)
 .debug_str     0x0000000000002485       0x60 0x1 /usr/local/popcorn/aarch64/lib/libc.a(arch_crash.o)
                                        0x11a (size before relaxing)
 .debug_str     0x00000000000024e5       0x18 0x1 /usr/local/popcorn/aarch64/lib/libc.a(getenv.o)
                                         0xe2 (size before relaxing)
 .debug_str     0x00000000000024fd       0x5e 0x1 /usr/local/popcorn/aarch64/lib/libc.a(platform.o)
                                        0x1a5 (size before relaxing)
 .debug_str     0x000000000000255b       0x2a 0x1 /usr/local/popcorn/aarch64/lib/libc.a(assert.o)
                                         0xe0 (size before relaxing)
 .debug_str     0x0000000000002585       0x21 0x1 /usr/local/popcorn/aarch64/lib/libc.a(open.o)
                                        0x16a (size before relaxing)
 .debug_str     0x00000000000025a6       0x36 0x1 /usr/local/popcorn/aarch64/lib/libc.a(calloc.o)
                                        0x105 (size before relaxing)
 .debug_str     0x00000000000025dc       0x29 0x1 /usr/local/popcorn/aarch64/lib/libc.a(lite_malloc.o)
                                        0x12d (size before relaxing)
 .debug_str     0x0000000000002605      0x145 0x1 /usr/local/popcorn/aarch64/lib/libc.a(malloc.o)
                                        0x34e (size before relaxing)
 .debug_str     0x000000000000274a       0xa9 0x1 /usr/local/popcorn/aarch64/lib/libc.a(popcorn_malloc.o)
                                        0x3d1 (size before relaxing)
 .debug_str     0x00000000000027f3       0x2f 0x1 /usr/local/popcorn/aarch64/lib/libc.a(getrlimit.o)
                                        0x174 (size before relaxing)
 .debug_str     0x0000000000002822       0x24 0x1 /usr/local/popcorn/aarch64/lib/libc.a(madvise.o)
                                        0x115 (size before relaxing)
 .debug_str     0x0000000000002846       0x1c 0x1 /usr/local/popcorn/aarch64/lib/libc.a(mmap.o)
                                        0x13a (size before relaxing)
 .debug_str     0x0000000000002862       0x3d 0x1 /usr/local/popcorn/aarch64/lib/libc.a(mremap.o)
                                        0x190 (size before relaxing)
 .debug_str     0x000000000000289f       0x1b 0x1 /usr/local/popcorn/aarch64/lib/libc.a(munmap.o)
                                        0x10e (size before relaxing)
 .debug_str     0x00000000000028ba       0x1f 0x1 /usr/local/popcorn/aarch64/lib/libc.a(fclose.o)
                                        0x260 (size before relaxing)
 .debug_str     0x00000000000028d9       0x1a 0x1 /usr/local/popcorn/aarch64/lib/libc.a(fflush.o)
                                        0x256 (size before relaxing)
 .debug_str     0x00000000000028f3       0x18 0x1 /usr/local/popcorn/aarch64/lib/libc.a(fopen.o)
                                        0x281 (size before relaxing)
 .debug_str     0x000000000000290b       0x14 0x1 /usr/local/popcorn/aarch64/lib/libc.a(fprintf.o)
                                        0x135 (size before relaxing)
 .debug_str     0x000000000000291f       0x13 0x1 /usr/local/popcorn/aarch64/lib/libc.a(fscanf.o)
                                        0x133 (size before relaxing)
 .debug_str     0x0000000000002932       0x33 0x1 /usr/local/popcorn/aarch64/lib/libc.a(fseek.o)
                                        0x275 (size before relaxing)
 .debug_str     0x0000000000002965       0x11 0x1 /usr/local/popcorn/aarch64/lib/libc.a(getc.o)
                                        0x23e (size before relaxing)
 .debug_str     0x0000000000002976       0x1c 0x1 /usr/local/popcorn/aarch64/lib/libc.a(getline.o)
                                        0x102 (size before relaxing)
 .debug_str     0x0000000000002992       0x21 0x1 /usr/local/popcorn/aarch64/lib/libc.a(perror.o)
                                        0x259 (size before relaxing)
 .debug_str     0x00000000000029b3       0x15 0x1 /usr/local/popcorn/aarch64/lib/libc.a(snprintf.o)
                                        0x144 (size before relaxing)
 .debug_str     0x00000000000029c8       0x13 0x1 /usr/local/popcorn/aarch64/lib/libc.a(sscanf.o)
                                        0x125 (size before relaxing)
 .debug_str     0x00000000000029db       0x28 0x1 /usr/local/popcorn/aarch64/lib/libc.a(stderr.o)
                                        0x24e (size before relaxing)
 .debug_str     0x0000000000002a03       0x90 0x1 /usr/local/popcorn/aarch64/lib/libc.a(vfscanf.o)
                                        0x3cf (size before relaxing)
 .debug_str     0x0000000000002a93       0x29 0x1 /usr/local/popcorn/aarch64/lib/libc.a(vsnprintf.o)
                                        0x2b8 (size before relaxing)
 .debug_str     0x0000000000002abc       0x24 0x1 /usr/local/popcorn/aarch64/lib/libc.a(vsscanf.o)
                                        0x2a9 (size before relaxing)
 .debug_str     0x0000000000002ae0       0x26 0x1 /usr/local/popcorn/aarch64/lib/libc.a(bsearch.o)
                                        0x102 (size before relaxing)
 .debug_str     0x0000000000002b06       0x75 0x1 /usr/local/popcorn/aarch64/lib/libc.a(qsort.o)
                                        0x1a9 (size before relaxing)
 .debug_str     0x0000000000002b7b       0x4f 0x1 /usr/local/popcorn/aarch64/lib/libc.a(strtol.o)
                                        0x2c0 (size before relaxing)
 .debug_str     0x0000000000002bca       0x1b 0x1 /usr/local/popcorn/aarch64/lib/libc.a(strchr.o)
                                         0xdb (size before relaxing)
 .debug_str     0x0000000000002be5       0x23 0x1 /usr/local/popcorn/aarch64/lib/libc.a(strchrnul.o)
                                        0x108 (size before relaxing)
 .debug_str     0x0000000000002c08       0x1b 0x1 /usr/local/popcorn/aarch64/lib/libc.a(strcmp.o)
                                         0xd9 (size before relaxing)
 .debug_str     0x0000000000002c23       0x1b 0x1 /usr/local/popcorn/aarch64/lib/libc.a(strlen.o)
                                         0xec (size before relaxing)
 .debug_str     0x0000000000002c3e       0x20 0x1 /usr/local/popcorn/aarch64/lib/libc.a(strncmp.o)
                                         0xfc (size before relaxing)
 .debug_str     0x0000000000002c5e      0x2ae 0x1 /usr/local/popcorn/aarch64/lib/libc.a(pthread_attr_get.o)
                                        0x419 (size before relaxing)
 .debug_str     0x0000000000002f0c       0x33 0x1 /usr/local/popcorn/aarch64/lib/libc.a(pthread_getattr_np.o)
                                        0x322 (size before relaxing)
 .debug_str     0x0000000000002f3f       0x4f 0x1 /usr/local/popcorn/aarch64/lib/libc.a(pthread_migrate.o)
                                        0x320 (size before relaxing)
 .debug_str     0x0000000000002f8e       0x32 0x1 /usr/local/popcorn/aarch64/lib/libc.a(pthread_self.o)
                                        0x308 (size before relaxing)
 .debug_str     0x0000000000002fc0       0x13 0x1 /usr/local/popcorn/aarch64/lib/libc.a(close.o)
                                         0xd4 (size before relaxing)
 .debug_str     0x0000000000002fd3       0x1b 0x1 /usr/local/popcorn/aarch64/lib/libc.a(getpid.o)
                                         0xe4 (size before relaxing)
 .debug_str     0x0000000000002fee       0x19 0x1 /usr/local/popcorn/aarch64/lib/libc.a(lseek.o)
                                         0xff (size before relaxing)
 .debug_str     0x0000000000003007       0x12 0x1 /usr/local/popcorn/aarch64/lib/libc.a(read.o)
                                         0xf5 (size before relaxing)
 .debug_str     0x0000000000003019       0x17 0x1 /usr/local/popcorn/aarch64/lib/libc.a(abort.o)
                                         0xc7 (size before relaxing)
 .debug_str     0x0000000000003030       0xab 0x1 /usr/local/popcorn/aarch64/lib/libc.a(floatscan.o)
                                        0x33e (size before relaxing)
 .debug_str     0x00000000000030db       0x2e 0x1 /usr/local/popcorn/aarch64/lib/libc.a(intscan.o)
                                        0x296 (size before relaxing)
 .debug_str     0x0000000000003109       0x29 0x1 /usr/local/popcorn/aarch64/lib/libc.a(shgetc.o)
                                        0x255 (size before relaxing)
 .debug_str     0x0000000000003132       0x98 0x1 /usr/local/popcorn/aarch64/lib/libc.a(expand_heap.o)
                                        0x226 (size before relaxing)
 .debug_str     0x00000000000031ca       0x1d 0x1 /usr/local/popcorn/aarch64/lib/libc.a(fabs.o)
                                         0xc9 (size before relaxing)
 .debug_str     0x00000000000031e7       0x22 0x1 /usr/local/popcorn/aarch64/lib/libc.a(copysignl.o)
                                        0x141 (size before relaxing)
 .debug_str     0x0000000000003209       0x2a 0x1 /usr/local/popcorn/aarch64/lib/libc.a(fmodl.o)
                                        0x156 (size before relaxing)
 .debug_str     0x0000000000003233       0x22 0x1 /usr/local/popcorn/aarch64/lib/libc.a(scalbn.o)
                                         0xf7 (size before relaxing)
 .debug_str     0x0000000000003255       0x1b 0x1 /usr/local/popcorn/aarch64/lib/libc.a(scalbnl.o)
                                        0x13d (size before relaxing)
 .debug_str     0x0000000000003270       0x3a 0x1 /usr/local/popcorn/aarch64/lib/libc.a(mbrtowc.o)
                                        0x37f (size before relaxing)
 .debug_str     0x00000000000032aa       0x20 0x1 /usr/local/popcorn/aarch64/lib/libc.a(mbsinit.o)
                                        0x101 (size before relaxing)
 .debug_str     0x00000000000032ca       0x56 0x1 /usr/local/popcorn/aarch64/lib/libc.a(block.o)
                                        0x150 (size before relaxing)
 .debug_str     0x0000000000003320       0x2f 0x1 /usr/local/popcorn/aarch64/lib/libc.a(raise.o)
                                        0x13f (size before relaxing)
 .debug_str     0x000000000000334f       0x1e 0x1 /usr/local/popcorn/aarch64/lib/libc.a(__fdopen.o)
                                        0x2ab (size before relaxing)
 .debug_str     0x000000000000336d       0x26 0x1 /usr/local/popcorn/aarch64/lib/libc.a(__fmodeflags.o)
                                         0xdd (size before relaxing)
 .debug_str     0x0000000000003393       0x26 0x1 /usr/local/popcorn/aarch64/lib/libc.a(__stdio_read.o)
                                        0x296 (size before relaxing)
 .debug_str     0x00000000000033b9       0x28 0x1 /usr/local/popcorn/aarch64/lib/libc.a(__string_read.o)
                                        0x25c (size before relaxing)
 .debug_str     0x00000000000033e1       0x1c 0x1 /usr/local/popcorn/aarch64/lib/libc.a(__uflow.o)
                                        0x244 (size before relaxing)
 .debug_str     0x00000000000033fd       0x18 0x1 /usr/local/popcorn/aarch64/lib/libc.a(fputc.o)
                                        0x240 (size before relaxing)
 .debug_str     0x0000000000003415       0x22 0x1 /usr/local/popcorn/aarch64/lib/libc.a(getdelim.o)
                                        0x276 (size before relaxing)
 .debug_str     0x0000000000003437       0x1e 0x1 /usr/local/popcorn/aarch64/lib/libc.a(ofl_add.o)
                                        0x249 (size before relaxing)
 .debug_str     0x0000000000003455       0x21 0x1 /usr/local/popcorn/aarch64/lib/libc.a(internal.o)
                                         0xee (size before relaxing)
 .debug_str     0x0000000000003476       0x22 0x1 /usr/local/popcorn/aarch64/lib/libc.a(__overflow.o)
                                        0x24d (size before relaxing)
 .debug_str     0x0000000000003498       0x38 0x1 /usr/local/popcorn/aarch64/lib/libc.a(__toread.o)
                                        0x25e (size before relaxing)

.debug_loc      0x0000000000000000    0x23ebd
 *(.debug_loc)
 .debug_loc     0x0000000000000000       0x7c 0x1 /usr/local/popcorn/aarch64/lib/crt1.o
 .debug_loc     0x000000000000007c      0x566 0x1 /usr/local/popcorn/aarch64/lib/libc.a(__libc_start_main.o)
 .debug_loc     0x00000000000005e2       0x7f 0x1 /usr/local/popcorn/aarch64/lib/libc.a(exit.o)
 .debug_loc     0x0000000000000661       0x6c 0x1 /usr/local/popcorn/aarch64/lib/libc.a(printf.o)
 .debug_loc     0x00000000000006cd     0x3d72 0x1 /usr/local/popcorn/aarch64/lib/libc.a(vfprintf.o)
 .debug_loc     0x000000000000443f      0x15a 0x1 /usr/local/popcorn/aarch64/lib/libc.a(memset.o)
 .debug_loc     0x0000000000004599       0x8f 0x1 /usr/local/popcorn/aarch64/lib/libc.a(strnlen.o)
 .debug_loc     0x0000000000004628       0x47 0x1 /usr/local/popcorn/aarch64/lib/libc.a(sleep.o)
 .debug_loc     0x000000000000466f      0x5c3 0x1 /usr/local/popcorn/aarch64/lib/libc.a(__init_tls.o)
 .debug_loc     0x0000000000004c32       0x23 0x1 /usr/local/popcorn/aarch64/lib/libc.a(__errno_location.o)
 .debug_loc     0x0000000000004c55      0x159 0x1 /usr/local/popcorn/aarch64/lib/libc.a(strerror.o)
 .debug_loc     0x0000000000004dae       0x8c 0x1 /usr/local/popcorn/aarch64/lib/libc.a(_Exit.o)
 .debug_loc     0x0000000000004e3a       0x8c 0x1 /usr/local/popcorn/aarch64/lib/libc.a(__lctrans.o)
 .debug_loc     0x0000000000004ec6       0x88 0x1 /usr/local/popcorn/aarch64/lib/libc.a(__fpclassifyl.o)
 .debug_loc     0x0000000000004f4e      0x104 0x1 /usr/local/popcorn/aarch64/lib/libc.a(frexpl.o)
 .debug_loc     0x0000000000005052       0x46 0x1 /usr/local/popcorn/aarch64/lib/libc.a(wctomb.o)
 .debug_loc     0x0000000000005098      0x4bf 0x1 /usr/local/popcorn/aarch64/lib/libc.a(__lockfile.o)
 .debug_loc     0x0000000000005557       0xb3 0x1 /usr/local/popcorn/aarch64/lib/libc.a(__stdio_close.o)
 .debug_loc     0x000000000000560a      0x13b 0x1 /usr/local/popcorn/aarch64/lib/libc.a(__stdio_seek.o)
 .debug_loc     0x0000000000005745      0x1ca 0x1 /usr/local/popcorn/aarch64/lib/libc.a(__stdout_write.o)
 .debug_loc     0x000000000000590f      0x2da 0x1 /usr/local/popcorn/aarch64/lib/libc.a(fwrite.o)
 .debug_loc     0x0000000000005be9      0x131 0x1 /usr/local/popcorn/aarch64/lib/libc.a(memchr.o)
 .debug_loc     0x0000000000005d1a      0x9a3 0x1 /usr/local/popcorn/aarch64/lib/libc.a(memcpy.o)
 .debug_loc     0x00000000000066bd      0x5cb 0x1 /usr/local/popcorn/aarch64/lib/libc.a(__wait.o)
 .debug_loc     0x0000000000006c88       0x6c 0x1 /usr/local/popcorn/aarch64/lib/libc.a(nanosleep.o)
 .debug_loc     0x0000000000006cf4       0x23 0x1 /usr/local/popcorn/aarch64/lib/libc.a(syscall_ret.o)
 .debug_loc     0x0000000000006d17      0x1a2 0x1 /usr/local/popcorn/aarch64/lib/libc.a(wcrtomb.o)
 .debug_loc     0x0000000000006eb9      0x3c1 0x1 /usr/local/popcorn/aarch64/lib/libc.a(__stdio_write.o)
 .debug_loc     0x000000000000727a       0x23 0x1 /usr/local/popcorn/aarch64/lib/libc.a(__towrite.o)
 .debug_loc     0x000000000000729d      0x1ea 0x1 /usr/local/popcorn/aarch64/lib/libc.a(__syscall_cp.o)
 .debug_loc     0x0000000000007487       0x59 0x1 /usr/local/popcorn/aarch64/lib/libc.a(__stdio_exit.o)
 .debug_loc     0x00000000000074e0      0x457 0x1 /usr/local/popcorn/aarch64/lib/libc.a(__lock.o)
 .debug_loc     0x0000000000007937      0x995 0x1 /usr/local/popcorn/aarch64/lib/libstack-transform.a(userspace.o)
 .debug_loc     0x00000000000082cc       0xe8 0x1 /usr/local/popcorn/aarch64/lib/libstack-transform.a(init.o)
 .debug_loc     0x00000000000083b4      0xda7 0x1 /usr/local/popcorn/aarch64/lib/libstack-transform.a(rewrite.o)
 .debug_loc     0x000000000000915b      0x90e 0x1 /usr/local/popcorn/aarch64/lib/libstack-transform.a(unwind.o)
 .debug_loc     0x0000000000009a69      0x926 0x1 /usr/local/popcorn/aarch64/lib/libstack-transform.a(util.o)
 .debug_loc     0x000000000000a38f       0x8f 0x1 /usr/local/popcorn/aarch64/lib/libstack-transform.a(properties.o)
 .debug_loc     0x000000000000a41e      0xde2 0x1 /usr/local/popcorn/aarch64/lib/libstack-transform.a(regs.o)
 .debug_loc     0x000000000000b200       0xc5 0x1 /usr/local/popcorn/aarch64/lib/libstack-transform.a(properties.o)
 .debug_loc     0x000000000000b2c5      0xe1b 0x1 /usr/local/popcorn/aarch64/lib/libstack-transform.a(regs.o)
 .debug_loc     0x000000000000c0e0       0x8f 0x1 /usr/local/popcorn/aarch64/lib/libstack-transform.a(properties.o)
 .debug_loc     0x000000000000c16f      0x49b 0x1 /usr/local/popcorn/aarch64/lib/libstack-transform.a(regs.o)
 .debug_loc     0x000000000000c60a       0x8f 0x1 /usr/local/popcorn/aarch64/lib/libstack-transform.a(properties.o)
 .debug_loc     0x000000000000c699      0x96b 0x1 /usr/local/popcorn/aarch64/lib/libstack-transform.a(regs.o)
 .debug_loc     0x000000000000d004     0x147e 0x1 /usr/local/popcorn/aarch64/lib/libstack-transform.a(data.o)
 .debug_loc     0x000000000000e482      0x288 0x1 /usr/local/popcorn/aarch64/lib/libc.a(arch_crash.o)
 .debug_loc     0x000000000000e70a       0xb5 0x1 /usr/local/popcorn/aarch64/lib/libc.a(getenv.o)
 .debug_loc     0x000000000000e7bf      0x24f 0x1 /usr/local/popcorn/aarch64/lib/libc.a(platform.o)
 .debug_loc     0x000000000000ea0e       0xd8 0x1 /usr/local/popcorn/aarch64/lib/libc.a(assert.o)
 .debug_loc     0x000000000000eae6      0x211 0x1 /usr/local/popcorn/aarch64/lib/libc.a(open.o)
 .debug_loc     0x000000000000ecf7      0x20c 0x1 /usr/local/popcorn/aarch64/lib/libc.a(calloc.o)
 .debug_loc     0x000000000000ef03      0x193 0x1 /usr/local/popcorn/aarch64/lib/libc.a(lite_malloc.o)
 .debug_loc     0x000000000000f096     0x37b6 0x1 /usr/local/popcorn/aarch64/lib/libc.a(malloc.o)
 .debug_loc     0x000000000001284c     0x607f 0x1 /usr/local/popcorn/aarch64/lib/libc.a(popcorn_malloc.o)
 .debug_loc     0x00000000000188cb      0x2dc 0x1 /usr/local/popcorn/aarch64/lib/libc.a(getrlimit.o)
 .debug_loc     0x0000000000018ba7      0x187 0x1 /usr/local/popcorn/aarch64/lib/libc.a(madvise.o)
 .debug_loc     0x0000000000018d2e      0x44e 0x1 /usr/local/popcorn/aarch64/lib/libc.a(mmap.o)
 .debug_loc     0x000000000001917c      0x32d 0x1 /usr/local/popcorn/aarch64/lib/libc.a(mremap.o)
 .debug_loc     0x00000000000194a9      0x131 0x1 /usr/local/popcorn/aarch64/lib/libc.a(munmap.o)
 .debug_loc     0x00000000000195da       0xc2 0x1 /usr/local/popcorn/aarch64/lib/libc.a(fclose.o)
 .debug_loc     0x000000000001969c      0x111 0x1 /usr/local/popcorn/aarch64/lib/libc.a(fflush.o)
 .debug_loc     0x00000000000197ad      0x41d 0x1 /usr/local/popcorn/aarch64/lib/libc.a(fopen.o)
 .debug_loc     0x0000000000019bca       0x69 0x1 /usr/local/popcorn/aarch64/lib/libc.a(fprintf.o)
 .debug_loc     0x0000000000019c33       0x69 0x1 /usr/local/popcorn/aarch64/lib/libc.a(fscanf.o)
 .debug_loc     0x0000000000019c9c      0x1f6 0x1 /usr/local/popcorn/aarch64/lib/libc.a(fseek.o)
 .debug_loc     0x0000000000019e92       0x59 0x1 /usr/local/popcorn/aarch64/lib/libc.a(getc.o)
 .debug_loc     0x0000000000019eeb       0x7c 0x1 /usr/local/popcorn/aarch64/lib/libc.a(getline.o)
 .debug_loc     0x0000000000019f67       0xb2 0x1 /usr/local/popcorn/aarch64/lib/libc.a(perror.o)
 .debug_loc     0x000000000001a019       0x8c 0x1 /usr/local/popcorn/aarch64/lib/libc.a(snprintf.o)
 .debug_loc     0x000000000001a0a5       0x69 0x1 /usr/local/popcorn/aarch64/lib/libc.a(sscanf.o)
 .debug_loc     0x000000000001a10e     0x1413 0x1 /usr/local/popcorn/aarch64/lib/libc.a(vfscanf.o)
 .debug_loc     0x000000000001b521      0x1d3 0x1 /usr/local/popcorn/aarch64/lib/libc.a(vsnprintf.o)
 .debug_loc     0x000000000001b6f4      0x144 0x1 /usr/local/popcorn/aarch64/lib/libc.a(vsscanf.o)
 .debug_loc     0x000000000001b838      0x131 0x1 /usr/local/popcorn/aarch64/lib/libc.a(bsearch.o)
 .debug_loc     0x000000000001b969      0xfa5 0x1 /usr/local/popcorn/aarch64/lib/libc.a(qsort.o)
 .debug_loc     0x000000000001c90e      0x4b0 0x1 /usr/local/popcorn/aarch64/lib/libc.a(strtol.o)
 .debug_loc     0x000000000001cdbe       0x7c 0x1 /usr/local/popcorn/aarch64/lib/libc.a(strchr.o)
 .debug_loc     0x000000000001ce3a      0x14a 0x1 /usr/local/popcorn/aarch64/lib/libc.a(strchrnul.o)
 .debug_loc     0x000000000001cf84       0x46 0x1 /usr/local/popcorn/aarch64/lib/libc.a(strcmp.o)
 .debug_loc     0x000000000001cfca      0x129 0x1 /usr/local/popcorn/aarch64/lib/libc.a(strlen.o)
 .debug_loc     0x000000000001d0f3      0x102 0x1 /usr/local/popcorn/aarch64/lib/libc.a(strncmp.o)
 .debug_loc     0x000000000001d1f5      0x256 0x1 /usr/local/popcorn/aarch64/lib/libc.a(pthread_attr_get.o)
 .debug_loc     0x000000000001d44b       0xb2 0x1 /usr/local/popcorn/aarch64/lib/libc.a(pthread_getattr_np.o)
 .debug_loc     0x000000000001d4fd       0x46 0x1 /usr/local/popcorn/aarch64/lib/libc.a(pthread_migrate.o)
 .debug_loc     0x000000000001d543       0x23 0x1 /usr/local/popcorn/aarch64/lib/libc.a(pthread_self.o)
 .debug_loc     0x000000000001d566       0x46 0x1 /usr/local/popcorn/aarch64/lib/libc.a(close.o)
 .debug_loc     0x000000000001d5ac      0x185 0x1 /usr/local/popcorn/aarch64/lib/libc.a(lseek.o)
 .debug_loc     0x000000000001d731       0x8f 0x1 /usr/local/popcorn/aarch64/lib/libc.a(read.o)
 .debug_loc     0x000000000001d7c0     0x34e8 0x1 /usr/local/popcorn/aarch64/lib/libc.a(floatscan.o)
 .debug_loc     0x0000000000020ca8      0x732 0x1 /usr/local/popcorn/aarch64/lib/libc.a(intscan.o)
 .debug_loc     0x00000000000213da       0x92 0x1 /usr/local/popcorn/aarch64/lib/libc.a(shgetc.o)
 .debug_loc     0x000000000002146c      0xced 0x1 /usr/local/popcorn/aarch64/lib/libc.a(expand_heap.o)
 .debug_loc     0x0000000000022159       0x24 0x1 /usr/local/popcorn/aarch64/lib/libc.a(copysignl.o)
 .debug_loc     0x000000000002217d      0x5da 0x1 /usr/local/popcorn/aarch64/lib/libc.a(fmodl.o)
 .debug_loc     0x0000000000022757      0x168 0x1 /usr/local/popcorn/aarch64/lib/libc.a(scalbn.o)
 .debug_loc     0x00000000000228bf      0x16b 0x1 /usr/local/popcorn/aarch64/lib/libc.a(scalbnl.o)
 .debug_loc     0x0000000000022a2a      0x2e3 0x1 /usr/local/popcorn/aarch64/lib/libc.a(mbrtowc.o)
 .debug_loc     0x0000000000022d0d       0x36 0x1 /usr/local/popcorn/aarch64/lib/libc.a(mbsinit.o)
 .debug_loc     0x0000000000022d43      0x19d 0x1 /usr/local/popcorn/aarch64/lib/libc.a(block.o)
 .debug_loc     0x0000000000022ee0      0x108 0x1 /usr/local/popcorn/aarch64/lib/libc.a(raise.o)
 .debug_loc     0x0000000000022fe8      0x4fb 0x1 /usr/local/popcorn/aarch64/lib/libc.a(__fdopen.o)
 .debug_loc     0x00000000000234e3       0x7f 0x1 /usr/local/popcorn/aarch64/lib/libc.a(__fmodeflags.o)
 .debug_loc     0x0000000000023562      0x220 0x1 /usr/local/popcorn/aarch64/lib/libc.a(__stdio_read.o)
 .debug_loc     0x0000000000023782      0x11e 0x1 /usr/local/popcorn/aarch64/lib/libc.a(__string_read.o)
 .debug_loc     0x00000000000238a0       0x6e 0x1 /usr/local/popcorn/aarch64/lib/libc.a(__uflow.o)
 .debug_loc     0x000000000002390e       0x7f 0x1 /usr/local/popcorn/aarch64/lib/libc.a(fputc.o)
 .debug_loc     0x000000000002398d      0x39c 0x1 /usr/local/popcorn/aarch64/lib/libc.a(getdelim.o)
 .debug_loc     0x0000000000023d29       0x59 0x1 /usr/local/popcorn/aarch64/lib/libc.a(ofl_add.o)
 .debug_loc     0x0000000000023d82      0x105 0x1 /usr/local/popcorn/aarch64/lib/libc.a(__overflow.o)
 .debug_loc     0x0000000000023e87       0x36 0x1 /usr/local/popcorn/aarch64/lib/libc.a(__toread.o)

.debug_macinfo  0x0000000000000000       0x7d
 *(.debug_macinfo)
 .debug_macinfo
                0x0000000000000000        0x1 0x1 migrate_aarch64.o
 .debug_macinfo
                0x0000000000000001        0x1 0x1 /usr/local/popcorn/aarch64/lib/crt1.o
 .debug_macinfo
                0x0000000000000002        0x1 0x1 /usr/local/popcorn/aarch64/lib/libc.a(__libc_start_main.o)
 .debug_macinfo
                0x0000000000000003        0x1 0x1 /usr/local/popcorn/aarch64/lib/libc.a(exit.o)
 .debug_macinfo
                0x0000000000000004        0x1 0x1 /usr/local/popcorn/aarch64/lib/libc.a(libc.o)
 .debug_macinfo
                0x0000000000000005        0x1 0x1 /usr/local/popcorn/aarch64/lib/libc.a(printf.o)
 .debug_macinfo
                0x0000000000000006        0x1 0x1 /usr/local/popcorn/aarch64/lib/libc.a(stdout.o)
 .debug_macinfo
                0x0000000000000007        0x1 0x1 /usr/local/popcorn/aarch64/lib/libc.a(vfprintf.o)
 .debug_macinfo
                0x0000000000000008        0x1 0x1 /usr/local/popcorn/aarch64/lib/libc.a(memset.o)
 .debug_macinfo
                0x0000000000000009        0x1 0x1 /usr/local/popcorn/aarch64/lib/libc.a(strnlen.o)
 .debug_macinfo
                0x000000000000000a        0x1 0x1 /usr/local/popcorn/aarch64/lib/libc.a(gettid.o)
 .debug_macinfo
                0x000000000000000b        0x1 0x1 /usr/local/popcorn/aarch64/lib/libc.a(sleep.o)
 .debug_macinfo
                0x000000000000000c        0x1 0x1 /usr/local/popcorn/aarch64/lib/libc.a(__environ.o)
 .debug_macinfo
                0x000000000000000d        0x1 0x1 /usr/local/popcorn/aarch64/lib/libc.a(__init_tls.o)
 .debug_macinfo
                0x000000000000000e        0x1 0x1 /usr/local/popcorn/aarch64/lib/libc.a(__errno_location.o)
 .debug_macinfo
                0x000000000000000f        0x1 0x1 /usr/local/popcorn/aarch64/lib/libc.a(strerror.o)
 .debug_macinfo
                0x0000000000000010        0x1 0x1 /usr/local/popcorn/aarch64/lib/libc.a(_Exit.o)
 .debug_macinfo
                0x0000000000000011        0x1 0x1 /usr/local/popcorn/aarch64/lib/libc.a(__lctrans.o)
 .debug_macinfo
                0x0000000000000012        0x1 0x1 /usr/local/popcorn/aarch64/lib/libc.a(__fpclassifyl.o)
 .debug_macinfo
                0x0000000000000013        0x1 0x1 /usr/local/popcorn/aarch64/lib/libc.a(__signbitl.o)
 .debug_macinfo
                0x0000000000000014        0x1 0x1 /usr/local/popcorn/aarch64/lib/libc.a(frexpl.o)
 .debug_macinfo
                0x0000000000000015        0x1 0x1 /usr/local/popcorn/aarch64/lib/libc.a(wctomb.o)
 .debug_macinfo
                0x0000000000000016        0x1 0x1 /usr/local/popcorn/aarch64/lib/libc.a(__lockfile.o)
 .debug_macinfo
                0x0000000000000017        0x1 0x1 /usr/local/popcorn/aarch64/lib/libc.a(__stdio_close.o)
 .debug_macinfo
                0x0000000000000018        0x1 0x1 /usr/local/popcorn/aarch64/lib/libc.a(__stdio_seek.o)
 .debug_macinfo
                0x0000000000000019        0x1 0x1 /usr/local/popcorn/aarch64/lib/libc.a(__stdout_write.o)
 .debug_macinfo
                0x000000000000001a        0x1 0x1 /usr/local/popcorn/aarch64/lib/libc.a(fwrite.o)
 .debug_macinfo
                0x000000000000001b        0x1 0x1 /usr/local/popcorn/aarch64/lib/libc.a(memchr.o)
 .debug_macinfo
                0x000000000000001c        0x1 0x1 /usr/local/popcorn/aarch64/lib/libc.a(memcpy.o)
 .debug_macinfo
                0x000000000000001d        0x1 0x1 /usr/local/popcorn/aarch64/lib/libc.a(__wait.o)
 .debug_macinfo
                0x000000000000001e        0x1 0x1 /usr/local/popcorn/aarch64/lib/libc.a(nanosleep.o)
 .debug_macinfo
                0x000000000000001f        0x1 0x1 /usr/local/popcorn/aarch64/lib/libc.a(syscall_ret.o)
 .debug_macinfo
                0x0000000000000020        0x1 0x1 /usr/local/popcorn/aarch64/lib/libc.a(wcrtomb.o)
 .debug_macinfo
                0x0000000000000021        0x1 0x1 /usr/local/popcorn/aarch64/lib/libc.a(__stdio_write.o)
 .debug_macinfo
                0x0000000000000022        0x1 0x1 /usr/local/popcorn/aarch64/lib/libc.a(__towrite.o)
 .debug_macinfo
                0x0000000000000023        0x1 0x1 /usr/local/popcorn/aarch64/lib/libc.a(__syscall_cp.o)
 .debug_macinfo
                0x0000000000000024        0x1 0x1 /usr/local/popcorn/aarch64/lib/libc.a(__stdio_exit.o)
 .debug_macinfo
                0x0000000000000025        0x1 0x1 /usr/local/popcorn/aarch64/lib/libc.a(ofl.o)
 .debug_macinfo
                0x0000000000000026        0x1 0x1 /usr/local/popcorn/aarch64/lib/libc.a(__lock.o)
 .debug_macinfo
                0x0000000000000027        0x1 0x1 /usr/local/popcorn/aarch64/lib/libmigrate.a(migrate.o)
 .debug_macinfo
                0x0000000000000028        0x1 0x1 /usr/local/popcorn/aarch64/lib/libmigrate.a(mapping.o)
 .debug_macinfo
                0x0000000000000029        0x1 0x1 /usr/local/popcorn/aarch64/lib/libstack-transform.a(userspace.o)
 .debug_macinfo
                0x000000000000002a        0x1 0x1 /usr/local/popcorn/aarch64/lib/libstack-transform.a(init.o)
 .debug_macinfo
                0x000000000000002b        0x1 0x1 /usr/local/popcorn/aarch64/lib/libstack-transform.a(rewrite.o)
 .debug_macinfo
                0x000000000000002c        0x1 0x1 /usr/local/popcorn/aarch64/lib/libstack-transform.a(unwind.o)
 .debug_macinfo
                0x000000000000002d        0x1 0x1 /usr/local/popcorn/aarch64/lib/libstack-transform.a(util.o)
 .debug_macinfo
                0x000000000000002e        0x1 0x1 /usr/local/popcorn/aarch64/lib/libstack-transform.a(properties.o)
 .debug_macinfo
                0x000000000000002f        0x1 0x1 /usr/local/popcorn/aarch64/lib/libstack-transform.a(regs.o)
 .debug_macinfo
                0x0000000000000030        0x1 0x1 /usr/local/popcorn/aarch64/lib/libstack-transform.a(properties.o)
 .debug_macinfo
                0x0000000000000031        0x1 0x1 /usr/local/popcorn/aarch64/lib/libstack-transform.a(regs.o)
 .debug_macinfo
                0x0000000000000032        0x1 0x1 /usr/local/popcorn/aarch64/lib/libstack-transform.a(properties.o)
 .debug_macinfo
                0x0000000000000033        0x1 0x1 /usr/local/popcorn/aarch64/lib/libstack-transform.a(regs.o)
 .debug_macinfo
                0x0000000000000034        0x1 0x1 /usr/local/popcorn/aarch64/lib/libstack-transform.a(properties.o)
 .debug_macinfo
                0x0000000000000035        0x1 0x1 /usr/local/popcorn/aarch64/lib/libstack-transform.a(regs.o)
 .debug_macinfo
                0x0000000000000036        0x1 0x1 /usr/local/popcorn/aarch64/lib/libstack-transform.a(data.o)
 .debug_macinfo
                0x0000000000000037        0x1 0x1 /usr/local/popcorn/aarch64/lib/libc.a(arch_crash.o)
 .debug_macinfo
                0x0000000000000038        0x1 0x1 /usr/local/popcorn/aarch64/lib/libc.a(getenv.o)
 .debug_macinfo
                0x0000000000000039        0x1 0x1 /usr/local/popcorn/aarch64/lib/libc.a(platform.o)
 .debug_macinfo
                0x000000000000003a        0x1 0x1 /usr/local/popcorn/aarch64/lib/libc.a(assert.o)
 .debug_macinfo
                0x000000000000003b        0x1 0x1 /usr/local/popcorn/aarch64/lib/libc.a(open.o)
 .debug_macinfo
                0x000000000000003c        0x1 0x1 /usr/local/popcorn/aarch64/lib/libc.a(calloc.o)
 .debug_macinfo
                0x000000000000003d        0x1 0x1 /usr/local/popcorn/aarch64/lib/libc.a(lite_malloc.o)
 .debug_macinfo
                0x000000000000003e        0x1 0x1 /usr/local/popcorn/aarch64/lib/libc.a(malloc.o)
 .debug_macinfo
                0x000000000000003f        0x1 0x1 /usr/local/popcorn/aarch64/lib/libc.a(popcorn_malloc.o)
 .debug_macinfo
                0x0000000000000040        0x1 0x1 /usr/local/popcorn/aarch64/lib/libc.a(getrlimit.o)
 .debug_macinfo
                0x0000000000000041        0x1 0x1 /usr/local/popcorn/aarch64/lib/libc.a(madvise.o)
 .debug_macinfo
                0x0000000000000042        0x1 0x1 /usr/local/popcorn/aarch64/lib/libc.a(mmap.o)
 .debug_macinfo
                0x0000000000000043        0x1 0x1 /usr/local/popcorn/aarch64/lib/libc.a(mremap.o)
 .debug_macinfo
                0x0000000000000044        0x1 0x1 /usr/local/popcorn/aarch64/lib/libc.a(munmap.o)
 .debug_macinfo
                0x0000000000000045        0x1 0x1 /usr/local/popcorn/aarch64/lib/libc.a(fclose.o)
 .debug_macinfo
                0x0000000000000046        0x1 0x1 /usr/local/popcorn/aarch64/lib/libc.a(fflush.o)
 .debug_macinfo
                0x0000000000000047        0x1 0x1 /usr/local/popcorn/aarch64/lib/libc.a(fopen.o)
 .debug_macinfo
                0x0000000000000048        0x1 0x1 /usr/local/popcorn/aarch64/lib/libc.a(fprintf.o)
 .debug_macinfo
                0x0000000000000049        0x1 0x1 /usr/local/popcorn/aarch64/lib/libc.a(fscanf.o)
 .debug_macinfo
                0x000000000000004a        0x1 0x1 /usr/local/popcorn/aarch64/lib/libc.a(fseek.o)
 .debug_macinfo
                0x000000000000004b        0x1 0x1 /usr/local/popcorn/aarch64/lib/libc.a(getc.o)
 .debug_macinfo
                0x000000000000004c        0x1 0x1 /usr/local/popcorn/aarch64/lib/libc.a(getline.o)
 .debug_macinfo
                0x000000000000004d        0x1 0x1 /usr/local/popcorn/aarch64/lib/libc.a(perror.o)
 .debug_macinfo
                0x000000000000004e        0x1 0x1 /usr/local/popcorn/aarch64/lib/libc.a(snprintf.o)
 .debug_macinfo
                0x000000000000004f        0x1 0x1 /usr/local/popcorn/aarch64/lib/libc.a(sscanf.o)
 .debug_macinfo
                0x0000000000000050        0x1 0x1 /usr/local/popcorn/aarch64/lib/libc.a(stderr.o)
 .debug_macinfo
                0x0000000000000051        0x1 0x1 /usr/local/popcorn/aarch64/lib/libc.a(vfscanf.o)
 .debug_macinfo
                0x0000000000000052        0x1 0x1 /usr/local/popcorn/aarch64/lib/libc.a(vsnprintf.o)
 .debug_macinfo
                0x0000000000000053        0x1 0x1 /usr/local/popcorn/aarch64/lib/libc.a(vsscanf.o)
 .debug_macinfo
                0x0000000000000054        0x1 0x1 /usr/local/popcorn/aarch64/lib/libc.a(bsearch.o)
 .debug_macinfo
                0x0000000000000055        0x1 0x1 /usr/local/popcorn/aarch64/lib/libc.a(qsort.o)
 .debug_macinfo
                0x0000000000000056        0x1 0x1 /usr/local/popcorn/aarch64/lib/libc.a(strtol.o)
 .debug_macinfo
                0x0000000000000057        0x1 0x1 /usr/local/popcorn/aarch64/lib/libc.a(strchr.o)
 .debug_macinfo
                0x0000000000000058        0x1 0x1 /usr/local/popcorn/aarch64/lib/libc.a(strchrnul.o)
 .debug_macinfo
                0x0000000000000059        0x1 0x1 /usr/local/popcorn/aarch64/lib/libc.a(strcmp.o)
 .debug_macinfo
                0x000000000000005a        0x1 0x1 /usr/local/popcorn/aarch64/lib/libc.a(strlen.o)
 .debug_macinfo
                0x000000000000005b        0x1 0x1 /usr/local/popcorn/aarch64/lib/libc.a(strncmp.o)
 .debug_macinfo
                0x000000000000005c        0x1 0x1 /usr/local/popcorn/aarch64/lib/libc.a(pthread_attr_get.o)
 .debug_macinfo
                0x000000000000005d        0x1 0x1 /usr/local/popcorn/aarch64/lib/libc.a(pthread_getattr_np.o)
 .debug_macinfo
                0x000000000000005e        0x1 0x1 /usr/local/popcorn/aarch64/lib/libc.a(pthread_migrate.o)
 .debug_macinfo
                0x000000000000005f        0x1 0x1 /usr/local/popcorn/aarch64/lib/libc.a(pthread_self.o)
 .debug_macinfo
                0x0000000000000060        0x1 0x1 /usr/local/popcorn/aarch64/lib/libc.a(close.o)
 .debug_macinfo
                0x0000000000000061        0x1 0x1 /usr/local/popcorn/aarch64/lib/libc.a(getpid.o)
 .debug_macinfo
                0x0000000000000062        0x1 0x1 /usr/local/popcorn/aarch64/lib/libc.a(lseek.o)
 .debug_macinfo
                0x0000000000000063        0x1 0x1 /usr/local/popcorn/aarch64/lib/libc.a(read.o)
 .debug_macinfo
                0x0000000000000064        0x1 0x1 /usr/local/popcorn/aarch64/lib/libc.a(abort.o)
 .debug_macinfo
                0x0000000000000065        0x1 0x1 /usr/local/popcorn/aarch64/lib/libc.a(floatscan.o)
 .debug_macinfo
                0x0000000000000066        0x1 0x1 /usr/local/popcorn/aarch64/lib/libc.a(intscan.o)
 .debug_macinfo
                0x0000000000000067        0x1 0x1 /usr/local/popcorn/aarch64/lib/libc.a(shgetc.o)
 .debug_macinfo
                0x0000000000000068        0x1 0x1 /usr/local/popcorn/aarch64/lib/libc.a(expand_heap.o)
 .debug_macinfo
                0x0000000000000069        0x1 0x1 /usr/local/popcorn/aarch64/lib/libc.a(fabs.o)
 .debug_macinfo
                0x000000000000006a        0x1 0x1 /usr/local/popcorn/aarch64/lib/libc.a(copysignl.o)
 .debug_macinfo
                0x000000000000006b        0x1 0x1 /usr/local/popcorn/aarch64/lib/libc.a(fmodl.o)
 .debug_macinfo
                0x000000000000006c        0x1 0x1 /usr/local/popcorn/aarch64/lib/libc.a(scalbn.o)
 .debug_macinfo
                0x000000000000006d        0x1 0x1 /usr/local/popcorn/aarch64/lib/libc.a(scalbnl.o)
 .debug_macinfo
                0x000000000000006e        0x1 0x1 /usr/local/popcorn/aarch64/lib/libc.a(mbrtowc.o)
 .debug_macinfo
                0x000000000000006f        0x1 0x1 /usr/local/popcorn/aarch64/lib/libc.a(mbsinit.o)
 .debug_macinfo
                0x0000000000000070        0x1 0x1 /usr/local/popcorn/aarch64/lib/libc.a(block.o)
 .debug_macinfo
                0x0000000000000071        0x1 0x1 /usr/local/popcorn/aarch64/lib/libc.a(raise.o)
 .debug_macinfo
                0x0000000000000072        0x1 0x1 /usr/local/popcorn/aarch64/lib/libc.a(__fdopen.o)
 .debug_macinfo
                0x0000000000000073        0x1 0x1 /usr/local/popcorn/aarch64/lib/libc.a(__fmodeflags.o)
 .debug_macinfo
                0x0000000000000074        0x1 0x1 /usr/local/popcorn/aarch64/lib/libc.a(__stdio_read.o)
 .debug_macinfo
                0x0000000000000075        0x1 0x1 /usr/local/popcorn/aarch64/lib/libc.a(__string_read.o)
 .debug_macinfo
                0x0000000000000076        0x1 0x1 /usr/local/popcorn/aarch64/lib/libc.a(__uflow.o)
 .debug_macinfo
                0x0000000000000077        0x1 0x1 /usr/local/popcorn/aarch64/lib/libc.a(fputc.o)
 .debug_macinfo
                0x0000000000000078        0x1 0x1 /usr/local/popcorn/aarch64/lib/libc.a(getdelim.o)
 .debug_macinfo
                0x0000000000000079        0x1 0x1 /usr/local/popcorn/aarch64/lib/libc.a(ofl_add.o)
 .debug_macinfo
                0x000000000000007a        0x1 0x1 /usr/local/popcorn/aarch64/lib/libc.a(internal.o)
 .debug_macinfo
                0x000000000000007b        0x1 0x1 /usr/local/popcorn/aarch64/lib/libc.a(__overflow.o)
 .debug_macinfo
                0x000000000000007c        0x1 0x1 /usr/local/popcorn/aarch64/lib/libc.a(__toread.o)

.debug_weaknames
 *(.debug_weaknames)

.debug_funcnames
 *(.debug_funcnames)

.debug_typenames
 *(.debug_typenames)

.debug_varnames
 *(.debug_varnames)

.debug_pubtypes
 *(.debug_pubtypes)

.debug_ranges   0x0000000000000000     0x3b50
 *(.debug_ranges)
 .debug_ranges  0x0000000000000000       0x40 0x1 migrate_aarch64.o
 .debug_ranges  0x0000000000000040       0x90 0x1 /usr/local/popcorn/aarch64/lib/libc.a(__libc_start_main.o)
 .debug_ranges  0x00000000000000d0       0x40 0x1 /usr/local/popcorn/aarch64/lib/libc.a(exit.o)
 .debug_ranges  0x0000000000000110      0x5e0 0x1 /usr/local/popcorn/aarch64/lib/libc.a(vfprintf.o)
 .debug_ranges  0x00000000000006f0       0x40 0x1 /usr/local/popcorn/aarch64/lib/libc.a(__init_tls.o)
 .debug_ranges  0x0000000000000730       0x30 0x1 /usr/local/popcorn/aarch64/lib/libc.a(strerror.o)
 .debug_ranges  0x0000000000000760       0x40 0x1 /usr/local/popcorn/aarch64/lib/libc.a(__lctrans.o)
 .debug_ranges  0x00000000000007a0       0x60 0x1 /usr/local/popcorn/aarch64/lib/libc.a(__lockfile.o)
 .debug_ranges  0x0000000000000800       0x60 0x1 /usr/local/popcorn/aarch64/lib/libc.a(__stdio_close.o)
 .debug_ranges  0x0000000000000860       0x60 0x1 /usr/local/popcorn/aarch64/lib/libc.a(fwrite.o)
 .debug_ranges  0x00000000000008c0       0x50 0x1 /usr/local/popcorn/aarch64/lib/libc.a(__stdio_write.o)
 .debug_ranges  0x0000000000000910       0x30 0x1 /usr/local/popcorn/aarch64/lib/libc.a(__towrite.o)
 .debug_ranges  0x0000000000000940       0x30 0x1 /usr/local/popcorn/aarch64/lib/libc.a(__syscall_cp.o)
 .debug_ranges  0x0000000000000970       0x30 0x1 /usr/local/popcorn/aarch64/lib/libc.a(__stdio_exit.o)
 .debug_ranges  0x00000000000009a0       0x30 0x1 /usr/local/popcorn/aarch64/lib/libc.a(ofl.o)
 .debug_ranges  0x00000000000009d0       0x30 0x1 /usr/local/popcorn/aarch64/lib/libc.a(__lock.o)
 .debug_ranges  0x0000000000000a00       0xc0 0x1 /usr/local/popcorn/aarch64/lib/libmigrate.a(migrate.o)
 .debug_ranges  0x0000000000000ac0       0x70 0x1 /usr/local/popcorn/aarch64/lib/libmigrate.a(mapping.o)
 .debug_ranges  0x0000000000000b30      0x160 0x1 /usr/local/popcorn/aarch64/lib/libstack-transform.a(userspace.o)
 .debug_ranges  0x0000000000000c90       0x50 0x1 /usr/local/popcorn/aarch64/lib/libstack-transform.a(init.o)
 .debug_ranges  0x0000000000000ce0      0x2a0 0x1 /usr/local/popcorn/aarch64/lib/libstack-transform.a(rewrite.o)
 .debug_ranges  0x0000000000000f80      0x290 0x1 /usr/local/popcorn/aarch64/lib/libstack-transform.a(unwind.o)
 .debug_ranges  0x0000000000001210       0xe0 0x1 /usr/local/popcorn/aarch64/lib/libstack-transform.a(util.o)
 .debug_ranges  0x00000000000012f0       0x40 0x1 /usr/local/popcorn/aarch64/lib/libstack-transform.a(properties.o)
 .debug_ranges  0x0000000000001330      0x120 0x1 /usr/local/popcorn/aarch64/lib/libstack-transform.a(regs.o)
 .debug_ranges  0x0000000000001450       0x40 0x1 /usr/local/popcorn/aarch64/lib/libstack-transform.a(properties.o)
 .debug_ranges  0x0000000000001490      0x120 0x1 /usr/local/popcorn/aarch64/lib/libstack-transform.a(regs.o)
 .debug_ranges  0x00000000000015b0       0x40 0x1 /usr/local/popcorn/aarch64/lib/libstack-transform.a(properties.o)
 .debug_ranges  0x00000000000015f0      0x120 0x1 /usr/local/popcorn/aarch64/lib/libstack-transform.a(regs.o)
 .debug_ranges  0x0000000000001710       0x40 0x1 /usr/local/popcorn/aarch64/lib/libstack-transform.a(properties.o)
 .debug_ranges  0x0000000000001750      0x120 0x1 /usr/local/popcorn/aarch64/lib/libstack-transform.a(regs.o)
 .debug_ranges  0x0000000000001870      0x5a0 0x1 /usr/local/popcorn/aarch64/lib/libstack-transform.a(data.o)
 .debug_ranges  0x0000000000001e10       0x60 0x1 /usr/local/popcorn/aarch64/lib/libc.a(arch_crash.o)
 .debug_ranges  0x0000000000001e70       0x30 0x1 /usr/local/popcorn/aarch64/lib/libc.a(getenv.o)
 .debug_ranges  0x0000000000001ea0       0x40 0x1 /usr/local/popcorn/aarch64/lib/libc.a(platform.o)
 .debug_ranges  0x0000000000001ee0       0x30 0x1 /usr/local/popcorn/aarch64/lib/libc.a(open.o)
 .debug_ranges  0x0000000000001f10       0x70 0x1 /usr/local/popcorn/aarch64/lib/libc.a(calloc.o)
 .debug_ranges  0x0000000000001f80       0x40 0x1 /usr/local/popcorn/aarch64/lib/libc.a(lite_malloc.o)
 .debug_ranges  0x0000000000001fc0      0x610 0x1 /usr/local/popcorn/aarch64/lib/libc.a(malloc.o)
 .debug_ranges  0x00000000000025d0      0x830 0x1 /usr/local/popcorn/aarch64/lib/libc.a(popcorn_malloc.o)
 .debug_ranges  0x0000000000002e00       0x30 0x1 /usr/local/popcorn/aarch64/lib/libc.a(madvise.o)
 .debug_ranges  0x0000000000002e30       0x60 0x1 /usr/local/popcorn/aarch64/lib/libc.a(mmap.o)
 .debug_ranges  0x0000000000002e90       0x60 0x1 /usr/local/popcorn/aarch64/lib/libc.a(mremap.o)
 .debug_ranges  0x0000000000002ef0       0x30 0x1 /usr/local/popcorn/aarch64/lib/libc.a(munmap.o)
 .debug_ranges  0x0000000000002f20       0x30 0x1 /usr/local/popcorn/aarch64/lib/libc.a(fclose.o)
 .debug_ranges  0x0000000000002f50       0x30 0x1 /usr/local/popcorn/aarch64/lib/libc.a(fflush.o)
 .debug_ranges  0x0000000000002f80       0x30 0x1 /usr/local/popcorn/aarch64/lib/libc.a(fopen.o)
 .debug_ranges  0x0000000000002fb0       0x40 0x1 /usr/local/popcorn/aarch64/lib/libc.a(fseek.o)
 .debug_ranges  0x0000000000002ff0      0x140 0x1 /usr/local/popcorn/aarch64/lib/libc.a(vfscanf.o)
 .debug_ranges  0x0000000000003130       0x30 0x1 /usr/local/popcorn/aarch64/lib/libc.a(vsnprintf.o)
 .debug_ranges  0x0000000000003160       0x30 0x1 /usr/local/popcorn/aarch64/lib/libc.a(vsscanf.o)
 .debug_ranges  0x0000000000003190      0x150 0x1 /usr/local/popcorn/aarch64/lib/libc.a(qsort.o)
 .debug_ranges  0x00000000000032e0       0x80 0x1 /usr/local/popcorn/aarch64/lib/libc.a(strtol.o)
 .debug_ranges  0x0000000000003360      0x110 0x1 /usr/local/popcorn/aarch64/lib/libc.a(pthread_attr_get.o)
 .debug_ranges  0x0000000000003470       0x30 0x1 /usr/local/popcorn/aarch64/lib/libc.a(pthread_migrate.o)
 .debug_ranges  0x00000000000034a0       0x30 0x1 /usr/local/popcorn/aarch64/lib/libc.a(close.o)
 .debug_ranges  0x00000000000034d0       0x30 0x1 /usr/local/popcorn/aarch64/lib/libc.a(lseek.o)
 .debug_ranges  0x0000000000003500      0x370 0x1 /usr/local/popcorn/aarch64/lib/libc.a(floatscan.o)
 .debug_ranges  0x0000000000003870       0x80 0x1 /usr/local/popcorn/aarch64/lib/libc.a(intscan.o)
 .debug_ranges  0x00000000000038f0       0x30 0x1 /usr/local/popcorn/aarch64/lib/libc.a(shgetc.o)
 .debug_ranges  0x0000000000003920      0x130 0x1 /usr/local/popcorn/aarch64/lib/libc.a(expand_heap.o)
 .debug_ranges  0x0000000000003a50       0x40 0x1 /usr/local/popcorn/aarch64/lib/libc.a(block.o)
 .debug_ranges  0x0000000000003a90       0x30 0x1 /usr/local/popcorn/aarch64/lib/libc.a(__fdopen.o)
 .debug_ranges  0x0000000000003ac0       0x30 0x1 /usr/local/popcorn/aarch64/lib/libc.a(__stdio_read.o)
 .debug_ranges  0x0000000000003af0       0x30 0x1 /usr/local/popcorn/aarch64/lib/libc.a(getdelim.o)
 .debug_ranges  0x0000000000003b20       0x30 0x1 /usr/local/popcorn/aarch64/lib/libc.a(__toread.o)

.debug_macro
 *(.debug_macro)

.debug_addr
 *(.debug_addr)

.ARM.attributes
 *(.ARM.attributes)
 *(.gnu.attributes)

.note.gnu.arm.ident
 *(.note.gnu.arm.ident)

/DISCARD/
 *(.note.GNU-stack)
 *(.gnu_debuglink)
 *(.gnu.lto_*)
OUTPUT(build_aarch64/migrate_two_times_aarch64 elf64-littleaarch64)
