Archive member included because of file (symbol)

/usr/local/popcorn/aarch64/lib/libc.a(isdigit.o)
                              dc_aarch64.o (isdigit)
/usr/local/popcorn/aarch64/lib/libc.a(__libc_start_main.o)
                              /usr/local/popcorn/aarch64/lib/crt1.o (__libc_start_main)
/usr/local/popcorn/aarch64/lib/libc.a(__errno_location.o)
                              dc_aarch64.o (__errno_location)
/usr/local/popcorn/aarch64/lib/libc.a(exit.o)
                              dc_aarch64.o (exit)
/usr/local/popcorn/aarch64/lib/libc.a(libc.o)
                              /usr/local/popcorn/aarch64/lib/libc.a(__libc_start_main.o) (__hwcap)
/usr/local/popcorn/aarch64/lib/libc.a(calloc.o)
                              adc_aarch64.o (calloc)
/usr/local/popcorn/aarch64/lib/libc.a(lite_malloc.o)
                              /usr/local/popcorn/aarch64/lib/libc.a(calloc.o) (__malloc0)
/usr/local/popcorn/aarch64/lib/libc.a(malloc.o)
                              dc_aarch64.o (free)
/usr/local/popcorn/aarch64/lib/libc.a(popcorn_malloc.o)
                              /usr/local/popcorn/aarch64/lib/libc.a(calloc.o) (__popcorn_malloc0)
/usr/local/popcorn/aarch64/lib/libc.a(pow.o)
                              print_results_aarch64.o (pow)
/usr/local/popcorn/aarch64/lib/libc.a(scalbn.o)
                              /usr/local/popcorn/aarch64/lib/libc.a(pow.o) (scalbn)
/usr/local/popcorn/aarch64/lib/libc.a(madvise.o)
                              /usr/local/popcorn/aarch64/lib/libc.a(malloc.o) (__madvise)
/usr/local/popcorn/aarch64/lib/libc.a(mmap.o)
                              /usr/local/popcorn/aarch64/lib/libc.a(malloc.o) (__mmap)
/usr/local/popcorn/aarch64/lib/libc.a(mremap.o)
                              /usr/local/popcorn/aarch64/lib/libc.a(malloc.o) (__mremap)
/usr/local/popcorn/aarch64/lib/libc.a(munmap.o)
                              /usr/local/popcorn/aarch64/lib/libc.a(malloc.o) (__munmap)
/usr/local/popcorn/aarch64/lib/libc.a(fclose.o)
                              adc_aarch64.o (fclose)
/usr/local/popcorn/aarch64/lib/libc.a(fflush.o)
                              jobcntl_aarch64.o (fflush)
/usr/local/popcorn/aarch64/lib/libc.a(fgets.o)
                              adc_aarch64.o (fgets)
/usr/local/popcorn/aarch64/lib/libc.a(fopen.o)
                              adc_aarch64.o (fopen)
/usr/local/popcorn/aarch64/lib/libc.a(fprintf.o)
                              dc_aarch64.o (fprintf)
/usr/local/popcorn/aarch64/lib/libc.a(fread.o)
                              extbuild_aarch64.o (fread)
/usr/local/popcorn/aarch64/lib/libc.a(fscanf.o)
                              extbuild_aarch64.o (fscanf)
/usr/local/popcorn/aarch64/lib/libc.a(fseek.o)
                              extbuild_aarch64.o (fseek)
/usr/local/popcorn/aarch64/lib/libc.a(ftell.o)
                              extbuild_aarch64.o (ftell)
/usr/local/popcorn/aarch64/lib/libc.a(fwrite.o)
                              adc_aarch64.o (fwrite)
/usr/local/popcorn/aarch64/lib/libc.a(ofl.o)
                              /usr/local/popcorn/aarch64/lib/libc.a(fclose.o) (__ofl_lock)
/usr/local/popcorn/aarch64/lib/libc.a(printf.o)
                              print_results_aarch64.o (printf)
/usr/local/popcorn/aarch64/lib/libc.a(sprintf.o)
                              adc_aarch64.o (sprintf)
/usr/local/popcorn/aarch64/lib/libc.a(sscanf.o)
                              adc_aarch64.o (sscanf)
/usr/local/popcorn/aarch64/lib/libc.a(stderr.o)
                              dc_aarch64.o (stderr)
/usr/local/popcorn/aarch64/lib/libc.a(stdout.o)
                              dc_aarch64.o (stdout)
/usr/local/popcorn/aarch64/lib/libc.a(vfprintf.o)
                              /usr/local/popcorn/aarch64/lib/libc.a(fprintf.o) (vfprintf)
/usr/local/popcorn/aarch64/lib/libc.a(vfscanf.o)
                              /usr/local/popcorn/aarch64/lib/libc.a(fscanf.o) (vfscanf)
/usr/local/popcorn/aarch64/lib/libc.a(vsprintf.o)
                              /usr/local/popcorn/aarch64/lib/libc.a(sprintf.o) (vsprintf)
/usr/local/popcorn/aarch64/lib/libc.a(vsscanf.o)
                              /usr/local/popcorn/aarch64/lib/libc.a(sscanf.o) (vsscanf)
/usr/local/popcorn/aarch64/lib/libc.a(atoi.o)
                              dc_aarch64.o (atoi)
/usr/local/popcorn/aarch64/lib/libc.a(qsort.o)
                              adc_aarch64.o (qsort)
/usr/local/popcorn/aarch64/lib/libc.a(memchr.o)
                              /usr/local/popcorn/aarch64/lib/libc.a(fgets.o) (memchr)
/usr/local/popcorn/aarch64/lib/libc.a(memcpy.o)
                              extbuild_aarch64.o (memcpy)
/usr/local/popcorn/aarch64/lib/libc.a(memset.o)
                              /usr/local/popcorn/aarch64/lib/libc.a(__libc_start_main.o) (memset)
/usr/local/popcorn/aarch64/lib/libc.a(strcat.o)
                              extbuild_aarch64.o (strcat)
/usr/local/popcorn/aarch64/lib/libc.a(strchr.o)
                              adc_aarch64.o (strchr)
/usr/local/popcorn/aarch64/lib/libc.a(strchrnul.o)
                              /usr/local/popcorn/aarch64/lib/libc.a(strchr.o) (__strchrnul)
/usr/local/popcorn/aarch64/lib/libc.a(strcmp.o)
                              extbuild_aarch64.o (strcmp)
/usr/local/popcorn/aarch64/lib/libc.a(strcpy.o)
                              dc_aarch64.o (strcpy)
/usr/local/popcorn/aarch64/lib/libc.a(strlen.o)
                              adc_aarch64.o (strlen)
/usr/local/popcorn/aarch64/lib/libc.a(strnlen.o)
                              /usr/local/popcorn/aarch64/lib/libc.a(vfprintf.o) (strnlen)
/usr/local/popcorn/aarch64/lib/libc.a(strstr.o)
                              adc_aarch64.o (strstr)
/usr/local/popcorn/aarch64/lib/libc.a(__lock.o)
                              /usr/local/popcorn/aarch64/lib/libc.a(lite_malloc.o) (__lock)
/usr/local/popcorn/aarch64/lib/libc.a(__wait.o)
                              /usr/local/popcorn/aarch64/lib/libc.a(malloc.o) (__wait)
/usr/local/popcorn/aarch64/lib/libc.a(gettimeofday.o)
                              wtime_aarch64.o (gettimeofday)
/usr/local/popcorn/aarch64/lib/libc.a(unlink.o)
                              jobcntl_aarch64.o (unlink)
/usr/local/popcorn/aarch64/lib/libc.a(__environ.o)
                              /usr/local/popcorn/aarch64/lib/libc.a(__libc_start_main.o) (__environ)
/usr/local/popcorn/aarch64/lib/libc.a(__init_tls.o)
                              /usr/local/popcorn/aarch64/lib/libc.a(__libc_start_main.o) (__init_tls)
/usr/local/popcorn/aarch64/lib/libc.a(platform.o)
                              /usr/local/popcorn/aarch64/lib/libc.a(calloc.o) (popcorn_getnid)
/usr/local/popcorn/aarch64/lib/libc.a(strerror.o)
                              /usr/local/popcorn/aarch64/lib/libc.a(vfprintf.o) (strerror)
/usr/local/popcorn/aarch64/lib/libc.a(_Exit.o)
                              /usr/local/popcorn/aarch64/lib/libc.a(exit.o) (_Exit)
/usr/local/popcorn/aarch64/lib/libc.a(floatscan.o)
                              /usr/local/popcorn/aarch64/lib/libc.a(vfscanf.o) (__floatscan)
/usr/local/popcorn/aarch64/lib/libc.a(intscan.o)
                              /usr/local/popcorn/aarch64/lib/libc.a(vfscanf.o) (__intscan)
/usr/local/popcorn/aarch64/lib/libc.a(shgetc.o)
                              /usr/local/popcorn/aarch64/lib/libc.a(vfscanf.o) (__shgetc)
/usr/local/popcorn/aarch64/lib/libc.a(syscall_ret.o)
                              /usr/local/popcorn/aarch64/lib/libc.a(madvise.o) (__syscall_ret)
/usr/local/popcorn/aarch64/lib/libc.a(__lctrans.o)
                              /usr/local/popcorn/aarch64/lib/libc.a(strerror.o) (__lctrans)
/usr/local/popcorn/aarch64/lib/libc.a(expand_heap.o)
                              /usr/local/popcorn/aarch64/lib/libc.a(lite_malloc.o) (__expand_heap)
/usr/local/popcorn/aarch64/lib/libc.a(__fpclassifyl.o)
                              /usr/local/popcorn/aarch64/lib/libc.a(vfprintf.o) (__fpclassifyl)
/usr/local/popcorn/aarch64/lib/libc.a(__signbitl.o)
                              /usr/local/popcorn/aarch64/lib/libc.a(vfprintf.o) (__signbitl)
/usr/local/popcorn/aarch64/lib/libc.a(fabs.o)
                              /usr/local/popcorn/aarch64/lib/libc.a(pow.o) (fabs)
/usr/local/popcorn/aarch64/lib/libc.a(sqrt.o)
                              /usr/local/popcorn/aarch64/lib/libc.a(pow.o) (sqrt)
/usr/local/popcorn/aarch64/lib/libc.a(copysignl.o)
                              /usr/local/popcorn/aarch64/lib/libc.a(floatscan.o) (copysignl)
/usr/local/popcorn/aarch64/lib/libc.a(fmodl.o)
                              /usr/local/popcorn/aarch64/lib/libc.a(floatscan.o) (fmodl)
/usr/local/popcorn/aarch64/lib/libc.a(frexpl.o)
                              /usr/local/popcorn/aarch64/lib/libc.a(vfprintf.o) (frexpl)
/usr/local/popcorn/aarch64/lib/libc.a(scalbnl.o)
                              /usr/local/popcorn/aarch64/lib/libc.a(floatscan.o) (scalbnl)
/usr/local/popcorn/aarch64/lib/libc.a(mbrtowc.o)
                              /usr/local/popcorn/aarch64/lib/libc.a(vfscanf.o) (mbrtowc)
/usr/local/popcorn/aarch64/lib/libc.a(mbsinit.o)
                              /usr/local/popcorn/aarch64/lib/libc.a(vfscanf.o) (mbsinit)
/usr/local/popcorn/aarch64/lib/libc.a(wctomb.o)
                              /usr/local/popcorn/aarch64/lib/libc.a(vfprintf.o) (wctomb)
/usr/local/popcorn/aarch64/lib/libc.a(__fdopen.o)
                              /usr/local/popcorn/aarch64/lib/libc.a(fopen.o) (__fdopen)
/usr/local/popcorn/aarch64/lib/libc.a(__fmodeflags.o)
                              /usr/local/popcorn/aarch64/lib/libc.a(fopen.o) (__fmodeflags)
/usr/local/popcorn/aarch64/lib/libc.a(__lockfile.o)
                              /usr/local/popcorn/aarch64/lib/libc.a(fclose.o) (__lockfile)
/usr/local/popcorn/aarch64/lib/libc.a(__stdio_close.o)
                              /usr/local/popcorn/aarch64/lib/libc.a(stderr.o) (__stdio_close)
/usr/local/popcorn/aarch64/lib/libc.a(__stdio_read.o)
                              /usr/local/popcorn/aarch64/lib/libc.a(__fdopen.o) (__stdio_read)
/usr/local/popcorn/aarch64/lib/libc.a(__stdio_seek.o)
                              /usr/local/popcorn/aarch64/lib/libc.a(stderr.o) (__stdio_seek)
/usr/local/popcorn/aarch64/lib/libc.a(__stdio_write.o)
                              /usr/local/popcorn/aarch64/lib/libc.a(stderr.o) (__stdio_write)
/usr/local/popcorn/aarch64/lib/libc.a(__stdout_write.o)
                              /usr/local/popcorn/aarch64/lib/libc.a(stdout.o) (__stdout_write)
/usr/local/popcorn/aarch64/lib/libc.a(__string_read.o)
                              /usr/local/popcorn/aarch64/lib/libc.a(vsscanf.o) (__string_read)
/usr/local/popcorn/aarch64/lib/libc.a(__toread.o)
                              /usr/local/popcorn/aarch64/lib/libc.a(fread.o) (__toread)
/usr/local/popcorn/aarch64/lib/libc.a(__towrite.o)
                              /usr/local/popcorn/aarch64/lib/libc.a(fwrite.o) (__towrite)
/usr/local/popcorn/aarch64/lib/libc.a(__uflow.o)
                              /usr/local/popcorn/aarch64/lib/libc.a(fgets.o) (__uflow)
/usr/local/popcorn/aarch64/lib/libc.a(ofl_add.o)
                              /usr/local/popcorn/aarch64/lib/libc.a(__fdopen.o) (__ofl_add)
/usr/local/popcorn/aarch64/lib/libc.a(vsnprintf.o)
                              /usr/local/popcorn/aarch64/lib/libc.a(vsprintf.o) (vsnprintf)
/usr/local/popcorn/aarch64/lib/libc.a(memcmp.o)
                              /usr/local/popcorn/aarch64/lib/libc.a(strstr.o) (memcmp)
/usr/local/popcorn/aarch64/lib/libc.a(stpcpy.o)
                              /usr/local/popcorn/aarch64/lib/libc.a(strcpy.o) (__stpcpy)
/usr/local/popcorn/aarch64/lib/libc.a(__set_thread_area.o)
                              /usr/local/popcorn/aarch64/lib/libc.a(__init_tls.o) (__set_thread_area)
/usr/local/popcorn/aarch64/lib/libc.a(clock_gettime.o)
                              /usr/local/popcorn/aarch64/lib/libc.a(gettimeofday.o) (clock_gettime)
/usr/local/popcorn/aarch64/lib/libc.a(internal.o)
                              /usr/local/popcorn/aarch64/lib/libc.a(mbrtowc.o) (__fsmu8)
/usr/local/popcorn/aarch64/lib/libc.a(wcrtomb.o)
                              /usr/local/popcorn/aarch64/lib/libc.a(wctomb.o) (wcrtomb)
/usr/local/popcorn/aarch64/lib/libc.a(__stdio_exit.o)
                              /usr/local/popcorn/aarch64/lib/libc.a(__toread.o) (__stdio_exit_needed)
/usr/local/popcorn/aarch64/lib/libmigrate.a(migrate.o)
                              dc_aarch64.o (check_migrate)
/usr/local/popcorn/aarch64/lib/libmigrate.a(migrate_aarch64.o)
                              /usr/local/popcorn/aarch64/lib/libmigrate.a(migrate.o) (__migrate_fixup_aarch64)
/usr/local/popcorn/aarch64/lib/libmigrate.a(migrate_powerpc64.o)
                              /usr/local/popcorn/aarch64/lib/libmigrate.a(migrate.o) (__migrate_fixup_powerpc64)
/usr/local/popcorn/aarch64/lib/libmigrate.a(migrate_x86_64.o)
                              /usr/local/popcorn/aarch64/lib/libmigrate.a(migrate.o) (__migrate_fixup_x86_64)
/usr/local/popcorn/aarch64/lib/libmigrate.a(mapping.o)
                              /usr/local/popcorn/aarch64/lib/libmigrate.a(migrate.o) (get_node_mapping)
/usr/local/popcorn/aarch64/lib/libstack-transform.a(userspace.o)
                              /usr/local/popcorn/aarch64/lib/libmigrate.a(migrate.o) (st_userspace_rewrite)
/usr/local/popcorn/aarch64/lib/libstack-transform.a(init.o)
                              /usr/local/popcorn/aarch64/lib/libstack-transform.a(userspace.o) (st_destroy)
/usr/local/popcorn/aarch64/lib/libstack-transform.a(rewrite.o)
                              /usr/local/popcorn/aarch64/lib/libstack-transform.a(userspace.o) (st_rewrite_stack)
/usr/local/popcorn/aarch64/lib/libstack-transform.a(unwind.o)
                              /usr/local/popcorn/aarch64/lib/libstack-transform.a(rewrite.o) (bootstrap_first_frame)
/usr/local/popcorn/aarch64/lib/libstack-transform.a(util.o)
                              /usr/local/popcorn/aarch64/lib/libstack-transform.a(rewrite.o) (get_function_address)
/usr/local/popcorn/aarch64/lib/libstack-transform.a(properties.o)
                              /usr/local/popcorn/aarch64/lib/libstack-transform.a(util.o) (properties_aarch64)
/usr/local/popcorn/aarch64/lib/libstack-transform.a(regs.o)
                              /usr/local/popcorn/aarch64/lib/libstack-transform.a(util.o) (regs_aarch64)
/usr/local/popcorn/aarch64/lib/libstack-transform.a(properties.o)
                              /usr/local/popcorn/aarch64/lib/libstack-transform.a(util.o) (properties_powerpc64)
/usr/local/popcorn/aarch64/lib/libstack-transform.a(regs.o)
                              /usr/local/popcorn/aarch64/lib/libstack-transform.a(util.o) (regs_powerpc64)
/usr/local/popcorn/aarch64/lib/libstack-transform.a(properties.o)
                              /usr/local/popcorn/aarch64/lib/libstack-transform.a(util.o) (properties_x86_64)
/usr/local/popcorn/aarch64/lib/libstack-transform.a(regs.o)
                              /usr/local/popcorn/aarch64/lib/libstack-transform.a(util.o) (regs_x86_64)
/usr/local/popcorn/aarch64/lib/libstack-transform.a(data.o)
                              /usr/local/popcorn/aarch64/lib/libstack-transform.a(rewrite.o) (get_savedfbp_loc)
/usr/local/popcorn/aarch64/lib/libelf.a(begin.o)
                              /usr/local/popcorn/aarch64/lib/libstack-transform.a(init.o) (elf_begin)
/usr/local/popcorn/aarch64/lib/libelf.a(end.o)
                              /usr/local/popcorn/aarch64/lib/libstack-transform.a(init.o) (elf_end)
/usr/local/popcorn/aarch64/lib/libelf.a(getdata.o)
                              /usr/local/popcorn/aarch64/lib/libstack-transform.a(util.o) (elf_getdata)
/usr/local/popcorn/aarch64/lib/libelf.a(getident.o)
                              /usr/local/popcorn/aarch64/lib/libstack-transform.a(init.o) (elf_getident)
/usr/local/popcorn/aarch64/lib/libelf.a(nextscn.o)
                              /usr/local/popcorn/aarch64/lib/libstack-transform.a(util.o) (elf_nextscn)
/usr/local/popcorn/aarch64/lib/libelf.a(strptr.o)
                              /usr/local/popcorn/aarch64/lib/libstack-transform.a(util.o) (elf_strptr)
/usr/local/popcorn/aarch64/lib/libelf.a(version.o)
                              /usr/local/popcorn/aarch64/lib/libstack-transform.a(userspace.o) (elf_version)
/usr/local/popcorn/aarch64/lib/libelf.a(32.getehdr.o)
                              /usr/local/popcorn/aarch64/lib/libstack-transform.a(init.o) (elf64_getehdr)
/usr/local/popcorn/aarch64/lib/libelf.a(32.xlatetof.o)
                              /usr/local/popcorn/aarch64/lib/libelf.a(getdata.o) (_elf32_xltsize)
/usr/local/popcorn/aarch64/lib/libelf.a(cook.o)
                              /usr/local/popcorn/aarch64/lib/libelf.a(getident.o) (_elf_cook)
/usr/local/popcorn/aarch64/lib/libelf.a(data.o)
                              /usr/local/popcorn/aarch64/lib/libelf.a(begin.o) (_elf_errno)
/usr/local/popcorn/aarch64/lib/libelf.a(input.o)
                              /usr/local/popcorn/aarch64/lib/libelf.a(begin.o) (_elf_mmap)
/usr/local/popcorn/aarch64/lib/libelf.a(x.elfext.o)
                              /usr/local/popcorn/aarch64/lib/libstack-transform.a(util.o) (elf_getshdrstrndx)
/usr/local/popcorn/aarch64/lib/libelf.a(64.xlatetof.o)
                              /usr/local/popcorn/aarch64/lib/libelf.a(getdata.o) (_elf64_xltsize)
/usr/local/popcorn/aarch64/lib/libelf.a(gelfshdr.o)
                              /usr/local/popcorn/aarch64/lib/libstack-transform.a(util.o) (gelf_getshdr)
/usr/local/popcorn/aarch64/lib/libelf.a(swap64.o)
                              /usr/local/popcorn/aarch64/lib/libelf.a(64.xlatetof.o) (_elf_load_i64L)
/usr/local/popcorn/aarch64/lib/libelf.a(verdef_32_tof.o)
                              /usr/local/popcorn/aarch64/lib/libelf.a(32.xlatetof.o) (_elf_verdef_32L11_tof)
/usr/local/popcorn/aarch64/lib/libelf.a(verdef_32_tom.o)
                              /usr/local/popcorn/aarch64/lib/libelf.a(32.xlatetof.o) (_elf_verdef_32L11_tom)
/usr/local/popcorn/aarch64/lib/libelf.a(verdef_64_tof.o)
                              /usr/local/popcorn/aarch64/lib/libelf.a(64.xlatetof.o) (_elf_verdef_64L11_tof)
/usr/local/popcorn/aarch64/lib/libelf.a(verdef_64_tom.o)
                              /usr/local/popcorn/aarch64/lib/libelf.a(64.xlatetof.o) (_elf_verdef_64L11_tom)
/usr/local/popcorn/aarch64/lib/libelf.a(getscn.o)
                              /usr/local/popcorn/aarch64/lib/libelf.a(strptr.o) (elf_getscn)
/usr/local/popcorn/aarch64/lib/libelf.a(newscn.o)
                              /usr/local/popcorn/aarch64/lib/libelf.a(x.elfext.o) (_elf_first_scn)
/usr/local/popcorn/aarch64/lib/libelf.a(32.fsize.o)
                              /usr/local/popcorn/aarch64/lib/libelf.a(cook.o) (_elf_fmsize)
/usr/local/popcorn/aarch64/lib/libc.a(arch_crash.o)
                              /usr/local/popcorn/aarch64/lib/libmigrate.a(migrate_aarch64.o) (crash_aarch64)
/usr/local/popcorn/aarch64/lib/libc.a(getenv.o)
                              /usr/local/popcorn/aarch64/lib/libmigrate.a(mapping.o) (getenv)
/usr/local/popcorn/aarch64/lib/libc.a(assert.o)
                              /usr/local/popcorn/aarch64/lib/libmigrate.a(migrate.o) (__assert_fail)
/usr/local/popcorn/aarch64/lib/libc.a(open.o)
                              /usr/local/popcorn/aarch64/lib/libstack-transform.a(init.o) (open)
/usr/local/popcorn/aarch64/lib/libc.a(getrlimit.o)
                              /usr/local/popcorn/aarch64/lib/libstack-transform.a(userspace.o) (getrlimit)
/usr/local/popcorn/aarch64/lib/libc.a(getc.o)
                              /usr/local/popcorn/aarch64/lib/libmigrate.a(mapping.o) (getc)
/usr/local/popcorn/aarch64/lib/libc.a(getline.o)
                              /usr/local/popcorn/aarch64/lib/libstack-transform.a(userspace.o) (getline)
/usr/local/popcorn/aarch64/lib/libc.a(perror.o)
                              /usr/local/popcorn/aarch64/lib/libmigrate.a(migrate.o) (perror)
/usr/local/popcorn/aarch64/lib/libc.a(snprintf.o)
                              /usr/local/popcorn/aarch64/lib/libstack-transform.a(userspace.o) (snprintf)
/usr/local/popcorn/aarch64/lib/libc.a(bsearch.o)
                              /usr/local/popcorn/aarch64/lib/libmigrate.a(mapping.o) (bsearch)
/usr/local/popcorn/aarch64/lib/libc.a(strtol.o)
                              /usr/local/popcorn/aarch64/lib/libelf.a(version.o) (strtol)
/usr/local/popcorn/aarch64/lib/libc.a(strncmp.o)
                              /usr/local/popcorn/aarch64/lib/libstack-transform.a(userspace.o) (strncmp)
/usr/local/popcorn/aarch64/lib/libc.a(__syscall_cp.o)
                              /usr/local/popcorn/aarch64/lib/libc.a(open.o) (__syscall_cp)
/usr/local/popcorn/aarch64/lib/libc.a(pthread_attr_get.o)
                              /usr/local/popcorn/aarch64/lib/libstack-transform.a(userspace.o) (pthread_attr_getstack)
/usr/local/popcorn/aarch64/lib/libc.a(pthread_getattr_np.o)
                              /usr/local/popcorn/aarch64/lib/libstack-transform.a(userspace.o) (pthread_getattr_np)
/usr/local/popcorn/aarch64/lib/libc.a(pthread_migrate.o)
                              /usr/local/popcorn/aarch64/lib/libmigrate.a(migrate.o) (pthread_get_migrate_args)
/usr/local/popcorn/aarch64/lib/libc.a(pthread_self.o)
                              /usr/local/popcorn/aarch64/lib/libstack-transform.a(userspace.o) (pthread_self)
/usr/local/popcorn/aarch64/lib/libc.a(close.o)
                              /usr/local/popcorn/aarch64/lib/libstack-transform.a(init.o) (close)
/usr/local/popcorn/aarch64/lib/libc.a(getpid.o)
                              /usr/local/popcorn/aarch64/lib/libstack-transform.a(userspace.o) (getpid)
/usr/local/popcorn/aarch64/lib/libc.a(lseek.o)
                              /usr/local/popcorn/aarch64/lib/libelf.a(begin.o) (lseek)
/usr/local/popcorn/aarch64/lib/libc.a(read.o)
                              /usr/local/popcorn/aarch64/lib/libelf.a(input.o) (read)
/usr/local/popcorn/aarch64/lib/libc.a(abort.o)
                              /usr/local/popcorn/aarch64/lib/libc.a(assert.o) (abort)
/usr/local/popcorn/aarch64/lib/libc.a(syscall.o)
                              /usr/local/popcorn/aarch64/lib/libc.a(__syscall_cp.o) (__syscall)
/usr/local/popcorn/aarch64/lib/libc.a(block.o)
                              /usr/local/popcorn/aarch64/lib/libc.a(abort.o) (__block_all_sigs)
/usr/local/popcorn/aarch64/lib/libc.a(raise.o)
                              /usr/local/popcorn/aarch64/lib/libc.a(abort.o) (raise)
/usr/local/popcorn/aarch64/lib/libc.a(fputc.o)
                              /usr/local/popcorn/aarch64/lib/libc.a(perror.o) (fputc)
/usr/local/popcorn/aarch64/lib/libc.a(getdelim.o)
                              /usr/local/popcorn/aarch64/lib/libc.a(getline.o) (getdelim)
/usr/local/popcorn/aarch64/lib/libc.a(__overflow.o)
                              /usr/local/popcorn/aarch64/lib/libc.a(fputc.o) (__overflow)
/usr/lib/gcc-cross/aarch64-linux-gnu/6/libgcc.a(addtf3.o)
                              /usr/local/popcorn/aarch64/lib/libc.a(vfprintf.o) (__addtf3)
/usr/lib/gcc-cross/aarch64-linux-gnu/6/libgcc.a(divtf3.o)
                              /usr/local/popcorn/aarch64/lib/libc.a(floatscan.o) (__divtf3)
/usr/lib/gcc-cross/aarch64-linux-gnu/6/libgcc.a(eqtf2.o)
                              /usr/local/popcorn/aarch64/lib/libc.a(vfprintf.o) (__eqtf2)
/usr/lib/gcc-cross/aarch64-linux-gnu/6/libgcc.a(getf2.o)
                              /usr/local/popcorn/aarch64/lib/libc.a(fmodl.o) (__gttf2)
/usr/lib/gcc-cross/aarch64-linux-gnu/6/libgcc.a(letf2.o)
                              /usr/local/popcorn/aarch64/lib/libc.a(floatscan.o) (__lttf2)
/usr/lib/gcc-cross/aarch64-linux-gnu/6/libgcc.a(multf3.o)
                              /usr/local/popcorn/aarch64/lib/libc.a(vfprintf.o) (__multf3)
/usr/lib/gcc-cross/aarch64-linux-gnu/6/libgcc.a(subtf3.o)
                              /usr/local/popcorn/aarch64/lib/libc.a(vfprintf.o) (__subtf3)
/usr/lib/gcc-cross/aarch64-linux-gnu/6/libgcc.a(unordtf2.o)
                              /usr/local/popcorn/aarch64/lib/libc.a(vfprintf.o) (__unordtf2)
/usr/lib/gcc-cross/aarch64-linux-gnu/6/libgcc.a(fixtfsi.o)
                              /usr/local/popcorn/aarch64/lib/libc.a(vfprintf.o) (__fixtfsi)
/usr/lib/gcc-cross/aarch64-linux-gnu/6/libgcc.a(fixunstfsi.o)
                              /usr/local/popcorn/aarch64/lib/libc.a(vfprintf.o) (__fixunstfsi)
/usr/lib/gcc-cross/aarch64-linux-gnu/6/libgcc.a(floatsitf.o)
                              /usr/local/popcorn/aarch64/lib/libc.a(vfprintf.o) (__floatsitf)
/usr/lib/gcc-cross/aarch64-linux-gnu/6/libgcc.a(floatunsitf.o)
                              /usr/local/popcorn/aarch64/lib/libc.a(vfprintf.o) (__floatunsitf)
/usr/lib/gcc-cross/aarch64-linux-gnu/6/libgcc.a(extendsftf2.o)
                              /usr/local/popcorn/aarch64/lib/libc.a(floatscan.o) (__extendsftf2)
/usr/lib/gcc-cross/aarch64-linux-gnu/6/libgcc.a(extenddftf2.o)
                              /usr/local/popcorn/aarch64/lib/libc.a(vfprintf.o) (__extenddftf2)
/usr/lib/gcc-cross/aarch64-linux-gnu/6/libgcc.a(trunctfsf2.o)
                              /usr/local/popcorn/aarch64/lib/libc.a(vfscanf.o) (__trunctfsf2)
/usr/lib/gcc-cross/aarch64-linux-gnu/6/libgcc.a(trunctfdf2.o)
                              /usr/local/popcorn/aarch64/lib/libc.a(vfscanf.o) (__trunctfdf2)
/usr/lib/gcc-cross/aarch64-linux-gnu/6/libgcc.a(sfp-exceptions.o)
                              /usr/lib/gcc-cross/aarch64-linux-gnu/6/libgcc.a(addtf3.o) (__sfp_handle_exceptions)

Allocating common symbols
Common symbol       size              file

mal                 0x20000           /usr/local/popcorn/aarch64/lib/libc.a(popcorn_malloc.o)
__libc              0x70              /usr/local/popcorn/aarch64/lib/libc.a(libc.o)
__hwcap             0x8               /usr/local/popcorn/aarch64/lib/libc.a(libc.o)
__sysinfo           0x8               /usr/local/popcorn/aarch64/lib/libc.a(libc.o)

Discarded input sections

 .note.GNU-stack
                0x0000000000000000        0x0 0x1 dc_aarch64.o
 .note.GNU-stack
                0x0000000000000000        0x0 0x1 adc_aarch64.o
 .note.GNU-stack
                0x0000000000000000        0x0 0x1 extbuild_aarch64.o
 .note.GNU-stack
                0x0000000000000000        0x0 0x1 jobcntl_aarch64.o
 .note.GNU-stack
                0x0000000000000000        0x0 0x1 rbt_aarch64.o
 .note.GNU-stack
                0x0000000000000000        0x0 0x1 c_timers_aarch64.o
 .note.GNU-stack
                0x0000000000000000        0x0 0x1 print_results_aarch64.o
 .note.GNU-stack
                0x0000000000000000        0x0 0x1 randdp_aarch64.o
 .note.GNU-stack
                0x0000000000000000        0x0 0x1 c_print_results_aarch64.o
 .note.GNU-stack
                0x0000000000000000        0x0 0x1 wtime_aarch64.o
 .note.GNU-stack
                0x0000000000000000        0x0 0x1 /usr/local/popcorn/aarch64/lib/crt1.o
 .note.GNU-stack
                0x0000000000000000        0x0 0x1 /usr/local/popcorn/aarch64/lib/libc.a(isdigit.o)
 .note.GNU-stack
                0x0000000000000000        0x0 0x1 /usr/local/popcorn/aarch64/lib/libc.a(__libc_start_main.o)
 .note.GNU-stack
                0x0000000000000000        0x0 0x1 /usr/local/popcorn/aarch64/lib/libc.a(__errno_location.o)
 .note.GNU-stack
                0x0000000000000000        0x0 0x1 /usr/local/popcorn/aarch64/lib/libc.a(exit.o)
 .note.GNU-stack
                0x0000000000000000        0x0 0x1 /usr/local/popcorn/aarch64/lib/libc.a(libc.o)
 .note.GNU-stack
                0x0000000000000000        0x0 0x1 /usr/local/popcorn/aarch64/lib/libc.a(calloc.o)
 .note.GNU-stack
                0x0000000000000000        0x0 0x1 /usr/local/popcorn/aarch64/lib/libc.a(lite_malloc.o)
 .note.GNU-stack
                0x0000000000000000        0x0 0x1 /usr/local/popcorn/aarch64/lib/libc.a(malloc.o)
 .note.GNU-stack
                0x0000000000000000        0x0 0x1 /usr/local/popcorn/aarch64/lib/libc.a(popcorn_malloc.o)
 .note.GNU-stack
                0x0000000000000000        0x0 0x1 /usr/local/popcorn/aarch64/lib/libc.a(pow.o)
 .note.GNU-stack
                0x0000000000000000        0x0 0x1 /usr/local/popcorn/aarch64/lib/libc.a(scalbn.o)
 .note.GNU-stack
                0x0000000000000000        0x0 0x1 /usr/local/popcorn/aarch64/lib/libc.a(madvise.o)
 .note.GNU-stack
                0x0000000000000000        0x0 0x1 /usr/local/popcorn/aarch64/lib/libc.a(mmap.o)
 .note.GNU-stack
                0x0000000000000000        0x0 0x1 /usr/local/popcorn/aarch64/lib/libc.a(mremap.o)
 .note.GNU-stack
                0x0000000000000000        0x0 0x1 /usr/local/popcorn/aarch64/lib/libc.a(munmap.o)
 .note.GNU-stack
                0x0000000000000000        0x0 0x1 /usr/local/popcorn/aarch64/lib/libc.a(fclose.o)
 .note.GNU-stack
                0x0000000000000000        0x0 0x1 /usr/local/popcorn/aarch64/lib/libc.a(fflush.o)
 .note.GNU-stack
                0x0000000000000000        0x0 0x1 /usr/local/popcorn/aarch64/lib/libc.a(fgets.o)
 .note.GNU-stack
                0x0000000000000000        0x0 0x1 /usr/local/popcorn/aarch64/lib/libc.a(fopen.o)
 .note.GNU-stack
                0x0000000000000000        0x0 0x1 /usr/local/popcorn/aarch64/lib/libc.a(fprintf.o)
 .note.GNU-stack
                0x0000000000000000        0x0 0x1 /usr/local/popcorn/aarch64/lib/libc.a(fread.o)
 .note.GNU-stack
                0x0000000000000000        0x0 0x1 /usr/local/popcorn/aarch64/lib/libc.a(fscanf.o)
 .note.GNU-stack
                0x0000000000000000        0x0 0x1 /usr/local/popcorn/aarch64/lib/libc.a(fseek.o)
 .note.GNU-stack
                0x0000000000000000        0x0 0x1 /usr/local/popcorn/aarch64/lib/libc.a(ftell.o)
 .note.GNU-stack
                0x0000000000000000        0x0 0x1 /usr/local/popcorn/aarch64/lib/libc.a(fwrite.o)
 .note.GNU-stack
                0x0000000000000000        0x0 0x1 /usr/local/popcorn/aarch64/lib/libc.a(ofl.o)
 .note.GNU-stack
                0x0000000000000000        0x0 0x1 /usr/local/popcorn/aarch64/lib/libc.a(printf.o)
 .note.GNU-stack
                0x0000000000000000        0x0 0x1 /usr/local/popcorn/aarch64/lib/libc.a(sprintf.o)
 .note.GNU-stack
                0x0000000000000000        0x0 0x1 /usr/local/popcorn/aarch64/lib/libc.a(sscanf.o)
 .note.GNU-stack
                0x0000000000000000        0x0 0x1 /usr/local/popcorn/aarch64/lib/libc.a(stderr.o)
 .note.GNU-stack
                0x0000000000000000        0x0 0x1 /usr/local/popcorn/aarch64/lib/libc.a(stdout.o)
 .note.GNU-stack
                0x0000000000000000        0x0 0x1 /usr/local/popcorn/aarch64/lib/libc.a(vfprintf.o)
 .note.GNU-stack
                0x0000000000000000        0x0 0x1 /usr/local/popcorn/aarch64/lib/libc.a(vfscanf.o)
 .note.GNU-stack
                0x0000000000000000        0x0 0x1 /usr/local/popcorn/aarch64/lib/libc.a(vsprintf.o)
 .note.GNU-stack
                0x0000000000000000        0x0 0x1 /usr/local/popcorn/aarch64/lib/libc.a(vsscanf.o)
 .note.GNU-stack
                0x0000000000000000        0x0 0x1 /usr/local/popcorn/aarch64/lib/libc.a(atoi.o)
 .note.GNU-stack
                0x0000000000000000        0x0 0x1 /usr/local/popcorn/aarch64/lib/libc.a(qsort.o)
 .note.GNU-stack
                0x0000000000000000        0x0 0x1 /usr/local/popcorn/aarch64/lib/libc.a(memchr.o)
 .note.GNU-stack
                0x0000000000000000        0x0 0x1 /usr/local/popcorn/aarch64/lib/libc.a(memcpy.o)
 .note.GNU-stack
                0x0000000000000000        0x0 0x1 /usr/local/popcorn/aarch64/lib/libc.a(memset.o)
 .note.GNU-stack
                0x0000000000000000        0x0 0x1 /usr/local/popcorn/aarch64/lib/libc.a(strcat.o)
 .note.GNU-stack
                0x0000000000000000        0x0 0x1 /usr/local/popcorn/aarch64/lib/libc.a(strchr.o)
 .note.GNU-stack
                0x0000000000000000        0x0 0x1 /usr/local/popcorn/aarch64/lib/libc.a(strchrnul.o)
 .note.GNU-stack
                0x0000000000000000        0x0 0x1 /usr/local/popcorn/aarch64/lib/libc.a(strcmp.o)
 .note.GNU-stack
                0x0000000000000000        0x0 0x1 /usr/local/popcorn/aarch64/lib/libc.a(strcpy.o)
 .note.GNU-stack
                0x0000000000000000        0x0 0x1 /usr/local/popcorn/aarch64/lib/libc.a(strlen.o)
 .note.GNU-stack
                0x0000000000000000        0x0 0x1 /usr/local/popcorn/aarch64/lib/libc.a(strnlen.o)
 .note.GNU-stack
                0x0000000000000000        0x0 0x1 /usr/local/popcorn/aarch64/lib/libc.a(strstr.o)
 .note.GNU-stack
                0x0000000000000000        0x0 0x1 /usr/local/popcorn/aarch64/lib/libc.a(__lock.o)
 .note.GNU-stack
                0x0000000000000000        0x0 0x1 /usr/local/popcorn/aarch64/lib/libc.a(__wait.o)
 .note.GNU-stack
                0x0000000000000000        0x0 0x1 /usr/local/popcorn/aarch64/lib/libc.a(gettimeofday.o)
 .note.GNU-stack
                0x0000000000000000        0x0 0x1 /usr/local/popcorn/aarch64/lib/libc.a(unlink.o)
 .note.GNU-stack
                0x0000000000000000        0x0 0x1 /usr/local/popcorn/aarch64/lib/libc.a(__environ.o)
 .note.GNU-stack
                0x0000000000000000        0x0 0x1 /usr/local/popcorn/aarch64/lib/libc.a(__init_tls.o)
 .note.GNU-stack
                0x0000000000000000        0x0 0x1 /usr/local/popcorn/aarch64/lib/libc.a(platform.o)
 .note.GNU-stack
                0x0000000000000000        0x0 0x1 /usr/local/popcorn/aarch64/lib/libc.a(strerror.o)
 .note.GNU-stack
                0x0000000000000000        0x0 0x1 /usr/local/popcorn/aarch64/lib/libc.a(_Exit.o)
 .note.GNU-stack
                0x0000000000000000        0x0 0x1 /usr/local/popcorn/aarch64/lib/libc.a(floatscan.o)
 .note.GNU-stack
                0x0000000000000000        0x0 0x1 /usr/local/popcorn/aarch64/lib/libc.a(intscan.o)
 .note.GNU-stack
                0x0000000000000000        0x0 0x1 /usr/local/popcorn/aarch64/lib/libc.a(shgetc.o)
 .note.GNU-stack
                0x0000000000000000        0x0 0x1 /usr/local/popcorn/aarch64/lib/libc.a(syscall_ret.o)
 .note.GNU-stack
                0x0000000000000000        0x0 0x1 /usr/local/popcorn/aarch64/lib/libc.a(__lctrans.o)
 .note.GNU-stack
                0x0000000000000000        0x0 0x1 /usr/local/popcorn/aarch64/lib/libc.a(expand_heap.o)
 .note.GNU-stack
                0x0000000000000000        0x0 0x1 /usr/local/popcorn/aarch64/lib/libc.a(__fpclassifyl.o)
 .note.GNU-stack
                0x0000000000000000        0x0 0x1 /usr/local/popcorn/aarch64/lib/libc.a(__signbitl.o)
 .note.GNU-stack
                0x0000000000000000        0x0 0x1 /usr/local/popcorn/aarch64/lib/libc.a(fabs.o)
 .note.GNU-stack
                0x0000000000000000        0x0 0x1 /usr/local/popcorn/aarch64/lib/libc.a(sqrt.o)
 .note.GNU-stack
                0x0000000000000000        0x0 0x1 /usr/local/popcorn/aarch64/lib/libc.a(copysignl.o)
 .note.GNU-stack
                0x0000000000000000        0x0 0x1 /usr/local/popcorn/aarch64/lib/libc.a(fmodl.o)
 .note.GNU-stack
                0x0000000000000000        0x0 0x1 /usr/local/popcorn/aarch64/lib/libc.a(frexpl.o)
 .note.GNU-stack
                0x0000000000000000        0x0 0x1 /usr/local/popcorn/aarch64/lib/libc.a(scalbnl.o)
 .note.GNU-stack
                0x0000000000000000        0x0 0x1 /usr/local/popcorn/aarch64/lib/libc.a(mbrtowc.o)
 .note.GNU-stack
                0x0000000000000000        0x0 0x1 /usr/local/popcorn/aarch64/lib/libc.a(mbsinit.o)
 .note.GNU-stack
                0x0000000000000000        0x0 0x1 /usr/local/popcorn/aarch64/lib/libc.a(wctomb.o)
 .note.GNU-stack
                0x0000000000000000        0x0 0x1 /usr/local/popcorn/aarch64/lib/libc.a(__fdopen.o)
 .note.GNU-stack
                0x0000000000000000        0x0 0x1 /usr/local/popcorn/aarch64/lib/libc.a(__fmodeflags.o)
 .note.GNU-stack
                0x0000000000000000        0x0 0x1 /usr/local/popcorn/aarch64/lib/libc.a(__lockfile.o)
 .note.GNU-stack
                0x0000000000000000        0x0 0x1 /usr/local/popcorn/aarch64/lib/libc.a(__stdio_close.o)
 .note.GNU-stack
                0x0000000000000000        0x0 0x1 /usr/local/popcorn/aarch64/lib/libc.a(__stdio_read.o)
 .note.GNU-stack
                0x0000000000000000        0x0 0x1 /usr/local/popcorn/aarch64/lib/libc.a(__stdio_seek.o)
 .note.GNU-stack
                0x0000000000000000        0x0 0x1 /usr/local/popcorn/aarch64/lib/libc.a(__stdio_write.o)
 .note.GNU-stack
                0x0000000000000000        0x0 0x1 /usr/local/popcorn/aarch64/lib/libc.a(__stdout_write.o)
 .note.GNU-stack
                0x0000000000000000        0x0 0x1 /usr/local/popcorn/aarch64/lib/libc.a(__string_read.o)
 .note.GNU-stack
                0x0000000000000000        0x0 0x1 /usr/local/popcorn/aarch64/lib/libc.a(__toread.o)
 .note.GNU-stack
                0x0000000000000000        0x0 0x1 /usr/local/popcorn/aarch64/lib/libc.a(__towrite.o)
 .note.GNU-stack
                0x0000000000000000        0x0 0x1 /usr/local/popcorn/aarch64/lib/libc.a(__uflow.o)
 .note.GNU-stack
                0x0000000000000000        0x0 0x1 /usr/local/popcorn/aarch64/lib/libc.a(ofl_add.o)
 .note.GNU-stack
                0x0000000000000000        0x0 0x1 /usr/local/popcorn/aarch64/lib/libc.a(vsnprintf.o)
 .note.GNU-stack
                0x0000000000000000        0x0 0x1 /usr/local/popcorn/aarch64/lib/libc.a(memcmp.o)
 .note.GNU-stack
                0x0000000000000000        0x0 0x1 /usr/local/popcorn/aarch64/lib/libc.a(stpcpy.o)
 .note.GNU-stack
                0x0000000000000000        0x0 0x1 /usr/local/popcorn/aarch64/lib/libc.a(__set_thread_area.o)
 .note.GNU-stack
                0x0000000000000000        0x0 0x1 /usr/local/popcorn/aarch64/lib/libc.a(clock_gettime.o)
 .note.GNU-stack
                0x0000000000000000        0x0 0x1 /usr/local/popcorn/aarch64/lib/libc.a(internal.o)
 .note.GNU-stack
                0x0000000000000000        0x0 0x1 /usr/local/popcorn/aarch64/lib/libc.a(wcrtomb.o)
 .note.GNU-stack
                0x0000000000000000        0x0 0x1 /usr/local/popcorn/aarch64/lib/libc.a(__stdio_exit.o)
 .note.GNU-stack
                0x0000000000000000        0x0 0x1 /usr/local/popcorn/aarch64/lib/libmigrate.a(migrate.o)
 .note.GNU-stack
                0x0000000000000000        0x0 0x1 /usr/local/popcorn/aarch64/lib/libmigrate.a(mapping.o)
 .note.GNU-stack
                0x0000000000000000        0x0 0x1 /usr/local/popcorn/aarch64/lib/libstack-transform.a(userspace.o)
 .note.GNU-stack
                0x0000000000000000        0x0 0x1 /usr/local/popcorn/aarch64/lib/libstack-transform.a(init.o)
 .note.GNU-stack
                0x0000000000000000        0x0 0x1 /usr/local/popcorn/aarch64/lib/libstack-transform.a(rewrite.o)
 .note.GNU-stack
                0x0000000000000000        0x0 0x1 /usr/local/popcorn/aarch64/lib/libstack-transform.a(unwind.o)
 .note.GNU-stack
                0x0000000000000000        0x0 0x1 /usr/local/popcorn/aarch64/lib/libstack-transform.a(util.o)
 .note.GNU-stack
                0x0000000000000000        0x0 0x1 /usr/local/popcorn/aarch64/lib/libstack-transform.a(properties.o)
 .note.GNU-stack
                0x0000000000000000        0x0 0x1 /usr/local/popcorn/aarch64/lib/libstack-transform.a(regs.o)
 .note.GNU-stack
                0x0000000000000000        0x0 0x1 /usr/local/popcorn/aarch64/lib/libstack-transform.a(properties.o)
 .note.GNU-stack
                0x0000000000000000        0x0 0x1 /usr/local/popcorn/aarch64/lib/libstack-transform.a(regs.o)
 .note.GNU-stack
                0x0000000000000000        0x0 0x1 /usr/local/popcorn/aarch64/lib/libstack-transform.a(properties.o)
 .note.GNU-stack
                0x0000000000000000        0x0 0x1 /usr/local/popcorn/aarch64/lib/libstack-transform.a(regs.o)
 .note.GNU-stack
                0x0000000000000000        0x0 0x1 /usr/local/popcorn/aarch64/lib/libstack-transform.a(data.o)
 .note.GNU-stack
                0x0000000000000000        0x0 0x1 /usr/local/popcorn/aarch64/lib/libelf.a(begin.o)
 .note.GNU-stack
                0x0000000000000000        0x0 0x1 /usr/local/popcorn/aarch64/lib/libelf.a(end.o)
 .note.GNU-stack
                0x0000000000000000        0x0 0x1 /usr/local/popcorn/aarch64/lib/libelf.a(getdata.o)
 .note.GNU-stack
                0x0000000000000000        0x0 0x1 /usr/local/popcorn/aarch64/lib/libelf.a(getident.o)
 .note.GNU-stack
                0x0000000000000000        0x0 0x1 /usr/local/popcorn/aarch64/lib/libelf.a(nextscn.o)
 .note.GNU-stack
                0x0000000000000000        0x0 0x1 /usr/local/popcorn/aarch64/lib/libelf.a(strptr.o)
 .note.GNU-stack
                0x0000000000000000        0x0 0x1 /usr/local/popcorn/aarch64/lib/libelf.a(version.o)
 .note.GNU-stack
                0x0000000000000000        0x0 0x1 /usr/local/popcorn/aarch64/lib/libelf.a(32.getehdr.o)
 .note.GNU-stack
                0x0000000000000000        0x0 0x1 /usr/local/popcorn/aarch64/lib/libelf.a(32.xlatetof.o)
 .note.GNU-stack
                0x0000000000000000        0x0 0x1 /usr/local/popcorn/aarch64/lib/libelf.a(cook.o)
 .note.GNU-stack
                0x0000000000000000        0x0 0x1 /usr/local/popcorn/aarch64/lib/libelf.a(data.o)
 .note.GNU-stack
                0x0000000000000000        0x0 0x1 /usr/local/popcorn/aarch64/lib/libelf.a(input.o)
 .note.GNU-stack
                0x0000000000000000        0x0 0x1 /usr/local/popcorn/aarch64/lib/libelf.a(x.elfext.o)
 .note.GNU-stack
                0x0000000000000000        0x0 0x1 /usr/local/popcorn/aarch64/lib/libelf.a(64.xlatetof.o)
 .note.GNU-stack
                0x0000000000000000        0x0 0x1 /usr/local/popcorn/aarch64/lib/libelf.a(gelfshdr.o)
 .note.GNU-stack
                0x0000000000000000        0x0 0x1 /usr/local/popcorn/aarch64/lib/libelf.a(swap64.o)
 .note.GNU-stack
                0x0000000000000000        0x0 0x1 /usr/local/popcorn/aarch64/lib/libelf.a(verdef_32_tof.o)
 .note.GNU-stack
                0x0000000000000000        0x0 0x1 /usr/local/popcorn/aarch64/lib/libelf.a(verdef_32_tom.o)
 .note.GNU-stack
                0x0000000000000000        0x0 0x1 /usr/local/popcorn/aarch64/lib/libelf.a(verdef_64_tof.o)
 .note.GNU-stack
                0x0000000000000000        0x0 0x1 /usr/local/popcorn/aarch64/lib/libelf.a(verdef_64_tom.o)
 .note.GNU-stack
                0x0000000000000000        0x0 0x1 /usr/local/popcorn/aarch64/lib/libelf.a(getscn.o)
 .note.GNU-stack
                0x0000000000000000        0x0 0x1 /usr/local/popcorn/aarch64/lib/libelf.a(newscn.o)
 .note.GNU-stack
                0x0000000000000000        0x0 0x1 /usr/local/popcorn/aarch64/lib/libelf.a(32.fsize.o)
 .note.GNU-stack
                0x0000000000000000        0x0 0x1 /usr/local/popcorn/aarch64/lib/libc.a(arch_crash.o)
 .note.GNU-stack
                0x0000000000000000        0x0 0x1 /usr/local/popcorn/aarch64/lib/libc.a(getenv.o)
 .note.GNU-stack
                0x0000000000000000        0x0 0x1 /usr/local/popcorn/aarch64/lib/libc.a(assert.o)
 .note.GNU-stack
                0x0000000000000000        0x0 0x1 /usr/local/popcorn/aarch64/lib/libc.a(open.o)
 .note.GNU-stack
                0x0000000000000000        0x0 0x1 /usr/local/popcorn/aarch64/lib/libc.a(getrlimit.o)
 .note.GNU-stack
                0x0000000000000000        0x0 0x1 /usr/local/popcorn/aarch64/lib/libc.a(getc.o)
 .note.GNU-stack
                0x0000000000000000        0x0 0x1 /usr/local/popcorn/aarch64/lib/libc.a(getline.o)
 .note.GNU-stack
                0x0000000000000000        0x0 0x1 /usr/local/popcorn/aarch64/lib/libc.a(perror.o)
 .note.GNU-stack
                0x0000000000000000        0x0 0x1 /usr/local/popcorn/aarch64/lib/libc.a(snprintf.o)
 .note.GNU-stack
                0x0000000000000000        0x0 0x1 /usr/local/popcorn/aarch64/lib/libc.a(bsearch.o)
 .note.GNU-stack
                0x0000000000000000        0x0 0x1 /usr/local/popcorn/aarch64/lib/libc.a(strtol.o)
 .note.GNU-stack
                0x0000000000000000        0x0 0x1 /usr/local/popcorn/aarch64/lib/libc.a(strncmp.o)
 .note.GNU-stack
                0x0000000000000000        0x0 0x1 /usr/local/popcorn/aarch64/lib/libc.a(__syscall_cp.o)
 .note.GNU-stack
                0x0000000000000000        0x0 0x1 /usr/local/popcorn/aarch64/lib/libc.a(pthread_attr_get.o)
 .note.GNU-stack
                0x0000000000000000        0x0 0x1 /usr/local/popcorn/aarch64/lib/libc.a(pthread_getattr_np.o)
 .note.GNU-stack
                0x0000000000000000        0x0 0x1 /usr/local/popcorn/aarch64/lib/libc.a(pthread_migrate.o)
 .note.GNU-stack
                0x0000000000000000        0x0 0x1 /usr/local/popcorn/aarch64/lib/libc.a(pthread_self.o)
 .note.GNU-stack
                0x0000000000000000        0x0 0x1 /usr/local/popcorn/aarch64/lib/libc.a(close.o)
 .note.GNU-stack
                0x0000000000000000        0x0 0x1 /usr/local/popcorn/aarch64/lib/libc.a(getpid.o)
 .note.GNU-stack
                0x0000000000000000        0x0 0x1 /usr/local/popcorn/aarch64/lib/libc.a(lseek.o)
 .note.GNU-stack
                0x0000000000000000        0x0 0x1 /usr/local/popcorn/aarch64/lib/libc.a(read.o)
 .note.GNU-stack
                0x0000000000000000        0x0 0x1 /usr/local/popcorn/aarch64/lib/libc.a(abort.o)
 .note.GNU-stack
                0x0000000000000000        0x0 0x1 /usr/local/popcorn/aarch64/lib/libc.a(syscall.o)
 .note.GNU-stack
                0x0000000000000000        0x0 0x1 /usr/local/popcorn/aarch64/lib/libc.a(block.o)
 .note.GNU-stack
                0x0000000000000000        0x0 0x1 /usr/local/popcorn/aarch64/lib/libc.a(raise.o)
 .note.GNU-stack
                0x0000000000000000        0x0 0x1 /usr/local/popcorn/aarch64/lib/libc.a(fputc.o)
 .note.GNU-stack
                0x0000000000000000        0x0 0x1 /usr/local/popcorn/aarch64/lib/libc.a(getdelim.o)
 .note.GNU-stack
                0x0000000000000000        0x0 0x1 /usr/local/popcorn/aarch64/lib/libc.a(__overflow.o)
 .note.GNU-stack
                0x0000000000000000        0x0 0x1 /usr/lib/gcc-cross/aarch64-linux-gnu/6/libgcc.a(addtf3.o)
 .note.GNU-stack
                0x0000000000000000        0x0 0x1 /usr/lib/gcc-cross/aarch64-linux-gnu/6/libgcc.a(divtf3.o)
 .note.GNU-stack
                0x0000000000000000        0x0 0x1 /usr/lib/gcc-cross/aarch64-linux-gnu/6/libgcc.a(eqtf2.o)
 .note.GNU-stack
                0x0000000000000000        0x0 0x1 /usr/lib/gcc-cross/aarch64-linux-gnu/6/libgcc.a(getf2.o)
 .note.GNU-stack
                0x0000000000000000        0x0 0x1 /usr/lib/gcc-cross/aarch64-linux-gnu/6/libgcc.a(letf2.o)
 .note.GNU-stack
                0x0000000000000000        0x0 0x1 /usr/lib/gcc-cross/aarch64-linux-gnu/6/libgcc.a(multf3.o)
 .note.GNU-stack
                0x0000000000000000        0x0 0x1 /usr/lib/gcc-cross/aarch64-linux-gnu/6/libgcc.a(subtf3.o)
 .note.GNU-stack
                0x0000000000000000        0x0 0x1 /usr/lib/gcc-cross/aarch64-linux-gnu/6/libgcc.a(unordtf2.o)
 .note.GNU-stack
                0x0000000000000000        0x0 0x1 /usr/lib/gcc-cross/aarch64-linux-gnu/6/libgcc.a(fixtfsi.o)
 .note.GNU-stack
                0x0000000000000000        0x0 0x1 /usr/lib/gcc-cross/aarch64-linux-gnu/6/libgcc.a(fixunstfsi.o)
 .note.GNU-stack
                0x0000000000000000        0x0 0x1 /usr/lib/gcc-cross/aarch64-linux-gnu/6/libgcc.a(floatsitf.o)
 .note.GNU-stack
                0x0000000000000000        0x0 0x1 /usr/lib/gcc-cross/aarch64-linux-gnu/6/libgcc.a(floatunsitf.o)
 .note.GNU-stack
                0x0000000000000000        0x0 0x1 /usr/lib/gcc-cross/aarch64-linux-gnu/6/libgcc.a(extendsftf2.o)
 .note.GNU-stack
                0x0000000000000000        0x0 0x1 /usr/lib/gcc-cross/aarch64-linux-gnu/6/libgcc.a(extenddftf2.o)
 .note.GNU-stack
                0x0000000000000000        0x0 0x1 /usr/lib/gcc-cross/aarch64-linux-gnu/6/libgcc.a(trunctfsf2.o)
 .note.GNU-stack
                0x0000000000000000        0x0 0x1 /usr/lib/gcc-cross/aarch64-linux-gnu/6/libgcc.a(trunctfdf2.o)
 .note.GNU-stack
                0x0000000000000000        0x0 0x1 /usr/lib/gcc-cross/aarch64-linux-gnu/6/libgcc.a(sfp-exceptions.o)

Memory map

 ** file header
                0x0000000000400000       0x40
 ** segment headers
                0x0000000000400040      0x150

.note.gnu.build-id
                0x0000000000400190       0x24
 ** note header
                0x0000000000400190       0x10
 ** zero fill   0x00000000004001a0       0x14

.text           0x00000000004001c0    0x2e33c
 .text.exit     0x00000000004001c0       0x24 0x4 /usr/local/popcorn/aarch64/lib/libc.a(exit.o)
                0x00000000004001c0                exit
 .text          0x00000000004001e4        0x0 0x4 dc_aarch64.o
 .text.main     0x00000000004001e4      0x47c 0x4 dc_aarch64.o
                0x00000000004001e4                main
 .text.DC       0x0000000000400660      0x50c 0x4 dc_aarch64.o
                0x0000000000400660                DC
 .text.Verify   0x0000000000400b6c      0x174 0x4 dc_aarch64.o
                0x0000000000400b6c                Verify
 .text          0x0000000000400ce0        0x0 0x4 adc_aarch64.o
 .text.swap4    0x0000000000400ce0       0x88 0x4 adc_aarch64.o
                0x0000000000400ce0                swap4
 .text.swap8    0x0000000000400d68       0xd0 0x4 adc_aarch64.o
                0x0000000000400d68                swap8
 .text.initADCpar
                0x0000000000400e38       0x8c 0x4 adc_aarch64.o
                0x0000000000400e38                initADCpar
 .text.ShowFactorization
                0x0000000000400ec4      0x194 0x4 adc_aarch64.o
                0x0000000000400ec4                ShowFactorization
 .text.ListFirstPrimes
                0x0000000000401058      0x18c 0x4 adc_aarch64.o
                0x0000000000401058                ListFirstPrimes
 .text.GetLCM   0x00000000004011e4      0x3a0 0x4 adc_aarch64.o
                0x00000000004011e4                GetLCM
 .text.ExtendFactors
                0x0000000000401584      0x254 0x4 adc_aarch64.o
                0x0000000000401584                ExtendFactors
 .text.GetFactorization
                0x00000000004017d8      0x430 0x4 adc_aarch64.o
                0x00000000004017d8                GetFactorization
 .text.CompareSizesByValue
                0x0000000000401c08       0xbc 0x4 adc_aarch64.o
                0x0000000000401c08                CompareSizesByValue
 .text.CompareViewsBySize
                0x0000000000401cc4      0x110 0x4 adc_aarch64.o
                0x0000000000401cc4                CompareViewsBySize
 .text.CalculateVeiwSizes
                0x0000000000401dd4      0x678 0x4 adc_aarch64.o
                0x0000000000401dd4                CalculateVeiwSizes
 .text.ParseParFile
                0x000000000040244c      0x404 0x4 adc_aarch64.o
                0x000000000040244c                ParseParFile
 .text.WriteADCPar
                0x0000000000402850      0x1a0 0x4 adc_aarch64.o
                0x0000000000402850                WriteADCPar
 .text.ShowADCPar
                0x00000000004029f0      0x110 0x4 adc_aarch64.o
                0x00000000004029f0                ShowADCPar
 .text.GetNextTuple
                0x0000000000402b00      0x490 0x4 adc_aarch64.o
                0x0000000000402b00                GetNextTuple
 .text.GenerateADC
                0x0000000000402f90      0x340 0x4 adc_aarch64.o
                0x0000000000402f90                GenerateADC
 .text          0x00000000004032d0        0x0 0x4 extbuild_aarch64.o
 .text.ReadWholeInputData
                0x00000000004032d0      0x178 0x4 extbuild_aarch64.o
                0x00000000004032d0                ReadWholeInputData
 .text.ComputeMemoryFittedView
                0x0000000000403448      0x228 0x4 extbuild_aarch64.o
                0x0000000000403448                ComputeMemoryFittedView
 .text.SelectToView
                0x0000000000403670       0xfc 0x4 extbuild_aarch64.o
                0x0000000000403670                SelectToView
 .text.SharedSortAggregate
                0x000000000040376c      0x914 0x4 extbuild_aarch64.o
                0x000000000040376c                SharedSortAggregate
 .text.MultiWayMerge
                0x0000000000404080      0x800 0x4 extbuild_aarch64.o
                0x0000000000404080                MultiWayMerge
 .text.PrefixedAggregate
                0x0000000000404880      0x5b8 0x4 extbuild_aarch64.o
                0x0000000000404880                PrefixedAggregate
 .text.RunFormation
                0x0000000000404e38      0x374 0x4 extbuild_aarch64.o
                0x0000000000404e38                RunFormation
 .text.SeekAndReadNextSubChunk
                0x00000000004051ac       0xf0 0x4 extbuild_aarch64.o
                0x00000000004051ac                SeekAndReadNextSubChunk
 .text.ReadSubChunk
                0x000000000040529c      0x250 0x4 extbuild_aarch64.o
                0x000000000040529c                ReadSubChunk
 .text.AdcFileOpen
                0x00000000004054ec       0xa4 0x4 extbuild_aarch64.o
                0x00000000004054ec                AdcFileOpen
 .text.AdcFileName
                0x0000000000405590       0x88 0x4 extbuild_aarch64.o
                0x0000000000405590                AdcFileName
 .text.NewAdcViewCntl
                0x0000000000405618      0x8fc 0x4 extbuild_aarch64.o
                0x0000000000405618                NewAdcViewCntl
 .text.InitAdcViewCntl
                0x0000000000405f14      0x1c4 0x4 extbuild_aarch64.o
                0x0000000000405f14                InitAdcViewCntl
 .text.CloseAdcView
                0x00000000004060d8      0x270 0x4 extbuild_aarch64.o
                0x00000000004060d8                CloseAdcView
 .text.AdcCntlLog
                0x0000000000406348      0x10c 0x4 extbuild_aarch64.o
                0x0000000000406348                AdcCntlLog
 .text.ViewSizesVerification
                0x0000000000406454      0x3d0 0x4 extbuild_aarch64.o
                0x0000000000406454                ViewSizesVerification
 .text.ComputeGivenGroupbys
                0x0000000000406824      0x3f0 0x4 extbuild_aarch64.o
                0x0000000000406824                ComputeGivenGroupbys
 .text          0x0000000000406c14        0x0 0x4 jobcntl_aarch64.o
 .text.SetOneBit
                0x0000000000406c14       0x6c 0x4 jobcntl_aarch64.o
                0x0000000000406c14                SetOneBit
 .text.SetOneBit32
                0x0000000000406c80       0x6c 0x4 jobcntl_aarch64.o
                0x0000000000406c80                SetOneBit32
 .text.Mlo32    0x0000000000406cec       0xb0 0x4 jobcntl_aarch64.o
                0x0000000000406cec                Mlo32
 .text.mro32    0x0000000000406d9c       0xb4 0x4 jobcntl_aarch64.o
                0x0000000000406d9c                mro32
 .text.setLeadingOnes32
                0x0000000000406e50       0xa0 0x4 jobcntl_aarch64.o
                0x0000000000406e50                setLeadingOnes32
 .text.DeleteOneFile
                0x0000000000406ef0       0x50 0x4 jobcntl_aarch64.o
                0x0000000000406ef0                DeleteOneFile
 .text.WriteOne32Tuple
                0x0000000000406f40      0x104 0x4 jobcntl_aarch64.o
                0x0000000000406f40                WriteOne32Tuple
 .text.NumOfCombsFromNbyK
                0x0000000000407044       0xcc 0x4 jobcntl_aarch64.o
                0x0000000000407044                NumOfCombsFromNbyK
 .text.JobPoolUpdate
                0x0000000000407110      0x100 0x4 jobcntl_aarch64.o
                0x0000000000407110                JobPoolUpdate
 .text.GetParent
                0x0000000000407210      0x5dc 0x4 jobcntl_aarch64.o
                0x0000000000407210                GetParent
 .text.NumberOfOnes
                0x00000000004077ec       0xb0 0x4 jobcntl_aarch64.o
                0x00000000004077ec                NumberOfOnes
 .text.GetSmallestParent
                0x000000000040789c      0x270 0x4 jobcntl_aarch64.o
                0x000000000040789c                GetSmallestParent
 .text.GetPrefixedParent
                0x0000000000407b0c      0x2b4 0x4 jobcntl_aarch64.o
                0x0000000000407b0c                GetPrefixedParent
 .text.JobPoolInit
                0x0000000000407dc0       0xd8 0x4 jobcntl_aarch64.o
                0x0000000000407dc0                JobPoolInit
 .text.WriteOne64Tuple
                0x0000000000407e98      0x104 0x4 jobcntl_aarch64.o
                0x0000000000407e98                WriteOne64Tuple
 .text.GetRegTupleFromBin64
                0x0000000000407f9c       0xf4 0x4 jobcntl_aarch64.o
                0x0000000000407f9c                GetRegTupleFromBin64
 .text.getRegTupleFromBin32
                0x0000000000408090       0xf4 0x4 jobcntl_aarch64.o
                0x0000000000408090                getRegTupleFromBin32
 .text.GetRegTupleFromParent
                0x0000000000408184      0x140 0x4 jobcntl_aarch64.o
                0x0000000000408184                GetRegTupleFromParent
 .text.CreateBinTuple
                0x00000000004082c4       0xb0 0x4 jobcntl_aarch64.o
                0x00000000004082c4                CreateBinTuple
 .text.d32v     0x0000000000408374       0xd0 0x4 jobcntl_aarch64.o
                0x0000000000408374                d32v
 .text.Comp8gbuf
                0x0000000000408444       0x94 0x4 jobcntl_aarch64.o
                0x0000000000408444                Comp8gbuf
 .text.restore  0x00000000004084d8      0x1c8 0x4 jobcntl_aarch64.o
                0x00000000004084d8                restore
 .text.vszsort  0x00000000004086a0      0x158 0x4 jobcntl_aarch64.o
                0x00000000004086a0                vszsort
 .text.countTupleOnes
                0x00000000004087f8       0xbc 0x4 jobcntl_aarch64.o
                0x00000000004087f8                countTupleOnes
 .text.restoreo
                0x00000000004088b4      0x1c8 0x4 jobcntl_aarch64.o
                0x00000000004088b4                restoreo
 .text.onessort
                0x0000000000408a7c      0x158 0x4 jobcntl_aarch64.o
                0x0000000000408a7c                onessort
 .text.MultiFileProcJobs
                0x0000000000408bd4      0x4d0 0x4 jobcntl_aarch64.o
                0x0000000000408bd4                MultiFileProcJobs
 .text.PartitionCube
                0x00000000004090a4      0x310 0x4 jobcntl_aarch64.o
                0x00000000004090a4                PartitionCube
 .text          0x00000000004093b4        0x0 0x4 rbt_aarch64.o
 .text.KeyComp  0x00000000004093b4       0xfc 0x4 rbt_aarch64.o
                0x00000000004093b4                KeyComp
 .text.TreeInsert
                0x00000000004094b0      0x7bc 0x4 rbt_aarch64.o
                0x00000000004094b0                TreeInsert
 .text.WriteViewToDisk
                0x0000000000409c6c      0x17c 0x4 rbt_aarch64.o
                0x0000000000409c6c                WriteViewToDisk
 .text.WriteViewToDiskCS
                0x0000000000409de8      0x1e8 0x4 rbt_aarch64.o
                0x0000000000409de8                WriteViewToDiskCS
 .text.computeChecksum
                0x0000000000409fd0      0x168 0x4 rbt_aarch64.o
                0x0000000000409fd0                computeChecksum
 .text.WriteChunkToDisk
                0x000000000040a138      0x150 0x4 rbt_aarch64.o
                0x000000000040a138                WriteChunkToDisk
 .text.CreateEmptyTree
                0x000000000040a288      0x1bc 0x4 rbt_aarch64.o
                0x000000000040a288                CreateEmptyTree
 .text.InitializeTree
                0x000000000040a444      0x11c 0x4 rbt_aarch64.o
                0x000000000040a444                InitializeTree
 .text.DestroyTree
                0x000000000040a560       0xdc 0x4 rbt_aarch64.o
                0x000000000040a560                DestroyTree
 .text          0x000000000040a63c        0x0 0x4 c_timers_aarch64.o
 .text.timer_clear
                0x000000000040a63c       0x50 0x4 c_timers_aarch64.o
                0x000000000040a63c                timer_clear
 .text.timer_start
                0x000000000040a68c       0x54 0x4 c_timers_aarch64.o
                0x000000000040a68c                timer_start
 .text.elapsed_time
                0x000000000040a6e0       0x48 0x4 c_timers_aarch64.o
 .text.timer_stop
                0x000000000040a728       0x7c 0x4 c_timers_aarch64.o
                0x000000000040a728                timer_stop
 .text.timer_read
                0x000000000040a7a4       0x5c 0x4 c_timers_aarch64.o
                0x000000000040a7a4                timer_read
 .text          0x000000000040a800        0x0 0x4 print_results_aarch64.o
 .text.print_results
                0x000000000040a800      0x3b4 0x4 print_results_aarch64.o
                0x000000000040a800                print_results
 .text          0x000000000040abb4        0x0 0x4 randdp_aarch64.o
 .text.randlc   0x000000000040abb4      0x174 0x4 randdp_aarch64.o
                0x000000000040abb4                randlc
 .text.vranlc   0x000000000040ad28      0x1d0 0x4 randdp_aarch64.o
                0x000000000040ad28                vranlc
 .text          0x000000000040aef8        0x0 0x4 c_print_results_aarch64.o
 .text.c_print_results
                0x000000000040aef8      0x344 0x4 c_print_results_aarch64.o
                0x000000000040aef8                c_print_results
 .text          0x000000000040b23c        0x0 0x4 wtime_aarch64.o
 .text.wtime_   0x000000000040b23c       0xa0 0x4 wtime_aarch64.o
                0x000000000040b23c                wtime_
 .text          0x000000000040b2dc       0x1c 0x4 /usr/local/popcorn/aarch64/lib/crt1.o
                0x000000000040b2dc                _start
 .text._start_c
                0x000000000040b2f8       0x34 0x4 /usr/local/popcorn/aarch64/lib/crt1.o
                0x000000000040b2f8                _start_c
 .text          0x000000000040b32c        0x0 0x4 /usr/local/popcorn/aarch64/lib/libc.a(isdigit.o)
 .text.isdigit  0x000000000040b32c       0x10 0x4 /usr/local/popcorn/aarch64/lib/libc.a(isdigit.o)
                0x000000000040b32c                isdigit
 .text.__isdigit_l
                0x000000000040b33c       0x10 0x4 /usr/local/popcorn/aarch64/lib/libc.a(isdigit.o)
                0x000000000040b33c                __isdigit_l
                0x000000000040b33c                isdigit_l
 .text          0x000000000040b34c        0x0 0x4 /usr/local/popcorn/aarch64/lib/libc.a(__libc_start_main.o)
 .text.dummy    0x000000000040b34c        0x4 0x4 /usr/local/popcorn/aarch64/lib/libc.a(__libc_start_main.o)
                0x000000000040b34c                _init
 .text.dummy1   0x000000000040b350        0x4 0x4 /usr/local/popcorn/aarch64/lib/libc.a(__libc_start_main.o)
                0x000000000040b350                __init_ssp
 .text.__init_libc
                0x000000000040b354      0x1d8 0x4 /usr/local/popcorn/aarch64/lib/libc.a(__libc_start_main.o)
                0x000000000040b354                __init_libc
 .text.libc_start_init
                0x000000000040b52c       0x40 0x4 /usr/local/popcorn/aarch64/lib/libc.a(__libc_start_main.o)
                0x000000000040b52c                __libc_start_init
 .text.__libc_start_main
                0x000000000040b56c       0x50 0x4 /usr/local/popcorn/aarch64/lib/libc.a(__libc_start_main.o)
                0x000000000040b56c                __libc_start_main
 .text          0x000000000040b5bc        0x0 0x4 /usr/local/popcorn/aarch64/lib/libc.a(__errno_location.o)
 .text.__errno_location
                0x000000000040b5bc        0xc 0x4 /usr/local/popcorn/aarch64/lib/libc.a(__errno_location.o)
                0x000000000040b5bc                __errno_location
 .text          0x000000000040b5c8        0x0 0x4 /usr/local/popcorn/aarch64/lib/libc.a(exit.o)
 .text.libc_exit_fini
                0x000000000040b5c8       0x3c 0x4 /usr/local/popcorn/aarch64/lib/libc.a(exit.o)
                0x000000000040b5c8                __libc_exit_fini
 .text.dummy    0x000000000040b604        0x4 0x4 /usr/local/popcorn/aarch64/lib/libc.a(exit.o)
                0x000000000040b604                __funcs_on_exit
                0x000000000040b604                _fini
 .text          0x000000000040b608        0x0 0x4 /usr/local/popcorn/aarch64/lib/libc.a(libc.o)
 .text          0x000000000040b608        0x0 0x4 /usr/local/popcorn/aarch64/lib/libc.a(calloc.o)
 .text.calloc   0x000000000040b608       0x70 0x4 /usr/local/popcorn/aarch64/lib/libc.a(calloc.o)
                0x000000000040b608                calloc
 .text.popcorn_calloc
                0x000000000040b678       0x78 0x4 /usr/local/popcorn/aarch64/lib/libc.a(calloc.o)
                0x000000000040b678                popcorn_calloc
 .text.popcorn_calloc_cur
                0x000000000040b6f0       0x4c 0x4 /usr/local/popcorn/aarch64/lib/libc.a(calloc.o)
                0x000000000040b6f0                popcorn_calloc_cur
 .text          0x000000000040b73c        0x0 0x4 /usr/local/popcorn/aarch64/lib/libc.a(lite_malloc.o)
 .text.__simple_malloc
                0x000000000040b73c      0x1c4 0x4 /usr/local/popcorn/aarch64/lib/libc.a(lite_malloc.o)
 .text          0x000000000040b900        0x0 0x4 /usr/local/popcorn/aarch64/lib/libc.a(malloc.o)
 .text.__init_malloc
                0x000000000040b900       0x38 0x4 /usr/local/popcorn/aarch64/lib/libc.a(malloc.o)
 .text.malloc   0x000000000040b938      0x274 0x4 /usr/local/popcorn/aarch64/lib/libc.a(malloc.o)
                0x000000000040b938                malloc
 .text.adjust_size
                0x000000000040bbac       0xa8 0x4 /usr/local/popcorn/aarch64/lib/libc.a(malloc.o)
 .text.bin_index_up
                0x000000000040bc54       0xb0 0x4 /usr/local/popcorn/aarch64/lib/libc.a(malloc.o)
 .text.expand_heap
                0x000000000040bd04      0x120 0x4 /usr/local/popcorn/aarch64/lib/libc.a(malloc.o)
 .text.alloc_rev
                0x000000000040be24       0xb8 0x4 /usr/local/popcorn/aarch64/lib/libc.a(malloc.o)
 .text.first_set
                0x000000000040bedc       0x24 0x4 /usr/local/popcorn/aarch64/lib/libc.a(malloc.o)
 .text.lock_bin
                0x000000000040bf00       0xb8 0x4 /usr/local/popcorn/aarch64/lib/libc.a(malloc.o)
 .text.pretrim  0x000000000040bfb8      0x184 0x4 /usr/local/popcorn/aarch64/lib/libc.a(malloc.o)
 .text.unbin    0x000000000040c13c       0xb4 0x4 /usr/local/popcorn/aarch64/lib/libc.a(malloc.o)
 .text.unlock_bin
                0x000000000040c1f0       0x40 0x4 /usr/local/popcorn/aarch64/lib/libc.a(malloc.o)
 .text.trim     0x000000000040c230       0xcc 0x4 /usr/local/popcorn/aarch64/lib/libc.a(malloc.o)
 .text.__malloc0
                0x000000000040c2fc       0xa4 0x4 /usr/local/popcorn/aarch64/lib/libc.a(malloc.o)
                0x000000000040c2fc                __malloc0
 .text.realloc  0x000000000040c3a0      0x3b8 0x4 /usr/local/popcorn/aarch64/lib/libc.a(malloc.o)
                0x000000000040c3a0                realloc
 .text.free     0x000000000040c758      0x420 0x4 /usr/local/popcorn/aarch64/lib/libc.a(malloc.o)
                0x000000000040c758                free
 .text.alloc_fwd
                0x000000000040cb78       0x9c 0x4 /usr/local/popcorn/aarch64/lib/libc.a(malloc.o)
 .text.bin_index
                0x000000000040cc14       0xbc 0x4 /usr/local/popcorn/aarch64/lib/libc.a(malloc.o)
 .text.lock     0x000000000040ccd0       0x64 0x4 /usr/local/popcorn/aarch64/lib/libc.a(malloc.o)
 .text.unlock   0x000000000040cd34       0x60 0x4 /usr/local/popcorn/aarch64/lib/libc.a(malloc.o)
 .text.a_or_64  0x000000000040cd94       0x58 0x4 /usr/local/popcorn/aarch64/lib/libc.a(malloc.o)
 .text.a_ctz_64
                0x000000000040cdec       0x2c 0x4 /usr/local/popcorn/aarch64/lib/libc.a(malloc.o)
 .text.a_and_64
                0x000000000040ce18       0x60 0x4 /usr/local/popcorn/aarch64/lib/libc.a(malloc.o)
 .text.a_and    0x000000000040ce78       0x30 0x4 /usr/local/popcorn/aarch64/lib/libc.a(malloc.o)
 .text.a_fetch_and
                0x000000000040cea8       0x58 0x4 /usr/local/popcorn/aarch64/lib/libc.a(malloc.o)
 .text.a_ll     0x000000000040cf00       0x20 0x4 /usr/local/popcorn/aarch64/lib/libc.a(malloc.o)
 .text.a_sc     0x000000000040cf20       0x38 0x4 /usr/local/popcorn/aarch64/lib/libc.a(malloc.o)
 .text.a_crash  0x000000000040cf58        0xc 0x4 /usr/local/popcorn/aarch64/lib/libc.a(malloc.o)
 .text.a_swap   0x000000000040cf64       0x50 0x4 /usr/local/popcorn/aarch64/lib/libc.a(malloc.o)
 .text.a_store  0x000000000040cfb4       0x34 0x4 /usr/local/popcorn/aarch64/lib/libc.a(malloc.o)
 .text.__wake   0x000000000040cfe8       0x94 0x4 /usr/local/popcorn/aarch64/lib/libc.a(malloc.o)
 .text.a_barrier
                0x000000000040d07c        0x8 0x4 /usr/local/popcorn/aarch64/lib/libc.a(malloc.o)
 .text.__syscall3
                0x000000000040d084       0x60 0x4 /usr/local/popcorn/aarch64/lib/libc.a(malloc.o)
 .text.a_or     0x000000000040d0e4       0x30 0x4 /usr/local/popcorn/aarch64/lib/libc.a(malloc.o)
 .text.a_fetch_or
                0x000000000040d114       0x58 0x4 /usr/local/popcorn/aarch64/lib/libc.a(malloc.o)
 .text          0x000000000040d16c        0x0 0x4 /usr/local/popcorn/aarch64/lib/libc.a(popcorn_malloc.o)
 .text.__init_malloc
                0x000000000040d16c       0x38 0x4 /usr/local/popcorn/aarch64/lib/libc.a(popcorn_malloc.o)
 .text.popcorn_malloc
                0x000000000040d1a4      0x3e4 0x4 /usr/local/popcorn/aarch64/lib/libc.a(popcorn_malloc.o)
                0x000000000040d1a4                popcorn_malloc
 .text.adjust_size
                0x000000000040d588       0xa8 0x4 /usr/local/popcorn/aarch64/lib/libc.a(popcorn_malloc.o)
 .text.bin_index_up
                0x000000000040d630       0xb0 0x4 /usr/local/popcorn/aarch64/lib/libc.a(popcorn_malloc.o)
 .text.lock     0x000000000040d6e0       0x64 0x4 /usr/local/popcorn/aarch64/lib/libc.a(popcorn_malloc.o)
 .text.unlock   0x000000000040d744       0x60 0x4 /usr/local/popcorn/aarch64/lib/libc.a(popcorn_malloc.o)
 .text.expand_heap
                0x000000000040d7a4      0x1b8 0x4 /usr/local/popcorn/aarch64/lib/libc.a(popcorn_malloc.o)
 .text.alloc_rev
                0x000000000040d95c       0xcc 0x4 /usr/local/popcorn/aarch64/lib/libc.a(popcorn_malloc.o)
 .text.first_set
                0x000000000040da28       0x24 0x4 /usr/local/popcorn/aarch64/lib/libc.a(popcorn_malloc.o)
 .text.lock_bin
                0x000000000040da4c      0x108 0x4 /usr/local/popcorn/aarch64/lib/libc.a(popcorn_malloc.o)
 .text.pretrim  0x000000000040db54      0x18c 0x4 /usr/local/popcorn/aarch64/lib/libc.a(popcorn_malloc.o)
 .text.unbin    0x000000000040dce0       0xc8 0x4 /usr/local/popcorn/aarch64/lib/libc.a(popcorn_malloc.o)
 .text.unlock_bin
                0x000000000040dda8       0x50 0x4 /usr/local/popcorn/aarch64/lib/libc.a(popcorn_malloc.o)
 .text.trim     0x000000000040ddf8       0xdc 0x4 /usr/local/popcorn/aarch64/lib/libc.a(popcorn_malloc.o)
 .text.__popcorn_malloc0
                0x000000000040ded4       0xac 0x4 /usr/local/popcorn/aarch64/lib/libc.a(popcorn_malloc.o)
                0x000000000040ded4                __popcorn_malloc0
 .text.popcorn_malloc_cur
                0x000000000040df80       0x3c 0x4 /usr/local/popcorn/aarch64/lib/libc.a(popcorn_malloc.o)
                0x000000000040df80                popcorn_malloc_cur
 .text.popcorn_realloc
                0x000000000040dfbc      0x3f8 0x4 /usr/local/popcorn/aarch64/lib/libc.a(popcorn_malloc.o)
                0x000000000040dfbc                popcorn_realloc
 .text.popcorn_free
                0x000000000040e3b4      0x4b0 0x4 /usr/local/popcorn/aarch64/lib/libc.a(popcorn_malloc.o)
                0x000000000040e3b4                popcorn_free
 .text.alloc_fwd
                0x000000000040e864       0xb0 0x4 /usr/local/popcorn/aarch64/lib/libc.a(popcorn_malloc.o)
 .text.popcorn_realloc_cur
                0x000000000040e914       0x4c 0x4 /usr/local/popcorn/aarch64/lib/libc.a(popcorn_malloc.o)
                0x000000000040e914                popcorn_realloc_cur
 .text.bin_index
                0x000000000040e960       0xbc 0x4 /usr/local/popcorn/aarch64/lib/libc.a(popcorn_malloc.o)
 .text.a_or_64  0x000000000040ea1c       0x58 0x4 /usr/local/popcorn/aarch64/lib/libc.a(popcorn_malloc.o)
 .text.a_swap   0x000000000040ea74       0x50 0x4 /usr/local/popcorn/aarch64/lib/libc.a(popcorn_malloc.o)
 .text.a_ll     0x000000000040eac4       0x20 0x4 /usr/local/popcorn/aarch64/lib/libc.a(popcorn_malloc.o)
 .text.a_sc     0x000000000040eae4       0x38 0x4 /usr/local/popcorn/aarch64/lib/libc.a(popcorn_malloc.o)
 .text.a_store  0x000000000040eb1c       0x34 0x4 /usr/local/popcorn/aarch64/lib/libc.a(popcorn_malloc.o)
 .text.__wake   0x000000000040eb50       0x94 0x4 /usr/local/popcorn/aarch64/lib/libc.a(popcorn_malloc.o)
 .text.a_barrier
                0x000000000040ebe4        0x8 0x4 /usr/local/popcorn/aarch64/lib/libc.a(popcorn_malloc.o)
 .text.__syscall3
                0x000000000040ebec       0x60 0x4 /usr/local/popcorn/aarch64/lib/libc.a(popcorn_malloc.o)
 .text.a_ctz_64
                0x000000000040ec4c       0x2c 0x4 /usr/local/popcorn/aarch64/lib/libc.a(popcorn_malloc.o)
 .text.a_and_64
                0x000000000040ec78       0x60 0x4 /usr/local/popcorn/aarch64/lib/libc.a(popcorn_malloc.o)
 .text.a_and    0x000000000040ecd8       0x30 0x4 /usr/local/popcorn/aarch64/lib/libc.a(popcorn_malloc.o)
 .text.a_fetch_and
                0x000000000040ed08       0x58 0x4 /usr/local/popcorn/aarch64/lib/libc.a(popcorn_malloc.o)
 .text.a_crash  0x000000000040ed60        0xc 0x4 /usr/local/popcorn/aarch64/lib/libc.a(popcorn_malloc.o)
 .text.a_or     0x000000000040ed6c       0x30 0x4 /usr/local/popcorn/aarch64/lib/libc.a(popcorn_malloc.o)
 .text.a_fetch_or
                0x000000000040ed9c       0x58 0x4 /usr/local/popcorn/aarch64/lib/libc.a(popcorn_malloc.o)
 .text          0x000000000040edf4        0x0 0x4 /usr/local/popcorn/aarch64/lib/libc.a(pow.o)
 .text.pow      0x000000000040edf4      0x7f0 0x4 /usr/local/popcorn/aarch64/lib/libc.a(pow.o)
                0x000000000040edf4                pow
 .text          0x000000000040f5e4        0x0 0x4 /usr/local/popcorn/aarch64/lib/libc.a(scalbn.o)
 .text.scalbn   0x000000000040f5e4       0x88 0x4 /usr/local/popcorn/aarch64/lib/libc.a(scalbn.o)
                0x000000000040f5e4                scalbn
 .text          0x000000000040f66c        0x0 0x4 /usr/local/popcorn/aarch64/lib/libc.a(madvise.o)
 .text.__madvise
                0x000000000040f66c       0x20 0x4 /usr/local/popcorn/aarch64/lib/libc.a(madvise.o)
                0x000000000040f66c                __madvise
                0x000000000040f66c                madvise
 .text          0x000000000040f68c        0x0 0x4 /usr/local/popcorn/aarch64/lib/libc.a(mmap.o)
 .text.dummy    0x000000000040f68c        0x4 0x4 /usr/local/popcorn/aarch64/lib/libc.a(mmap.o)
                0x000000000040f68c                __vm_wait
 .text.__mmap   0x000000000040f690       0xc0 0x4 /usr/local/popcorn/aarch64/lib/libc.a(mmap.o)
                0x000000000040f690                __mmap
                0x000000000040f690                mmap
                0x000000000040f690                mmap64
 .text          0x000000000040f750        0x0 0x4 /usr/local/popcorn/aarch64/lib/libc.a(mremap.o)
 .text.dummy    0x000000000040f750        0x4 0x4 /usr/local/popcorn/aarch64/lib/libc.a(mremap.o)
 .text.__mremap
                0x000000000040f754      0x110 0x4 /usr/local/popcorn/aarch64/lib/libc.a(mremap.o)
                0x000000000040f754                __mremap
                0x000000000040f754                mremap
 .text          0x000000000040f864        0x0 0x4 /usr/local/popcorn/aarch64/lib/libc.a(munmap.o)
 .text.dummy    0x000000000040f864        0x4 0x4 /usr/local/popcorn/aarch64/lib/libc.a(munmap.o)
 .text.__munmap
                0x000000000040f868       0x38 0x4 /usr/local/popcorn/aarch64/lib/libc.a(munmap.o)
                0x000000000040f868                __munmap
                0x000000000040f868                munmap
 .text          0x000000000040f8a0        0x0 0x4 /usr/local/popcorn/aarch64/lib/libc.a(fclose.o)
 .text.dummy    0x000000000040f8a0        0x4 0x4 /usr/local/popcorn/aarch64/lib/libc.a(fclose.o)
                0x000000000040f8a0                __unlist_locked_file
 .text.fclose   0x000000000040f8a4       0xd8 0x4 /usr/local/popcorn/aarch64/lib/libc.a(fclose.o)
                0x000000000040f8a4                fclose
 .text          0x000000000040f97c        0x0 0x4 /usr/local/popcorn/aarch64/lib/libc.a(fflush.o)
 .text.fflush   0x000000000040f97c      0x154 0x4 /usr/local/popcorn/aarch64/lib/libc.a(fflush.o)
                0x000000000040f97c                fflush
                0x000000000040f97c                fflush_unlocked
 .text          0x000000000040fad0        0x0 0x4 /usr/local/popcorn/aarch64/lib/libc.a(fgets.o)
 .text.fgets    0x000000000040fad0      0x198 0x4 /usr/local/popcorn/aarch64/lib/libc.a(fgets.o)
                0x000000000040fad0                fgets
                0x000000000040fad0                fgets_unlocked
 .text          0x000000000040fc68        0x0 0x4 /usr/local/popcorn/aarch64/lib/libc.a(fopen.o)
 .text.fopen    0x000000000040fc68       0xbc 0x4 /usr/local/popcorn/aarch64/lib/libc.a(fopen.o)
                0x000000000040fc68                fopen
                0x000000000040fc68                fopen64
 .text          0x000000000040fd24        0x0 0x4 /usr/local/popcorn/aarch64/lib/libc.a(fprintf.o)
 .text.fprintf  0x000000000040fd24       0x74 0x4 /usr/local/popcorn/aarch64/lib/libc.a(fprintf.o)
                0x000000000040fd24                fprintf
 .text          0x000000000040fd98        0x0 0x4 /usr/local/popcorn/aarch64/lib/libc.a(fread.o)
 .text.fread    0x000000000040fd98      0x124 0x4 /usr/local/popcorn/aarch64/lib/libc.a(fread.o)
                0x000000000040fd98                fread
                0x000000000040fd98                fread_unlocked
 .text          0x000000000040febc        0x0 0x4 /usr/local/popcorn/aarch64/lib/libc.a(fscanf.o)
 .text.fscanf   0x000000000040febc       0x74 0x4 /usr/local/popcorn/aarch64/lib/libc.a(fscanf.o)
                0x000000000040febc                __isoc99_fscanf
                0x000000000040febc                fscanf
 .text          0x000000000040ff30        0x0 0x4 /usr/local/popcorn/aarch64/lib/libc.a(fseek.o)
 .text.__fseeko_unlocked
                0x000000000040ff30       0xc0 0x4 /usr/local/popcorn/aarch64/lib/libc.a(fseek.o)
                0x000000000040ff30                __fseeko_unlocked
 .text.__fseeko
                0x000000000040fff0       0x7c 0x4 /usr/local/popcorn/aarch64/lib/libc.a(fseek.o)
                0x000000000040fff0                __fseeko
                0x000000000040fff0                fseeko
                0x000000000040fff0                fseeko64
 .text.fseek    0x000000000041006c        0x4 0x4 /usr/local/popcorn/aarch64/lib/libc.a(fseek.o)
                0x000000000041006c                fseek
 .text          0x0000000000410070        0x0 0x4 /usr/local/popcorn/aarch64/lib/libc.a(ftell.o)
 .text.__ftello_unlocked
                0x0000000000410070       0x68 0x4 /usr/local/popcorn/aarch64/lib/libc.a(ftell.o)
                0x0000000000410070                __ftello_unlocked
 .text.__ftello
                0x00000000004100d8       0x64 0x4 /usr/local/popcorn/aarch64/lib/libc.a(ftell.o)
                0x00000000004100d8                __ftello
                0x00000000004100d8                ftello
                0x00000000004100d8                ftello64
 .text.ftell    0x000000000041013c        0x4 0x4 /usr/local/popcorn/aarch64/lib/libc.a(ftell.o)
                0x000000000041013c                ftell
 .text          0x0000000000410140        0x0 0x4 /usr/local/popcorn/aarch64/lib/libc.a(fwrite.o)
 .text.__fwritex
                0x0000000000410140       0xf4 0x4 /usr/local/popcorn/aarch64/lib/libc.a(fwrite.o)
                0x0000000000410140                __fwritex
 .text.fwrite   0x0000000000410234       0x9c 0x4 /usr/local/popcorn/aarch64/lib/libc.a(fwrite.o)
                0x0000000000410234                fwrite
                0x0000000000410234                fwrite_unlocked
 .text          0x00000000004102d0        0x0 0x4 /usr/local/popcorn/aarch64/lib/libc.a(ofl.o)
 .text.__ofl_lock
                0x00000000004102d0       0x24 0x4 /usr/local/popcorn/aarch64/lib/libc.a(ofl.o)
                0x00000000004102d0                __ofl_lock
 .text.__ofl_unlock
                0x00000000004102f4        0xc 0x4 /usr/local/popcorn/aarch64/lib/libc.a(ofl.o)
                0x00000000004102f4                __ofl_unlock
 .text          0x0000000000410300        0x0 0x4 /usr/local/popcorn/aarch64/lib/libc.a(printf.o)
 .text.printf   0x0000000000410300       0x88 0x4 /usr/local/popcorn/aarch64/lib/libc.a(printf.o)
                0x0000000000410300                printf
 .text          0x0000000000410388        0x0 0x4 /usr/local/popcorn/aarch64/lib/libc.a(sprintf.o)
 .text.sprintf  0x0000000000410388       0x74 0x4 /usr/local/popcorn/aarch64/lib/libc.a(sprintf.o)
                0x0000000000410388                sprintf
 .text          0x00000000004103fc        0x0 0x4 /usr/local/popcorn/aarch64/lib/libc.a(sscanf.o)
 .text.sscanf   0x00000000004103fc       0x74 0x4 /usr/local/popcorn/aarch64/lib/libc.a(sscanf.o)
                0x00000000004103fc                __isoc99_sscanf
                0x00000000004103fc                sscanf
 .text          0x0000000000410470        0x0 0x4 /usr/local/popcorn/aarch64/lib/libc.a(stderr.o)
 .text          0x0000000000410470        0x0 0x4 /usr/local/popcorn/aarch64/lib/libc.a(stdout.o)
 .text          0x0000000000410470        0x0 0x4 /usr/local/popcorn/aarch64/lib/libc.a(vfprintf.o)
 .text.vfprintf
                0x0000000000410470      0x1a0 0x4 /usr/local/popcorn/aarch64/lib/libc.a(vfprintf.o)
                0x0000000000410470                vfprintf
 .text.printf_core
                0x0000000000410610     0x1cc4 0x4 /usr/local/popcorn/aarch64/lib/libc.a(vfprintf.o)
 .text.getint   0x00000000004122d4       0x74 0x4 /usr/local/popcorn/aarch64/lib/libc.a(vfprintf.o)
 .text.pop_arg  0x0000000000412348      0x27c 0x4 /usr/local/popcorn/aarch64/lib/libc.a(vfprintf.o)
 .text.pad      0x00000000004125c4       0xc4 0x4 /usr/local/popcorn/aarch64/lib/libc.a(vfprintf.o)
 .text          0x0000000000412688        0x0 0x4 /usr/local/popcorn/aarch64/lib/libc.a(vfscanf.o)
 .text.vfscanf  0x0000000000412688      0xd98 0x4 /usr/local/popcorn/aarch64/lib/libc.a(vfscanf.o)
                0x0000000000412688                __isoc99_vfscanf
                0x0000000000412688                vfscanf
 .text          0x0000000000413420        0x0 0x4 /usr/local/popcorn/aarch64/lib/libc.a(vsprintf.o)
 .text.vsprintf
                0x0000000000413420       0x3c 0x4 /usr/local/popcorn/aarch64/lib/libc.a(vsprintf.o)
                0x0000000000413420                vsprintf
 .text          0x000000000041345c        0x0 0x4 /usr/local/popcorn/aarch64/lib/libc.a(vsscanf.o)
 .text.vsscanf  0x000000000041345c       0x80 0x4 /usr/local/popcorn/aarch64/lib/libc.a(vsscanf.o)
                0x000000000041345c                __isoc99_vsscanf
                0x000000000041345c                vsscanf
 .text.do_read  0x00000000004134dc        0x4 0x4 /usr/local/popcorn/aarch64/lib/libc.a(vsscanf.o)
 .text          0x00000000004134e0        0x0 0x4 /usr/local/popcorn/aarch64/lib/libc.a(atoi.o)
 .text.atoi     0x00000000004134e0       0x74 0x4 /usr/local/popcorn/aarch64/lib/libc.a(atoi.o)
                0x00000000004134e0                atoi
 .text          0x0000000000413554        0x0 0x4 /usr/local/popcorn/aarch64/lib/libc.a(qsort.o)
 .text.qsort    0x0000000000413554      0x34c 0x4 /usr/local/popcorn/aarch64/lib/libc.a(qsort.o)
                0x0000000000413554                qsort
 .text.sift     0x00000000004138a0      0x108 0x4 /usr/local/popcorn/aarch64/lib/libc.a(qsort.o)
 .text.trinkle  0x00000000004139a8      0x1dc 0x4 /usr/local/popcorn/aarch64/lib/libc.a(qsort.o)
 .text.cycle    0x0000000000413b84       0xbc 0x4 /usr/local/popcorn/aarch64/lib/libc.a(qsort.o)
 .text          0x0000000000413c40        0x0 0x4 /usr/local/popcorn/aarch64/lib/libc.a(memchr.o)
 .text.memchr   0x0000000000413c40      0x1d4 0x4 /usr/local/popcorn/aarch64/lib/libc.a(memchr.o)
                0x0000000000413c40                memchr
 .text          0x0000000000413e14        0x0 0x4 /usr/local/popcorn/aarch64/lib/libc.a(memcpy.o)
 .text.memcpy   0x0000000000413e14      0x9d0 0x4 /usr/local/popcorn/aarch64/lib/libc.a(memcpy.o)
                0x0000000000413e14                memcpy
 .text          0x00000000004147e4        0x0 0x4 /usr/local/popcorn/aarch64/lib/libc.a(memset.o)
 .text.memset   0x00000000004147e4      0x31c 0x4 /usr/local/popcorn/aarch64/lib/libc.a(memset.o)
                0x00000000004147e4                memset
 .text          0x0000000000414b00        0x0 0x4 /usr/local/popcorn/aarch64/lib/libc.a(strcat.o)
 .text.strcat   0x0000000000414b00       0x50 0x4 /usr/local/popcorn/aarch64/lib/libc.a(strcat.o)
                0x0000000000414b00                strcat
 .text          0x0000000000414b50        0x0 0x4 /usr/local/popcorn/aarch64/lib/libc.a(strchr.o)
 .text.strchr   0x0000000000414b50       0x64 0x4 /usr/local/popcorn/aarch64/lib/libc.a(strchr.o)
                0x0000000000414b50                strchr
 .text          0x0000000000414bb4        0x0 0x4 /usr/local/popcorn/aarch64/lib/libc.a(strchrnul.o)
 .text.__strchrnul
                0x0000000000414bb4      0x1c0 0x4 /usr/local/popcorn/aarch64/lib/libc.a(strchrnul.o)
                0x0000000000414bb4                __strchrnul
                0x0000000000414bb4                strchrnul
 .text          0x0000000000414d74        0x0 0x4 /usr/local/popcorn/aarch64/lib/libc.a(strcmp.o)
 .text.strcmp   0x0000000000414d74       0x88 0x4 /usr/local/popcorn/aarch64/lib/libc.a(strcmp.o)
                0x0000000000414d74                strcmp
 .text          0x0000000000414dfc        0x0 0x4 /usr/local/popcorn/aarch64/lib/libc.a(strcpy.o)
 .text.strcpy   0x0000000000414dfc       0x38 0x4 /usr/local/popcorn/aarch64/lib/libc.a(strcpy.o)
                0x0000000000414dfc                strcpy
 .text          0x0000000000414e34        0x0 0x4 /usr/local/popcorn/aarch64/lib/libc.a(strlen.o)
 .text.strlen   0x0000000000414e34       0xf8 0x4 /usr/local/popcorn/aarch64/lib/libc.a(strlen.o)
                0x0000000000414e34                strlen
 .text          0x0000000000414f2c        0x0 0x4 /usr/local/popcorn/aarch64/lib/libc.a(strnlen.o)
 .text.strnlen  0x0000000000414f2c       0x60 0x4 /usr/local/popcorn/aarch64/lib/libc.a(strnlen.o)
                0x0000000000414f2c                strnlen
 .text          0x0000000000414f8c        0x0 0x4 /usr/local/popcorn/aarch64/lib/libc.a(strstr.o)
 .text.strstr   0x0000000000414f8c      0x148 0x4 /usr/local/popcorn/aarch64/lib/libc.a(strstr.o)
                0x0000000000414f8c                strstr
 .text.twobyte_strstr
                0x00000000004150d4       0xd4 0x4 /usr/local/popcorn/aarch64/lib/libc.a(strstr.o)
 .text.threebyte_strstr
                0x00000000004151a8       0xf8 0x4 /usr/local/popcorn/aarch64/lib/libc.a(strstr.o)
 .text.fourbyte_strstr
                0x00000000004152a0      0x10c 0x4 /usr/local/popcorn/aarch64/lib/libc.a(strstr.o)
 .text.twoway_strstr
                0x00000000004153ac      0x780 0x4 /usr/local/popcorn/aarch64/lib/libc.a(strstr.o)
 .text          0x0000000000415b2c        0x0 0x4 /usr/local/popcorn/aarch64/lib/libc.a(__lock.o)
 .text.__lock   0x0000000000415b2c       0x64 0x4 /usr/local/popcorn/aarch64/lib/libc.a(__lock.o)
                0x0000000000415b2c                __lock
 .text.__unlock
                0x0000000000415b90       0x54 0x4 /usr/local/popcorn/aarch64/lib/libc.a(__lock.o)
                0x0000000000415b90                __unlock
 .text          0x0000000000415be4        0x0 0x4 /usr/local/popcorn/aarch64/lib/libc.a(__wait.o)
 .text.__wait   0x0000000000415be4       0xc4 0x4 /usr/local/popcorn/aarch64/lib/libc.a(__wait.o)
                0x0000000000415be4                __wait
 .text          0x0000000000415ca8        0x0 0x4 /usr/local/popcorn/aarch64/lib/libc.a(gettimeofday.o)
 .text.gettimeofday
                0x0000000000415ca8       0x64 0x4 /usr/local/popcorn/aarch64/lib/libc.a(gettimeofday.o)
                0x0000000000415ca8                gettimeofday
 .text          0x0000000000415d0c        0x0 0x4 /usr/local/popcorn/aarch64/lib/libc.a(unlink.o)
 .text.unlink   0x0000000000415d0c       0x2c 0x4 /usr/local/popcorn/aarch64/lib/libc.a(unlink.o)
                0x0000000000415d0c                unlink
 .text          0x0000000000415d38        0x0 0x4 /usr/local/popcorn/aarch64/lib/libc.a(__environ.o)
 .text          0x0000000000415d38        0x0 0x4 /usr/local/popcorn/aarch64/lib/libc.a(__init_tls.o)
 .text.__init_tp
                0x0000000000415d38       0x74 0x4 /usr/local/popcorn/aarch64/lib/libc.a(__init_tls.o)
                0x0000000000415d38                __init_tp
 .text.__copy_tls
                0x0000000000415dac       0x9c 0x4 /usr/local/popcorn/aarch64/lib/libc.a(__init_tls.o)
                0x0000000000415dac                __copy_tls
 .text.static_init_tls
                0x0000000000415e48      0x158 0x4 /usr/local/popcorn/aarch64/lib/libc.a(__init_tls.o)
                0x0000000000415e48                __init_tls
 .text          0x0000000000415fa0        0x0 0x4 /usr/local/popcorn/aarch64/lib/libc.a(platform.o)
 .text.popcorn_getnid
                0x0000000000415fa0       0x38 0x4 /usr/local/popcorn/aarch64/lib/libc.a(platform.o)
                0x0000000000415fa0                popcorn_getnid
 .text.popcorn_getthreadinfo
                0x0000000000415fd8       0x1c 0x4 /usr/local/popcorn/aarch64/lib/libc.a(platform.o)
                0x0000000000415fd8                popcorn_getthreadinfo
 .text.popcorn_getnodeinfo
                0x0000000000415ff4       0x8c 0x4 /usr/local/popcorn/aarch64/lib/libc.a(platform.o)
                0x0000000000415ff4                popcorn_getnodeinfo
 .text          0x0000000000416080        0x0 0x4 /usr/local/popcorn/aarch64/lib/libc.a(strerror.o)
 .text.__strerror_l
                0x0000000000416080       0x60 0x4 /usr/local/popcorn/aarch64/lib/libc.a(strerror.o)
                0x0000000000416080                __strerror_l
                0x0000000000416080                strerror_l
 .text.strerror
                0x00000000004160e0        0xc 0x4 /usr/local/popcorn/aarch64/lib/libc.a(strerror.o)
                0x00000000004160e0                strerror
 .text          0x00000000004160ec        0x0 0x4 /usr/local/popcorn/aarch64/lib/libc.a(_Exit.o)
 .text._Exit    0x00000000004160ec       0x20 0x4 /usr/local/popcorn/aarch64/lib/libc.a(_Exit.o)
                0x00000000004160ec                _Exit
 .text          0x000000000041610c        0x0 0x4 /usr/local/popcorn/aarch64/lib/libc.a(floatscan.o)
 .text.__floatscan
                0x000000000041610c      0x6fc 0x4 /usr/local/popcorn/aarch64/lib/libc.a(floatscan.o)
                0x000000000041610c                __floatscan
 .text.__isspace
                0x0000000000416808       0x40 0x4 /usr/local/popcorn/aarch64/lib/libc.a(floatscan.o)
 .text.hexfloat
                0x0000000000416848      0x8bc 0x4 /usr/local/popcorn/aarch64/lib/libc.a(floatscan.o)
 .text.decfloat
                0x0000000000417104     0x13d8 0x4 /usr/local/popcorn/aarch64/lib/libc.a(floatscan.o)
 .text.scanexp  0x00000000004184dc      0x378 0x4 /usr/local/popcorn/aarch64/lib/libc.a(floatscan.o)
 .text          0x0000000000418854        0x0 0x4 /usr/local/popcorn/aarch64/lib/libc.a(intscan.o)
 .text.__intscan
                0x0000000000418854      0x9ec 0x4 /usr/local/popcorn/aarch64/lib/libc.a(intscan.o)
                0x0000000000418854                __intscan
 .text.__isspace
                0x0000000000419240       0x40 0x4 /usr/local/popcorn/aarch64/lib/libc.a(intscan.o)
 .text          0x0000000000419280        0x0 0x4 /usr/local/popcorn/aarch64/lib/libc.a(shgetc.o)
 .text.__shlim  0x0000000000419280       0x84 0x4 /usr/local/popcorn/aarch64/lib/libc.a(shgetc.o)
                0x0000000000419280                __shlim
 .text.__shgetc
                0x0000000000419304      0x150 0x4 /usr/local/popcorn/aarch64/lib/libc.a(shgetc.o)
                0x0000000000419304                __shgetc
 .text          0x0000000000419454        0x0 0x4 /usr/local/popcorn/aarch64/lib/libc.a(syscall_ret.o)
 .text.__syscall_ret
                0x0000000000419454       0x60 0x4 /usr/local/popcorn/aarch64/lib/libc.a(syscall_ret.o)
                0x0000000000419454                __syscall_ret
 .text          0x00000000004194b4        0x0 0x4 /usr/local/popcorn/aarch64/lib/libc.a(__lctrans.o)
 .text.dummy    0x00000000004194b4        0x4 0x4 /usr/local/popcorn/aarch64/lib/libc.a(__lctrans.o)
                0x00000000004194b4                __lctrans_impl
 .text.__lctrans
                0x00000000004194b8        0x4 0x4 /usr/local/popcorn/aarch64/lib/libc.a(__lctrans.o)
                0x00000000004194b8                __lctrans
 .text.__lctrans_cur
                0x00000000004194bc       0x10 0x4 /usr/local/popcorn/aarch64/lib/libc.a(__lctrans.o)
                0x00000000004194bc                __lctrans_cur
 .text          0x00000000004194cc        0x0 0x4 /usr/local/popcorn/aarch64/lib/libc.a(expand_heap.o)
 .text.__expand_heap
                0x00000000004194cc      0x248 0x4 /usr/local/popcorn/aarch64/lib/libc.a(expand_heap.o)
                0x00000000004194cc                __expand_heap
 .text.__syscall1
                0x0000000000419714       0x40 0x4 /usr/local/popcorn/aarch64/lib/libc.a(expand_heap.o)
 .text.traverses_stack_p
                0x0000000000419754       0xf4 0x4 /usr/local/popcorn/aarch64/lib/libc.a(expand_heap.o)
 .text.__expand_heap_node
                0x0000000000419848      0x2b4 0x4 /usr/local/popcorn/aarch64/lib/libc.a(expand_heap.o)
                0x0000000000419848                __expand_heap_node
 .text.popcorn_get_arena
                0x0000000000419afc       0x6c 0x4 /usr/local/popcorn/aarch64/lib/libc.a(expand_heap.o)
                0x0000000000419afc                popcorn_get_arena
 .text.set_arena_start
                0x0000000000419b68      0x120 0x4 /usr/local/popcorn/aarch64/lib/libc.a(expand_heap.o)
 .text.a_swap   0x0000000000419c88       0x50 0x4 /usr/local/popcorn/aarch64/lib/libc.a(expand_heap.o)
 .text.a_store  0x0000000000419cd8       0x34 0x4 /usr/local/popcorn/aarch64/lib/libc.a(expand_heap.o)
 .text.__wake   0x0000000000419d0c       0x94 0x4 /usr/local/popcorn/aarch64/lib/libc.a(expand_heap.o)
 .text.a_ll     0x0000000000419da0       0x20 0x4 /usr/local/popcorn/aarch64/lib/libc.a(expand_heap.o)
 .text.a_sc     0x0000000000419dc0       0x38 0x4 /usr/local/popcorn/aarch64/lib/libc.a(expand_heap.o)
 .text.a_barrier
                0x0000000000419df8        0x8 0x4 /usr/local/popcorn/aarch64/lib/libc.a(expand_heap.o)
 .text.__syscall3
                0x0000000000419e00       0x60 0x4 /usr/local/popcorn/aarch64/lib/libc.a(expand_heap.o)
 .text          0x0000000000419e60        0x0 0x4 /usr/local/popcorn/aarch64/lib/libc.a(__fpclassifyl.o)
 .text.__fpclassifyl
                0x0000000000419e60       0x54 0x4 /usr/local/popcorn/aarch64/lib/libc.a(__fpclassifyl.o)
                0x0000000000419e60                __fpclassifyl
 .text          0x0000000000419eb4        0x0 0x4 /usr/local/popcorn/aarch64/lib/libc.a(__signbitl.o)
 .text.__signbitl
                0x0000000000419eb4       0x18 0x4 /usr/local/popcorn/aarch64/lib/libc.a(__signbitl.o)
                0x0000000000419eb4                __signbitl
 .text          0x0000000000419ecc        0x0 0x4 /usr/local/popcorn/aarch64/lib/libc.a(fabs.o)
 .text.fabs     0x0000000000419ecc        0x8 0x4 /usr/local/popcorn/aarch64/lib/libc.a(fabs.o)
                0x0000000000419ecc                fabs
 .text          0x0000000000419ed4        0x0 0x4 /usr/local/popcorn/aarch64/lib/libc.a(sqrt.o)
 .text.sqrt     0x0000000000419ed4        0x8 0x4 /usr/local/popcorn/aarch64/lib/libc.a(sqrt.o)
                0x0000000000419ed4                sqrt
 .text          0x0000000000419edc        0x0 0x4 /usr/local/popcorn/aarch64/lib/libc.a(copysignl.o)
 .text.copysignl
                0x0000000000419edc       0x2c 0x4 /usr/local/popcorn/aarch64/lib/libc.a(copysignl.o)
                0x0000000000419edc                copysignl
 .text          0x0000000000419f08        0x0 0x4 /usr/local/popcorn/aarch64/lib/libc.a(fmodl.o)
 .text.fmodl    0x0000000000419f08      0x254 0x4 /usr/local/popcorn/aarch64/lib/libc.a(fmodl.o)
                0x0000000000419f08                fmodl
 .text          0x000000000041a15c        0x0 0x4 /usr/local/popcorn/aarch64/lib/libc.a(frexpl.o)
 .text.frexpl   0x000000000041a15c       0xb4 0x4 /usr/local/popcorn/aarch64/lib/libc.a(frexpl.o)
                0x000000000041a15c                frexpl
 .text          0x000000000041a210        0x0 0x4 /usr/local/popcorn/aarch64/lib/libc.a(scalbnl.o)
 .text.scalbnl  0x000000000041a210       0xd4 0x4 /usr/local/popcorn/aarch64/lib/libc.a(scalbnl.o)
                0x000000000041a210                scalbnl
 .text          0x000000000041a2e4        0x0 0x4 /usr/local/popcorn/aarch64/lib/libc.a(mbrtowc.o)
 .text.mbrtowc  0x000000000041a2e4      0x144 0x4 /usr/local/popcorn/aarch64/lib/libc.a(mbrtowc.o)
                0x000000000041a2e4                mbrtowc
 .text          0x000000000041a428        0x0 0x4 /usr/local/popcorn/aarch64/lib/libc.a(mbsinit.o)
 .text.mbsinit  0x000000000041a428       0x1c 0x4 /usr/local/popcorn/aarch64/lib/libc.a(mbsinit.o)
                0x000000000041a428                mbsinit
 .text          0x000000000041a444        0x0 0x4 /usr/local/popcorn/aarch64/lib/libc.a(wctomb.o)
 .text.wctomb   0x000000000041a444       0x24 0x4 /usr/local/popcorn/aarch64/lib/libc.a(wctomb.o)
                0x000000000041a444                wctomb
 .text          0x000000000041a468        0x0 0x4 /usr/local/popcorn/aarch64/lib/libc.a(__fdopen.o)
 .text.__fdopen
                0x000000000041a468      0x1b4 0x4 /usr/local/popcorn/aarch64/lib/libc.a(__fdopen.o)
                0x000000000041a468                __fdopen
                0x000000000041a468                fdopen
 .text          0x000000000041a61c        0x0 0x4 /usr/local/popcorn/aarch64/lib/libc.a(__fmodeflags.o)
 .text.__fmodeflags
                0x000000000041a61c       0x94 0x4 /usr/local/popcorn/aarch64/lib/libc.a(__fmodeflags.o)
                0x000000000041a61c                __fmodeflags
 .text          0x000000000041a6b0        0x0 0x4 /usr/local/popcorn/aarch64/lib/libc.a(__lockfile.o)
 .text.__lockfile
                0x000000000041a6b0       0x70 0x4 /usr/local/popcorn/aarch64/lib/libc.a(__lockfile.o)
                0x000000000041a6b0                __lockfile
 .text.__unlockfile
                0x000000000041a720       0x4c 0x4 /usr/local/popcorn/aarch64/lib/libc.a(__lockfile.o)
                0x000000000041a720                __unlockfile
 .text          0x000000000041a76c        0x0 0x4 /usr/local/popcorn/aarch64/lib/libc.a(__stdio_close.o)
 .text.dummy    0x000000000041a76c        0x4 0x4 /usr/local/popcorn/aarch64/lib/libc.a(__stdio_close.o)
                0x000000000041a76c                __aio_close
 .text.__stdio_close
                0x000000000041a770       0x28 0x4 /usr/local/popcorn/aarch64/lib/libc.a(__stdio_close.o)
                0x000000000041a770                __stdio_close
 .text          0x000000000041a798        0x0 0x4 /usr/local/popcorn/aarch64/lib/libc.a(__stdio_read.o)
 .text.__stdio_read
                0x000000000041a798       0xe0 0x4 /usr/local/popcorn/aarch64/lib/libc.a(__stdio_read.o)
                0x000000000041a798                __stdio_read
 .text          0x000000000041a878        0x0 0x4 /usr/local/popcorn/aarch64/lib/libc.a(__stdio_seek.o)
 .text.__stdio_seek
                0x000000000041a878       0x14 0x4 /usr/local/popcorn/aarch64/lib/libc.a(__stdio_seek.o)
                0x000000000041a878                __stdio_seek
 .text          0x000000000041a88c        0x0 0x4 /usr/local/popcorn/aarch64/lib/libc.a(__stdio_write.o)
 .text.__stdio_write
                0x000000000041a88c      0x138 0x4 /usr/local/popcorn/aarch64/lib/libc.a(__stdio_write.o)
                0x000000000041a88c                __stdio_write
 .text          0x000000000041a9c4        0x0 0x4 /usr/local/popcorn/aarch64/lib/libc.a(__stdout_write.o)
 .text.__stdout_write
                0x000000000041a9c4       0x68 0x4 /usr/local/popcorn/aarch64/lib/libc.a(__stdout_write.o)
                0x000000000041a9c4                __stdout_write
 .text          0x000000000041aa2c        0x0 0x4 /usr/local/popcorn/aarch64/lib/libc.a(__string_read.o)
 .text.__string_read
                0x000000000041aa2c       0x84 0x4 /usr/local/popcorn/aarch64/lib/libc.a(__string_read.o)
                0x000000000041aa2c                __string_read
 .text          0x000000000041aab0        0x0 0x4 /usr/local/popcorn/aarch64/lib/libc.a(__toread.o)
 .text.__toread
                0x000000000041aab0       0x88 0x4 /usr/local/popcorn/aarch64/lib/libc.a(__toread.o)
                0x000000000041aab0                __toread
 .text.__toread_needs_stdio_exit
                0x000000000041ab38        0x4 0x4 /usr/local/popcorn/aarch64/lib/libc.a(__toread.o)
                0x000000000041ab38                __toread_needs_stdio_exit
 .text          0x000000000041ab3c        0x0 0x4 /usr/local/popcorn/aarch64/lib/libc.a(__towrite.o)
 .text.__towrite
                0x000000000041ab3c       0x50 0x4 /usr/local/popcorn/aarch64/lib/libc.a(__towrite.o)
                0x000000000041ab3c                __towrite
 .text.__towrite_needs_stdio_exit
                0x000000000041ab8c        0x4 0x4 /usr/local/popcorn/aarch64/lib/libc.a(__towrite.o)
                0x000000000041ab8c                __towrite_needs_stdio_exit
 .text          0x000000000041ab90        0x0 0x4 /usr/local/popcorn/aarch64/lib/libc.a(__uflow.o)
 .text.__uflow  0x000000000041ab90       0x54 0x4 /usr/local/popcorn/aarch64/lib/libc.a(__uflow.o)
                0x000000000041ab90                __uflow
 .text          0x000000000041abe4        0x0 0x4 /usr/local/popcorn/aarch64/lib/libc.a(ofl_add.o)
 .text.__ofl_add
                0x000000000041abe4       0x40 0x4 /usr/local/popcorn/aarch64/lib/libc.a(ofl_add.o)
                0x000000000041abe4                __ofl_add
 .text          0x000000000041ac24        0x0 0x4 /usr/local/popcorn/aarch64/lib/libc.a(vsnprintf.o)
 .text.vsnprintf
                0x000000000041ac24       0xd4 0x4 /usr/local/popcorn/aarch64/lib/libc.a(vsnprintf.o)
                0x000000000041ac24                vsnprintf
 .text.sn_write
                0x000000000041acf8       0xd8 0x4 /usr/local/popcorn/aarch64/lib/libc.a(vsnprintf.o)
 .text          0x000000000041add0        0x0 0x4 /usr/local/popcorn/aarch64/lib/libc.a(memcmp.o)
 .text.memcmp   0x000000000041add0       0xc0 0x4 /usr/local/popcorn/aarch64/lib/libc.a(memcmp.o)
                0x000000000041add0                memcmp
 .text          0x000000000041ae90        0x0 0x4 /usr/local/popcorn/aarch64/lib/libc.a(stpcpy.o)
 .text.__stpcpy
                0x000000000041ae90      0x158 0x4 /usr/local/popcorn/aarch64/lib/libc.a(stpcpy.o)
                0x000000000041ae90                __stpcpy
                0x000000000041ae90                stpcpy
 .text          0x000000000041afe8        0x0 0x4 /usr/local/popcorn/aarch64/lib/libc.a(__set_thread_area.o)
 .text.__set_thread_area
                0x000000000041aff0        0xc 0x10 /usr/local/popcorn/aarch64/lib/libc.a(__set_thread_area.o)
                0x000000000041aff0                __set_thread_area
 .text          0x000000000041affc        0x0 0x4 /usr/local/popcorn/aarch64/lib/libc.a(clock_gettime.o)
 .text.__clock_gettime
                0x000000000041affc       0x68 0x4 /usr/local/popcorn/aarch64/lib/libc.a(clock_gettime.o)
                0x000000000041affc                __clock_gettime
                0x000000000041affc                clock_gettime
 .text          0x000000000041b064        0x0 0x4 /usr/local/popcorn/aarch64/lib/libc.a(internal.o)
 .text          0x000000000041b064        0x0 0x4 /usr/local/popcorn/aarch64/lib/libc.a(wcrtomb.o)
 .text.wcrtomb  0x000000000041b064      0x10c 0x4 /usr/local/popcorn/aarch64/lib/libc.a(wcrtomb.o)
                0x000000000041b064                wcrtomb
 .text          0x000000000041b170        0x0 0x4 /usr/local/popcorn/aarch64/lib/libc.a(__stdio_exit.o)
 .text.__stdio_exit
                0x000000000041b170       0x48 0x4 /usr/local/popcorn/aarch64/lib/libc.a(__stdio_exit.o)
                0x000000000041b170                __stdio_exit
                0x000000000041b170                __stdio_exit_needed
 .text.close_file
                0x000000000041b1b8       0x70 0x4 /usr/local/popcorn/aarch64/lib/libc.a(__stdio_exit.o)
 .text          0x000000000041b228        0x0 0x4 /usr/local/popcorn/aarch64/lib/libmigrate.a(migrate.o)
 .text.node_available
                0x000000000041b228       0x30 0x4 /usr/local/popcorn/aarch64/lib/libmigrate.a(migrate.o)
                0x000000000041b228                node_available
 .text.current_arch
                0x000000000041b258       0x44 0x4 /usr/local/popcorn/aarch64/lib/libmigrate.a(migrate.o)
                0x000000000041b258                current_arch
 .text.current_nid
                0x000000000041b29c       0x14 0x4 /usr/local/popcorn/aarch64/lib/libmigrate.a(migrate.o)
                0x000000000041b29c                current_nid
 .text.__init_nodes_info
                0x000000000041b2b0       0x34 0x4 /usr/local/popcorn/aarch64/lib/libmigrate.a(migrate.o)
                0x000000000041b2b0                __init_nodes_info
 .text.__migrate_shim_internal
                0x000000000041b2e4      0x57c 0x4 /usr/local/popcorn/aarch64/lib/libmigrate.a(migrate.o)
                0x000000000041b2e4                __migrate_shim_internal
 .text.check_migrate
                0x000000000041b860       0x68 0x4 /usr/local/popcorn/aarch64/lib/libmigrate.a(migrate.o)
                0x000000000041b860                check_migrate
 .text.migrate  0x000000000041b8c8       0x48 0x4 /usr/local/popcorn/aarch64/lib/libmigrate.a(migrate.o)
                0x000000000041b8c8                migrate
 .text.migrate_schedule
                0x000000000041b910       0x4c 0x4 /usr/local/popcorn/aarch64/lib/libmigrate.a(migrate.o)
                0x000000000041b910                migrate_schedule
 .text.get_call_site
                0x000000000041b95c        0x8 0x4 /usr/local/popcorn/aarch64/lib/libmigrate.a(migrate.o)
 .text          0x000000000041b964        0x0 0x1 /usr/local/popcorn/aarch64/lib/libmigrate.a(migrate_aarch64.o)
 .text.__migrate_fixup_aarch64
                0x000000000041b970       0x7c 0x10 /usr/local/popcorn/aarch64/lib/libmigrate.a(migrate_aarch64.o)
                0x000000000041b970                __migrate_fixup_aarch64
 .text          0x000000000041b9ec        0x0 0x1 /usr/local/popcorn/aarch64/lib/libmigrate.a(migrate_powerpc64.o)
 .text.__migrate_fixup_powerpc64
                0x000000000041b9f0        0x0 0x10 /usr/local/popcorn/aarch64/lib/libmigrate.a(migrate_powerpc64.o)
                0x000000000041b9f0                __migrate_fixup_powerpc64
 .text          0x000000000041b9f0        0x0 0x1 /usr/local/popcorn/aarch64/lib/libmigrate.a(migrate_x86_64.o)
 .text.__migrate_fixup_x86_64
                0x000000000041b9f0        0x0 0x1 /usr/local/popcorn/aarch64/lib/libmigrate.a(migrate_x86_64.o)
                0x000000000041b9f0                __migrate_fixup_x86_64
 .text          0x000000000041b9f0        0x0 0x4 /usr/local/popcorn/aarch64/lib/libmigrate.a(mapping.o)
 .text.set_default_node
                0x000000000041b9f0       0x10 0x4 /usr/local/popcorn/aarch64/lib/libmigrate.a(mapping.o)
                0x000000000041b9f0                set_default_node
 .text.cleanup  0x000000000041ba00       0xac 0x4 /usr/local/popcorn/aarch64/lib/libmigrate.a(mapping.o)
 .text.region_compare
                0x000000000041baac       0x28 0x4 /usr/local/popcorn/aarch64/lib/libmigrate.a(mapping.o)
                0x000000000041baac                region_compare
 .text.read_mapping_schedule
                0x000000000041bad4      0x360 0x4 /usr/local/popcorn/aarch64/lib/libmigrate.a(mapping.o)
 .text.region_find
                0x000000000041be34       0x28 0x4 /usr/local/popcorn/aarch64/lib/libmigrate.a(mapping.o)
                0x000000000041be34                region_find
 .text.get_node_mapping
                0x000000000041be5c       0x98 0x4 /usr/local/popcorn/aarch64/lib/libmigrate.a(mapping.o)
                0x000000000041be5c                get_node_mapping
 .text          0x000000000041bef4        0x0 0x4 /usr/local/popcorn/aarch64/lib/libstack-transform.a(userspace.o)
 .text.__st_userspace_ctor
                0x000000000041bef4      0x338 0x4 /usr/local/popcorn/aarch64/lib/libstack-transform.a(userspace.o)
                0x000000000041bef4                __st_userspace_ctor
 .text.__st_userspace_dtor
                0x000000000041c22c       0x98 0x4 /usr/local/popcorn/aarch64/lib/libstack-transform.a(userspace.o)
                0x000000000041c22c                __st_userspace_dtor
 .text.get_stack_bounds
                0x000000000041c2c4       0xe4 0x4 /usr/local/popcorn/aarch64/lib/libstack-transform.a(userspace.o)
                0x000000000041c2c4                get_stack_bounds
 .text.st_userspace_rewrite
                0x000000000041c3a8      0x174 0x4 /usr/local/popcorn/aarch64/lib/libstack-transform.a(userspace.o)
                0x000000000041c3a8                st_userspace_rewrite
 .text          0x000000000041c51c        0x0 0x4 /usr/local/popcorn/aarch64/lib/libstack-transform.a(init.o)
 .text.__st_ctor
                0x000000000041c51c        0x4 0x4 /usr/local/popcorn/aarch64/lib/libstack-transform.a(init.o)
 .text.__st_dtor
                0x000000000041c520        0x4 0x4 /usr/local/popcorn/aarch64/lib/libstack-transform.a(init.o)
                0x000000000041c520                __st_dtor
 .text.st_init  0x000000000041c524      0x1e8 0x4 /usr/local/popcorn/aarch64/lib/libstack-transform.a(init.o)
                0x000000000041c524                st_init
 .text.st_destroy
                0x000000000041c70c       0x40 0x4 /usr/local/popcorn/aarch64/lib/libstack-transform.a(init.o)
                0x000000000041c70c                st_destroy
 .text          0x000000000041c74c        0x0 0x4 /usr/local/popcorn/aarch64/lib/libstack-transform.a(rewrite.o)
 .text.st_rewrite_stack
                0x000000000041c74c      0x71c 0x4 /usr/local/popcorn/aarch64/lib/libstack-transform.a(rewrite.o)
                0x000000000041c74c                st_rewrite_stack
 .text.rewrite_frame
                0x000000000041ce68      0x4b8 0x4 /usr/local/popcorn/aarch64/lib/libstack-transform.a(rewrite.o)
 .text.st_rewrite_ondemand
                0x000000000041d320       0x2c 0x4 /usr/local/popcorn/aarch64/lib/libstack-transform.a(rewrite.o)
                0x000000000041d320                st_rewrite_ondemand
 .text.rewrite_val
                0x000000000041d34c      0x370 0x4 /usr/local/popcorn/aarch64/lib/libstack-transform.a(rewrite.o)
 .text          0x000000000041d6bc        0x0 0x4 /usr/local/popcorn/aarch64/lib/libstack-transform.a(unwind.o)
 .text.first_frame
                0x000000000041d6bc        0xc 0x4 /usr/local/popcorn/aarch64/lib/libstack-transform.a(unwind.o)
                0x000000000041d6bc                first_frame
 .text.calculate_cfa
                0x000000000041d6c8       0x40 0x4 /usr/local/popcorn/aarch64/lib/libstack-transform.a(unwind.o)
                0x000000000041d6c8                calculate_cfa
 .text.bootstrap_first_frame
                0x000000000041d708       0x34 0x4 /usr/local/popcorn/aarch64/lib/libstack-transform.a(unwind.o)
                0x000000000041d708                bootstrap_first_frame
 .text.bootstrap_first_frame_funcentry
                0x000000000041d73c       0x64 0x4 /usr/local/popcorn/aarch64/lib/libstack-transform.a(unwind.o)
                0x000000000041d73c                bootstrap_first_frame_funcentry
 .text.pop_frame
                0x000000000041d7a0      0x258 0x4 /usr/local/popcorn/aarch64/lib/libstack-transform.a(unwind.o)
                0x000000000041d7a0                pop_frame
 .text.pop_frame_funcentry
                0x000000000041d9f8      0x198 0x4 /usr/local/popcorn/aarch64/lib/libstack-transform.a(unwind.o)
                0x000000000041d9f8                pop_frame_funcentry
 .text.get_register_save_loc
                0x000000000041db90       0x84 0x4 /usr/local/popcorn/aarch64/lib/libstack-transform.a(unwind.o)
                0x000000000041db90                get_register_save_loc
 .text.clear_activation
                0x000000000041dc14       0x4c 0x4 /usr/local/popcorn/aarch64/lib/libstack-transform.a(unwind.o)
                0x000000000041dc14                clear_activation
 .text          0x000000000041dc60        0x0 0x4 /usr/local/popcorn/aarch64/lib/libstack-transform.a(util.o)
 .text.arch_name
                0x000000000041dc60       0x4c 0x4 /usr/local/popcorn/aarch64/lib/libstack-transform.a(util.o)
                0x000000000041dc60                arch_name
 .text.get_regops
                0x000000000041dcac       0x48 0x4 /usr/local/popcorn/aarch64/lib/libstack-transform.a(util.o)
                0x000000000041dcac                get_regops
 .text.get_properties
                0x000000000041dcf4       0x48 0x4 /usr/local/popcorn/aarch64/lib/libstack-transform.a(util.o)
                0x000000000041dcf4                get_properties
 .text.get_section
                0x000000000041dd3c       0xc0 0x4 /usr/local/popcorn/aarch64/lib/libstack-transform.a(util.o)
                0x000000000041dd3c                get_section
 .text.get_num_entries
                0x000000000041ddfc       0x64 0x4 /usr/local/popcorn/aarch64/lib/libstack-transform.a(util.o)
                0x000000000041ddfc                get_num_entries
 .text.get_section_data
                0x000000000041de60       0x3c 0x4 /usr/local/popcorn/aarch64/lib/libstack-transform.a(util.o)
                0x000000000041de60                get_section_data
 .text.get_site_by_addr
                0x000000000041de9c       0xa4 0x4 /usr/local/popcorn/aarch64/lib/libstack-transform.a(util.o)
                0x000000000041de9c                get_site_by_addr
 .text.get_site_by_id
                0x000000000041df40       0x90 0x4 /usr/local/popcorn/aarch64/lib/libstack-transform.a(util.o)
                0x000000000041df40                get_site_by_id
 .text.get_unwind_offset_by_addr
                0x000000000041dfd0       0xb4 0x4 /usr/local/popcorn/aarch64/lib/libstack-transform.a(util.o)
                0x000000000041dfd0                get_unwind_offset_by_addr
 .text.get_function_address
                0x000000000041e084       0x88 0x4 /usr/local/popcorn/aarch64/lib/libstack-transform.a(util.o)
                0x000000000041e084                get_function_address
 .text          0x000000000041e10c        0x0 0x4 /usr/local/popcorn/aarch64/lib/libstack-transform.a(properties.o)
 .text.align_sp_aarch64
                0x000000000041e10c        0xc 0x4 /usr/local/popcorn/aarch64/lib/libstack-transform.a(properties.o)
 .text.is_callee_saved_aarch64
                0x000000000041e118       0x30 0x4 /usr/local/popcorn/aarch64/lib/libstack-transform.a(properties.o)
 .text.callee_reg_size_aarch64
                0x000000000041e148       0x58 0x4 /usr/local/popcorn/aarch64/lib/libstack-transform.a(properties.o)
 .text          0x000000000041e1a0        0x0 0x4 /usr/local/popcorn/aarch64/lib/libstack-transform.a(regs.o)
 .text.regset_default_aarch64
                0x000000000041e1a0        0xc 0x4 /usr/local/popcorn/aarch64/lib/libstack-transform.a(regs.o)
 .text.regset_init_aarch64
                0x000000000041e1ac       0x38 0x4 /usr/local/popcorn/aarch64/lib/libstack-transform.a(regs.o)
 .text.regset_free_aarch64
                0x000000000041e1e4        0x4 0x4 /usr/local/popcorn/aarch64/lib/libstack-transform.a(regs.o)
 .text.regset_clone_aarch64
                0x000000000041e1e8       0x14 0x4 /usr/local/popcorn/aarch64/lib/libstack-transform.a(regs.o)
 .text.regset_copyin_aarch64
                0x000000000041e1fc        0x8 0x4 /usr/local/popcorn/aarch64/lib/libstack-transform.a(regs.o)
 .text.regset_copyout_aarch64
                0x000000000041e204       0x14 0x4 /usr/local/popcorn/aarch64/lib/libstack-transform.a(regs.o)
 .text.pc_aarch64
                0x000000000041e218        0x8 0x4 /usr/local/popcorn/aarch64/lib/libstack-transform.a(regs.o)
 .text.sp_aarch64
                0x000000000041e220        0x8 0x4 /usr/local/popcorn/aarch64/lib/libstack-transform.a(regs.o)
 .text.fbp_aarch64
                0x000000000041e228        0x8 0x4 /usr/local/popcorn/aarch64/lib/libstack-transform.a(regs.o)
 .text.ra_reg_aarch64
                0x000000000041e230        0x8 0x4 /usr/local/popcorn/aarch64/lib/libstack-transform.a(regs.o)
 .text.set_pc_aarch64
                0x000000000041e238        0x8 0x4 /usr/local/popcorn/aarch64/lib/libstack-transform.a(regs.o)
 .text.set_sp_aarch64
                0x000000000041e240        0x8 0x4 /usr/local/popcorn/aarch64/lib/libstack-transform.a(regs.o)
 .text.set_fbp_aarch64
                0x000000000041e248        0x8 0x4 /usr/local/popcorn/aarch64/lib/libstack-transform.a(regs.o)
 .text.set_ra_reg_aarch64
                0x000000000041e250        0x8 0x4 /usr/local/popcorn/aarch64/lib/libstack-transform.a(regs.o)
 .text.setup_fbp_aarch64
                0x000000000041e258        0xc 0x4 /usr/local/popcorn/aarch64/lib/libstack-transform.a(regs.o)
 .text.reg_size_aarch64
                0x000000000041e264       0x54 0x4 /usr/local/popcorn/aarch64/lib/libstack-transform.a(regs.o)
 .text.reg_aarch64
                0x000000000041e2b8      0x338 0x4 /usr/local/popcorn/aarch64/lib/libstack-transform.a(regs.o)
 .text          0x000000000041e5f0        0x0 0x4 /usr/local/popcorn/aarch64/lib/libstack-transform.a(properties.o)
 .text.align_sp_powerpc64
                0x000000000041e5f0       0x14 0x4 /usr/local/popcorn/aarch64/lib/libstack-transform.a(properties.o)
 .text.is_callee_saved_powerpc64
                0x000000000041e604       0x2c 0x4 /usr/local/popcorn/aarch64/lib/libstack-transform.a(properties.o)
 .text.callee_reg_size_powerpc64
                0x000000000041e630       0x50 0x4 /usr/local/popcorn/aarch64/lib/libstack-transform.a(properties.o)
 .text          0x000000000041e680        0x0 0x4 /usr/local/popcorn/aarch64/lib/libstack-transform.a(regs.o)
 .text.regset_default_powerpc64
                0x000000000041e680        0xc 0x4 /usr/local/popcorn/aarch64/lib/libstack-transform.a(regs.o)
 .text.regset_init_powerpc64
                0x000000000041e68c       0x38 0x4 /usr/local/popcorn/aarch64/lib/libstack-transform.a(regs.o)
 .text.regset_free_powerpc64
                0x000000000041e6c4        0x4 0x4 /usr/local/popcorn/aarch64/lib/libstack-transform.a(regs.o)
 .text.regset_clone_powerpc64
                0x000000000041e6c8       0x14 0x4 /usr/local/popcorn/aarch64/lib/libstack-transform.a(regs.o)
 .text.regset_copyin_powerpc64
                0x000000000041e6dc        0x8 0x4 /usr/local/popcorn/aarch64/lib/libstack-transform.a(regs.o)
 .text.regset_copyout_powerpc64
                0x000000000041e6e4       0x14 0x4 /usr/local/popcorn/aarch64/lib/libstack-transform.a(regs.o)
 .text.pc_powerpc64
                0x000000000041e6f8        0x8 0x4 /usr/local/popcorn/aarch64/lib/libstack-transform.a(regs.o)
 .text.sp_powerpc64
                0x000000000041e700        0x8 0x4 /usr/local/popcorn/aarch64/lib/libstack-transform.a(regs.o)
 .text.fbp_powerpc64
                0x000000000041e708        0x8 0x4 /usr/local/popcorn/aarch64/lib/libstack-transform.a(regs.o)
 .text.ra_reg_powerpc64
                0x000000000041e710        0x8 0x4 /usr/local/popcorn/aarch64/lib/libstack-transform.a(regs.o)
 .text.set_pc_powerpc64
                0x000000000041e718        0x8 0x4 /usr/local/popcorn/aarch64/lib/libstack-transform.a(regs.o)
 .text.set_sp_powerpc64
                0x000000000041e720        0x8 0x4 /usr/local/popcorn/aarch64/lib/libstack-transform.a(regs.o)
 .text.set_fbp_powerpc64
                0x000000000041e728        0x8 0x4 /usr/local/popcorn/aarch64/lib/libstack-transform.a(regs.o)
 .text.set_ra_reg_powerpc64
                0x000000000041e730        0x8 0x4 /usr/local/popcorn/aarch64/lib/libstack-transform.a(regs.o)
 .text.setup_fbp_powerpc64
                0x000000000041e738        0xc 0x4 /usr/local/popcorn/aarch64/lib/libstack-transform.a(regs.o)
 .text.reg_size_powerpc64
                0x000000000041e744       0x54 0x4 /usr/local/popcorn/aarch64/lib/libstack-transform.a(regs.o)
 .text.reg_powerpc64
                0x000000000041e798      0x35c 0x4 /usr/local/popcorn/aarch64/lib/libstack-transform.a(regs.o)
 .text          0x000000000041eaf4        0x0 0x4 /usr/local/popcorn/aarch64/lib/libstack-transform.a(properties.o)
 .text.align_sp_x86_64
                0x000000000041eaf4       0x10 0x4 /usr/local/popcorn/aarch64/lib/libstack-transform.a(properties.o)
 .text.is_callee_saved_x86_64
                0x000000000041eb04       0x2c 0x4 /usr/local/popcorn/aarch64/lib/libstack-transform.a(properties.o)
 .text.callee_reg_size_x86_64
                0x000000000041eb30       0x54 0x4 /usr/local/popcorn/aarch64/lib/libstack-transform.a(properties.o)
 .text          0x000000000041eb84        0x0 0x4 /usr/local/popcorn/aarch64/lib/libstack-transform.a(regs.o)
 .text.regset_default_x86_64
                0x000000000041eb84        0xc 0x4 /usr/local/popcorn/aarch64/lib/libstack-transform.a(regs.o)
 .text.regset_init_x86_64
                0x000000000041eb90       0x38 0x4 /usr/local/popcorn/aarch64/lib/libstack-transform.a(regs.o)
 .text.regset_free_x86_64
                0x000000000041ebc8        0x4 0x4 /usr/local/popcorn/aarch64/lib/libstack-transform.a(regs.o)
 .text.regset_clone_x86_64
                0x000000000041ebcc       0x14 0x4 /usr/local/popcorn/aarch64/lib/libstack-transform.a(regs.o)
 .text.regset_copyin_x86_64
                0x000000000041ebe0        0x8 0x4 /usr/local/popcorn/aarch64/lib/libstack-transform.a(regs.o)
 .text.regset_copyout_x86_64
                0x000000000041ebe8       0x14 0x4 /usr/local/popcorn/aarch64/lib/libstack-transform.a(regs.o)
 .text.pc_x86_64
                0x000000000041ebfc        0x8 0x4 /usr/local/popcorn/aarch64/lib/libstack-transform.a(regs.o)
 .text.sp_x86_64
                0x000000000041ec04        0x8 0x4 /usr/local/popcorn/aarch64/lib/libstack-transform.a(regs.o)
 .text.fbp_x86_64
                0x000000000041ec0c        0x8 0x4 /usr/local/popcorn/aarch64/lib/libstack-transform.a(regs.o)
 .text.ra_reg_x86_64
                0x000000000041ec14       0x2c 0x4 /usr/local/popcorn/aarch64/lib/libstack-transform.a(regs.o)
 .text.set_pc_x86_64
                0x000000000041ec40        0x8 0x4 /usr/local/popcorn/aarch64/lib/libstack-transform.a(regs.o)
 .text.set_sp_x86_64
                0x000000000041ec48        0x8 0x4 /usr/local/popcorn/aarch64/lib/libstack-transform.a(regs.o)
 .text.set_fbp_x86_64
                0x000000000041ec50        0x8 0x4 /usr/local/popcorn/aarch64/lib/libstack-transform.a(regs.o)
 .text.set_ra_reg_x86_64
                0x000000000041ec58       0x2c 0x4 /usr/local/popcorn/aarch64/lib/libstack-transform.a(regs.o)
 .text.setup_fbp_x86_64
                0x000000000041ec84        0xc 0x4 /usr/local/popcorn/aarch64/lib/libstack-transform.a(regs.o)
 .text.reg_size_x86_64
                0x000000000041ec90       0x50 0x4 /usr/local/popcorn/aarch64/lib/libstack-transform.a(regs.o)
 .text.reg_x86_64
                0x000000000041ece0      0x1c4 0x4 /usr/local/popcorn/aarch64/lib/libstack-transform.a(regs.o)
 .text          0x000000000041eea4        0x0 0x4 /usr/local/popcorn/aarch64/lib/libstack-transform.a(data.o)
 .text.put_val  0x000000000041eea4      0x254 0x4 /usr/local/popcorn/aarch64/lib/libstack-transform.a(data.o)
                0x000000000041eea4                put_val
 .text.get_dest_loc
                0x000000000041f0f8       0xdc 0x4 /usr/local/popcorn/aarch64/lib/libstack-transform.a(data.o)
 .text.put_val_arch
                0x000000000041f1d4      0x408 0x4 /usr/local/popcorn/aarch64/lib/libstack-transform.a(data.o)
                0x000000000041f1d4                put_val_arch
 .text.put_val_data
                0x000000000041f5dc      0x114 0x4 /usr/local/popcorn/aarch64/lib/libstack-transform.a(data.o)
                0x000000000041f5dc                put_val_data
 .text.points_to_stack
                0x000000000041f6f0      0x160 0x4 /usr/local/popcorn/aarch64/lib/libstack-transform.a(data.o)
                0x000000000041f6f0                points_to_stack
 .text.points_to_data
                0x000000000041f850      0x190 0x4 /usr/local/popcorn/aarch64/lib/libstack-transform.a(data.o)
                0x000000000041f850                points_to_data
 .text.set_return_address
                0x000000000041f9e0       0x24 0x4 /usr/local/popcorn/aarch64/lib/libstack-transform.a(data.o)
                0x000000000041f9e0                set_return_address
 .text.set_return_address_funcentry
                0x000000000041fa04       0x44 0x4 /usr/local/popcorn/aarch64/lib/libstack-transform.a(data.o)
                0x000000000041fa04                set_return_address_funcentry
 .text.get_savedfbp_loc
                0x000000000041fa48       0x90 0x4 /usr/local/popcorn/aarch64/lib/libstack-transform.a(data.o)
                0x000000000041fa48                get_savedfbp_loc
 .text          0x000000000041fad8        0x0 0x4 /usr/local/popcorn/aarch64/lib/libelf.a(begin.o)
 .text.elf_begin
                0x000000000041fad8      0xaf8 0x4 /usr/local/popcorn/aarch64/lib/libelf.a(begin.o)
                0x000000000041fad8                elf_begin
 .text._elf_check_type
                0x00000000004205d0      0x264 0x4 /usr/local/popcorn/aarch64/lib/libelf.a(begin.o)
 .text.elf_memory
                0x0000000000420834       0xa8 0x4 /usr/local/popcorn/aarch64/lib/libelf.a(begin.o)
                0x0000000000420834                elf_memory
 .text.gelf_getclass
                0x00000000004208dc       0x28 0x4 /usr/local/popcorn/aarch64/lib/libelf.a(begin.o)
                0x00000000004208dc                gelf_getclass
 .text          0x0000000000420904        0x0 0x4 /usr/local/popcorn/aarch64/lib/libelf.a(end.o)
 .text.elf_end  0x0000000000420904      0x1ac 0x4 /usr/local/popcorn/aarch64/lib/libelf.a(end.o)
                0x0000000000420904                elf_end
 .text          0x0000000000420ab0        0x0 0x4 /usr/local/popcorn/aarch64/lib/libelf.a(getdata.o)
 .text.elf_getdata
                0x0000000000420ab0      0x280 0x4 /usr/local/popcorn/aarch64/lib/libelf.a(getdata.o)
                0x0000000000420ab0                elf_getdata
 .text          0x0000000000420d30        0x0 0x4 /usr/local/popcorn/aarch64/lib/libelf.a(getident.o)
 .text.elf_getident
                0x0000000000420d30       0x7c 0x4 /usr/local/popcorn/aarch64/lib/libelf.a(getident.o)
                0x0000000000420d30                elf_getident
 .text          0x0000000000420dac        0x0 0x4 /usr/local/popcorn/aarch64/lib/libelf.a(nextscn.o)
 .text.elf_nextscn
                0x0000000000420dac       0xb4 0x4 /usr/local/popcorn/aarch64/lib/libelf.a(nextscn.o)
                0x0000000000420dac                elf_nextscn
 .text          0x0000000000420e60        0x0 0x4 /usr/local/popcorn/aarch64/lib/libelf.a(strptr.o)
 .text.elf_strptr
                0x0000000000420e60      0x1b0 0x4 /usr/local/popcorn/aarch64/lib/libelf.a(strptr.o)
                0x0000000000420e60                elf_strptr
 .text          0x0000000000421010        0x0 0x4 /usr/local/popcorn/aarch64/lib/libelf.a(version.o)
 .text.elf_version
                0x0000000000421010       0x80 0x4 /usr/local/popcorn/aarch64/lib/libelf.a(version.o)
                0x0000000000421010                elf_version
 .text          0x0000000000421090        0x0 0x4 /usr/local/popcorn/aarch64/lib/libelf.a(32.getehdr.o)
 .text._elf_getehdr
                0x0000000000421090       0x88 0x4 /usr/local/popcorn/aarch64/lib/libelf.a(32.getehdr.o)
                0x0000000000421090                _elf_getehdr
 .text.elf32_getehdr
                0x0000000000421118       0x88 0x4 /usr/local/popcorn/aarch64/lib/libelf.a(32.getehdr.o)
                0x0000000000421118                elf32_getehdr
 .text.elf64_getehdr
                0x00000000004211a0       0x88 0x4 /usr/local/popcorn/aarch64/lib/libelf.a(32.getehdr.o)
                0x00000000004211a0                elf64_getehdr
 .text          0x0000000000421228        0x0 0x4 /usr/local/popcorn/aarch64/lib/libelf.a(32.xlatetof.o)
 .text._elf32_xltsize
                0x0000000000421228       0x98 0x4 /usr/local/popcorn/aarch64/lib/libelf.a(32.xlatetof.o)
                0x0000000000421228                _elf32_xltsize
 .text.elf32_xlatetom
                0x00000000004212c0      0x158 0x4 /usr/local/popcorn/aarch64/lib/libelf.a(32.xlatetof.o)
                0x00000000004212c0                elf32_xlatetom
 .text.elf32_xlatetof
                0x0000000000421418      0x158 0x4 /usr/local/popcorn/aarch64/lib/libelf.a(32.xlatetof.o)
                0x0000000000421418                elf32_xlatetof
 .text.byte_copy
                0x0000000000421570      0x184 0x4 /usr/local/popcorn/aarch64/lib/libelf.a(32.xlatetof.o)
 .text.addr_32L__tom
                0x00000000004216f4       0x4c 0x4 /usr/local/popcorn/aarch64/lib/libelf.a(32.xlatetof.o)
 .text.addr_32L__tof
                0x0000000000421740       0x4c 0x4 /usr/local/popcorn/aarch64/lib/libelf.a(32.xlatetof.o)
 .text.dyn_32L11_tom
                0x000000000042178c       0x74 0x4 /usr/local/popcorn/aarch64/lib/libelf.a(32.xlatetof.o)
 .text.dyn_32L11_tof
                0x0000000000421800       0x74 0x4 /usr/local/popcorn/aarch64/lib/libelf.a(32.xlatetof.o)
 .text.ehdr_32L11_tom
                0x0000000000421874      0x1ac 0x4 /usr/local/popcorn/aarch64/lib/libelf.a(32.xlatetof.o)
 .text.ehdr_32L11_tof
                0x0000000000421a20      0x1ac 0x4 /usr/local/popcorn/aarch64/lib/libelf.a(32.xlatetof.o)
 .text.half_32L__tom
                0x0000000000421bcc      0x10c 0x4 /usr/local/popcorn/aarch64/lib/libelf.a(32.xlatetof.o)
 .text.half_32L__tof
                0x0000000000421cd8      0x138 0x4 /usr/local/popcorn/aarch64/lib/libelf.a(32.xlatetof.o)
 .text.off_32L__tom
                0x0000000000421e10       0x4c 0x4 /usr/local/popcorn/aarch64/lib/libelf.a(32.xlatetof.o)
 .text.off_32L__tof
                0x0000000000421e5c       0x4c 0x4 /usr/local/popcorn/aarch64/lib/libelf.a(32.xlatetof.o)
 .text.phdr_32L11_tom
                0x0000000000421ea8      0x14c 0x4 /usr/local/popcorn/aarch64/lib/libelf.a(32.xlatetof.o)
 .text.phdr_32L11_tof
                0x0000000000421ff4      0x14c 0x4 /usr/local/popcorn/aarch64/lib/libelf.a(32.xlatetof.o)
 .text.rela_32L11_tom
                0x0000000000422140       0xb0 0x4 /usr/local/popcorn/aarch64/lib/libelf.a(32.xlatetof.o)
 .text.rela_32L11_tof
                0x00000000004221f0       0xb0 0x4 /usr/local/popcorn/aarch64/lib/libelf.a(32.xlatetof.o)
 .text.rel_32L11_tom
                0x00000000004222a0       0x74 0x4 /usr/local/popcorn/aarch64/lib/libelf.a(32.xlatetof.o)
 .text.rel_32L11_tof
                0x0000000000422314       0x74 0x4 /usr/local/popcorn/aarch64/lib/libelf.a(32.xlatetof.o)
 .text.shdr_32L11_tom
                0x0000000000422388      0x1ac 0x4 /usr/local/popcorn/aarch64/lib/libelf.a(32.xlatetof.o)
 .text.shdr_32L11_tof
                0x0000000000422534      0x1ac 0x4 /usr/local/popcorn/aarch64/lib/libelf.a(32.xlatetof.o)
 .text.sword_32L__tom
                0x00000000004226e0       0x4c 0x4 /usr/local/popcorn/aarch64/lib/libelf.a(32.xlatetof.o)
 .text.sword_32L__tof
                0x000000000042272c       0x4c 0x4 /usr/local/popcorn/aarch64/lib/libelf.a(32.xlatetof.o)
 .text.sym_32L11_tom
                0x0000000000422778       0xb8 0x4 /usr/local/popcorn/aarch64/lib/libelf.a(32.xlatetof.o)
 .text.sym_32L11_tof
                0x0000000000422830       0xb8 0x4 /usr/local/popcorn/aarch64/lib/libelf.a(32.xlatetof.o)
 .text.word_32L__tom
                0x00000000004228e8       0x4c 0x4 /usr/local/popcorn/aarch64/lib/libelf.a(32.xlatetof.o)
 .text.word_32L__tof
                0x0000000000422934       0x4c 0x4 /usr/local/popcorn/aarch64/lib/libelf.a(32.xlatetof.o)
 .text.addr_32M__tom
                0x0000000000422980       0x48 0x4 /usr/local/popcorn/aarch64/lib/libelf.a(32.xlatetof.o)
 .text.addr_32M__tof
                0x00000000004229c8       0x48 0x4 /usr/local/popcorn/aarch64/lib/libelf.a(32.xlatetof.o)
 .text.dyn_32M11_tom
                0x0000000000422a10       0x70 0x4 /usr/local/popcorn/aarch64/lib/libelf.a(32.xlatetof.o)
 .text.dyn_32M11_tof
                0x0000000000422a80       0x70 0x4 /usr/local/popcorn/aarch64/lib/libelf.a(32.xlatetof.o)
 .text.ehdr_32M11_tom
                0x0000000000422af0      0x1ac 0x4 /usr/local/popcorn/aarch64/lib/libelf.a(32.xlatetof.o)
 .text.ehdr_32M11_tof
                0x0000000000422c9c      0x1ac 0x4 /usr/local/popcorn/aarch64/lib/libelf.a(32.xlatetof.o)
 .text.half_32M__tom
                0x0000000000422e48      0x108 0x4 /usr/local/popcorn/aarch64/lib/libelf.a(32.xlatetof.o)
 .text.half_32M__tof
                0x0000000000422f50      0x134 0x4 /usr/local/popcorn/aarch64/lib/libelf.a(32.xlatetof.o)
 .text.off_32M__tom
                0x0000000000423084       0x48 0x4 /usr/local/popcorn/aarch64/lib/libelf.a(32.xlatetof.o)
 .text.off_32M__tof
                0x00000000004230cc       0x48 0x4 /usr/local/popcorn/aarch64/lib/libelf.a(32.xlatetof.o)
 .text.phdr_32M11_tom
                0x0000000000423114      0x148 0x4 /usr/local/popcorn/aarch64/lib/libelf.a(32.xlatetof.o)
 .text.phdr_32M11_tof
                0x000000000042325c      0x148 0x4 /usr/local/popcorn/aarch64/lib/libelf.a(32.xlatetof.o)
 .text.rela_32M11_tom
                0x00000000004233a4       0xac 0x4 /usr/local/popcorn/aarch64/lib/libelf.a(32.xlatetof.o)
 .text.rela_32M11_tof
                0x0000000000423450       0xac 0x4 /usr/local/popcorn/aarch64/lib/libelf.a(32.xlatetof.o)
 .text.rel_32M11_tom
                0x00000000004234fc       0x70 0x4 /usr/local/popcorn/aarch64/lib/libelf.a(32.xlatetof.o)
 .text.rel_32M11_tof
                0x000000000042356c       0x70 0x4 /usr/local/popcorn/aarch64/lib/libelf.a(32.xlatetof.o)
 .text.shdr_32M11_tom
                0x00000000004235dc      0x1a8 0x4 /usr/local/popcorn/aarch64/lib/libelf.a(32.xlatetof.o)
 .text.shdr_32M11_tof
                0x0000000000423784      0x1a8 0x4 /usr/local/popcorn/aarch64/lib/libelf.a(32.xlatetof.o)
 .text.sword_32M__tom
                0x000000000042392c       0x48 0x4 /usr/local/popcorn/aarch64/lib/libelf.a(32.xlatetof.o)
 .text.sword_32M__tof
                0x0000000000423974       0x48 0x4 /usr/local/popcorn/aarch64/lib/libelf.a(32.xlatetof.o)
 .text.sym_32M11_tom
                0x00000000004239bc       0xb4 0x4 /usr/local/popcorn/aarch64/lib/libelf.a(32.xlatetof.o)
 .text.sym_32M11_tof
                0x0000000000423a70       0xb4 0x4 /usr/local/popcorn/aarch64/lib/libelf.a(32.xlatetof.o)
 .text.word_32M__tom
                0x0000000000423b24       0x48 0x4 /usr/local/popcorn/aarch64/lib/libelf.a(32.xlatetof.o)
 .text.word_32M__tof
                0x0000000000423b6c       0x48 0x4 /usr/local/popcorn/aarch64/lib/libelf.a(32.xlatetof.o)
 .text.array_copy
                0x0000000000423bb4      0x138 0x4 /usr/local/popcorn/aarch64/lib/libelf.a(32.xlatetof.o)
 .text          0x0000000000423cec        0x0 0x4 /usr/local/popcorn/aarch64/lib/libelf.a(cook.o)
 .text._elf_scn_type
                0x0000000000423cec       0xac 0x4 /usr/local/popcorn/aarch64/lib/libelf.a(cook.o)
                0x0000000000423cec                _elf_scn_type
 .text._elf_xlatetom
                0x0000000000423d98       0x50 0x4 /usr/local/popcorn/aarch64/lib/libelf.a(cook.o)
                0x0000000000423d98                _elf_xlatetom
 .text._elf_cook
                0x0000000000423de8      0x75c 0x4 /usr/local/popcorn/aarch64/lib/libelf.a(cook.o)
                0x0000000000423de8                _elf_cook
 .text._elf_item
                0x0000000000424544      0x1a0 0x4 /usr/local/popcorn/aarch64/lib/libelf.a(cook.o)
 .text          0x00000000004246e4        0x0 0x4 /usr/local/popcorn/aarch64/lib/libelf.a(data.o)
 .text          0x00000000004246e4        0x0 0x4 /usr/local/popcorn/aarch64/lib/libelf.a(input.o)
 .text._elf_read
                0x00000000004246e4      0x140 0x4 /usr/local/popcorn/aarch64/lib/libelf.a(input.o)
                0x00000000004246e4                _elf_read
 .text._elf_mmap
                0x0000000000424824       0x58 0x4 /usr/local/popcorn/aarch64/lib/libelf.a(input.o)
                0x0000000000424824                _elf_mmap
 .text          0x000000000042487c        0x0 0x4 /usr/local/popcorn/aarch64/lib/libelf.a(x.elfext.o)
 .text.elf_getphdrnum
                0x000000000042487c       0x80 0x4 /usr/local/popcorn/aarch64/lib/libelf.a(x.elfext.o)
                0x000000000042487c                elf_getphdrnum
 .text.elf_getshdrnum
                0x00000000004248fc       0x94 0x4 /usr/local/popcorn/aarch64/lib/libelf.a(x.elfext.o)
                0x00000000004248fc                elf_getshdrnum
 .text.elf_getshdrstrndx
                0x0000000000424990       0xf8 0x4 /usr/local/popcorn/aarch64/lib/libelf.a(x.elfext.o)
                0x0000000000424990                elf_getshdrstrndx
 .text.elf_getphnum
                0x0000000000424a88       0x78 0x4 /usr/local/popcorn/aarch64/lib/libelf.a(x.elfext.o)
                0x0000000000424a88                elf_getphnum
 .text.elf_getshnum
                0x0000000000424b00       0x8c 0x4 /usr/local/popcorn/aarch64/lib/libelf.a(x.elfext.o)
                0x0000000000424b00                elf_getshnum
 .text.elf_getshstrndx
                0x0000000000424b8c      0x104 0x4 /usr/local/popcorn/aarch64/lib/libelf.a(x.elfext.o)
                0x0000000000424b8c                elf_getshstrndx
 .text.elfx_update_shstrndx
                0x0000000000424c90       0xf4 0x4 /usr/local/popcorn/aarch64/lib/libelf.a(x.elfext.o)
                0x0000000000424c90                elfx_update_shstrndx
 .text          0x0000000000424d84        0x0 0x4 /usr/local/popcorn/aarch64/lib/libelf.a(64.xlatetof.o)
 .text._elf64_xltsize
                0x0000000000424d84       0x98 0x4 /usr/local/popcorn/aarch64/lib/libelf.a(64.xlatetof.o)
                0x0000000000424d84                _elf64_xltsize
 .text.elf64_xlatetom
                0x0000000000424e1c      0x158 0x4 /usr/local/popcorn/aarch64/lib/libelf.a(64.xlatetof.o)
                0x0000000000424e1c                elf64_xlatetom
 .text.elf64_xlatetof
                0x0000000000424f74      0x158 0x4 /usr/local/popcorn/aarch64/lib/libelf.a(64.xlatetof.o)
                0x0000000000424f74                elf64_xlatetof
 .text.gelf_xlatetom
                0x00000000004250cc      0x1b4 0x4 /usr/local/popcorn/aarch64/lib/libelf.a(64.xlatetof.o)
                0x00000000004250cc                gelf_xlatetom
 .text.gelf_xlatetof
                0x0000000000425280      0x1b4 0x4 /usr/local/popcorn/aarch64/lib/libelf.a(64.xlatetof.o)
                0x0000000000425280                gelf_xlatetof
 .text.byte_copy
                0x0000000000425434      0x184 0x4 /usr/local/popcorn/aarch64/lib/libelf.a(64.xlatetof.o)
 .text.addr_64L__tom
                0x00000000004255b8       0x54 0x4 /usr/local/popcorn/aarch64/lib/libelf.a(64.xlatetof.o)
 .text.addr_64L__tof
                0x000000000042560c       0x54 0x4 /usr/local/popcorn/aarch64/lib/libelf.a(64.xlatetof.o)
 .text.dyn_64L11_tom
                0x0000000000425660       0x64 0x4 /usr/local/popcorn/aarch64/lib/libelf.a(64.xlatetof.o)
 .text.dyn_64L11_tof
                0x00000000004256c4       0x64 0x4 /usr/local/popcorn/aarch64/lib/libelf.a(64.xlatetof.o)
 .text.ehdr_64L11_tom
                0x0000000000425728      0x144 0x4 /usr/local/popcorn/aarch64/lib/libelf.a(64.xlatetof.o)
 .text.ehdr_64L11_tof
                0x000000000042586c      0x144 0x4 /usr/local/popcorn/aarch64/lib/libelf.a(64.xlatetof.o)
 .text.half_64L__tom
                0x00000000004259b0      0x10c 0x4 /usr/local/popcorn/aarch64/lib/libelf.a(64.xlatetof.o)
 .text.half_64L__tof
                0x0000000000425abc      0x138 0x4 /usr/local/popcorn/aarch64/lib/libelf.a(64.xlatetof.o)
 .text.off_64L__tom
                0x0000000000425bf4       0x54 0x4 /usr/local/popcorn/aarch64/lib/libelf.a(64.xlatetof.o)
 .text.off_64L__tof
                0x0000000000425c48       0x54 0x4 /usr/local/popcorn/aarch64/lib/libelf.a(64.xlatetof.o)
 .text.phdr_64L11_tom
                0x0000000000425c9c      0x114 0x4 /usr/local/popcorn/aarch64/lib/libelf.a(64.xlatetof.o)
 .text.phdr_64L11_tof
                0x0000000000425db0      0x114 0x4 /usr/local/popcorn/aarch64/lib/libelf.a(64.xlatetof.o)
 .text.rela_64L11_tom
                0x0000000000425ec4       0x88 0x4 /usr/local/popcorn/aarch64/lib/libelf.a(64.xlatetof.o)
 .text.rela_64L11_tof
                0x0000000000425f4c       0x88 0x4 /usr/local/popcorn/aarch64/lib/libelf.a(64.xlatetof.o)
 .text.rel_64L11_tom
                0x0000000000425fd4       0x64 0x4 /usr/local/popcorn/aarch64/lib/libelf.a(64.xlatetof.o)
 .text.rel_64L11_tof
                0x0000000000426038       0x64 0x4 /usr/local/popcorn/aarch64/lib/libelf.a(64.xlatetof.o)
 .text.shdr_64L11_tom
                0x000000000042609c      0x13c 0x4 /usr/local/popcorn/aarch64/lib/libelf.a(64.xlatetof.o)
 .text.shdr_64L11_tof
                0x00000000004261d8      0x13c 0x4 /usr/local/popcorn/aarch64/lib/libelf.a(64.xlatetof.o)
 .text.sword_64L__tom
                0x0000000000426314       0x4c 0x4 /usr/local/popcorn/aarch64/lib/libelf.a(64.xlatetof.o)
 .text.sword_64L__tof
                0x0000000000426360       0x4c 0x4 /usr/local/popcorn/aarch64/lib/libelf.a(64.xlatetof.o)
 .text.sym_64L11_tom
                0x00000000004263ac       0xc0 0x4 /usr/local/popcorn/aarch64/lib/libelf.a(64.xlatetof.o)
 .text.sym_64L11_tof
                0x000000000042646c       0xc0 0x4 /usr/local/popcorn/aarch64/lib/libelf.a(64.xlatetof.o)
 .text.word_64L__tom
                0x000000000042652c       0x4c 0x4 /usr/local/popcorn/aarch64/lib/libelf.a(64.xlatetof.o)
 .text.word_64L__tof
                0x0000000000426578       0x4c 0x4 /usr/local/popcorn/aarch64/lib/libelf.a(64.xlatetof.o)
 .text.sxword_64L__tom
                0x00000000004265c4       0x54 0x4 /usr/local/popcorn/aarch64/lib/libelf.a(64.xlatetof.o)
 .text.sxword_64L__tof
                0x0000000000426618       0x54 0x4 /usr/local/popcorn/aarch64/lib/libelf.a(64.xlatetof.o)
 .text.xword_64L__tom
                0x000000000042666c       0x54 0x4 /usr/local/popcorn/aarch64/lib/libelf.a(64.xlatetof.o)
 .text.xword_64L__tof
                0x00000000004266c0       0x54 0x4 /usr/local/popcorn/aarch64/lib/libelf.a(64.xlatetof.o)
 .text.addr_64M__tom
                0x0000000000426714       0x54 0x4 /usr/local/popcorn/aarch64/lib/libelf.a(64.xlatetof.o)
 .text.addr_64M__tof
                0x0000000000426768       0x54 0x4 /usr/local/popcorn/aarch64/lib/libelf.a(64.xlatetof.o)
 .text.dyn_64M11_tom
                0x00000000004267bc       0x64 0x4 /usr/local/popcorn/aarch64/lib/libelf.a(64.xlatetof.o)
 .text.dyn_64M11_tof
                0x0000000000426820       0x64 0x4 /usr/local/popcorn/aarch64/lib/libelf.a(64.xlatetof.o)
 .text.ehdr_64M11_tom
                0x0000000000426884      0x144 0x4 /usr/local/popcorn/aarch64/lib/libelf.a(64.xlatetof.o)
 .text.ehdr_64M11_tof
                0x00000000004269c8      0x144 0x4 /usr/local/popcorn/aarch64/lib/libelf.a(64.xlatetof.o)
 .text.half_64M__tom
                0x0000000000426b0c      0x108 0x4 /usr/local/popcorn/aarch64/lib/libelf.a(64.xlatetof.o)
 .text.half_64M__tof
                0x0000000000426c14      0x134 0x4 /usr/local/popcorn/aarch64/lib/libelf.a(64.xlatetof.o)
 .text.off_64M__tom
                0x0000000000426d48       0x54 0x4 /usr/local/popcorn/aarch64/lib/libelf.a(64.xlatetof.o)
 .text.off_64M__tof
                0x0000000000426d9c       0x54 0x4 /usr/local/popcorn/aarch64/lib/libelf.a(64.xlatetof.o)
 .text.phdr_64M11_tom
                0x0000000000426df0       0xfc 0x4 /usr/local/popcorn/aarch64/lib/libelf.a(64.xlatetof.o)
 .text.phdr_64M11_tof
                0x0000000000426eec       0xfc 0x4 /usr/local/popcorn/aarch64/lib/libelf.a(64.xlatetof.o)
 .text.rela_64M11_tom
                0x0000000000426fe8       0x88 0x4 /usr/local/popcorn/aarch64/lib/libelf.a(64.xlatetof.o)
 .text.rela_64M11_tof
                0x0000000000427070       0x88 0x4 /usr/local/popcorn/aarch64/lib/libelf.a(64.xlatetof.o)
 .text.rel_64M11_tom
                0x00000000004270f8       0x64 0x4 /usr/local/popcorn/aarch64/lib/libelf.a(64.xlatetof.o)
 .text.rel_64M11_tof
                0x000000000042715c       0x64 0x4 /usr/local/popcorn/aarch64/lib/libelf.a(64.xlatetof.o)
 .text.shdr_64M11_tom
                0x00000000004271c0      0x124 0x4 /usr/local/popcorn/aarch64/lib/libelf.a(64.xlatetof.o)
 .text.shdr_64M11_tof
                0x00000000004272e4      0x124 0x4 /usr/local/popcorn/aarch64/lib/libelf.a(64.xlatetof.o)
 .text.sword_64M__tom
                0x0000000000427408       0x48 0x4 /usr/local/popcorn/aarch64/lib/libelf.a(64.xlatetof.o)
 .text.sword_64M__tof
                0x0000000000427450       0x48 0x4 /usr/local/popcorn/aarch64/lib/libelf.a(64.xlatetof.o)
 .text.sym_64M11_tom
                0x0000000000427498       0xc0 0x4 /usr/local/popcorn/aarch64/lib/libelf.a(64.xlatetof.o)
 .text.sym_64M11_tof
                0x0000000000427558       0xc0 0x4 /usr/local/popcorn/aarch64/lib/libelf.a(64.xlatetof.o)
 .text.word_64M__tom
                0x0000000000427618       0x48 0x4 /usr/local/popcorn/aarch64/lib/libelf.a(64.xlatetof.o)
 .text.word_64M__tof
                0x0000000000427660       0x48 0x4 /usr/local/popcorn/aarch64/lib/libelf.a(64.xlatetof.o)
 .text.sxword_64M__tom
                0x00000000004276a8       0x54 0x4 /usr/local/popcorn/aarch64/lib/libelf.a(64.xlatetof.o)
 .text.sxword_64M__tof
                0x00000000004276fc       0x54 0x4 /usr/local/popcorn/aarch64/lib/libelf.a(64.xlatetof.o)
 .text.xword_64M__tom
                0x0000000000427750       0x54 0x4 /usr/local/popcorn/aarch64/lib/libelf.a(64.xlatetof.o)
 .text.xword_64M__tof
                0x00000000004277a4       0x54 0x4 /usr/local/popcorn/aarch64/lib/libelf.a(64.xlatetof.o)
 .text.array_copy
                0x00000000004277f8      0x138 0x4 /usr/local/popcorn/aarch64/lib/libelf.a(64.xlatetof.o)
 .text          0x0000000000427930        0x0 0x4 /usr/local/popcorn/aarch64/lib/libelf.a(gelfshdr.o)
 .text.gelf_getshdr
                0x0000000000427930      0x118 0x4 /usr/local/popcorn/aarch64/lib/libelf.a(gelfshdr.o)
                0x0000000000427930                gelf_getshdr
 .text.gelf_update_shdr
                0x0000000000427a48      0x11c 0x4 /usr/local/popcorn/aarch64/lib/libelf.a(gelfshdr.o)
                0x0000000000427a48                gelf_update_shdr
 .text          0x0000000000427b64        0x0 0x4 /usr/local/popcorn/aarch64/lib/libelf.a(swap64.o)
 .text._elf_load_u64L
                0x0000000000427b64       0x50 0x4 /usr/local/popcorn/aarch64/lib/libelf.a(swap64.o)
                0x0000000000427b64                _elf_load_u64L
 .text._elf_load_u64M
                0x0000000000427bb4       0x50 0x4 /usr/local/popcorn/aarch64/lib/libelf.a(swap64.o)
                0x0000000000427bb4                _elf_load_u64M
 .text._elf_load_i64L
                0x0000000000427c04       0x50 0x4 /usr/local/popcorn/aarch64/lib/libelf.a(swap64.o)
                0x0000000000427c04                _elf_load_i64L
 .text._elf_load_i64M
                0x0000000000427c54       0x50 0x4 /usr/local/popcorn/aarch64/lib/libelf.a(swap64.o)
                0x0000000000427c54                _elf_load_i64M
 .text._elf_store_u64L
                0x0000000000427ca4       0x40 0x4 /usr/local/popcorn/aarch64/lib/libelf.a(swap64.o)
                0x0000000000427ca4                _elf_store_u64L
 .text._elf_store_u64M
                0x0000000000427ce4       0x40 0x4 /usr/local/popcorn/aarch64/lib/libelf.a(swap64.o)
                0x0000000000427ce4                _elf_store_u64M
 .text._elf_store_i64L
                0x0000000000427d24       0x40 0x4 /usr/local/popcorn/aarch64/lib/libelf.a(swap64.o)
                0x0000000000427d24                _elf_store_i64L
 .text._elf_store_i64M
                0x0000000000427d64       0x40 0x4 /usr/local/popcorn/aarch64/lib/libelf.a(swap64.o)
                0x0000000000427d64                _elf_store_i64M
 .text          0x0000000000427da4        0x0 0x4 /usr/local/popcorn/aarch64/lib/libelf.a(verdef_32_tof.o)
 .text._elf_verdef_32L11_tof
                0x0000000000427da4        0x8 0x4 /usr/local/popcorn/aarch64/lib/libelf.a(verdef_32_tof.o)
                0x0000000000427da4                _elf_verdef_32L11_tof
 .text.xlt_verdef
                0x0000000000427dac      0x2a0 0x4 /usr/local/popcorn/aarch64/lib/libelf.a(verdef_32_tof.o)
 .text._elf_verdef_32M11_tof
                0x000000000042804c        0x8 0x4 /usr/local/popcorn/aarch64/lib/libelf.a(verdef_32_tof.o)
                0x000000000042804c                _elf_verdef_32M11_tof
 .text._elf_verneed_32L11_tof
                0x0000000000428054        0x8 0x4 /usr/local/popcorn/aarch64/lib/libelf.a(verdef_32_tof.o)
                0x0000000000428054                _elf_verneed_32L11_tof
 .text.xlt_verneed
                0x000000000042805c      0x2e0 0x4 /usr/local/popcorn/aarch64/lib/libelf.a(verdef_32_tof.o)
 .text._elf_verneed_32M11_tof
                0x000000000042833c        0x8 0x4 /usr/local/popcorn/aarch64/lib/libelf.a(verdef_32_tof.o)
                0x000000000042833c                _elf_verneed_32M11_tof
 .text          0x0000000000428344        0x0 0x4 /usr/local/popcorn/aarch64/lib/libelf.a(verdef_32_tom.o)
 .text._elf_verdef_32L11_tom
                0x0000000000428344        0x8 0x4 /usr/local/popcorn/aarch64/lib/libelf.a(verdef_32_tom.o)
                0x0000000000428344                _elf_verdef_32L11_tom
 .text.xlt_verdef
                0x000000000042834c      0x2d4 0x4 /usr/local/popcorn/aarch64/lib/libelf.a(verdef_32_tom.o)
 .text._elf_verdef_32M11_tom
                0x0000000000428620        0x8 0x4 /usr/local/popcorn/aarch64/lib/libelf.a(verdef_32_tom.o)
                0x0000000000428620                _elf_verdef_32M11_tom
 .text._elf_verneed_32L11_tom
                0x0000000000428628        0x8 0x4 /usr/local/popcorn/aarch64/lib/libelf.a(verdef_32_tom.o)
                0x0000000000428628                _elf_verneed_32L11_tom
 .text.xlt_verneed
                0x0000000000428630      0x2d8 0x4 /usr/local/popcorn/aarch64/lib/libelf.a(verdef_32_tom.o)
 .text._elf_verneed_32M11_tom
                0x0000000000428908        0x8 0x4 /usr/local/popcorn/aarch64/lib/libelf.a(verdef_32_tom.o)
                0x0000000000428908                _elf_verneed_32M11_tom
 .text          0x0000000000428910        0x0 0x4 /usr/local/popcorn/aarch64/lib/libelf.a(verdef_64_tof.o)
 .text._elf_verdef_64L11_tof
                0x0000000000428910        0x8 0x4 /usr/local/popcorn/aarch64/lib/libelf.a(verdef_64_tof.o)
                0x0000000000428910                _elf_verdef_64L11_tof
 .text.xlt_verdef
                0x0000000000428918      0x2a0 0x4 /usr/local/popcorn/aarch64/lib/libelf.a(verdef_64_tof.o)
 .text._elf_verdef_64M11_tof
                0x0000000000428bb8        0x8 0x4 /usr/local/popcorn/aarch64/lib/libelf.a(verdef_64_tof.o)
                0x0000000000428bb8                _elf_verdef_64M11_tof
 .text._elf_verneed_64L11_tof
                0x0000000000428bc0        0x8 0x4 /usr/local/popcorn/aarch64/lib/libelf.a(verdef_64_tof.o)
                0x0000000000428bc0                _elf_verneed_64L11_tof
 .text.xlt_verneed
                0x0000000000428bc8      0x2e0 0x4 /usr/local/popcorn/aarch64/lib/libelf.a(verdef_64_tof.o)
 .text._elf_verneed_64M11_tof
                0x0000000000428ea8        0x8 0x4 /usr/local/popcorn/aarch64/lib/libelf.a(verdef_64_tof.o)
                0x0000000000428ea8                _elf_verneed_64M11_tof
 .text          0x0000000000428eb0        0x0 0x4 /usr/local/popcorn/aarch64/lib/libelf.a(verdef_64_tom.o)
 .text._elf_verdef_64L11_tom
                0x0000000000428eb0        0x8 0x4 /usr/local/popcorn/aarch64/lib/libelf.a(verdef_64_tom.o)
                0x0000000000428eb0                _elf_verdef_64L11_tom
 .text.xlt_verdef
                0x0000000000428eb8      0x2d4 0x4 /usr/local/popcorn/aarch64/lib/libelf.a(verdef_64_tom.o)
 .text._elf_verdef_64M11_tom
                0x000000000042918c        0x8 0x4 /usr/local/popcorn/aarch64/lib/libelf.a(verdef_64_tom.o)
                0x000000000042918c                _elf_verdef_64M11_tom
 .text._elf_verneed_64L11_tom
                0x0000000000429194        0x8 0x4 /usr/local/popcorn/aarch64/lib/libelf.a(verdef_64_tom.o)
                0x0000000000429194                _elf_verneed_64L11_tom
 .text.xlt_verneed
                0x000000000042919c      0x2d8 0x4 /usr/local/popcorn/aarch64/lib/libelf.a(verdef_64_tom.o)
 .text._elf_verneed_64M11_tom
                0x0000000000429474        0x8 0x4 /usr/local/popcorn/aarch64/lib/libelf.a(verdef_64_tom.o)
                0x0000000000429474                _elf_verneed_64M11_tom
 .text          0x000000000042947c        0x0 0x4 /usr/local/popcorn/aarch64/lib/libelf.a(getscn.o)
 .text.elf_getscn
                0x000000000042947c       0x90 0x4 /usr/local/popcorn/aarch64/lib/libelf.a(getscn.o)
                0x000000000042947c                elf_getscn
 .text          0x000000000042950c        0x0 0x4 /usr/local/popcorn/aarch64/lib/libelf.a(newscn.o)
 .text._elf_update_shnum
                0x000000000042950c       0x78 0x4 /usr/local/popcorn/aarch64/lib/libelf.a(newscn.o)
                0x000000000042950c                _elf_update_shnum
 .text._elf_first_scn
                0x0000000000429584       0xf4 0x4 /usr/local/popcorn/aarch64/lib/libelf.a(newscn.o)
                0x0000000000429584                _elf_first_scn
 .text.elf_newscn
                0x0000000000429678      0x250 0x4 /usr/local/popcorn/aarch64/lib/libelf.a(newscn.o)
                0x0000000000429678                elf_newscn
 .text          0x00000000004298c8        0x0 0x4 /usr/local/popcorn/aarch64/lib/libelf.a(32.fsize.o)
 .text.elf32_fsize
                0x00000000004298c8       0x4c 0x4 /usr/local/popcorn/aarch64/lib/libelf.a(32.fsize.o)
                0x00000000004298c8                elf32_fsize
 .text.elf64_fsize
                0x0000000000429914       0x4c 0x4 /usr/local/popcorn/aarch64/lib/libelf.a(32.fsize.o)
                0x0000000000429914                elf64_fsize
 .text.gelf_fsize
                0x0000000000429960       0xa8 0x4 /usr/local/popcorn/aarch64/lib/libelf.a(32.fsize.o)
                0x0000000000429960                gelf_fsize
 .text.gelf_msize
                0x0000000000429a08       0xb4 0x4 /usr/local/popcorn/aarch64/lib/libelf.a(32.fsize.o)
                0x0000000000429a08                gelf_msize
 .text          0x0000000000429abc        0x0 0x4 /usr/local/popcorn/aarch64/lib/libc.a(arch_crash.o)
 .text.__crash_aarch64
                0x0000000000429abc       0x30 0x4 /usr/local/popcorn/aarch64/lib/libc.a(arch_crash.o)
                0x0000000000429abc                __crash_aarch64
                0x0000000000429abc                crash_aarch64
 .text.__crash_powerpc64
                0x0000000000429aec        0x8 0x4 /usr/local/popcorn/aarch64/lib/libc.a(arch_crash.o)
                0x0000000000429aec                __crash_powerpc64
                0x0000000000429aec                crash_powerpc64
 .text.__crash_x86_64
                0x0000000000429af4        0x8 0x4 /usr/local/popcorn/aarch64/lib/libc.a(arch_crash.o)
                0x0000000000429af4                __crash_x86_64
                0x0000000000429af4                crash_x86_64
 .text.__crash  0x0000000000429afc       0x30 0x4 /usr/local/popcorn/aarch64/lib/libc.a(arch_crash.o)
                0x0000000000429afc                __crash
                0x0000000000429afc                crash
 .text          0x0000000000429b2c        0x0 0x4 /usr/local/popcorn/aarch64/lib/libc.a(getenv.o)
 .text.getenv   0x0000000000429b2c       0x8c 0x4 /usr/local/popcorn/aarch64/lib/libc.a(getenv.o)
                0x0000000000429b2c                getenv
 .text          0x0000000000429bb8        0x0 0x4 /usr/local/popcorn/aarch64/lib/libc.a(assert.o)
 .text.__assert_fail
                0x0000000000429bb8       0x4c 0x4 /usr/local/popcorn/aarch64/lib/libc.a(assert.o)
                0x0000000000429bb8                __assert_fail
 .text          0x0000000000429c04        0x0 0x4 /usr/local/popcorn/aarch64/lib/libc.a(open.o)
 .text.open     0x0000000000429c04      0x104 0x4 /usr/local/popcorn/aarch64/lib/libc.a(open.o)
                0x0000000000429c04                open
                0x0000000000429c04                open64
 .text          0x0000000000429d08        0x0 0x4 /usr/local/popcorn/aarch64/lib/libc.a(getrlimit.o)
 .text.getrlimit
                0x0000000000429d08       0xf8 0x4 /usr/local/popcorn/aarch64/lib/libc.a(getrlimit.o)
                0x0000000000429d08                getrlimit
                0x0000000000429d08                getrlimit64
 .text          0x0000000000429e00        0x0 0x4 /usr/local/popcorn/aarch64/lib/libc.a(getc.o)
 .text.getc     0x0000000000429e00       0xa0 0x4 /usr/local/popcorn/aarch64/lib/libc.a(getc.o)
                0x0000000000429e00                _IO_getc
                0x0000000000429e00                getc
 .text          0x0000000000429ea0        0x0 0x4 /usr/local/popcorn/aarch64/lib/libc.a(getline.o)
 .text.getline  0x0000000000429ea0       0x10 0x4 /usr/local/popcorn/aarch64/lib/libc.a(getline.o)
                0x0000000000429ea0                getline
 .text          0x0000000000429eb0        0x0 0x4 /usr/local/popcorn/aarch64/lib/libc.a(perror.o)
 .text.perror   0x0000000000429eb0       0xcc 0x4 /usr/local/popcorn/aarch64/lib/libc.a(perror.o)
                0x0000000000429eb0                perror
 .text          0x0000000000429f7c        0x0 0x4 /usr/local/popcorn/aarch64/lib/libc.a(snprintf.o)
 .text.snprintf
                0x0000000000429f7c       0x74 0x4 /usr/local/popcorn/aarch64/lib/libc.a(snprintf.o)
                0x0000000000429f7c                snprintf
 .text          0x0000000000429ff0        0x0 0x4 /usr/local/popcorn/aarch64/lib/libc.a(bsearch.o)
 .text.bsearch  0x0000000000429ff0       0x84 0x4 /usr/local/popcorn/aarch64/lib/libc.a(bsearch.o)
                0x0000000000429ff0                bsearch
 .text          0x000000000042a074        0x0 0x4 /usr/local/popcorn/aarch64/lib/libc.a(strtol.o)
 .text.strtoull
                0x000000000042a074        0x8 0x4 /usr/local/popcorn/aarch64/lib/libc.a(strtol.o)
                0x000000000042a074                __strtoull_internal
                0x000000000042a074                strtoull
 .text.strtox   0x000000000042a07c       0xb4 0x4 /usr/local/popcorn/aarch64/lib/libc.a(strtol.o)
 .text.strtoll  0x000000000042a130        0x8 0x4 /usr/local/popcorn/aarch64/lib/libc.a(strtol.o)
                0x000000000042a130                __strtoll_internal
                0x000000000042a130                strtoll
 .text.strtoul  0x000000000042a138        0x8 0x4 /usr/local/popcorn/aarch64/lib/libc.a(strtol.o)
                0x000000000042a138                __strtoul_internal
                0x000000000042a138                strtoul
 .text.strtol   0x000000000042a140        0x8 0x4 /usr/local/popcorn/aarch64/lib/libc.a(strtol.o)
                0x000000000042a140                __strtol_internal
                0x000000000042a140                strtol
 .text.strtoimax
                0x000000000042a148        0x8 0x4 /usr/local/popcorn/aarch64/lib/libc.a(strtol.o)
                0x000000000042a148                __strtoimax_internal
                0x000000000042a148                strtoimax
 .text.strtoumax
                0x000000000042a150        0x8 0x4 /usr/local/popcorn/aarch64/lib/libc.a(strtol.o)
                0x000000000042a150                __strtoumax_internal
                0x000000000042a150                strtoumax
 .text          0x000000000042a158        0x0 0x4 /usr/local/popcorn/aarch64/lib/libc.a(strncmp.o)
 .text.strncmp  0x000000000042a158       0xec 0x4 /usr/local/popcorn/aarch64/lib/libc.a(strncmp.o)
                0x000000000042a158                strncmp
 .text          0x000000000042a244        0x0 0x4 /usr/local/popcorn/aarch64/lib/libc.a(__syscall_cp.o)
 .text.sccp     0x000000000042a244        0x4 0x4 /usr/local/popcorn/aarch64/lib/libc.a(__syscall_cp.o)
                0x000000000042a244                __syscall_cp_c
 .text.__syscall_cp
                0x000000000042a248        0x4 0x4 /usr/local/popcorn/aarch64/lib/libc.a(__syscall_cp.o)
                0x000000000042a248                __syscall_cp
 .text          0x000000000042a24c        0x0 0x4 /usr/local/popcorn/aarch64/lib/libc.a(pthread_attr_get.o)
 .text.pthread_attr_getdetachstate
                0x000000000042a24c       0x10 0x4 /usr/local/popcorn/aarch64/lib/libc.a(pthread_attr_get.o)
                0x000000000042a24c                pthread_attr_getdetachstate
 .text.pthread_attr_getguardsize
                0x000000000042a25c       0x10 0x4 /usr/local/popcorn/aarch64/lib/libc.a(pthread_attr_get.o)
                0x000000000042a25c                pthread_attr_getguardsize
 .text.pthread_attr_getinheritsched
                0x000000000042a26c       0x10 0x4 /usr/local/popcorn/aarch64/lib/libc.a(pthread_attr_get.o)
                0x000000000042a26c                pthread_attr_getinheritsched
 .text.pthread_attr_getschedparam
                0x000000000042a27c       0x10 0x4 /usr/local/popcorn/aarch64/lib/libc.a(pthread_attr_get.o)
                0x000000000042a27c                pthread_attr_getschedparam
 .text.pthread_attr_getschedpolicy
                0x000000000042a28c       0x10 0x4 /usr/local/popcorn/aarch64/lib/libc.a(pthread_attr_get.o)
                0x000000000042a28c                pthread_attr_getschedpolicy
 .text.pthread_attr_getscope
                0x000000000042a29c        0xc 0x4 /usr/local/popcorn/aarch64/lib/libc.a(pthread_attr_get.o)
                0x000000000042a29c                pthread_attr_getscope
 .text.pthread_attr_getstack
                0x000000000042a2a8       0x2c 0x4 /usr/local/popcorn/aarch64/lib/libc.a(pthread_attr_get.o)
                0x000000000042a2a8                pthread_attr_getstack
 .text.pthread_attr_getstacksize
                0x000000000042a2d4       0x10 0x4 /usr/local/popcorn/aarch64/lib/libc.a(pthread_attr_get.o)
                0x000000000042a2d4                pthread_attr_getstacksize
 .text.pthread_barrierattr_getpshared
                0x000000000042a2e4       0x18 0x4 /usr/local/popcorn/aarch64/lib/libc.a(pthread_attr_get.o)
                0x000000000042a2e4                pthread_barrierattr_getpshared
 .text.pthread_condattr_getclock
                0x000000000042a2fc       0x14 0x4 /usr/local/popcorn/aarch64/lib/libc.a(pthread_attr_get.o)
                0x000000000042a2fc                pthread_condattr_getclock
 .text.pthread_condattr_getpshared
                0x000000000042a310       0x14 0x4 /usr/local/popcorn/aarch64/lib/libc.a(pthread_attr_get.o)
                0x000000000042a310                pthread_condattr_getpshared
 .text.pthread_mutexattr_getprotocol
                0x000000000042a324        0xc 0x4 /usr/local/popcorn/aarch64/lib/libc.a(pthread_attr_get.o)
                0x000000000042a324                pthread_mutexattr_getprotocol
 .text.pthread_mutexattr_getpshared
                0x000000000042a330       0x14 0x4 /usr/local/popcorn/aarch64/lib/libc.a(pthread_attr_get.o)
                0x000000000042a330                pthread_mutexattr_getpshared
 .text.pthread_mutexattr_getrobust
                0x000000000042a344       0x14 0x4 /usr/local/popcorn/aarch64/lib/libc.a(pthread_attr_get.o)
                0x000000000042a344                pthread_mutexattr_getrobust
 .text.pthread_mutexattr_gettype
                0x000000000042a358       0x14 0x4 /usr/local/popcorn/aarch64/lib/libc.a(pthread_attr_get.o)
                0x000000000042a358                pthread_mutexattr_gettype
 .text.pthread_rwlockattr_getpshared
                0x000000000042a36c       0x10 0x4 /usr/local/popcorn/aarch64/lib/libc.a(pthread_attr_get.o)
                0x000000000042a36c                pthread_rwlockattr_getpshared
 .text          0x000000000042a37c        0x0 0x4 /usr/local/popcorn/aarch64/lib/libc.a(pthread_getattr_np.o)
 .text.pthread_getattr_np
                0x000000000042a37c       0xec 0x4 /usr/local/popcorn/aarch64/lib/libc.a(pthread_getattr_np.o)
                0x000000000042a37c                pthread_getattr_np
 .text          0x000000000042a468        0x0 0x4 /usr/local/popcorn/aarch64/lib/libc.a(pthread_migrate.o)
 .text.pthread_set_migrate_args
                0x000000000042a468        0xc 0x4 /usr/local/popcorn/aarch64/lib/libc.a(pthread_migrate.o)
                0x000000000042a468                pthread_set_migrate_args
 .text.pthread_get_migrate_args
                0x000000000042a474        0xc 0x4 /usr/local/popcorn/aarch64/lib/libc.a(pthread_migrate.o)
                0x000000000042a474                pthread_get_migrate_args
 .text          0x000000000042a480        0x0 0x4 /usr/local/popcorn/aarch64/lib/libc.a(pthread_self.o)
 .text.__pthread_self_internal
                0x000000000042a480        0xc 0x4 /usr/local/popcorn/aarch64/lib/libc.a(pthread_self.o)
                0x000000000042a480                pthread_self
                0x000000000042a480                thrd_current
 .text          0x000000000042a48c        0x0 0x4 /usr/local/popcorn/aarch64/lib/libc.a(close.o)
 .text.dummy    0x000000000042a48c        0x4 0x4 /usr/local/popcorn/aarch64/lib/libc.a(close.o)
 .text.close    0x000000000042a490       0x44 0x4 /usr/local/popcorn/aarch64/lib/libc.a(close.o)
                0x000000000042a490                close
 .text          0x000000000042a4d4        0x0 0x4 /usr/local/popcorn/aarch64/lib/libc.a(getpid.o)
 .text.getpid   0x000000000042a4d4        0xc 0x4 /usr/local/popcorn/aarch64/lib/libc.a(getpid.o)
                0x000000000042a4d4                getpid
 .text          0x000000000042a4e0        0x0 0x4 /usr/local/popcorn/aarch64/lib/libc.a(lseek.o)
 .text.lseek    0x000000000042a4e0       0x14 0x4 /usr/local/popcorn/aarch64/lib/libc.a(lseek.o)
                0x000000000042a4e0                lseek
                0x000000000042a4e0                lseek64
 .text          0x000000000042a4f4        0x0 0x4 /usr/local/popcorn/aarch64/lib/libc.a(read.o)
 .text.read     0x000000000042a4f4       0x38 0x4 /usr/local/popcorn/aarch64/lib/libc.a(read.o)
                0x000000000042a4f4                read
 .text          0x000000000042a52c        0x0 0x4 /usr/local/popcorn/aarch64/lib/libc.a(abort.o)
 .text.abort    0x000000000042a52c       0x34 0x4 /usr/local/popcorn/aarch64/lib/libc.a(abort.o)
                0x000000000042a52c                abort
 .text          0x000000000042a560        0x0 0x4 /usr/local/popcorn/aarch64/lib/libc.a(syscall.o)
 .text.__syscall
                0x000000000042a560       0x28 0x10 /usr/local/popcorn/aarch64/lib/libc.a(syscall.o)
                0x000000000042a560                __syscall
 .text          0x000000000042a588        0x0 0x4 /usr/local/popcorn/aarch64/lib/libc.a(block.o)
 .text.__block_all_sigs
                0x000000000042a588       0x24 0x4 /usr/local/popcorn/aarch64/lib/libc.a(block.o)
                0x000000000042a588                __block_all_sigs
 .text.__block_app_sigs
                0x000000000042a5ac       0x24 0x4 /usr/local/popcorn/aarch64/lib/libc.a(block.o)
                0x000000000042a5ac                __block_app_sigs
 .text.__restore_sigs
                0x000000000042a5d0       0x20 0x4 /usr/local/popcorn/aarch64/lib/libc.a(block.o)
                0x000000000042a5d0                __restore_sigs
 .text          0x000000000042a5f0        0x0 0x4 /usr/local/popcorn/aarch64/lib/libc.a(raise.o)
 .text.raise    0x000000000042a5f0       0x58 0x4 /usr/local/popcorn/aarch64/lib/libc.a(raise.o)
                0x000000000042a5f0                raise
 .text          0x000000000042a648        0x0 0x4 /usr/local/popcorn/aarch64/lib/libc.a(fputc.o)
 .text.fputc    0x000000000042a648       0xd4 0x4 /usr/local/popcorn/aarch64/lib/libc.a(fputc.o)
                0x000000000042a648                fputc
 .text          0x000000000042a71c        0x0 0x4 /usr/local/popcorn/aarch64/lib/libc.a(getdelim.o)
 .text.getdelim
                0x000000000042a71c      0x270 0x4 /usr/local/popcorn/aarch64/lib/libc.a(getdelim.o)
                0x000000000042a71c                __getdelim
                0x000000000042a71c                getdelim
 .text          0x000000000042a98c        0x0 0x4 /usr/local/popcorn/aarch64/lib/libc.a(__overflow.o)
 .text.__overflow
                0x000000000042a98c       0xa8 0x4 /usr/local/popcorn/aarch64/lib/libc.a(__overflow.o)
                0x000000000042a98c                __overflow
 .text          0x000000000042aa38      0xca4 0x8 /usr/lib/gcc-cross/aarch64-linux-gnu/6/libgcc.a(addtf3.o)
                0x000000000042aa38                __addtf3
 .text          0x000000000042b6e0      0x948 0x8 /usr/lib/gcc-cross/aarch64-linux-gnu/6/libgcc.a(divtf3.o)
                0x000000000042b6e0                __divtf3
 .text          0x000000000042c028      0x110 0x8 /usr/lib/gcc-cross/aarch64-linux-gnu/6/libgcc.a(eqtf2.o)
                0x000000000042c028                __eqtf2
                0x000000000042c028                __netf2
 .text          0x000000000042c138      0x154 0x8 /usr/lib/gcc-cross/aarch64-linux-gnu/6/libgcc.a(getf2.o)
                0x000000000042c138                __getf2
                0x000000000042c138                __gttf2
 .text          0x000000000042c290      0x174 0x8 /usr/lib/gcc-cross/aarch64-linux-gnu/6/libgcc.a(letf2.o)
                0x000000000042c290                __letf2
                0x000000000042c290                __lttf2
 .text          0x000000000042c408      0x790 0x8 /usr/lib/gcc-cross/aarch64-linux-gnu/6/libgcc.a(multf3.o)
                0x000000000042c408                __multf3
 .text          0x000000000042cb98      0xcb8 0x8 /usr/lib/gcc-cross/aarch64-linux-gnu/6/libgcc.a(subtf3.o)
                0x000000000042cb98                __subtf3
 .text          0x000000000042d850       0xd0 0x8 /usr/lib/gcc-cross/aarch64-linux-gnu/6/libgcc.a(unordtf2.o)
                0x000000000042d850                __unordtf2
 .text          0x000000000042d920      0x100 0x8 /usr/lib/gcc-cross/aarch64-linux-gnu/6/libgcc.a(fixtfsi.o)
                0x000000000042d920                __fixtfsi
 .text          0x000000000042da20       0xec 0x8 /usr/lib/gcc-cross/aarch64-linux-gnu/6/libgcc.a(fixunstfsi.o)
                0x000000000042da20                __fixunstfsi
 .text          0x000000000042db10       0x7c 0x8 /usr/lib/gcc-cross/aarch64-linux-gnu/6/libgcc.a(floatsitf.o)
                0x000000000042db10                __floatsitf
 .text          0x000000000042db90       0x70 0x8 /usr/lib/gcc-cross/aarch64-linux-gnu/6/libgcc.a(floatunsitf.o)
                0x000000000042db90                __floatunsitf
 .text          0x000000000042dc00       0xf0 0x8 /usr/lib/gcc-cross/aarch64-linux-gnu/6/libgcc.a(extendsftf2.o)
                0x000000000042dc00                __extendsftf2
 .text          0x000000000042dcf0      0x114 0x8 /usr/lib/gcc-cross/aarch64-linux-gnu/6/libgcc.a(extenddftf2.o)
                0x000000000042dcf0                __extenddftf2
 .text          0x000000000042de08      0x318 0x8 /usr/lib/gcc-cross/aarch64-linux-gnu/6/libgcc.a(trunctfsf2.o)
                0x000000000042de08                __trunctfsf2
 .text          0x000000000042e120      0x370 0x8 /usr/lib/gcc-cross/aarch64-linux-gnu/6/libgcc.a(trunctfdf2.o)
                0x000000000042e120                __trunctfdf2
 .text          0x000000000042e490       0x6c 0x8 /usr/lib/gcc-cross/aarch64-linux-gnu/6/libgcc.a(sfp-exceptions.o)
                0x000000000042e490                __sfp_handle_exceptions

.rodata         0x000000000042e500     0x4c9f
 ** merge constants
                0x000000000042e500      0x118
 .rodata.dc__str____NAS_Par
                0x000000000042e618       0x39 0x1 dc_aarch64.o
                0x000000000042e618                dc__str____NAS_Par
 .rodata.dc__str_1__No_Paramt
                0x000000000042e651       0x2c 0x1 dc_aarch64.o
                0x000000000042e651                dc__str_1__No_Paramt
 .rodata.dc__str_2_Usage___pr
                0x000000000042e67d       0x2a 0x1 dc_aarch64.o
                0x000000000042e67d                dc__str_2_Usage_(long double *)
 .rodata.dc__str_3_________fi
                0x000000000042e6a7       0x1d 0x1 dc_aarch64.o
                0x000000000042e6a7                dc__str_3_______(float, int)
 .rodata.dc__str_4_Example__b
                0x000000000042e6c4       0x26 0x1 dc_aarch64.o
                0x000000000042e6c4                dc__str_4_Example(bool)
 .rodata.dc__str_5_The_last_a
                0x000000000042e6ea       0x36 0x1 dc_aarch64.o
                0x000000000042e6ea                dc__str_5_The_last_a
 .rodata.dc__str_6___s__errno
                0x000000000042e720       0x11 0x1 dc_aarch64.o
                0x000000000042e720                dc__str_6___s__errno
 .rodata.dc__str_7_main__mall
                0x000000000042e731       0x14 0x1 dc_aarch64.o
                0x000000000042e731                dc__str_7_main__mall
 .rodata.dc__str_8_main_Parse
                0x000000000042e745       0x19 0x1 dc_aarch64.o
                0x000000000042e745                dc__str_8_main_Parse
 .rodata.dc__str_9_main_Gener
                0x000000000042e75e       0x18 0x1 dc_aarch64.o
                0x000000000042e75e                dc__str_9_main_Gener
 .rodata.dc__str_10_Estimated_
                0x000000000042e776       0x1e 0x1 dc_aarch64.o
                0x000000000042e776                dc__str_10_Estimated_
 .rodata.dc__str_11_main_DC_fa
                0x000000000042e794        0xf 0x1 dc_aarch64.o
                0x000000000042e794                dc__str_11_main_DC_fa
 .rodata.dc__str_12_main_ParRu
                0x000000000042e7a3       0x22 0x1 dc_aarch64.o
                0x000000000042e7a3                dc__str_12_main_ParRu
 .rodata.dc__str_13_ParRun_New
                0x000000000042e7c5       0x25 0x1 dc_aarch64.o
                0x000000000042e7c5                dc__str_13_ParRun_New
 .rodata.dc__str_14_DC_NewAdcV
                0x000000000042e7ea       0x25 0x1 dc_aarch64.o
                0x000000000042e7ea                dc__str_14_DC_NewAdcV
 .rodata.dc__str_15_DC_Partiti
                0x000000000042e80f       0x18 0x1 dc_aarch64.o
                0x000000000042e80f                dc__str_15_DC_Partiti
 .rodata.dc__str_16_DC_Compute
                0x000000000042e827       0x1f 0x1 dc_aarch64.o
                0x000000000042e827                dc__str_16_DC_Compute
 .rodata.dc__str_17_ParRun_Clo
                0x000000000042e846       0x1f 0x1 dc_aarch64.o
                0x000000000042e846                dc__str_17_ParRun_Clo
 .rodata.dc__str_18______DC_Be
                0x000000000042e865       0x1c 0x1 dc_aarch64.o
                0x000000000042e865                dc__str_18______DC_Be
 .rodata.dc__str_19__Benchmark
                0x000000000042e881       0x1c 0x1 dc_aarch64.o
                0x000000000042e881                dc__str_19__Benchmark
 .rodata.dc__str_20__Input_Tup
                0x000000000042e89d       0x22 0x1 dc_aarch64.o
                0x000000000042e89d                dc__str_20__Input_Tup
 .rodata.dc__str_21__Number_of
                0x000000000042e8bf       0x22 0x1 dc_aarch64.o
                0x000000000042e8bf                dc__str_21__Number_of
 .rodata.dc__str_22__Number_of
                0x000000000042e8e1       0x22 0x1 dc_aarch64.o
                0x000000000042e8e1                dc__str_22__Number_of
 .rodata.dc__str_23__Tuples_Ge
                0x000000000042e903       0x1c 0x1 dc_aarch64.o
                0x000000000042e903                dc__str_23__Tuples_Ge
 .rodata.dc__str_24__Tuples_s_
                0x000000000042e91f       0x1c 0x1 dc_aarch64.o
                0x000000000042e91f                dc__str_24__Tuples_s_
 .rodata.dc__str_25__Checksum_
                0x000000000042e93b       0x1d 0x1 dc_aarch64.o
                0x000000000042e93b                dc__str_25__Checksum_
 .rodata.dc__str_26__Verificat
                0x000000000042e958       0x16 0x1 dc_aarch64.o
                0x000000000042e958                dc__str_26__Verificat
 .rodata.dc__str_27_DC_
                0x000000000042e96e        0x3 0x1 dc_aarch64.o
                0x000000000042e96e                dc__str_27_DC_
 .rodata.dc__str_28_Tuples_gen
                0x000000000042e971       0x11 0x1 dc_aarch64.o
                0x000000000042e971                dc__str_28_Tuples_gen
 .rodata.dc__str_29_3_3_1_
                0x000000000042e982        0x6 0x1 dc_aarch64.o
                0x000000000042e982                dc__str_29_3_3_1_
 .rodata.dc__str_30_03_Nov_201
                0x000000000042e988        0xc 0x1 dc_aarch64.o
                0x000000000042e988                dc__str_30_03_Nov_201
 .rodata.dc__str_31_gcc_
                0x000000000042e994        0x4 0x1 dc_aarch64.o
                0x000000000042e994                dc__str_31_gcc_
 .rodata.dc__str_32___CC__
                0x000000000042e998        0x6 0x1 dc_aarch64.o
                0x000000000042e998                dc__str_32___CC__
 .rodata.dc__str_33__lm_
                0x000000000042e99e        0x4 0x1 dc_aarch64.o
                0x000000000042e99e                dc__str_33__lm_
 .rodata.dc__str_34__I___commo
                0x000000000042e9a2        0xc 0x1 dc_aarch64.o
                0x000000000042e9a2                dc__str_34__I___commo
 .rodata.dc__str_35__g__Wall__
                0x000000000042e9ae       0x1d 0x1 dc_aarch64.o
                0x000000000042e9ae                dc__str_35__g__Wall__
 .rodata.dc__str_36__O3__mcmod
                0x000000000042e9cb       0x14 0x1 dc_aarch64.o
                0x000000000042e9cb                dc__str_36__O3__mcmod
 .rodata.ParseParFile
                0x000000000042e9e0       0x38 0x8 adc_aarch64.o
 .rodata.adc__str_ADC_
                0x000000000042ea18        0x4 0x1 adc_aarch64.o
                0x000000000042ea18                adc__str_ADC_
 .rodata.adc__str_1_prime__
                0x000000000042ea1c        0x7 0x1 adc_aarch64.o
                0x000000000042ea1c                adc__str_1_prime__
 .rodata.adc__str_2___
                0x000000000042ea23        0x2 0x1 adc_aarch64.o
                0x000000000042ea23                adc__str_2___
 .rodata.adc__str_3__ld_
                0x000000000042ea25        0x4 0x1 adc_aarch64.o
                0x000000000042ea25                adc__str_3__ld_
 .rodata.adc__str_4__ld__ld_
                0x000000000042ea29        0x8 0x1 adc_aarch64.o
                0x000000000042ea29                adc__str_4__ld__ld_
 .rodata.adc__str_5___
                0x000000000042ea31        0x2 0x1 adc_aarch64.o
                0x000000000042ea31                adc__str_5___
 .rodata.adc__str_6_view_sz_
                0x000000000042ea33        0x8 0x1 adc_aarch64.o
                0x000000000042ea33                adc__str_6_view_sz_
 .rodata.adc__str_7__s__s__d_
                0x000000000042ea3b        0x9 0x1 adc_aarch64.o
                0x000000000042ea3b                adc__str_7__s__s__d_
 .rodata.adc__str_8_w__
                0x000000000042ea44        0x3 0x1 adc_aarch64.o
                0x000000000042ea44                adc__str_8_w__
 .rodata.adc__str_9_CalculateV
                0x000000000042ea47       0x29 0x1 adc_aarch64.o
                0x000000000042ea47                adc__str_9_CalculateV
 .rodata.adc__str_10_Selection_
                0x000000000042ea70        0xb 0x1 adc_aarch64.o
                0x000000000042ea70                adc__str_10_Selection_
 .rodata.adc__str_11___lld_
                0x000000000042ea7b        0x6 0x1 adc_aarch64.o
                0x000000000042ea7b                adc__str_11___lld_
 .rodata.adc__str_12__View_Size
                0x000000000042ea81       0x12 0x1 adc_aarch64.o
                0x000000000042ea81                adc__str_12__View_Size
 .rodata.adc__str_13__Total_in_
                0x000000000042ea93       0x2f 0x1 adc_aarch64.o
                0x000000000042ea93                adc__str_13__Total_in_
 .rodata.adc__str_14_View_sizes
                0x000000000042eac2       0x20 0x1 adc_aarch64.o
                0x000000000042eac2                adc__str_14_View_sizes
 .rodata.adc__str_15_r_
                0x000000000042eae2        0x2 0x1 adc_aarch64.o
                0x000000000042eae2                adc__str_15_r_
 .rodata.adc__str_16_ParseParFi
                0x000000000042eae4       0x23 0x1 adc_aarch64.o
                0x000000000042eae4                adc__str_16_ParseParFi
 .rodata.adc__str_17__d_
                0x000000000042eb07        0x3 0x1 adc_aarch64.o
                0x000000000042eb07                adc__str_17__d_
 .rodata.adc__str_18___
                0x000000000042eb0a        0x2 0x1 adc_aarch64.o
                0x000000000042eb0a                adc__str_18___
 .rodata.adc__str_19__lld_
                0x000000000042eb0c        0x5 0x1 adc_aarch64.o
                0x000000000042eb0c                adc__str_19__lld_
 .rodata.adc__str_20__s_
                0x000000000042eb11        0x3 0x1 adc_aarch64.o
                0x000000000042eb11                adc__str_20__s_
 .rodata.adc__str_21__c_
                0x000000000042eb14        0x3 0x1 adc_aarch64.o
                0x000000000042eb14                adc__str_21__c_
 .rodata.adc__str_22_w_
                0x000000000042eb17        0x2 0x1 adc_aarch64.o
                0x000000000042eb17                adc__str_22_w_
 .rodata.adc__str_23_WriteADCPa
                0x000000000042eb19       0x21 0x1 adc_aarch64.o
                0x000000000042eb19                adc__str_23_WriteADCPa
 .rodata.adc__str_24_attrNum__d
                0x000000000042eb3a        0xc 0x1 adc_aarch64.o
                0x000000000042eb3a                adc__str_24_attrNum(double)
 .rodata.adc__str_25_measuresNu
                0x000000000042eb46       0x10 0x1 adc_aarch64.o
                0x000000000042eb46                adc__str_25_measuresNu
 .rodata.adc__str_26_tuplesNum_
                0x000000000042eb56       0x10 0x1 adc_aarch64.o
                0x000000000042eb56                adc__str_26_tuplesNum_
 .rodata.adc__str_27_class__c__
                0x000000000042eb66        0xa 0x1 adc_aarch64.o
                0x000000000042eb66                adc__str_27_class__c__
 .rodata.adc__str_28_INVERSE_EN
                0x000000000042eb70       0x13 0x1 adc_aarch64.o
                0x000000000042eb70                adc__str_28_INVERSE_EN
 .rodata.adc__str_29_fileName__
                0x000000000042eb83        0xd 0x1 adc_aarch64.o
                0x000000000042eb83                adc__str_29_fileName__
 .rodata.adc__str_30___________
                0x000000000042eb90       0x25 0x1 adc_aarch64.o
                0x000000000042eb90                adc__str_30___________
 .rodata.adc__str_31__id___d__
                0x000000000042ebb5        0x9 0x1 adc_aarch64.o
                0x000000000042ebb5                adc__str_31__id___d__
 .rodata.adc__str_32__attribute
                0x000000000042ebbe       0x11 0x1 adc_aarch64.o
                0x000000000042ebbe                adc__str_32__attribute
 .rodata.adc__str_33__measures_
                0x000000000042ebcf       0x11 0x1 adc_aarch64.o
                0x000000000042ebcf                adc__str_33__measures_
 .rodata.adc__str_34__tuples___
                0x000000000042ebe0       0x13 0x1 adc_aarch64.o
                0x000000000042ebe0                adc__str_34__tuples___
 .rodata.adc__str_35__class___c
                0x000000000042ebf3        0xc 0x1 adc_aarch64.o
                0x000000000042ebf3                adc__str_35__class_(char)
 .rodata.adc__str_36__filename_
                0x000000000042ebff       0x14 0x1 adc_aarch64.o
                0x000000000042ebff                adc__str_36__filename_
 .rodata.adc__str_37___________
                0x000000000042ec13       0x25 0x1 adc_aarch64.o
                0x000000000042ec13                adc__str_37___________
 .rodata.adc_c_GetNextTuple_maxdim
                0x000000000042ec38        0x4 0x4 adc_aarch64.o
 .rodata.adc__str_38_GetNextTup
                0x000000000042ec3c       0x2e 0x1 adc_aarch64.o
                0x000000000042ec3c                adc__str_38_GetNextTup
 .rodata.adc__str_39_GetNextTup
                0x000000000042ec6a       0x2c 0x1 adc_aarch64.o
                0x000000000042ec6a                adc__str_39_GetNextTup
 .rodata.adc__str_40_Prime__Gen
                0x000000000042ec96       0x18 0x1 adc_aarch64.o
                0x000000000042ec96                adc__str_40_Prime__Gen
 .rodata.adc__str_41___ld___ld_
                0x000000000042ecae       0x11 0x1 adc_aarch64.o
                0x000000000042ecae                adc__str_41___ld___ld_
 .rodata.adc__str_42__s_dat__d_
                0x000000000042ecbf        0xa 0x1 adc_aarch64.o
                0x000000000042ecbf                adc__str_42__s_dat__d_
 .rodata.adc__str_43_wb__
                0x000000000042ecc9        0x4 0x1 adc_aarch64.o
                0x000000000042ecc9                adc__str_43_wb__
 .rodata.adc__str_44_GenerateAD
                0x000000000042eccd       0x22 0x1 adc_aarch64.o
                0x000000000042eccd                adc__str_44_GenerateAD
 .rodata.adc__str_45__GenerateA
                0x000000000042ecef       0x48 0x1 adc_aarch64.o
                0x000000000042ecef                adc__str_45__GenerateA
 .rodata.adc__str_46_Binary_ADC
                0x000000000042ed37       0x14 0x1 adc_aarch64.o
                0x000000000042ed37                adc__str_46_Binary_ADC
 .rodata.adc__str_47_have_been_
                0x000000000042ed4b       0x16 0x1 adc_aarch64.o
                0x000000000042ed4b                adc__str_47_have_been_
 .rodata.adc__str_48_attrNum_
                0x000000000042ed61        0x8 0x1 adc_aarch64.o
                0x000000000042ed61                adc__str_48_attrNum_
 .rodata.adc__str_49_measuresNu
                0x000000000042ed69        0xc 0x1 adc_aarch64.o
                0x000000000042ed69                adc__str_49_measuresNu
 .rodata.adc__str_50_tuplesNum_
                0x000000000042ed75        0xa 0x1 adc_aarch64.o
                0x000000000042ed75                adc__str_50_tuplesNum_
 .rodata.adc__str_51_INVERSE_EN
                0x000000000042ed7f        0xf 0x1 adc_aarch64.o
                0x000000000042ed7f                adc__str_51_INVERSE_EN
 .rodata.adc__str_52_fileName_
                0x000000000042ed8e        0x9 0x1 adc_aarch64.o
                0x000000000042ed8e                adc__str_52_fileName_
 .rodata.adc__str_53_class_
                0x000000000042ed97        0x6 0x1 adc_aarch64.o
                0x000000000042ed97                adc__str_53_class_
 .rodata.extbuild__str__ReadWhole
                0x000000000042ed9d       0x32 0x1 extbuild_aarch64.o
                0x000000000042ed9d                extbuild__str__ReadWhole
 .rodata.extbuild__str_1_ComputeMem
                0x000000000042edcf       0x2f 0x1 extbuild_aarch64.o
                0x000000000042edcf                extbuild__str_1_ComputeMem
 .rodata.extbuild__str_2_SharedSort
                0x000000000042edfe       0x2f 0x1 extbuild_aarch64.o
                0x000000000042edfe                extbuild__str_2_SharedSort
 .rodata.extbuild__str_3_Too_many_c
                0x000000000042ee2d       0x1f 0x1 extbuild_aarch64.o
                0x000000000042ee2d                extbuild__str_3_Too_many_c
 .rodata.extbuild__str_4_SharedSort
                0x000000000042ee4c       0x2b 0x1 extbuild_aarch64.o
                0x000000000042ee4c                extbuild__str_4_SharedSort
 .rodata.extbuild__str_5_SharedSort
                0x000000000042ee77       0x2c 0x1 extbuild_aarch64.o
                0x000000000042ee77                extbuild__str_5_SharedSort
 .rodata.extbuild__str_6_SharedSort
                0x000000000042eea3       0x2b 0x1 extbuild_aarch64.o
                0x000000000042eea3                extbuild__str_6_SharedSort
 .rodata.extbuild__str_7_PrefixedAg
                0x000000000042eece       0x2d 0x1 extbuild_aarch64.o
                0x000000000042eece                extbuild__str_7_PrefixedAg
 .rodata.extbuild__str_8_PrefixedAg
                0x000000000042eefb       0x2c 0x1 extbuild_aarch64.o
                0x000000000042eefb                extbuild__str_8_PrefixedAg
 .rodata.extbuild__str_9___Write_er
                0x000000000042ef27       0x22 0x1 extbuild_aarch64.o
                0x000000000042ef27                extbuild__str_9___Write_er
 .rodata.extbuild__str_10_RunFormati
                0x000000000042ef49       0x2d 0x1 extbuild_aarch64.o
                0x000000000042ef49                extbuild__str_10_RunFormati
 .rodata.extbuild__str_11_RunFormati
                0x000000000042ef76       0x38 0x1 extbuild_aarch64.o
                0x000000000042ef76                extbuild__str_11_RunFormati
 .rodata.extbuild__str_12_RunFormati
                0x000000000042efae       0x39 0x1 extbuild_aarch64.o
                0x000000000042efae                extbuild__str_12_RunFormati
 .rodata.extbuild__str_13_SeekAndRea
                0x000000000042efe7       0x25 0x1 extbuild_aarch64.o
                0x000000000042efe7                extbuild__str_13_SeekAndRea
 .rodata.extbuild__str_14_MultiWayMe
                0x000000000042f00c       0x3b 0x1 extbuild_aarch64.o
                0x000000000042f00c                extbuild__str_14_MultiWayMe
 .rodata.extbuild__str_15_AdcFileOpe
                0x000000000042f047       0x31 0x1 extbuild_aarch64.o
                0x000000000042f047                extbuild__str_15_AdcFileOpe
 .rodata.extbuild__str_16__s__s__d_
                0x000000000042f078        0x9 0x1 extbuild_aarch64.o
                0x000000000042f078                extbuild__str_16__s__s__d_
 .rodata.extbuild__str_17___d_
                0x000000000042f081        0x4 0x1 extbuild_aarch64.o
                0x000000000042f081                extbuild__str_17___d_
 .rodata.extbuild__str_18_logf_
                0x000000000042f085        0x5 0x1 extbuild_aarch64.o
                0x000000000042f085                extbuild__str_18_logf_
 .rodata.extbuild__str_19_w_
                0x000000000042f08a        0x2 0x1 extbuild_aarch64.o
                0x000000000042f08a                extbuild__str_19_w_
 .rodata.extbuild__str_20_dat_
                0x000000000042f08c        0x4 0x1 extbuild_aarch64.o
                0x000000000042f08c                extbuild__str_20_dat_
 .rodata.extbuild__str_21_rb_
                0x000000000042f090        0x3 0x1 extbuild_aarch64.o
                0x000000000042f090                extbuild__str_21_rb_
 .rodata.extbuild__str_22_view_dat_
                0x000000000042f093        0x9 0x1 extbuild_aarch64.o
                0x000000000042f093                extbuild__str_22_view_dat_
 .rodata.extbuild__str_23_wb__
                0x000000000042f09c        0x4 0x1 extbuild_aarch64.o
                0x000000000042f09c                extbuild__str_23_wb__
 .rodata.extbuild__str_24_chunks_dat
                0x000000000042f0a0        0xb 0x1 extbuild_aarch64.o
                0x000000000042f0a0                extbuild__str_24_chunks_dat
 .rodata.extbuild__str_25_groupby_da
                0x000000000042f0ab        0xc 0x1 extbuild_aarch64.o
                0x000000000042f0ab                extbuild__str_25_groupby_da
 .rodata.extbuild__str_26_view_sz_
                0x000000000042f0b7        0x8 0x1 extbuild_aarch64.o
                0x000000000042f0b7                extbuild__str_26_view_sz_
 .rodata.extbuild__str_27_r_
                0x000000000042f0bf        0x2 0x1 extbuild_aarch64.o
                0x000000000042f0bf                extbuild__str_27_r_
 .rodata.extbuild__str_28_viewsz_dat
                0x000000000042f0c1        0xb 0x1 extbuild_aarch64.o
                0x000000000042f0c1                extbuild__str_28_viewsz_dat
 .rodata.extbuild__str_29_NewAdcView
                0x000000000042f0cc       0x30 0x1 extbuild_aarch64.o
                0x000000000042f0cc                extbuild__str_29_NewAdcView
 .rodata.extbuild__str_30_NewAdcView
                0x000000000042f0fc       0x34 0x1 extbuild_aarch64.o
                0x000000000042f0fc                extbuild__str_30_NewAdcView
 .rodata.extbuild__str_31_NewAdcView
                0x000000000042f130       0x35 0x1 extbuild_aarch64.o
                0x000000000042f130                extbuild__str_31_NewAdcView
 .rodata.extbuild__str_32__NewAdcVie
                0x000000000042f165       0x29 0x1 extbuild_aarch64.o
                0x000000000042f165                extbuild__str_32__NewAdcVie
 .rodata.extbuild__str_33___Not_enou
                0x000000000042f18e       0x38 0x1 extbuild_aarch64.o
                0x000000000042f18e                extbuild__str_33___Not_enou
 .rodata.extbuild__str_34___Not_enou
                0x000000000042f1c6       0x45 0x1 extbuild_aarch64.o
                0x000000000042f1c6                extbuild__str_34___Not_enou
 .rodata.extbuild__str_35__Meaning_o
                0x000000000042f20b       0x30 0x1 extbuild_aarch64.o
                0x000000000042f20b                extbuild__str_35__Meaning_o
 .rodata.extbuild__str_36_Row_Number
                0x000000000042f23b       0x44 0x1 extbuild_aarch64.o
                0x000000000042f23b                extbuild__str_36_Row_Number
 .rodata.extbuild__str_37_____memory
                0x000000000042f27f       0x18 0x1 extbuild_aarch64.o
                0x000000000042f27f                extbuild__str_37_____memory
 .rodata.extbuild__str_38_____treeNo
                0x000000000042f297       0x19 0x1 extbuild_aarch64.o
                0x000000000042f297                extbuild__str_38_____treeNo
 .rodata.extbuild__str_39__treeMemor
                0x000000000042f2b0       0x19 0x1 extbuild_aarch64.o
                0x000000000042f2b0                extbuild__str_39__treeMemor
 .rodata.extbuild__str_40_____nNodes
                0x000000000042f2c9       0x18 0x1 extbuild_aarch64.o
                0x000000000042f2c9                extbuild__str_40_____nNodes
 .rodata.extbuild__str_41_freeNodeCo
                0x000000000042f2e1       0x18 0x1 extbuild_aarch64.o
                0x000000000042f2e1                extbuild__str_41_freeNodeCo
 .rodata.extbuild__str_42__nViewRows
                0x000000000042f2f9       0x13 0x1 extbuild_aarch64.o
                0x000000000042f2f9                extbuild__str_42__nViewRows
 .rodata.extbuild__str_43__s_
                0x000000000042f30c        0x3 0x1 extbuild_aarch64.o
                0x000000000042f30c                extbuild__str_43__s_
 .rodata.extbuild__str_44_Selection_
                0x000000000042f30f        0xb 0x1 extbuild_aarch64.o
                0x000000000042f30f                extbuild__str_44_Selection_
 .rodata.extbuild__str_45_View_
                0x000000000042f31a        0x5 0x1 extbuild_aarch64.o
                0x000000000042f31a                extbuild__str_45_View_
 .rodata.extbuild__str_46_Size__
                0x000000000042f31f        0x6 0x1 extbuild_aarch64.o
                0x000000000042f31f                extbuild__str_46_Size__
 .rodata.extbuild__str_47_A_view_siz
                0x000000000042f325       0x2a 0x1 extbuild_aarch64.o
                0x000000000042f325                extbuild__str_47_A_view_siz
 .rodata.extbuild__str_48___Meaning_
                0x000000000042f34f       0x31 0x1 extbuild_aarch64.o
                0x000000000042f34f                extbuild__str_48___Meaning_
 .rodata.extbuild__str_49_Verificati
                0x000000000042f380       0x14 0x1 extbuild_aarch64.o
                0x000000000042f380                extbuild__str_49_Verificati
 .rodata.extbuild__str_50_Verificati
                0x000000000042f394       0x14 0x1 extbuild_aarch64.o
                0x000000000042f394                extbuild__str_50_Verificati
 .rodata.extbuild__str_51_ReadWholeI
                0x000000000042f3a8       0x1c 0x1 extbuild_aarch64.o
                0x000000000042f3a8                extbuild__str_51_ReadWholeI
 .rodata.extbuild__str_52_ComputeMem
                0x000000000042f3c4       0x21 0x1 extbuild_aarch64.o
                0x000000000042f3c4                extbuild__str_52_ComputeMem
 .rodata.extbuild__str_53__7d__
                0x000000000042f3e5        0x5 0x1 extbuild_aarch64.o
                0x000000000042f3e5                extbuild__str_53__7d__
 .rodata.extbuild__str_54______15d__
                0x000000000042f3ea        0xc 0x1 extbuild_aarch64.o
                0x000000000042f3ea                extbuild__str_54______15d__
 .rodata.extbuild__str_55___20lld_
                0x000000000042f3f6        0x8 0x1 extbuild_aarch64.o
                0x000000000042f3f6                extbuild__str_55___20lld_
 .rodata.extbuild__str_56_____5d_
                0x000000000042f3fe        0x7 0x1 extbuild_aarch64.o
                0x000000000042f3fe                extbuild__str_56_____5d_
 .rodata.jobcntl__str____s_
                0x000000000042f405        0x5 0x1 jobcntl_aarch64.o
                0x000000000042f405                jobcntl__str____s_
 .rodata.jobcntl__str_1_1_
                0x000000000042f40a        0x2 0x1 jobcntl_aarch64.o
                0x000000000042f40a                jobcntl__str_1_1_
 .rodata.jobcntl__str_2_0_
                0x000000000042f40c        0x2 0x1 jobcntl_aarch64.o
                0x000000000042f40c                jobcntl__str_2_0_
 .rodata.jobcntl__str_3___s__
                0x000000000042f40e        0x5 0x1 jobcntl_aarch64.o
                0x000000000042f40e                jobcntl__str_3___s__
 .rodata.jobcntl__str_4___d_
                0x000000000042f413        0x4 0x1 jobcntl_aarch64.o
                0x000000000042f413                jobcntl__str_4___d_
 .rodata.jobcntl__str_5__Partition
                0x000000000042f417       0x2e 0x1 jobcntl_aarch64.o
                0x000000000042f417                jobcntl__str_5__Partition
 .rodata.jobcntl__str_6__s_
                0x000000000042f445        0x3 0x1 jobcntl_aarch64.o
                0x000000000042f445                jobcntl__str_6__s_
 .rodata.jobcntl__str_7_Selection_
                0x000000000042f448        0xb 0x1 jobcntl_aarch64.o
                0x000000000042f448                jobcntl__str_7_Selection_
 .rodata.jobcntl__str_8_View_
                0x000000000042f453        0x5 0x1 jobcntl_aarch64.o
                0x000000000042f453                jobcntl__str_8_View_
 .rodata.jobcntl__str_9_Size__
                0x000000000042f458        0x6 0x1 jobcntl_aarch64.o
                0x000000000042f458                jobcntl__str_9_Size__
 .rodata.jobcntl__str_10_MultiFileP
                0x000000000042f45e       0x20 0x1 jobcntl_aarch64.o
                0x000000000042f45e                jobcntl__str_10_MultiFileP
 .rodata.jobcntl__str_11_MultiFileP
                0x000000000042f47e       0x20 0x1 jobcntl_aarch64.o
                0x000000000042f47e                jobcntl__str_11_MultiFileP
 .rodata.rbt__str___Write_er
                0x000000000042f49e       0x22 0x1 rbt_aarch64.o
                0x000000000042f49e                rbt__str___Write_er
 .rodata.print_results__str_____s_Benc
                0x000000000042f4c0       0x1c 0x1 print_results_aarch64.o
                0x000000000042f4c0                print_results__str_____s_Benc
 .rodata.print_results__str_1__Class____
                0x000000000042f4dc       0x25 0x1 print_results_aarch64.o
                0x000000000042f4dc                print_results__str_1__Class____
 .rodata.print_results__str_2__15_0lf_
                0x000000000042f501        0x8 0x1 print_results_aarch64.o
                0x000000000042f501                print_results__str_2__15_0lf_
 .rodata.print_results__str_3__Size_____
                0x000000000042f509       0x22 0x1 print_results_aarch64.o
                0x000000000042f509                print_results__str_3__Size_____
 .rodata.print_results__str_4__Size_____
                0x000000000042f52b       0x25 0x1 print_results_aarch64.o
                0x000000000042f52b                print_results__str_4__Size_____
 .rodata.print_results__str_5__Size_____
                0x000000000042f550       0x2a 0x1 print_results_aarch64.o
                0x000000000042f550                print_results__str_5__Size_____
 .rodata.print_results__str_6__Iteration
                0x000000000042f57a       0x25 0x1 print_results_aarch64.o
                0x000000000042f57a                print_results__str_6__Iteration
 .rodata.print_results__str_7__Time_in_s
                0x000000000042f59f       0x28 0x1 print_results_aarch64.o
                0x000000000042f59f                print_results__str_7__Time_in_s
 .rodata.print_results__str_8__Mop_s_tot
                0x000000000042f5c7       0x25 0x1 print_results_aarch64.o
                0x000000000042f5c7                print_results__str_8__Mop_s_tot
 .rodata.print_results__str_9__Operation
                0x000000000042f5ec       0x19 0x1 print_results_aarch64.o
                0x000000000042f5ec                print_results__str_9__Operation
 .rodata.print_results__str_10__Verificat
                0x000000000042f605       0x25 0x1 print_results_aarch64.o
                0x000000000042f605                print_results__str_10__Verificat
 .rodata.print_results__str_11_SUCCESSFUL
                0x000000000042f62a        0xb 0x1 print_results_aarch64.o
                0x000000000042f62a                print_results__str_11_SUCCESSFUL
 .rodata.print_results__str_12_UNSUCCESSF
                0x000000000042f635        0xd 0x1 print_results_aarch64.o
                0x000000000042f635                print_results__str_12_UNSUCCESSF
 .rodata.print_results__str_13__Version__
                0x000000000042f642       0x25 0x1 print_results_aarch64.o
                0x000000000042f642                print_results__str_13__Version__
 .rodata.print_results__str_14__Compile_d
                0x000000000042f667       0x25 0x1 print_results_aarch64.o
                0x000000000042f667                print_results__str_14__Compile_d
 .rodata.print_results__str_15___Compile_
                0x000000000042f68c       0x2a 0x1 print_results_aarch64.o
                0x000000000042f68c                print_results__str_15___Compile_
 .rodata.print_results__str_16_____CLINK_
                0x000000000042f6b6       0x17 0x1 print_results_aarch64.o
                0x000000000042f6b6                print_results__str_16_____CLINK_
 .rodata.print_results__str_17_____C_LIB_
                0x000000000042f6cd       0x17 0x1 print_results_aarch64.o
                0x000000000042f6cd                print_results__str_17_____C_LIB_
 .rodata.print_results__str_18_____C_INC_
                0x000000000042f6e4       0x17 0x1 print_results_aarch64.o
                0x000000000042f6e4                print_results__str_18_____C_INC_
 .rodata.print_results__str_19_____CFLAGS
                0x000000000042f6fb       0x17 0x1 print_results_aarch64.o
                0x000000000042f6fb                print_results__str_19_____CFLAGS
 .rodata.print_results__str_20_____CLINKF
                0x000000000042f712       0x17 0x1 print_results_aarch64.o
                0x000000000042f712                print_results__str_20_____CLINKF
 .rodata.print_results__str_21_____RAND__
                0x000000000042f729       0x17 0x1 print_results_aarch64.o
                0x000000000042f729                print_results__str_21_____RAND__
 .rodata.print_results__str_22___________
                0x000000000042f740       0xc3 0x1 print_results_aarch64.o
                0x000000000042f740                print_results__str_22___________
 .rodata.c_print_results__str_____s_Benc
                0x000000000042f803       0x1b 0x1 c_print_results_aarch64.o
                0x000000000042f803                c_print_results__str_____s_Benc
 .rodata.c_print_results__str_1__Class____
                0x000000000042f81e       0x2e 0x1 c_print_results_aarch64.o
                0x000000000042f81e                c_print_results__str_1__Class____
 .rodata.c_print_results__str_2__Size_____
                0x000000000042f84c       0x26 0x1 c_print_results_aarch64.o
                0x000000000042f84c                c_print_results__str_2__Size_____
 .rodata.c_print_results__str_3__Size_____
                0x000000000042f872       0x2c 0x1 c_print_results_aarch64.o
                0x000000000042f872                c_print_results__str_3__Size_____
 .rodata.c_print_results__str_4__Iteration
                0x000000000042f89e       0x25 0x1 c_print_results_aarch64.o
                0x000000000042f89e                c_print_results__str_4__Iteration
 .rodata.c_print_results__str_5__Time_in_s
                0x000000000042f8c3       0x27 0x1 c_print_results_aarch64.o
                0x000000000042f8c3                c_print_results__str_5__Time_in_s
 .rodata.c_print_results__str_6__Mop_s_tot
                0x000000000042f8ea       0x27 0x1 c_print_results_aarch64.o
                0x000000000042f8ea                c_print_results__str_6__Mop_s_tot
 .rodata.c_print_results__str_7__Operation
                0x000000000042f911       0x19 0x1 c_print_results_aarch64.o
                0x000000000042f911                c_print_results__str_7__Operation
 .rodata.c_print_results__str_8__Verificat
                0x000000000042f92a       0x2d 0x1 c_print_results_aarch64.o
                0x000000000042f92a                c_print_results__str_8__Verificat
 .rodata.c_print_results__str_9__Verificat
                0x000000000042f957       0x2d 0x1 c_print_results_aarch64.o
                0x000000000042f957                c_print_results__str_9__Verificat
 .rodata.c_print_results__str_10__Verificat
                0x000000000042f984       0x2d 0x1 c_print_results_aarch64.o
                0x000000000042f984                c_print_results__str_10__Verificat
 .rodata.c_print_results__str_11__Version__
                0x000000000042f9b1       0x25 0x1 c_print_results_aarch64.o
                0x000000000042f9b1                c_print_results__str_11__Version__
 .rodata.c_print_results__str_12__Compile_d
                0x000000000042f9d6       0x25 0x1 c_print_results_aarch64.o
                0x000000000042f9d6                c_print_results__str_12__Compile_d
 .rodata.c_print_results__str_13___Compile_
                0x000000000042f9fb       0x14 0x1 c_print_results_aarch64.o
                0x000000000042f9fb                c_print_results__str_13___Compile_
 .rodata.c_print_results__str_14_____CC____
                0x000000000042fa0f       0x17 0x1 c_print_results_aarch64.o
                0x000000000042fa0f                c_print_results__str_14_____CC____
 .rodata.c_print_results__str_15_____CLINK_
                0x000000000042fa26       0x17 0x1 c_print_results_aarch64.o
                0x000000000042fa26                c_print_results__str_15_____CLINK_
 .rodata.c_print_results__str_16_____C_LIB_
                0x000000000042fa3d       0x17 0x1 c_print_results_aarch64.o
                0x000000000042fa3d                c_print_results__str_16_____C_LIB_
 .rodata.c_print_results__str_17_____C_INC_
                0x000000000042fa54       0x17 0x1 c_print_results_aarch64.o
                0x000000000042fa54                c_print_results__str_17_____C_INC_
 .rodata.c_print_results__str_18_____CFLAGS
                0x000000000042fa6b       0x17 0x1 c_print_results_aarch64.o
                0x000000000042fa6b                c_print_results__str_18_____CFLAGS
 .rodata.c_print_results__str_19_____CLINKF
                0x000000000042fa82       0x17 0x1 c_print_results_aarch64.o
                0x000000000042fa82                c_print_results__str_19_____CLINKF
 .rodata.c_print_results__str_20___________
                0x000000000042fa99       0x29 0x1 c_print_results_aarch64.o
                0x000000000042fa99                c_print_results__str_20___________
 .rodata.c_print_results__str_21__Please_se
                0x000000000042fac2       0x27 0x1 c_print_results_aarch64.o
                0x000000000042fac2                c_print_results__str_21__Please_se
 .rodata.c_print_results__str_22__Center_fo
                0x000000000042fae9       0x22 0x1 c_print_results_aarch64.o
                0x000000000042fae9                c_print_results__str_22__Center_fo
 .rodata.c_print_results__str_23__cmp_aces_
                0x000000000042fb0b       0x15 0x1 c_print_results_aarch64.o
                0x000000000042fb0b                c_print_results__str_23__cmp_aces_
 .rodata.c_print_results__str_24__http___ac
                0x000000000042fb20       0x18 0x1 c_print_results_aarch64.o
                0x000000000042fb20                c_print_results__str_24__http___ac
 .rodata.c_print_results__str_25___________
                0x000000000042fb38       0x28 0x1 c_print_results_aarch64.o
                0x000000000042fb38                c_print_results__str_25___________
 .rodata.src_env___libc_start_main__str_
                0x000000000042fb60        0x1 0x1 /usr/local/popcorn/aarch64/lib/libc.a(__libc_start_main.o)
                0x000000000042fb60                src_env___libc_start_main__str_
 .rodata.src_env___libc_start_main___init_libc_pfd_
                0x000000000042fb64       0x18 0x4 /usr/local/popcorn/aarch64/lib/libc.a(__libc_start_main.o)
                0x000000000042fb64                src_env___libc_start_main___init_libc_pfd_
 .rodata.src_env___libc_start_main__str_1__dev_null_
                0x000000000042fb7c        0xa 0x1 /usr/local/popcorn/aarch64/lib/libc.a(__libc_start_main.o)
                0x000000000042fb7c                src_env___libc_start_main__str_1__dev_null_
 .rodata.src_malloc_malloc_c_bin_tab
                0x000000000042fb86       0x3c 0x1 /usr/local/popcorn/aarch64/lib/libc.a(malloc.o)
 .rodata.src_malloc_popcorn_malloc_c_bin_tab
                0x000000000042fbc2       0x3c 0x1 /usr/local/popcorn/aarch64/lib/libc.a(popcorn_malloc.o)
 .rodata.src_math_pow_c_bp
                0x000000000042fc00       0x10 0x8 /usr/local/popcorn/aarch64/lib/libc.a(pow.o)
 .rodata.src_math_pow_c_dp_l
                0x000000000042fc10       0x10 0x8 /usr/local/popcorn/aarch64/lib/libc.a(pow.o)
 .rodata.src_math_pow_c_dp_h
                0x000000000042fc20       0x10 0x8 /usr/local/popcorn/aarch64/lib/libc.a(pow.o)
 .rodata.src_stdio_fopen__str_rwa_
                0x000000000042fc30        0x4 0x1 /usr/local/popcorn/aarch64/lib/libc.a(fopen.o)
                0x000000000042fc30                src_stdio_fopen__str_rwa_
 .rodata.stderr
                0x000000000042fc38        0x8 0x8 /usr/local/popcorn/aarch64/lib/libc.a(stderr.o)
                0x000000000042fc38                stderr
 .rodata.stdout
                0x000000000042fc40        0x8 0x8 /usr/local/popcorn/aarch64/lib/libc.a(stdout.o)
                0x000000000042fc40                stdout
 ** merge constants
                0x000000000042fc50      0x130
 .rodata        0x000000000042fd80       0x20 0x10 /usr/local/popcorn/aarch64/lib/libc.a(vfprintf.o)
 .rodata.printf_core
                0x000000000042fda0      0x170 0x8 /usr/local/popcorn/aarch64/lib/libc.a(vfprintf.o)
 .rodata.pop_arg
                0x000000000042ff10       0x90 0x8 /usr/local/popcorn/aarch64/lib/libc.a(vfprintf.o)
 .rodata.src_stdio_vfprintf_c_states
                0x000000000042ffa0      0x1d0 0x1 /usr/local/popcorn/aarch64/lib/libc.a(vfprintf.o)
 .rodata.src_stdio_vfprintf__str______0X0x_
                0x0000000000430170        0xa 0x1 /usr/local/popcorn/aarch64/lib/libc.a(vfprintf.o)
                0x0000000000430170                src_stdio_vfprintf__str______0X0x_
 .rodata.src_stdio_vfprintf__str_1__null__
                0x000000000043017a        0x7 0x1 /usr/local/popcorn/aarch64/lib/libc.a(vfprintf.o)
                0x000000000043017a                src_stdio_vfprintf__str_1__null__
 .rodata.src_stdio_vfprintf_c_xdigits
                0x0000000000430181       0x10 0x1 /usr/local/popcorn/aarch64/lib/libc.a(vfprintf.o)
 .rodata.src_stdio_vfprintf__str_2__0X_0X_0X_
                0x0000000000430191       0x13 0x1 /usr/local/popcorn/aarch64/lib/libc.a(vfprintf.o)
                0x0000000000430191                src_stdio_vfprintf__str_2__0X_0X_0X_
 .rodata.src_stdio_vfprintf__str_3_inf_
                0x00000000004301a4        0x4 0x1 /usr/local/popcorn/aarch64/lib/libc.a(vfprintf.o)
                0x00000000004301a4                src_stdio_vfprintf__str_3_inf_
 .rodata.src_stdio_vfprintf__str_4_INF_
                0x00000000004301a8        0x4 0x1 /usr/local/popcorn/aarch64/lib/libc.a(vfprintf.o)
                0x00000000004301a8                src_stdio_vfprintf__str_4_INF_
 .rodata.src_stdio_vfprintf__str_5_nan_
                0x00000000004301ac        0x4 0x1 /usr/local/popcorn/aarch64/lib/libc.a(vfprintf.o)
                0x00000000004301ac                src_stdio_vfprintf__str_5_nan_
 .rodata.src_stdio_vfprintf__str_6_NAN_
                0x00000000004301b0        0x4 0x1 /usr/local/popcorn/aarch64/lib/libc.a(vfprintf.o)
                0x00000000004301b0                src_stdio_vfprintf__str_6_NAN_
 .rodata.src_stdio_vfprintf__str_7___
                0x00000000004301b4        0x2 0x1 /usr/local/popcorn/aarch64/lib/libc.a(vfprintf.o)
                0x00000000004301b4                src_stdio_vfprintf__str_7___
 .rodata.vfscanf
                0x00000000004301b8      0x338 0x8 /usr/local/popcorn/aarch64/lib/libc.a(vfscanf.o)
 .rodata.src_stdlib_qsort_qsort_p_
                0x00000000004304f0       0x10 0x8 /usr/local/popcorn/aarch64/lib/libc.a(qsort.o)
                0x00000000004304f0                src_stdlib_qsort_qsort_p_
 .rodata.src_errno_strerror_c_errid
                0x0000000000430500       0x58 0x1 /usr/local/popcorn/aarch64/lib/libc.a(strerror.o)
 .rodata.src_errno_strerror_c_errmsg
                0x0000000000430558      0x70c 0x1 /usr/local/popcorn/aarch64/lib/libc.a(strerror.o)
 ** merge constants
                0x0000000000430c64        0x4
 .rodata.src_internal_floatscan__str_infinity_
                0x0000000000430c68        0x9 0x1 /usr/local/popcorn/aarch64/lib/libc.a(floatscan.o)
                0x0000000000430c68                src_internal_floatscan__str_infinity_
 .rodata.src_internal_floatscan__str_1_nan_
                0x0000000000430c71        0x4 0x1 /usr/local/popcorn/aarch64/lib/libc.a(floatscan.o)
                0x0000000000430c71                src_internal_floatscan__str_1_nan_
 .rodata.src_internal_floatscan_c_decfloat_th
                0x0000000000430c78       0x10 0x4 /usr/local/popcorn/aarch64/lib/libc.a(floatscan.o)
 .rodata.src_internal_floatscan_c_decfloat_p10s
                0x0000000000430c88       0x20 0x4 /usr/local/popcorn/aarch64/lib/libc.a(floatscan.o)
 .rodata.src_internal_intscan_c_table
                0x0000000000430ca8      0x101 0x1 /usr/local/popcorn/aarch64/lib/libc.a(intscan.o)
 .rodata.src_internal_intscan__str__________
                0x0000000000430da9        0x9 0x1 /usr/local/popcorn/aarch64/lib/libc.a(intscan.o)
                0x0000000000430da9                src_internal_intscan__str__________
 .rodata.src_stdio___fdopen__str_rwa_
                0x0000000000430db2        0x4 0x1 /usr/local/popcorn/aarch64/lib/libc.a(__fdopen.o)
                0x0000000000430db2                src_stdio___fdopen__str_rwa_
 .rodata.__fsmu8
                0x0000000000430db8       0xcc 0x4 /usr/local/popcorn/aarch64/lib/libc.a(internal.o)
                0x0000000000430db8                __fsmu8
 .rodata.src_migrate__str_Destinatio
                0x0000000000430e84       0x24 0x1 /usr/local/popcorn/aarch64/lib/libmigrate.a(migrate.o)
                0x0000000000430e84                src_migrate__str_Destinatio
 .rodata.src_migrate__str_1_0_____Unsu
                0x0000000000430ea8       0x21 0x1 /usr/local/popcorn/aarch64/lib/libmigrate.a(migrate.o)
                0x0000000000430ea8                src_migrate__str_1_0_____Unsu
 .rodata.src_migrate__str_2_src_migrat
                0x0000000000430ec9        0xe 0x1 /usr/local/popcorn/aarch64/lib/libmigrate.a(migrate.o)
                0x0000000000430ec9                src_migrate__str_2_src_migrat
 .rodata.src_migrate___func_____migrate_shim_internal___migrate_
                0x0000000000430ed7       0x18 0x1 /usr/local/popcorn/aarch64/lib/libmigrate.a(migrate.o)
                0x0000000000430ed7                src_migrate___func_____migrate_shim_internal___migrate_
 .rodata.src_migrate__str_3_Could_not_
                0x0000000000430eef       0x1a 0x1 /usr/local/popcorn/aarch64/lib/libmigrate.a(migrate.o)
                0x0000000000430eef                src_migrate__str_3_Could_not_
 .rodata.src_migrate__str_4_Could_not_
                0x0000000000430f09       0x1a 0x1 /usr/local/popcorn/aarch64/lib/libmigrate.a(migrate.o)
                0x0000000000430f09                src_migrate__str_4_Could_not_
 .rodata.src_migrate___func___get_thread_pointer_get_thread
                0x0000000000430f23       0x13 0x1 /usr/local/popcorn/aarch64/lib/libmigrate.a(migrate.o)
                0x0000000000430f23                src_migrate___func___get_thread_pointer_get_thread
 .rodata.src_mapping__str_POPCORN_TH
                0x0000000000430f36       0x18 0x1 /usr/local/popcorn/aarch64/lib/libmigrate.a(mapping.o)
                0x0000000000430f36                src_mapping__str_POPCORN_TH
 .rodata.src_mapping__str_1_thread_sch
                0x0000000000430f4e       0x14 0x1 /usr/local/popcorn/aarch64/lib/libmigrate.a(mapping.o)
                0x0000000000430f4e                src_mapping__str_1_thread_sch
 .rodata.src_mapping__str_2_r_
                0x0000000000430f62        0x2 0x1 /usr/local/popcorn/aarch64/lib/libmigrate.a(mapping.o)
                0x0000000000430f62                src_mapping__str_2_r_
 .rodata.src_mapping__str_3__lu__lu_
                0x0000000000430f64        0x8 0x1 /usr/local/popcorn/aarch64/lib/libmigrate.a(mapping.o)
                0x0000000000430f64                src_mapping__str_3__lu__lu_
 .rodata.src_mapping__str_4__d_
                0x0000000000430f6c        0x3 0x1 /usr/local/popcorn/aarch64/lib/libmigrate.a(mapping.o)
                0x0000000000430f6c                src_mapping__str_4__d_
 .rodata.src_userspace__str_ST_AARCH64
                0x0000000000430f6f        0xf 0x1 /usr/local/popcorn/aarch64/lib/libstack-transform.a(userspace.o)
                0x0000000000430f6f                src_userspace__str_ST_AARCH64
 .rodata.src_userspace__str_1__s_aarch64
                0x0000000000430f7e        0xb 0x1 /usr/local/popcorn/aarch64/lib/libstack-transform.a(userspace.o)
                0x0000000000430f7e                src_userspace__str_1__s_aarch64
 .rodata.src_userspace__str_2_ST_POWERPC
                0x0000000000430f89       0x11 0x1 /usr/local/popcorn/aarch64/lib/libstack-transform.a(userspace.o)
                0x0000000000430f89                src_userspace__str_2_ST_POWERPC
 .rodata.src_userspace__str_3__s_powerpc
                0x0000000000430f9a        0xd 0x1 /usr/local/popcorn/aarch64/lib/libstack-transform.a(userspace.o)
                0x0000000000430f9a                src_userspace__str_3__s_powerpc
 .rodata.src_userspace__str_4_ST_X86_64_
                0x0000000000430fa7        0xe 0x1 /usr/local/popcorn/aarch64/lib/libstack-transform.a(userspace.o)
                0x0000000000430fa7                src_userspace__str_4_ST_X86_64_
 .rodata.src_userspace__str_5__s_x86_64_
                0x0000000000430fb5        0xa 0x1 /usr/local/popcorn/aarch64/lib/libstack-transform.a(userspace.o)
                0x0000000000430fb5                src_userspace__str_5__s_x86_64_
 .rodata.src_userspace__str_6__proc__d_m
                0x0000000000430fbf        0xe 0x1 /usr/local/popcorn/aarch64/lib/libstack-transform.a(userspace.o)
                0x0000000000430fbf                src_userspace__str_6__proc__d_m
 .rodata.src_userspace__str_7_r_
                0x0000000000430fcd        0x2 0x1 /usr/local/popcorn/aarch64/lib/libstack-transform.a(userspace.o)
                0x0000000000430fcd                src_userspace__str_7_r_
 .rodata.src_userspace__str_8__lx__lx__s
                0x0000000000430fcf       0x19 0x1 /usr/local/popcorn/aarch64/lib/libstack-transform.a(userspace.o)
                0x0000000000430fcf                src_userspace__str_8__lx__lx(short)
 .rodata.src_userspace__str_9__stack__
                0x0000000000430fe8        0x8 0x1 /usr/local/popcorn/aarch64/lib/libstack-transform.a(userspace.o)
                0x0000000000430fe8                src_userspace__str_9__stack__
 .rodata.src_userspace_switch_table_10_
                0x0000000000430ff0       0x18 0x10 /usr/local/popcorn/aarch64/lib/libstack-transform.a(userspace.o)
                0x0000000000430ff0                src_userspace_switch_table_10_
 .rodata.src_init__str__stack_tra
                0x0000000000431008       0x1f 0x1 /usr/local/popcorn/aarch64/lib/libstack-transform.a(init.o)
                0x0000000000431008                src_init__str__stack_tra
 .rodata.src_init__str_1__stack_tra
                0x0000000000431027       0x18 0x1 /usr/local/popcorn/aarch64/lib/libstack-transform.a(init.o)
                0x0000000000431027                src_init__str_1__stack_tra
 .rodata.src_init__str_2__stack_tra
                0x000000000043103f       0x14 0x1 /usr/local/popcorn/aarch64/lib/libstack-transform.a(init.o)
                0x000000000043103f                src_init__str_2__stack_tra
 .rodata.src_init__str_3__stack_tra
                0x0000000000431053       0x16 0x1 /usr/local/popcorn/aarch64/lib/libstack-transform.a(init.o)
                0x0000000000431053                src_init__str_3__stack_tra
 .rodata.src_init__str_4__stack_tra
                0x0000000000431069       0x16 0x1 /usr/local/popcorn/aarch64/lib/libstack-transform.a(init.o)
                0x0000000000431069                src_init__str_4__stack_tra
 .rodata.src_init__str_5__stack_tra
                0x000000000043107f       0x1c 0x1 /usr/local/popcorn/aarch64/lib/libstack-transform.a(init.o)
                0x000000000043107f                src_init__str_5__stack_tra
 .rodata.src_rewrite__str__src_rewri
                0x000000000043109b       0x42 0x1 /usr/local/popcorn/aarch64/lib/libstack-transform.a(rewrite.o)
                0x000000000043109b                src_rewrite__str__src_rewri
 .rodata.src_rewrite__str_1__src_rewri
                0x00000000004310dd       0x68 0x1 /usr/local/popcorn/aarch64/lib/libstack-transform.a(rewrite.o)
                0x00000000004310dd                src_rewrite__str_1__src_rewri
 .rodata.src_rewrite__str_2__src_rewri
                0x0000000000431145       0x54 0x1 /usr/local/popcorn/aarch64/lib/libstack-transform.a(rewrite.o)
                0x0000000000431145                src_rewrite__str_2__src_rewri
 .rodata.src_rewrite__str_3__src_rewri
                0x0000000000431199       0x61 0x1 /usr/local/popcorn/aarch64/lib/libstack-transform.a(rewrite.o)
                0x0000000000431199                src_rewrite__str_3__src_rewri
 .rodata.src_util__str_aarch64_
                0x00000000004311fa        0x8 0x1 /usr/local/popcorn/aarch64/lib/libstack-transform.a(util.o)
                0x00000000004311fa                src_util__str_aarch64_
 .rodata.src_util__str_1_powerpc64_
                0x0000000000431202        0xa 0x1 /usr/local/popcorn/aarch64/lib/libstack-transform.a(util.o)
                0x0000000000431202                src_util__str_1_powerpc64_
 .rodata.src_util__str_2_x86_64_
                0x000000000043120c        0x7 0x1 /usr/local/popcorn/aarch64/lib/libstack-transform.a(util.o)
                0x000000000043120c                src_util__str_2_x86_64_
 .rodata.src_util__str_3_unknown_un
                0x0000000000431213       0x21 0x1 /usr/local/popcorn/aarch64/lib/libstack-transform.a(util.o)
                0x0000000000431213                src_util__str_3_unknown_un
 .rodata.src_arch_aarch64_properties_c_callee_saved_aarch64
                0x0000000000431234       0x28 0x2 /usr/local/popcorn/aarch64/lib/libstack-transform.a(properties.o)
 .rodata.src_arch_aarch64_properties_c_callee_saved_size_aarch64
                0x000000000043125c       0x28 0x2 /usr/local/popcorn/aarch64/lib/libstack-transform.a(properties.o)
 .rodata.properties_aarch64
                0x0000000000431288       0x38 0x8 /usr/local/popcorn/aarch64/lib/libstack-transform.a(properties.o)
                0x0000000000431288                properties_aarch64
 .rodata.src_arch_aarch64_properties__str__src_arch_
                0x00000000004312c0       0x51 0x1 /usr/local/popcorn/aarch64/lib/libstack-transform.a(properties.o)
                0x00000000004312c0                src_arch_aarch64_properties__str__src_arch_
 .rodata.reg_aarch64
                0x0000000000431318      0x300 0x8 /usr/local/popcorn/aarch64/lib/libstack-transform.a(regs.o)
 .rodata.regs_aarch64
                0x0000000000431618       0xa8 0x8 /usr/local/popcorn/aarch64/lib/libstack-transform.a(regs.o)
                0x0000000000431618                regs_aarch64
 .rodata.src_arch_aarch64_regs__str__src_arch_
                0x00000000004316c0       0x4c 0x1 /usr/local/popcorn/aarch64/lib/libstack-transform.a(regs.o)
                0x00000000004316c0                src_arch_aarch64_regs__str__src_arch_
 .rodata.src_arch_aarch64_regs__str_1__src_arch_
                0x000000000043170c       0x4c 0x1 /usr/local/popcorn/aarch64/lib/libstack-transform.a(regs.o)
                0x000000000043170c                src_arch_aarch64_regs__str_1__src_arch_
 .rodata.is_callee_saved_powerpc64
                0x0000000000431758      0x208 0x8 /usr/local/popcorn/aarch64/lib/libstack-transform.a(properties.o)
 .rodata.callee_reg_size_powerpc64
                0x0000000000431960      0x210 0x8 /usr/local/popcorn/aarch64/lib/libstack-transform.a(properties.o)
 .rodata.src_arch_powerpc64_properties_c_callee_saved_powerpc64
                0x0000000000431b70       0x4e 0x2 /usr/local/popcorn/aarch64/lib/libstack-transform.a(properties.o)
 .rodata.src_arch_powerpc64_properties_c_callee_saved_size_powerpc64
                0x0000000000431bbe       0x4c 0x2 /usr/local/popcorn/aarch64/lib/libstack-transform.a(properties.o)
 .rodata.properties_powerpc64
                0x0000000000431c10       0x38 0x8 /usr/local/popcorn/aarch64/lib/libstack-transform.a(properties.o)
                0x0000000000431c10                properties_powerpc64
 .rodata.src_arch_powerpc64_properties__str__src_arch_
                0x0000000000431c48       0x56 0x1 /usr/local/popcorn/aarch64/lib/libstack-transform.a(properties.o)
                0x0000000000431c48                src_arch_powerpc64_properties__str__src_arch_
 .rodata.reg_powerpc64
                0x0000000000431ca0      0x218 0x8 /usr/local/popcorn/aarch64/lib/libstack-transform.a(regs.o)
 .rodata.regs_powerpc64
                0x0000000000431eb8       0xa8 0x8 /usr/local/popcorn/aarch64/lib/libstack-transform.a(regs.o)
                0x0000000000431eb8                regs_powerpc64
 .rodata.src_arch_powerpc64_regs__str__src_arch_
                0x0000000000431f60       0x50 0x1 /usr/local/popcorn/aarch64/lib/libstack-transform.a(regs.o)
                0x0000000000431f60                src_arch_powerpc64_regs__str__src_arch_
 .rodata.src_arch_powerpc64_regs__str_1__src_arch_
                0x0000000000431fb0       0x50 0x1 /usr/local/popcorn/aarch64/lib/libstack-transform.a(regs.o)
                0x0000000000431fb0                src_arch_powerpc64_regs__str_1__src_arch_
 .rodata.src_arch_x86_64_properties_c_callee_saved_x86_64
                0x0000000000432000        0xe 0x2 /usr/local/popcorn/aarch64/lib/libstack-transform.a(properties.o)
 .rodata.src_arch_x86_64_properties_c_callee_saved_size_x86_64
                0x000000000043200e        0xe 0x2 /usr/local/popcorn/aarch64/lib/libstack-transform.a(properties.o)
 .rodata.properties_x86_64
                0x0000000000432020       0x38 0x8 /usr/local/popcorn/aarch64/lib/libstack-transform.a(properties.o)
                0x0000000000432020                properties_x86_64
 .rodata.src_arch_x86_64_properties__str__src_arch_
                0x0000000000432058       0x4f 0x1 /usr/local/popcorn/aarch64/lib/libstack-transform.a(properties.o)
                0x0000000000432058                src_arch_x86_64_properties__str__src_arch_
 .rodata.reg_x86_64
                0x00000000004320a8      0x108 0x8 /usr/local/popcorn/aarch64/lib/libstack-transform.a(regs.o)
 .rodata.regs_x86_64
                0x00000000004321b0       0xa8 0x8 /usr/local/popcorn/aarch64/lib/libstack-transform.a(regs.o)
                0x00000000004321b0                regs_x86_64
 .rodata.src_arch_x86_64_regs__str__src_arch_
                0x0000000000432258       0x4b 0x1 /usr/local/popcorn/aarch64/lib/libstack-transform.a(regs.o)
                0x0000000000432258                src_arch_x86_64_regs__str__src_arch_
 .rodata.src_arch_x86_64_regs__str_1__src_arch_
                0x00000000004322a3       0x4b 0x1 /usr/local/popcorn/aarch64/lib/libstack-transform.a(regs.o)
                0x00000000004322a3                src_arch_x86_64_regs__str_1__src_arch_
 .rodata.src_arch_x86_64_regs__str_2__src_arch_
                0x00000000004322ee       0x4a 0x1 /usr/local/popcorn/aarch64/lib/libstack-transform.a(regs.o)
                0x00000000004322ee                src_arch_x86_64_regs__str_2__src_arch_
 .rodata.src_arch_x86_64_regs__str_3__src_arch_
                0x0000000000432338       0x4a 0x1 /usr/local/popcorn/aarch64/lib/libstack-transform.a(regs.o)
                0x0000000000432338                src_arch_x86_64_regs__str_3__src_arch_
 .rodata.put_val_arch
                0x0000000000432388       0xb0 0x8 /usr/local/popcorn/aarch64/lib/libstack-transform.a(data.o)
 .rodata.points_to_stack
                0x0000000000432438       0x28 0x8 /usr/local/popcorn/aarch64/lib/libstack-transform.a(data.o)
 .rodata.src_data__str__src_data_
                0x0000000000432460       0x50 0x1 /usr/local/popcorn/aarch64/lib/libstack-transform.a(data.o)
                0x0000000000432460                src_data__str__src_data_
 .rodata.src_data__str_1__src_data_
                0x00000000004324b0       0x3d 0x1 /usr/local/popcorn/aarch64/lib/libstack-transform.a(data.o)
                0x00000000004324b0                src_data__str_1__src_data_
 .rodata.src_data__str_2__src_data_
                0x00000000004324ed       0x30 0x1 /usr/local/popcorn/aarch64/lib/libstack-transform.a(data.o)
                0x00000000004324ed                src_data__str_2__src_data_
 .rodata.src_data__str_3__src_data_
                0x000000000043251d       0x49 0x1 /usr/local/popcorn/aarch64/lib/libstack-transform.a(data.o)
                0x000000000043251d                src_data__str_3__src_data_
 .rodata.src_data__str_4__src_data_
                0x0000000000432566       0x3f 0x1 /usr/local/popcorn/aarch64/lib/libstack-transform.a(data.o)
                0x0000000000432566                src_data__str_4__src_data_
 .rodata.src_data__str_5__src_data_
                0x00000000004325a5       0x3d 0x1 /usr/local/popcorn/aarch64/lib/libstack-transform.a(data.o)
                0x00000000004325a5                src_data__str_5__src_data_
 .rodata.src_data__str_6__src_data_
                0x00000000004325e2       0x3f 0x1 /usr/local/popcorn/aarch64/lib/libstack-transform.a(data.o)
                0x00000000004325e2                src_data__str_6__src_data_
 .rodata.src_data__str_7__src_data_
                0x0000000000432621       0x37 0x1 /usr/local/popcorn/aarch64/lib/libstack-transform.a(data.o)
                0x0000000000432621                src_data__str_7__src_data_
 .rodata.src_data__str_8__src_data_
                0x0000000000432658       0x37 0x1 /usr/local/popcorn/aarch64/lib/libstack-transform.a(data.o)
                0x0000000000432658                src_data__str_8__src_data_
 .rodata.src_data__str_9__src_data_
                0x000000000043268f       0x3f 0x1 /usr/local/popcorn/aarch64/lib/libstack-transform.a(data.o)
                0x000000000043268f                src_data__str_9__src_data_
 .rodata.src_data__str_10__src_data_
                0x00000000004326ce       0x3f 0x1 /usr/local/popcorn/aarch64/lib/libstack-transform.a(data.o)
                0x00000000004326ce                src_data__str_10__src_data_
 .rodata.elf_begin
                0x0000000000432710       0x40 0x8 /usr/local/popcorn/aarch64/lib/libelf.a(begin.o)
 .rodata.begin_c__elf_init
                0x0000000000432750       0xe0 0x8 /usr/local/popcorn/aarch64/lib/libelf.a(begin.o)
 .rodata.begin_c_fmag
                0x0000000000432830        0x3 0x1 /usr/local/popcorn/aarch64/lib/libelf.a(begin.o)
 .rodata.begin__str__ELF_
                0x0000000000432833        0x5 0x1 /usr/local/popcorn/aarch64/lib/libelf.a(begin.o)
                0x0000000000432833                begin__str__ELF_
 .rodata.begin__str_1___arch___
                0x0000000000432838        0x9 0x1 /usr/local/popcorn/aarch64/lib/libelf.a(begin.o)
                0x0000000000432838                begin__str_1___arch___
 .rodata.version__str_LIBELF_SAN
                0x0000000000432841       0x15 0x1 /usr/local/popcorn/aarch64/lib/libelf.a(version.o)
                0x0000000000432841                version__str_LIBELF_SAN
 .rodata.32_xlatetof_c_xlate32_11
                0x0000000000432858      0x220 0x8 /usr/local/popcorn/aarch64/lib/libelf.a(32.xlatetof.o)
 .rodata._elf_scn_type
                0x0000000000432a78       0x88 0x8 /usr/local/popcorn/aarch64/lib/libelf.a(cook.o)
 .rodata._elf_cook
                0x0000000000432b00      0x110 0x8 /usr/local/popcorn/aarch64/lib/libelf.a(cook.o)
 .rodata._elf_scn_init
                0x0000000000432c10       0xa0 0x8 /usr/local/popcorn/aarch64/lib/libelf.a(cook.o)
                0x0000000000432c10                _elf_scn_init
 .rodata._elf_data_init
                0x0000000000432cb0       0x58 0x8 /usr/local/popcorn/aarch64/lib/libelf.a(cook.o)
                0x0000000000432cb0                _elf_data_init
 .rodata.64_xlatetof_c_xlate64_11
                0x0000000000432d08      0x220 0x8 /usr/local/popcorn/aarch64/lib/libelf.a(64.xlatetof.o)
 .rodata._elf_fmsize
                0x0000000000432f28      0x220 0x8 /usr/local/popcorn/aarch64/lib/libelf.a(32.fsize.o)
                0x0000000000432f28                _elf_fmsize
 .rodata.src_exit_assert__str_Assertion_
                0x0000000000433148       0x23 0x1 /usr/local/popcorn/aarch64/lib/libc.a(assert.o)
                0x0000000000433148                src_exit_assert__str_Assertion_
 .rodata.src_signal_block_c_all_mask
                0x0000000000433170        0x8 0x8 /usr/local/popcorn/aarch64/lib/libc.a(block.o)
 .rodata.src_signal_block_c_app_mask
                0x0000000000433178        0x8 0x8 /usr/local/popcorn/aarch64/lib/libc.a(block.o)
 .rodata        0x0000000000433180        0xf 0x4 /usr/lib/gcc-cross/aarch64-linux-gnu/6/libgcc.a(divtf3.o)
 .rodata        0x0000000000433190        0xf 0x4 /usr/lib/gcc-cross/aarch64-linux-gnu/6/libgcc.a(multf3.o)

.llvm_stackmaps
                0x00000000004331a0    0x13240
 .llvm_stackmaps
                0x00000000004331a0     0x1768 0x8 dc_aarch64.o
 .llvm_stackmaps
                0x0000000000434908     0x4778 0x8 adc_aarch64.o
 .llvm_stackmaps
                0x0000000000439080     0x7390 0x8 extbuild_aarch64.o
 .llvm_stackmaps
                0x0000000000440410     0x2be0 0x8 jobcntl_aarch64.o
 .llvm_stackmaps
                0x0000000000442ff0      0xc90 0x8 rbt_aarch64.o
 .llvm_stackmaps
                0x0000000000443c80      0x288 0x8 c_timers_aarch64.o
 .llvm_stackmaps
                0x0000000000443f08      0xf70 0x8 print_results_aarch64.o
 .llvm_stackmaps
                0x0000000000444e78      0x110 0x8 randdp_aarch64.o
 .llvm_stackmaps
                0x0000000000444f88      0xcc8 0x8 c_print_results_aarch64.o
 .llvm_stackmaps
                0x0000000000445c50       0xa8 0x8 wtime_aarch64.o
 .llvm_stackmaps
                0x0000000000445cf8       0x48 0x8 /usr/local/popcorn/aarch64/lib/libc.a(__libc_start_main.o)
 .llvm_stackmaps
                0x0000000000445d40      0x428 0x8 /usr/local/popcorn/aarch64/lib/libmigrate.a(migrate.o)
 .llvm_stackmaps
                0x0000000000446168      0x278 0x8 /usr/local/popcorn/aarch64/lib/libmigrate.a(mapping.o)

.eh_frame       0x00000000004463e0      0xc60
 ** eh_frame    0x00000000004463e0      0xc60

.tbss           0x000000000045ff98    0xde0b0
 .tbss.src_userspace_c_bounds
                0x000000000045ff98       0x10 0x8 /usr/local/popcorn/aarch64/lib/libstack-transform.a(userspace.o)
 .tbss.src_rewrite_c_src_ctx
                0x000000000045ffa8     0xb050 0x8 /usr/local/popcorn/aarch64/lib/libstack-transform.a(rewrite.o)
 .tbss.src_rewrite_c_src_regs
                0x000000000046aff8    0x62000 0x1 /usr/local/popcorn/aarch64/lib/libstack-transform.a(rewrite.o)
 .tbss.src_rewrite_c_src_callee
                0x00000000004ccff8     0x2000 0x1 /usr/local/popcorn/aarch64/lib/libstack-transform.a(rewrite.o)
 .tbss.src_rewrite_c_dest_ctx
                0x00000000004ceff8     0xb050 0x8 /usr/local/popcorn/aarch64/lib/libstack-transform.a(rewrite.o)
 .tbss.src_rewrite_c_dest_regs
                0x00000000004da048    0x62000 0x1 /usr/local/popcorn/aarch64/lib/libstack-transform.a(rewrite.o)
 .tbss.src_rewrite_c_dest_callee
                0x000000000053c048     0x2000 0x1 /usr/local/popcorn/aarch64/lib/libstack-transform.a(rewrite.o)

.data.rel.ro.local
                0x000000000045ff98       0x28
 .data.rel.ro.local
                0x000000000045ff98       0x10 0x8 /usr/local/popcorn/aarch64/lib/libc.a(__libc_start_main.o)
 .data.rel.ro.local
                0x000000000045ffa8       0x10 0x8 /usr/local/popcorn/aarch64/lib/libc.a(exit.o)
 .data.rel.ro.local
                0x000000000045ffb8        0x8 0x8 /usr/local/popcorn/aarch64/lib/libc.a(__init_tls.o)

.data.rel.ro    0x000000000045ffc0       0x10
 .data.rel.ro   0x000000000045ffc0       0x10 0x8 /usr/local/popcorn/aarch64/lib/crt1.o

.init_array     0x000000000045ffd0       0x28
 .init_array    0x000000000045ffd0        0x8 0x8 /usr/local/popcorn/aarch64/lib/libc.a(malloc.o)
 .init_array    0x000000000045ffd8        0x8 0x8 /usr/local/popcorn/aarch64/lib/libc.a(popcorn_malloc.o)
 .init_array    0x000000000045ffe0        0x8 0x8 /usr/local/popcorn/aarch64/lib/libmigrate.a(migrate.o)
 .init_array    0x000000000045ffe8        0x8 0x8 /usr/local/popcorn/aarch64/lib/libmigrate.a(mapping.o)
 .init_array    0x000000000045fff0        0x8 0x8 /usr/local/popcorn/aarch64/lib/libstack-transform.a(init.o)

.fini_array     0x000000000045fff8        0x8
 .fini_array    0x000000000045fff8        0x8 0x8 /usr/local/popcorn/aarch64/lib/libmigrate.a(mapping.o)

.data           0x0000000000460000      0x628
 .data          0x0000000000460000        0x0 0x4 dc_aarch64.o
 .data.input_tuples
                0x0000000000460000        0x8 0x8 dc_aarch64.o
                0x0000000000460000                input_tuples
 .data.attrnum  0x0000000000460008        0x8 0x8 dc_aarch64.o
                0x0000000000460008                attrnum
 .data.checksumS
                0x0000000000460010        0x8 0x8 dc_aarch64.o
                0x0000000000460010                checksumS
 .data.checksumWlo
                0x0000000000460018        0x8 0x8 dc_aarch64.o
                0x0000000000460018                checksumWlo
 .data.checksumWhi
                0x0000000000460020        0x8 0x8 dc_aarch64.o
                0x0000000000460020                checksumWhi
 .data.checksumAlo
                0x0000000000460028        0x8 0x8 dc_aarch64.o
                0x0000000000460028                checksumAlo
 .data.checksumAhi
                0x0000000000460030        0x8 0x8 dc_aarch64.o
                0x0000000000460030                checksumAhi
 .data.checksumBlo
                0x0000000000460038        0x8 0x8 dc_aarch64.o
                0x0000000000460038                checksumBlo
 .data.checksumBhi
                0x0000000000460040        0x8 0x8 dc_aarch64.o
                0x0000000000460040                checksumBhi
 .data          0x0000000000460048        0x0 0x4 adc_aarch64.o
 .data.adcprime
                0x0000000000460050       0xa0 0x10 adc_aarch64.o
                0x0000000000460050                adcprime
 .data.LARGE_NUM
                0x00000000004600f0        0x8 0x8 adc_aarch64.o
                0x00000000004600f0                LARGE_NUM
 .data.maxprmfctr
                0x00000000004600f8        0x8 0x8 adc_aarch64.o
                0x00000000004600f8                maxprmfctr
 .data.adcexp   0x0000000000460100       0xa0 0x10 adc_aarch64.o
                0x0000000000460100                adcexp
 .data.adcexpS  0x00000000004601a0       0x28 0x10 adc_aarch64.o
                0x00000000004601a0                adcexpS
 .data.adcexpW  0x00000000004601d0       0x50 0x10 adc_aarch64.o
                0x00000000004601d0                adcexpW
 .data.adcexpA  0x0000000000460220       0x78 0x10 adc_aarch64.o
                0x0000000000460220                adcexpA
 .data.adcexpB  0x00000000004602a0       0xa0 0x10 adc_aarch64.o
                0x00000000004602a0                adcexpB
 .data.UpPrimeLim
                0x0000000000460340        0x8 0x8 adc_aarch64.o
                0x0000000000460340                UpPrimeLim
 .data.adc_c_adcKeyword
                0x0000000000460350       0x38 0x10 adc_aarch64.o
 .data.adcgen   0x0000000000460390       0xa0 0x10 adc_aarch64.o
                0x0000000000460390                adcgen
 .data.adc_c_GetNextTuple_measbound
                0x0000000000460430        0x4 0x4 adc_aarch64.o
 .data          0x0000000000460434        0x0 0x4 extbuild_aarch64.o
 .data.extbuild_c_measbound
                0x0000000000460434        0x4 0x4 extbuild_aarch64.o
 .data          0x0000000000460438        0x0 0x4 jobcntl_aarch64.o
 .data          0x0000000000460438        0x0 0x4 rbt_aarch64.o
 .data.rbt_c_measbound
                0x0000000000460438        0x4 0x4 rbt_aarch64.o
 .data          0x000000000046043c        0x0 0x4 c_timers_aarch64.o
 .data          0x000000000046043c        0x0 0x4 print_results_aarch64.o
 .data          0x000000000046043c        0x0 0x4 randdp_aarch64.o
 .data          0x000000000046043c        0x0 0x4 c_print_results_aarch64.o
 .data          0x000000000046043c        0x0 0x4 wtime_aarch64.o
 .data.wtime_c_wtime__sec
                0x000000000046043c        0x4 0x4 wtime_aarch64.o
 .data          0x0000000000460440        0x0 0x4 /usr/local/popcorn/aarch64/lib/crt1.o
 .data          0x0000000000460440        0x0 0x4 /usr/local/popcorn/aarch64/lib/libc.a(isdigit.o)
 .data          0x0000000000460440        0x0 0x4 /usr/local/popcorn/aarch64/lib/libc.a(__libc_start_main.o)
 .data          0x0000000000460440        0x0 0x4 /usr/local/popcorn/aarch64/lib/libc.a(__errno_location.o)
 .data          0x0000000000460440        0x0 0x4 /usr/local/popcorn/aarch64/lib/libc.a(exit.o)
 .data          0x0000000000460440        0x0 0x4 /usr/local/popcorn/aarch64/lib/libc.a(libc.o)
 .data          0x0000000000460440        0x0 0x4 /usr/local/popcorn/aarch64/lib/libc.a(calloc.o)
 .data          0x0000000000460440        0x0 0x4 /usr/local/popcorn/aarch64/lib/libc.a(lite_malloc.o)
 .data          0x0000000000460440        0x0 0x4 /usr/local/popcorn/aarch64/lib/libc.a(malloc.o)
 .data          0x0000000000460440        0x0 0x4 /usr/local/popcorn/aarch64/lib/libc.a(popcorn_malloc.o)
 .data          0x0000000000460440        0x0 0x4 /usr/local/popcorn/aarch64/lib/libc.a(pow.o)
 .data          0x0000000000460440        0x0 0x4 /usr/local/popcorn/aarch64/lib/libc.a(scalbn.o)
 .data          0x0000000000460440        0x0 0x4 /usr/local/popcorn/aarch64/lib/libc.a(madvise.o)
 .data          0x0000000000460440        0x0 0x4 /usr/local/popcorn/aarch64/lib/libc.a(mmap.o)
 .data          0x0000000000460440        0x0 0x4 /usr/local/popcorn/aarch64/lib/libc.a(mremap.o)
 .data          0x0000000000460440        0x0 0x4 /usr/local/popcorn/aarch64/lib/libc.a(munmap.o)
 .data          0x0000000000460440        0x0 0x4 /usr/local/popcorn/aarch64/lib/libc.a(fclose.o)
 .data          0x0000000000460440        0x0 0x4 /usr/local/popcorn/aarch64/lib/libc.a(fflush.o)
 .data          0x0000000000460440        0x0 0x4 /usr/local/popcorn/aarch64/lib/libc.a(fgets.o)
 .data          0x0000000000460440        0x0 0x4 /usr/local/popcorn/aarch64/lib/libc.a(fopen.o)
 .data          0x0000000000460440        0x0 0x4 /usr/local/popcorn/aarch64/lib/libc.a(fprintf.o)
 .data          0x0000000000460440        0x0 0x4 /usr/local/popcorn/aarch64/lib/libc.a(fread.o)
 .data          0x0000000000460440        0x0 0x4 /usr/local/popcorn/aarch64/lib/libc.a(fscanf.o)
 .data          0x0000000000460440        0x0 0x4 /usr/local/popcorn/aarch64/lib/libc.a(fseek.o)
 .data          0x0000000000460440        0x0 0x4 /usr/local/popcorn/aarch64/lib/libc.a(ftell.o)
 .data          0x0000000000460440        0x0 0x4 /usr/local/popcorn/aarch64/lib/libc.a(fwrite.o)
 .data          0x0000000000460440        0x0 0x4 /usr/local/popcorn/aarch64/lib/libc.a(ofl.o)
 .data          0x0000000000460440        0x0 0x4 /usr/local/popcorn/aarch64/lib/libc.a(printf.o)
 .data          0x0000000000460440        0x0 0x4 /usr/local/popcorn/aarch64/lib/libc.a(sprintf.o)
 .data          0x0000000000460440        0x0 0x4 /usr/local/popcorn/aarch64/lib/libc.a(sscanf.o)
 .data          0x0000000000460440        0x0 0x4 /usr/local/popcorn/aarch64/lib/libc.a(stderr.o)
 .data.src_stdio_stderr_c_f
                0x0000000000460440       0xe8 0x8 /usr/local/popcorn/aarch64/lib/libc.a(stderr.o)
 .data.__stderr_used
                0x0000000000460528        0x8 0x8 /usr/local/popcorn/aarch64/lib/libc.a(stderr.o)
                0x0000000000460528                __stderr_used
 .data          0x0000000000460530        0x0 0x4 /usr/local/popcorn/aarch64/lib/libc.a(stdout.o)
 .data.src_stdio_stdout_c_f
                0x0000000000460530       0xe8 0x8 /usr/local/popcorn/aarch64/lib/libc.a(stdout.o)
 .data.__stdout_used
                0x0000000000460618        0x8 0x8 /usr/local/popcorn/aarch64/lib/libc.a(stdout.o)
                0x0000000000460618                __stdout_used
 .data          0x0000000000460620        0x0 0x4 /usr/local/popcorn/aarch64/lib/libc.a(vfprintf.o)
 .data          0x0000000000460620        0x0 0x4 /usr/local/popcorn/aarch64/lib/libc.a(vfscanf.o)
 .data          0x0000000000460620        0x0 0x4 /usr/local/popcorn/aarch64/lib/libc.a(vsprintf.o)
 .data          0x0000000000460620        0x0 0x4 /usr/local/popcorn/aarch64/lib/libc.a(vsscanf.o)
 .data          0x0000000000460620        0x0 0x4 /usr/local/popcorn/aarch64/lib/libc.a(atoi.o)
 .data          0x0000000000460620        0x0 0x4 /usr/local/popcorn/aarch64/lib/libc.a(qsort.o)
 .data          0x0000000000460620        0x0 0x4 /usr/local/popcorn/aarch64/lib/libc.a(memchr.o)
 .data          0x0000000000460620        0x0 0x4 /usr/local/popcorn/aarch64/lib/libc.a(memcpy.o)
 .data          0x0000000000460620        0x0 0x4 /usr/local/popcorn/aarch64/lib/libc.a(memset.o)
 .data          0x0000000000460620        0x0 0x4 /usr/local/popcorn/aarch64/lib/libc.a(strcat.o)
 .data          0x0000000000460620        0x0 0x4 /usr/local/popcorn/aarch64/lib/libc.a(strchr.o)
 .data          0x0000000000460620        0x0 0x4 /usr/local/popcorn/aarch64/lib/libc.a(strchrnul.o)
 .data          0x0000000000460620        0x0 0x4 /usr/local/popcorn/aarch64/lib/libc.a(strcmp.o)
 .data          0x0000000000460620        0x0 0x4 /usr/local/popcorn/aarch64/lib/libc.a(strcpy.o)
 .data          0x0000000000460620        0x0 0x4 /usr/local/popcorn/aarch64/lib/libc.a(strlen.o)
 .data          0x0000000000460620        0x0 0x4 /usr/local/popcorn/aarch64/lib/libc.a(strnlen.o)
 .data          0x0000000000460620        0x0 0x4 /usr/local/popcorn/aarch64/lib/libc.a(strstr.o)
 .data          0x0000000000460620        0x0 0x4 /usr/local/popcorn/aarch64/lib/libc.a(__lock.o)
 .data          0x0000000000460620        0x0 0x4 /usr/local/popcorn/aarch64/lib/libc.a(__wait.o)
 .data          0x0000000000460620        0x0 0x4 /usr/local/popcorn/aarch64/lib/libc.a(gettimeofday.o)
 .data          0x0000000000460620        0x0 0x4 /usr/local/popcorn/aarch64/lib/libc.a(unlink.o)
 .data          0x0000000000460620        0x0 0x4 /usr/local/popcorn/aarch64/lib/libc.a(__environ.o)
 .data          0x0000000000460620        0x0 0x4 /usr/local/popcorn/aarch64/lib/libc.a(__init_tls.o)
 .data          0x0000000000460620        0x0 0x4 /usr/local/popcorn/aarch64/lib/libc.a(platform.o)
 .data          0x0000000000460620        0x0 0x4 /usr/local/popcorn/aarch64/lib/libc.a(strerror.o)
 .data          0x0000000000460620        0x0 0x4 /usr/local/popcorn/aarch64/lib/libc.a(_Exit.o)
 .data          0x0000000000460620        0x0 0x4 /usr/local/popcorn/aarch64/lib/libc.a(floatscan.o)
 .data          0x0000000000460620        0x0 0x4 /usr/local/popcorn/aarch64/lib/libc.a(intscan.o)
 .data          0x0000000000460620        0x0 0x4 /usr/local/popcorn/aarch64/lib/libc.a(shgetc.o)
 .data          0x0000000000460620        0x0 0x4 /usr/local/popcorn/aarch64/lib/libc.a(syscall_ret.o)
 .data          0x0000000000460620        0x0 0x4 /usr/local/popcorn/aarch64/lib/libc.a(__lctrans.o)
 .data          0x0000000000460620        0x0 0x4 /usr/local/popcorn/aarch64/lib/libc.a(expand_heap.o)
 .data          0x0000000000460620        0x0 0x4 /usr/local/popcorn/aarch64/lib/libc.a(__fpclassifyl.o)
 .data          0x0000000000460620        0x0 0x4 /usr/local/popcorn/aarch64/lib/libc.a(__signbitl.o)
 .data          0x0000000000460620        0x0 0x4 /usr/local/popcorn/aarch64/lib/libc.a(fabs.o)
 .data          0x0000000000460620        0x0 0x4 /usr/local/popcorn/aarch64/lib/libc.a(sqrt.o)
 .data          0x0000000000460620        0x0 0x4 /usr/local/popcorn/aarch64/lib/libc.a(copysignl.o)
 .data          0x0000000000460620        0x0 0x4 /usr/local/popcorn/aarch64/lib/libc.a(fmodl.o)
 .data          0x0000000000460620        0x0 0x4 /usr/local/popcorn/aarch64/lib/libc.a(frexpl.o)
 .data          0x0000000000460620        0x0 0x4 /usr/local/popcorn/aarch64/lib/libc.a(scalbnl.o)
 .data          0x0000000000460620        0x0 0x4 /usr/local/popcorn/aarch64/lib/libc.a(mbrtowc.o)
 .data          0x0000000000460620        0x0 0x4 /usr/local/popcorn/aarch64/lib/libc.a(mbsinit.o)
 .data          0x0000000000460620        0x0 0x4 /usr/local/popcorn/aarch64/lib/libc.a(wctomb.o)
 .data          0x0000000000460620        0x0 0x4 /usr/local/popcorn/aarch64/lib/libc.a(__fdopen.o)
 .data          0x0000000000460620        0x0 0x4 /usr/local/popcorn/aarch64/lib/libc.a(__fmodeflags.o)
 .data          0x0000000000460620        0x0 0x4 /usr/local/popcorn/aarch64/lib/libc.a(__lockfile.o)
 .data          0x0000000000460620        0x0 0x4 /usr/local/popcorn/aarch64/lib/libc.a(__stdio_close.o)
 .data          0x0000000000460620        0x0 0x4 /usr/local/popcorn/aarch64/lib/libc.a(__stdio_read.o)
 .data          0x0000000000460620        0x0 0x4 /usr/local/popcorn/aarch64/lib/libc.a(__stdio_seek.o)
 .data          0x0000000000460620        0x0 0x4 /usr/local/popcorn/aarch64/lib/libc.a(__stdio_write.o)
 .data          0x0000000000460620        0x0 0x4 /usr/local/popcorn/aarch64/lib/libc.a(__stdout_write.o)
 .data          0x0000000000460620        0x0 0x4 /usr/local/popcorn/aarch64/lib/libc.a(__string_read.o)
 .data          0x0000000000460620        0x0 0x4 /usr/local/popcorn/aarch64/lib/libc.a(__toread.o)
 .data          0x0000000000460620        0x0 0x4 /usr/local/popcorn/aarch64/lib/libc.a(__towrite.o)
 .data          0x0000000000460620        0x0 0x4 /usr/local/popcorn/aarch64/lib/libc.a(__uflow.o)
 .data          0x0000000000460620        0x0 0x4 /usr/local/popcorn/aarch64/lib/libc.a(ofl_add.o)
 .data          0x0000000000460620        0x0 0x4 /usr/local/popcorn/aarch64/lib/libc.a(vsnprintf.o)
 .data          0x0000000000460620        0x0 0x4 /usr/local/popcorn/aarch64/lib/libc.a(memcmp.o)
 .data          0x0000000000460620        0x0 0x4 /usr/local/popcorn/aarch64/lib/libc.a(stpcpy.o)
 .data          0x0000000000460620        0x0 0x4 /usr/local/popcorn/aarch64/lib/libc.a(__set_thread_area.o)
 .data          0x0000000000460620        0x0 0x4 /usr/local/popcorn/aarch64/lib/libc.a(clock_gettime.o)
 .data          0x0000000000460620        0x0 0x4 /usr/local/popcorn/aarch64/lib/libc.a(internal.o)
 .data          0x0000000000460620        0x0 0x4 /usr/local/popcorn/aarch64/lib/libc.a(wcrtomb.o)
 .data          0x0000000000460620        0x0 0x4 /usr/local/popcorn/aarch64/lib/libc.a(__stdio_exit.o)
 .data          0x0000000000460620        0x0 0x4 /usr/local/popcorn/aarch64/lib/libmigrate.a(migrate.o)
 .data.src_migrate_c_origin_nid
                0x0000000000460620        0x4 0x4 /usr/local/popcorn/aarch64/lib/libmigrate.a(migrate.o)
 .data          0x0000000000460624        0x0 0x1 /usr/local/popcorn/aarch64/lib/libmigrate.a(migrate_aarch64.o)
 .data          0x0000000000460624        0x0 0x1 /usr/local/popcorn/aarch64/lib/libmigrate.a(migrate_powerpc64.o)
 .data          0x0000000000460624        0x0 0x1 /usr/local/popcorn/aarch64/lib/libmigrate.a(migrate_x86_64.o)
 .data          0x0000000000460624        0x0 0x4 /usr/local/popcorn/aarch64/lib/libmigrate.a(mapping.o)
 .data          0x0000000000460624        0x0 0x4 /usr/local/popcorn/aarch64/lib/libstack-transform.a(userspace.o)
 .data          0x0000000000460624        0x0 0x4 /usr/local/popcorn/aarch64/lib/libstack-transform.a(init.o)
 .data          0x0000000000460624        0x0 0x4 /usr/local/popcorn/aarch64/lib/libstack-transform.a(rewrite.o)
 .data          0x0000000000460624        0x0 0x4 /usr/local/popcorn/aarch64/lib/libstack-transform.a(unwind.o)
 .data          0x0000000000460624        0x0 0x4 /usr/local/popcorn/aarch64/lib/libstack-transform.a(util.o)
 .data          0x0000000000460624        0x0 0x4 /usr/local/popcorn/aarch64/lib/libstack-transform.a(properties.o)
 .data          0x0000000000460624        0x0 0x4 /usr/local/popcorn/aarch64/lib/libstack-transform.a(regs.o)
 .data          0x0000000000460624        0x0 0x4 /usr/local/popcorn/aarch64/lib/libstack-transform.a(properties.o)
 .data          0x0000000000460624        0x0 0x4 /usr/local/popcorn/aarch64/lib/libstack-transform.a(regs.o)
 .data          0x0000000000460624        0x0 0x4 /usr/local/popcorn/aarch64/lib/libstack-transform.a(properties.o)
 .data          0x0000000000460624        0x0 0x4 /usr/local/popcorn/aarch64/lib/libstack-transform.a(regs.o)
 .data          0x0000000000460624        0x0 0x4 /usr/local/popcorn/aarch64/lib/libstack-transform.a(data.o)
 .data          0x0000000000460624        0x0 0x4 /usr/local/popcorn/aarch64/lib/libelf.a(begin.o)
 .data          0x0000000000460624        0x0 0x4 /usr/local/popcorn/aarch64/lib/libelf.a(end.o)
 .data          0x0000000000460624        0x0 0x4 /usr/local/popcorn/aarch64/lib/libelf.a(getdata.o)
 .data          0x0000000000460624        0x0 0x4 /usr/local/popcorn/aarch64/lib/libelf.a(getident.o)
 .data          0x0000000000460624        0x0 0x4 /usr/local/popcorn/aarch64/lib/libelf.a(nextscn.o)
 .data          0x0000000000460624        0x0 0x4 /usr/local/popcorn/aarch64/lib/libelf.a(strptr.o)
 .data          0x0000000000460624        0x0 0x4 /usr/local/popcorn/aarch64/lib/libelf.a(version.o)
 .data          0x0000000000460624        0x0 0x4 /usr/local/popcorn/aarch64/lib/libelf.a(32.getehdr.o)
 .data          0x0000000000460624        0x0 0x4 /usr/local/popcorn/aarch64/lib/libelf.a(32.xlatetof.o)
 .data          0x0000000000460624        0x0 0x4 /usr/local/popcorn/aarch64/lib/libelf.a(cook.o)
 .data          0x0000000000460624        0x0 0x4 /usr/local/popcorn/aarch64/lib/libelf.a(data.o)
 .data._elf_sanity_checks
                0x0000000000460624        0x4 0x4 /usr/local/popcorn/aarch64/lib/libelf.a(data.o)
                0x0000000000460624                _elf_sanity_checks
 .data          0x0000000000460628        0x0 0x4 /usr/local/popcorn/aarch64/lib/libelf.a(input.o)
 .data          0x0000000000460628        0x0 0x4 /usr/local/popcorn/aarch64/lib/libelf.a(x.elfext.o)
 .data          0x0000000000460628        0x0 0x4 /usr/local/popcorn/aarch64/lib/libelf.a(64.xlatetof.o)
 .data          0x0000000000460628        0x0 0x4 /usr/local/popcorn/aarch64/lib/libelf.a(gelfshdr.o)
 .data          0x0000000000460628        0x0 0x4 /usr/local/popcorn/aarch64/lib/libelf.a(swap64.o)
 .data          0x0000000000460628        0x0 0x4 /usr/local/popcorn/aarch64/lib/libelf.a(verdef_32_tof.o)
 .data          0x0000000000460628        0x0 0x4 /usr/local/popcorn/aarch64/lib/libelf.a(verdef_32_tom.o)
 .data          0x0000000000460628        0x0 0x4 /usr/local/popcorn/aarch64/lib/libelf.a(verdef_64_tof.o)
 .data          0x0000000000460628        0x0 0x4 /usr/local/popcorn/aarch64/lib/libelf.a(verdef_64_tom.o)
 .data          0x0000000000460628        0x0 0x4 /usr/local/popcorn/aarch64/lib/libelf.a(getscn.o)
 .data          0x0000000000460628        0x0 0x4 /usr/local/popcorn/aarch64/lib/libelf.a(newscn.o)
 .data          0x0000000000460628        0x0 0x4 /usr/local/popcorn/aarch64/lib/libelf.a(32.fsize.o)
 .data          0x0000000000460628        0x0 0x4 /usr/local/popcorn/aarch64/lib/libc.a(arch_crash.o)
 .data          0x0000000000460628        0x0 0x4 /usr/local/popcorn/aarch64/lib/libc.a(getenv.o)
 .data          0x0000000000460628        0x0 0x4 /usr/local/popcorn/aarch64/lib/libc.a(assert.o)
 .data          0x0000000000460628        0x0 0x4 /usr/local/popcorn/aarch64/lib/libc.a(open.o)
 .data          0x0000000000460628        0x0 0x4 /usr/local/popcorn/aarch64/lib/libc.a(getrlimit.o)
 .data          0x0000000000460628        0x0 0x4 /usr/local/popcorn/aarch64/lib/libc.a(getc.o)
 .data          0x0000000000460628        0x0 0x4 /usr/local/popcorn/aarch64/lib/libc.a(getline.o)
 .data          0x0000000000460628        0x0 0x4 /usr/local/popcorn/aarch64/lib/libc.a(perror.o)
 .data          0x0000000000460628        0x0 0x4 /usr/local/popcorn/aarch64/lib/libc.a(snprintf.o)
 .data          0x0000000000460628        0x0 0x4 /usr/local/popcorn/aarch64/lib/libc.a(bsearch.o)
 .data          0x0000000000460628        0x0 0x4 /usr/local/popcorn/aarch64/lib/libc.a(strtol.o)
 .data          0x0000000000460628        0x0 0x4 /usr/local/popcorn/aarch64/lib/libc.a(strncmp.o)
 .data          0x0000000000460628        0x0 0x4 /usr/local/popcorn/aarch64/lib/libc.a(__syscall_cp.o)
 .data          0x0000000000460628        0x0 0x4 /usr/local/popcorn/aarch64/lib/libc.a(pthread_attr_get.o)
 .data          0x0000000000460628        0x0 0x4 /usr/local/popcorn/aarch64/lib/libc.a(pthread_getattr_np.o)
 .data          0x0000000000460628        0x0 0x4 /usr/local/popcorn/aarch64/lib/libc.a(pthread_migrate.o)
 .data          0x0000000000460628        0x0 0x4 /usr/local/popcorn/aarch64/lib/libc.a(pthread_self.o)
 .data          0x0000000000460628        0x0 0x4 /usr/local/popcorn/aarch64/lib/libc.a(close.o)
 .data          0x0000000000460628        0x0 0x4 /usr/local/popcorn/aarch64/lib/libc.a(getpid.o)
 .data          0x0000000000460628        0x0 0x4 /usr/local/popcorn/aarch64/lib/libc.a(lseek.o)
 .data          0x0000000000460628        0x0 0x4 /usr/local/popcorn/aarch64/lib/libc.a(read.o)
 .data          0x0000000000460628        0x0 0x4 /usr/local/popcorn/aarch64/lib/libc.a(abort.o)
 .data          0x0000000000460628        0x0 0x4 /usr/local/popcorn/aarch64/lib/libc.a(syscall.o)
 .data          0x0000000000460628        0x0 0x4 /usr/local/popcorn/aarch64/lib/libc.a(block.o)
 .data          0x0000000000460628        0x0 0x4 /usr/local/popcorn/aarch64/lib/libc.a(raise.o)
 .data          0x0000000000460628        0x0 0x4 /usr/local/popcorn/aarch64/lib/libc.a(fputc.o)
 .data          0x0000000000460628        0x0 0x4 /usr/local/popcorn/aarch64/lib/libc.a(getdelim.o)
 .data          0x0000000000460628        0x0 0x4 /usr/local/popcorn/aarch64/lib/libc.a(__overflow.o)
 .data          0x0000000000460628        0x0 0x1 /usr/lib/gcc-cross/aarch64-linux-gnu/6/libgcc.a(addtf3.o)
 .data          0x0000000000460628        0x0 0x1 /usr/lib/gcc-cross/aarch64-linux-gnu/6/libgcc.a(divtf3.o)
 .data          0x0000000000460628        0x0 0x1 /usr/lib/gcc-cross/aarch64-linux-gnu/6/libgcc.a(eqtf2.o)
 .data          0x0000000000460628        0x0 0x1 /usr/lib/gcc-cross/aarch64-linux-gnu/6/libgcc.a(getf2.o)
 .data          0x0000000000460628        0x0 0x1 /usr/lib/gcc-cross/aarch64-linux-gnu/6/libgcc.a(letf2.o)
 .data          0x0000000000460628        0x0 0x1 /usr/lib/gcc-cross/aarch64-linux-gnu/6/libgcc.a(multf3.o)
 .data          0x0000000000460628        0x0 0x1 /usr/lib/gcc-cross/aarch64-linux-gnu/6/libgcc.a(subtf3.o)
 .data          0x0000000000460628        0x0 0x1 /usr/lib/gcc-cross/aarch64-linux-gnu/6/libgcc.a(unordtf2.o)
 .data          0x0000000000460628        0x0 0x1 /usr/lib/gcc-cross/aarch64-linux-gnu/6/libgcc.a(fixtfsi.o)
 .data          0x0000000000460628        0x0 0x1 /usr/lib/gcc-cross/aarch64-linux-gnu/6/libgcc.a(fixunstfsi.o)
 .data          0x0000000000460628        0x0 0x1 /usr/lib/gcc-cross/aarch64-linux-gnu/6/libgcc.a(floatsitf.o)
 .data          0x0000000000460628        0x0 0x1 /usr/lib/gcc-cross/aarch64-linux-gnu/6/libgcc.a(floatunsitf.o)
 .data          0x0000000000460628        0x0 0x1 /usr/lib/gcc-cross/aarch64-linux-gnu/6/libgcc.a(extendsftf2.o)
 .data          0x0000000000460628        0x0 0x1 /usr/lib/gcc-cross/aarch64-linux-gnu/6/libgcc.a(extenddftf2.o)
 .data          0x0000000000460628        0x0 0x1 /usr/lib/gcc-cross/aarch64-linux-gnu/6/libgcc.a(trunctfsf2.o)
 .data          0x0000000000460628        0x0 0x1 /usr/lib/gcc-cross/aarch64-linux-gnu/6/libgcc.a(trunctfdf2.o)
 .data          0x0000000000460628        0x0 0x1 /usr/lib/gcc-cross/aarch64-linux-gnu/6/libgcc.a(sfp-exceptions.o)

.bss            0x0000000000461000    0x23080
 .bss           0x0000000000461000        0x0 0x4 dc_aarch64.o
 .bss           0x0000000000461000        0x0 0x4 adc_aarch64.o
 .bss.adc_c_GetNextTuple_tuplenum
                0x0000000000461000        0x4 0x4 adc_aarch64.o
 .bss.adc_c_GetNextTuple_seed
                0x0000000000461010       0xa0 0x10 adc_aarch64.o
 .bss           0x00000000004610b0        0x0 0x4 extbuild_aarch64.o
 .bss           0x00000000004610b0        0x0 0x4 jobcntl_aarch64.o
 .bss           0x00000000004610b0        0x0 0x4 rbt_aarch64.o
 .bss           0x00000000004610b0        0x0 0x4 c_timers_aarch64.o
 .bss.c_timers_c_elapsed
                0x00000000004610b0      0x200 0x10 c_timers_aarch64.o
 .bss.c_timers_c_start
                0x00000000004612b0      0x200 0x10 c_timers_aarch64.o
 .bss           0x00000000004614b0        0x0 0x4 print_results_aarch64.o
 .bss           0x00000000004614b0        0x0 0x4 randdp_aarch64.o
 .bss           0x00000000004614b0        0x0 0x4 c_print_results_aarch64.o
 .bss           0x00000000004614b0        0x0 0x4 wtime_aarch64.o
 .bss           0x00000000004614b0        0x0 0x4 /usr/local/popcorn/aarch64/lib/crt1.o
 .bss           0x00000000004614b0        0x0 0x4 /usr/local/popcorn/aarch64/lib/libc.a(isdigit.o)
 .bss           0x00000000004614b0        0x0 0x4 /usr/local/popcorn/aarch64/lib/libc.a(__libc_start_main.o)
 .bss.__popcorn_stack_base
                0x00000000004614b0        0x8 0x8 /usr/local/popcorn/aarch64/lib/libc.a(__libc_start_main.o)
                0x00000000004614b0                __popcorn_stack_base
 .bss           0x00000000004614b8        0x0 0x4 /usr/local/popcorn/aarch64/lib/libc.a(__errno_location.o)
 .bss           0x00000000004614b8        0x0 0x4 /usr/local/popcorn/aarch64/lib/libc.a(exit.o)
 .bss           0x00000000004614b8        0x0 0x4 /usr/local/popcorn/aarch64/lib/libc.a(libc.o)
 .bss.__progname
                0x00000000004614b8        0x8 0x8 /usr/local/popcorn/aarch64/lib/libc.a(libc.o)
                0x00000000004614b8                __progname
                0x00000000004614b8                program_invocation_short_name
 .bss.__progname_full
                0x00000000004614c0        0x8 0x8 /usr/local/popcorn/aarch64/lib/libc.a(libc.o)
                0x00000000004614c0                __progname_full
                0x00000000004614c0                program_invocation_name
 .bss           0x00000000004614c8        0x0 0x4 /usr/local/popcorn/aarch64/lib/libc.a(calloc.o)
 .bss           0x00000000004614c8        0x0 0x4 /usr/local/popcorn/aarch64/lib/libc.a(lite_malloc.o)
 .bss.src_malloc_lite_malloc_c___simple_malloc_cur
                0x00000000004614c8        0x8 0x8 /usr/local/popcorn/aarch64/lib/libc.a(lite_malloc.o)
 .bss.src_malloc_lite_malloc_c___simple_malloc_end
                0x00000000004614d0        0x8 0x8 /usr/local/popcorn/aarch64/lib/libc.a(lite_malloc.o)
 .bss.src_malloc_lite_malloc_c___simple_malloc_lock
                0x00000000004614d8        0x8 0x4 /usr/local/popcorn/aarch64/lib/libc.a(lite_malloc.o)
 .bss           0x00000000004614e0        0x0 0x4 /usr/local/popcorn/aarch64/lib/libc.a(malloc.o)
 .bss.src_malloc_malloc_c_mal
                0x0000000000462000     0x1000 0x1000 /usr/local/popcorn/aarch64/lib/libc.a(malloc.o)
 .bss.src_malloc_malloc_c_expand_heap_heap_lock
                0x0000000000463000        0x8 0x4 /usr/local/popcorn/aarch64/lib/libc.a(malloc.o)
 .bss.src_malloc_malloc_c_expand_heap_end
                0x0000000000463008        0x8 0x8 /usr/local/popcorn/aarch64/lib/libc.a(malloc.o)
 .bss           0x0000000000463010        0x0 0x4 /usr/local/popcorn/aarch64/lib/libc.a(popcorn_malloc.o)
 .bss.src_malloc_popcorn_malloc_c_expand_heap_heap_lock
                0x0000000000463010      0x100 0x4 /usr/local/popcorn/aarch64/lib/libc.a(popcorn_malloc.o)
 .bss.src_malloc_popcorn_malloc_c_expand_heap_end
                0x0000000000463110      0x100 0x8 /usr/local/popcorn/aarch64/lib/libc.a(popcorn_malloc.o)
 .bss           0x0000000000463210        0x0 0x4 /usr/local/popcorn/aarch64/lib/libc.a(pow.o)
 .bss           0x0000000000463210        0x0 0x4 /usr/local/popcorn/aarch64/lib/libc.a(scalbn.o)
 .bss           0x0000000000463210        0x0 0x4 /usr/local/popcorn/aarch64/lib/libc.a(madvise.o)
 .bss           0x0000000000463210        0x0 0x4 /usr/local/popcorn/aarch64/lib/libc.a(mmap.o)
 .bss           0x0000000000463210        0x0 0x4 /usr/local/popcorn/aarch64/lib/libc.a(mremap.o)
 .bss           0x0000000000463210        0x0 0x4 /usr/local/popcorn/aarch64/lib/libc.a(munmap.o)
 .bss           0x0000000000463210        0x0 0x4 /usr/local/popcorn/aarch64/lib/libc.a(fclose.o)
 .bss           0x0000000000463210        0x0 0x4 /usr/local/popcorn/aarch64/lib/libc.a(fflush.o)
 .bss.src_stdio_fflush_c_dummy
                0x0000000000463210        0x8 0x8 /usr/local/popcorn/aarch64/lib/libc.a(fflush.o)
 .bss           0x0000000000463218        0x0 0x4 /usr/local/popcorn/aarch64/lib/libc.a(fgets.o)
 .bss           0x0000000000463218        0x0 0x4 /usr/local/popcorn/aarch64/lib/libc.a(fopen.o)
 .bss           0x0000000000463218        0x0 0x4 /usr/local/popcorn/aarch64/lib/libc.a(fprintf.o)
 .bss           0x0000000000463218        0x0 0x4 /usr/local/popcorn/aarch64/lib/libc.a(fread.o)
 .bss           0x0000000000463218        0x0 0x4 /usr/local/popcorn/aarch64/lib/libc.a(fscanf.o)
 .bss           0x0000000000463218        0x0 0x4 /usr/local/popcorn/aarch64/lib/libc.a(fseek.o)
 .bss           0x0000000000463218        0x0 0x4 /usr/local/popcorn/aarch64/lib/libc.a(ftell.o)
 .bss           0x0000000000463218        0x0 0x4 /usr/local/popcorn/aarch64/lib/libc.a(fwrite.o)
 .bss           0x0000000000463218        0x0 0x4 /usr/local/popcorn/aarch64/lib/libc.a(ofl.o)
 .bss.src_stdio_ofl_c_ofl_lock
                0x0000000000463218        0x8 0x4 /usr/local/popcorn/aarch64/lib/libc.a(ofl.o)
 .bss.src_stdio_ofl_c_ofl_head
                0x0000000000463220        0x8 0x8 /usr/local/popcorn/aarch64/lib/libc.a(ofl.o)
 .bss           0x0000000000463228        0x0 0x4 /usr/local/popcorn/aarch64/lib/libc.a(printf.o)
 .bss           0x0000000000463228        0x0 0x4 /usr/local/popcorn/aarch64/lib/libc.a(sprintf.o)
 .bss           0x0000000000463228        0x0 0x4 /usr/local/popcorn/aarch64/lib/libc.a(sscanf.o)
 .bss           0x0000000000463228        0x0 0x4 /usr/local/popcorn/aarch64/lib/libc.a(stderr.o)
 .bss.src_stdio_stderr_c_buf
                0x0000000000463228        0x8 0x1 /usr/local/popcorn/aarch64/lib/libc.a(stderr.o)
 .bss           0x0000000000463230        0x0 0x4 /usr/local/popcorn/aarch64/lib/libc.a(stdout.o)
 .bss.src_stdio_stdout_c_buf
                0x0000000000463230      0x408 0x1 /usr/local/popcorn/aarch64/lib/libc.a(stdout.o)
 .bss           0x0000000000463638        0x0 0x4 /usr/local/popcorn/aarch64/lib/libc.a(vfprintf.o)
 .bss           0x0000000000463638        0x0 0x4 /usr/local/popcorn/aarch64/lib/libc.a(vfscanf.o)
 .bss           0x0000000000463638        0x0 0x4 /usr/local/popcorn/aarch64/lib/libc.a(vsprintf.o)
 .bss           0x0000000000463638        0x0 0x4 /usr/local/popcorn/aarch64/lib/libc.a(vsscanf.o)
 .bss           0x0000000000463638        0x0 0x4 /usr/local/popcorn/aarch64/lib/libc.a(atoi.o)
 .bss           0x0000000000463638        0x0 0x4 /usr/local/popcorn/aarch64/lib/libc.a(qsort.o)
 .bss           0x0000000000463638        0x0 0x4 /usr/local/popcorn/aarch64/lib/libc.a(memchr.o)
 .bss           0x0000000000463638        0x0 0x4 /usr/local/popcorn/aarch64/lib/libc.a(memcpy.o)
 .bss           0x0000000000463638        0x0 0x4 /usr/local/popcorn/aarch64/lib/libc.a(memset.o)
 .bss           0x0000000000463638        0x0 0x4 /usr/local/popcorn/aarch64/lib/libc.a(strcat.o)
 .bss           0x0000000000463638        0x0 0x4 /usr/local/popcorn/aarch64/lib/libc.a(strchr.o)
 .bss           0x0000000000463638        0x0 0x4 /usr/local/popcorn/aarch64/lib/libc.a(strchrnul.o)
 .bss           0x0000000000463638        0x0 0x4 /usr/local/popcorn/aarch64/lib/libc.a(strcmp.o)
 .bss           0x0000000000463638        0x0 0x4 /usr/local/popcorn/aarch64/lib/libc.a(strcpy.o)
 .bss           0x0000000000463638        0x0 0x4 /usr/local/popcorn/aarch64/lib/libc.a(strlen.o)
 .bss           0x0000000000463638        0x0 0x4 /usr/local/popcorn/aarch64/lib/libc.a(strnlen.o)
 .bss           0x0000000000463638        0x0 0x4 /usr/local/popcorn/aarch64/lib/libc.a(strstr.o)
 .bss           0x0000000000463638        0x0 0x4 /usr/local/popcorn/aarch64/lib/libc.a(__lock.o)
 .bss           0x0000000000463638        0x0 0x4 /usr/local/popcorn/aarch64/lib/libc.a(__wait.o)
 .bss           0x0000000000463638        0x0 0x4 /usr/local/popcorn/aarch64/lib/libc.a(gettimeofday.o)
 .bss           0x0000000000463638        0x0 0x4 /usr/local/popcorn/aarch64/lib/libc.a(unlink.o)
 .bss           0x0000000000463638        0x0 0x4 /usr/local/popcorn/aarch64/lib/libc.a(__environ.o)
 .bss.__environ
                0x0000000000463638        0x8 0x8 /usr/local/popcorn/aarch64/lib/libc.a(__environ.o)
                0x0000000000463638                ___environ
                0x0000000000463638                __environ
                0x0000000000463638                _environ
                0x0000000000463638                environ
 .bss           0x0000000000463640        0x0 0x4 /usr/local/popcorn/aarch64/lib/libc.a(__init_tls.o)
 .bss.src_env___init_tls_c_main_tls
                0x0000000000463640       0x30 0x8 /usr/local/popcorn/aarch64/lib/libc.a(__init_tls.o)
 .bss.src_env___init_tls_c_builtin_tls
                0x0000000000463670      0x1a8 0x8 /usr/local/popcorn/aarch64/lib/libc.a(__init_tls.o)
 .bss           0x0000000000463818        0x0 0x4 /usr/local/popcorn/aarch64/lib/libc.a(platform.o)
 .bss           0x0000000000463818        0x0 0x4 /usr/local/popcorn/aarch64/lib/libc.a(strerror.o)
 .bss           0x0000000000463818        0x0 0x4 /usr/local/popcorn/aarch64/lib/libc.a(_Exit.o)
 .bss           0x0000000000463818        0x0 0x4 /usr/local/popcorn/aarch64/lib/libc.a(floatscan.o)
 .bss           0x0000000000463818        0x0 0x4 /usr/local/popcorn/aarch64/lib/libc.a(intscan.o)
 .bss           0x0000000000463818        0x0 0x4 /usr/local/popcorn/aarch64/lib/libc.a(shgetc.o)
 .bss           0x0000000000463818        0x0 0x4 /usr/local/popcorn/aarch64/lib/libc.a(syscall_ret.o)
 .bss           0x0000000000463818        0x0 0x4 /usr/local/popcorn/aarch64/lib/libc.a(__lctrans.o)
 .bss           0x0000000000463818        0x0 0x4 /usr/local/popcorn/aarch64/lib/libc.a(expand_heap.o)
 .bss.src_malloc_expand_heap_c___expand_heap_brk
                0x0000000000463818        0x8 0x8 /usr/local/popcorn/aarch64/lib/libc.a(expand_heap.o)
 .bss.src_malloc_expand_heap_c___expand_heap_mmap_step
                0x0000000000463820        0x4 0x4 /usr/local/popcorn/aarch64/lib/libc.a(expand_heap.o)
 .bss.src_malloc_expand_heap_c___expand_heap_node_node_arenas
                0x0000000000463828      0x100 0x8 /usr/local/popcorn/aarch64/lib/libc.a(expand_heap.o)
 .bss.src_malloc_expand_heap_c___expand_heap_node_node_sizes
                0x0000000000463928      0x100 0x8 /usr/local/popcorn/aarch64/lib/libc.a(expand_heap.o)
 .bss.src_malloc_expand_heap_c_arena_start
                0x0000000000463a28        0x8 0x8 /usr/local/popcorn/aarch64/lib/libc.a(expand_heap.o)
 .bss.src_malloc_expand_heap_c_set_arena_start_lock
                0x0000000000463a30        0x8 0x4 /usr/local/popcorn/aarch64/lib/libc.a(expand_heap.o)
 .bss           0x0000000000463a38        0x0 0x4 /usr/local/popcorn/aarch64/lib/libc.a(__fpclassifyl.o)
 .bss           0x0000000000463a38        0x0 0x4 /usr/local/popcorn/aarch64/lib/libc.a(__signbitl.o)
 .bss           0x0000000000463a38        0x0 0x4 /usr/local/popcorn/aarch64/lib/libc.a(fabs.o)
 .bss           0x0000000000463a38        0x0 0x4 /usr/local/popcorn/aarch64/lib/libc.a(sqrt.o)
 .bss           0x0000000000463a38        0x0 0x4 /usr/local/popcorn/aarch64/lib/libc.a(copysignl.o)
 .bss           0x0000000000463a38        0x0 0x4 /usr/local/popcorn/aarch64/lib/libc.a(fmodl.o)
 .bss           0x0000000000463a38        0x0 0x4 /usr/local/popcorn/aarch64/lib/libc.a(frexpl.o)
 .bss           0x0000000000463a38        0x0 0x4 /usr/local/popcorn/aarch64/lib/libc.a(scalbnl.o)
 .bss           0x0000000000463a38        0x0 0x4 /usr/local/popcorn/aarch64/lib/libc.a(mbrtowc.o)
 .bss.src_multibyte_mbrtowc_c_mbrtowc_internal_state
                0x0000000000463a38        0x4 0x4 /usr/local/popcorn/aarch64/lib/libc.a(mbrtowc.o)
 .bss           0x0000000000463a3c        0x0 0x4 /usr/local/popcorn/aarch64/lib/libc.a(mbsinit.o)
 .bss           0x0000000000463a3c        0x0 0x4 /usr/local/popcorn/aarch64/lib/libc.a(wctomb.o)
 .bss           0x0000000000463a3c        0x0 0x4 /usr/local/popcorn/aarch64/lib/libc.a(__fdopen.o)
 .bss           0x0000000000463a3c        0x0 0x4 /usr/local/popcorn/aarch64/lib/libc.a(__fmodeflags.o)
 .bss           0x0000000000463a3c        0x0 0x4 /usr/local/popcorn/aarch64/lib/libc.a(__lockfile.o)
 .bss           0x0000000000463a3c        0x0 0x4 /usr/local/popcorn/aarch64/lib/libc.a(__stdio_close.o)
 .bss           0x0000000000463a3c        0x0 0x4 /usr/local/popcorn/aarch64/lib/libc.a(__stdio_read.o)
 .bss           0x0000000000463a3c        0x0 0x4 /usr/local/popcorn/aarch64/lib/libc.a(__stdio_seek.o)
 .bss           0x0000000000463a3c        0x0 0x4 /usr/local/popcorn/aarch64/lib/libc.a(__stdio_write.o)
 .bss           0x0000000000463a3c        0x0 0x4 /usr/local/popcorn/aarch64/lib/libc.a(__stdout_write.o)
 .bss           0x0000000000463a3c        0x0 0x4 /usr/local/popcorn/aarch64/lib/libc.a(__string_read.o)
 .bss           0x0000000000463a3c        0x0 0x4 /usr/local/popcorn/aarch64/lib/libc.a(__toread.o)
 .bss           0x0000000000463a3c        0x0 0x4 /usr/local/popcorn/aarch64/lib/libc.a(__towrite.o)
 .bss           0x0000000000463a3c        0x0 0x4 /usr/local/popcorn/aarch64/lib/libc.a(__uflow.o)
 .bss           0x0000000000463a3c        0x0 0x4 /usr/local/popcorn/aarch64/lib/libc.a(ofl_add.o)
 .bss           0x0000000000463a3c        0x0 0x4 /usr/local/popcorn/aarch64/lib/libc.a(vsnprintf.o)
 .bss           0x0000000000463a3c        0x0 0x4 /usr/local/popcorn/aarch64/lib/libc.a(memcmp.o)
 .bss           0x0000000000463a3c        0x0 0x4 /usr/local/popcorn/aarch64/lib/libc.a(stpcpy.o)
 .bss           0x0000000000463a3c        0x0 0x4 /usr/local/popcorn/aarch64/lib/libc.a(__set_thread_area.o)
 .bss           0x0000000000463a3c        0x0 0x4 /usr/local/popcorn/aarch64/lib/libc.a(clock_gettime.o)
 .bss           0x0000000000463a3c        0x0 0x4 /usr/local/popcorn/aarch64/lib/libc.a(internal.o)
 .bss           0x0000000000463a3c        0x0 0x4 /usr/local/popcorn/aarch64/lib/libc.a(wcrtomb.o)
 .bss           0x0000000000463a3c        0x0 0x4 /usr/local/popcorn/aarch64/lib/libc.a(__stdio_exit.o)
 .bss.src_stdio___stdio_exit_c_dummy_file
                0x0000000000463a40        0x8 0x8 /usr/local/popcorn/aarch64/lib/libc.a(__stdio_exit.o)
                0x0000000000463a40                __stdin_used
 .bss           0x0000000000463a48        0x0 0x4 /usr/local/popcorn/aarch64/lib/libmigrate.a(migrate.o)
 .bss.src_migrate_c_ni
                0x0000000000463a48      0x180 0x4 /usr/local/popcorn/aarch64/lib/libmigrate.a(migrate.o)
 .bss           0x0000000000463bc8        0x0 0x1 /usr/local/popcorn/aarch64/lib/libmigrate.a(migrate_aarch64.o)
 .bss           0x0000000000463bc8        0x0 0x1 /usr/local/popcorn/aarch64/lib/libmigrate.a(migrate_powerpc64.o)
 .bss           0x0000000000463bc8        0x0 0x1 /usr/local/popcorn/aarch64/lib/libmigrate.a(migrate_x86_64.o)
 .bss           0x0000000000463bc8        0x0 0x4 /usr/local/popcorn/aarch64/lib/libmigrate.a(mapping.o)
 .bss.src_mapping_c_default_node
                0x0000000000463bc8        0x4 0x4 /usr/local/popcorn/aarch64/lib/libmigrate.a(mapping.o)
 .bss.src_mapping_c_mappings
                0x0000000000463bd0        0x8 0x8 /usr/local/popcorn/aarch64/lib/libmigrate.a(mapping.o)
 .bss.src_mapping_c_num_mappings
                0x0000000000463bd8        0x8 0x8 /usr/local/popcorn/aarch64/lib/libmigrate.a(mapping.o)
 .bss           0x0000000000463be0        0x0 0x4 /usr/local/popcorn/aarch64/lib/libstack-transform.a(userspace.o)
 .bss.aarch64_fn
                0x0000000000463be0        0x8 0x8 /usr/local/popcorn/aarch64/lib/libstack-transform.a(userspace.o)
                0x0000000000463be0                aarch64_fn
 .bss.powerpc64_fn
                0x0000000000463be8        0x8 0x8 /usr/local/popcorn/aarch64/lib/libstack-transform.a(userspace.o)
                0x0000000000463be8                powerpc64_fn
 .bss.x86_64_fn
                0x0000000000463bf0        0x8 0x8 /usr/local/popcorn/aarch64/lib/libstack-transform.a(userspace.o)
                0x0000000000463bf0                x86_64_fn
 .bss.src_userspace_c_aarch64_handle
                0x0000000000463bf8        0x8 0x8 /usr/local/popcorn/aarch64/lib/libstack-transform.a(userspace.o)
 .bss.src_userspace_c_alloc_aarch64_fn
                0x0000000000463c00        0x1 0x1 /usr/local/popcorn/aarch64/lib/libstack-transform.a(userspace.o)
 .bss.src_userspace_c_powerpc64_handle
                0x0000000000463c08        0x8 0x8 /usr/local/popcorn/aarch64/lib/libstack-transform.a(userspace.o)
 .bss.src_userspace_c_alloc_powerpc64_fn
                0x0000000000463c10        0x1 0x1 /usr/local/popcorn/aarch64/lib/libstack-transform.a(userspace.o)
 .bss.src_userspace_c_x86_64_handle
                0x0000000000463c18        0x8 0x8 /usr/local/popcorn/aarch64/lib/libstack-transform.a(userspace.o)
 .bss.src_userspace_c_alloc_x86_64_fn
                0x0000000000463c20        0x1 0x1 /usr/local/popcorn/aarch64/lib/libstack-transform.a(userspace.o)
 .bss           0x0000000000463c24        0x0 0x4 /usr/local/popcorn/aarch64/lib/libstack-transform.a(init.o)
 .bss           0x0000000000463c24        0x0 0x4 /usr/local/popcorn/aarch64/lib/libstack-transform.a(rewrite.o)
 .bss           0x0000000000463c24        0x0 0x4 /usr/local/popcorn/aarch64/lib/libstack-transform.a(unwind.o)
 .bss           0x0000000000463c24        0x0 0x4 /usr/local/popcorn/aarch64/lib/libstack-transform.a(util.o)
 .bss           0x0000000000463c24        0x0 0x4 /usr/local/popcorn/aarch64/lib/libstack-transform.a(properties.o)
 .bss           0x0000000000463c24        0x0 0x4 /usr/local/popcorn/aarch64/lib/libstack-transform.a(regs.o)
 .bss           0x0000000000463c24        0x0 0x4 /usr/local/popcorn/aarch64/lib/libstack-transform.a(properties.o)
 .bss           0x0000000000463c24        0x0 0x4 /usr/local/popcorn/aarch64/lib/libstack-transform.a(regs.o)
 .bss           0x0000000000463c24        0x0 0x4 /usr/local/popcorn/aarch64/lib/libstack-transform.a(properties.o)
 .bss           0x0000000000463c24        0x0 0x4 /usr/local/popcorn/aarch64/lib/libstack-transform.a(regs.o)
 .bss           0x0000000000463c24        0x0 0x4 /usr/local/popcorn/aarch64/lib/libstack-transform.a(data.o)
 .bss           0x0000000000463c24        0x0 0x4 /usr/local/popcorn/aarch64/lib/libelf.a(begin.o)
 .bss           0x0000000000463c24        0x0 0x4 /usr/local/popcorn/aarch64/lib/libelf.a(end.o)
 .bss           0x0000000000463c24        0x0 0x4 /usr/local/popcorn/aarch64/lib/libelf.a(getdata.o)
 .bss           0x0000000000463c24        0x0 0x4 /usr/local/popcorn/aarch64/lib/libelf.a(getident.o)
 .bss           0x0000000000463c24        0x0 0x4 /usr/local/popcorn/aarch64/lib/libelf.a(nextscn.o)
 .bss           0x0000000000463c24        0x0 0x4 /usr/local/popcorn/aarch64/lib/libelf.a(strptr.o)
 .bss           0x0000000000463c24        0x0 0x4 /usr/local/popcorn/aarch64/lib/libelf.a(version.o)
 .bss           0x0000000000463c24        0x0 0x4 /usr/local/popcorn/aarch64/lib/libelf.a(32.getehdr.o)
 .bss           0x0000000000463c24        0x0 0x4 /usr/local/popcorn/aarch64/lib/libelf.a(32.xlatetof.o)
 .bss           0x0000000000463c24        0x0 0x4 /usr/local/popcorn/aarch64/lib/libelf.a(cook.o)
 .bss           0x0000000000463c24        0x0 0x4 /usr/local/popcorn/aarch64/lib/libelf.a(data.o)
 .bss._elf_version
                0x0000000000463c24        0x4 0x4 /usr/local/popcorn/aarch64/lib/libelf.a(data.o)
                0x0000000000463c24                _elf_version
 .bss._elf_errno
                0x0000000000463c28        0x4 0x4 /usr/local/popcorn/aarch64/lib/libelf.a(data.o)
                0x0000000000463c28                _elf_errno
 .bss._elf_fill
                0x0000000000463c2c        0x4 0x4 /usr/local/popcorn/aarch64/lib/libelf.a(data.o)
                0x0000000000463c2c                _elf_fill
 .bss           0x0000000000463c30        0x0 0x4 /usr/local/popcorn/aarch64/lib/libelf.a(input.o)
 .bss           0x0000000000463c30        0x0 0x4 /usr/local/popcorn/aarch64/lib/libelf.a(x.elfext.o)
 .bss           0x0000000000463c30        0x0 0x4 /usr/local/popcorn/aarch64/lib/libelf.a(64.xlatetof.o)
 .bss           0x0000000000463c30        0x0 0x4 /usr/local/popcorn/aarch64/lib/libelf.a(gelfshdr.o)
 .bss           0x0000000000463c30        0x0 0x4 /usr/local/popcorn/aarch64/lib/libelf.a(swap64.o)
 .bss           0x0000000000463c30        0x0 0x4 /usr/local/popcorn/aarch64/lib/libelf.a(verdef_32_tof.o)
 .bss           0x0000000000463c30        0x0 0x4 /usr/local/popcorn/aarch64/lib/libelf.a(verdef_32_tom.o)
 .bss           0x0000000000463c30        0x0 0x4 /usr/local/popcorn/aarch64/lib/libelf.a(verdef_64_tof.o)
 .bss           0x0000000000463c30        0x0 0x4 /usr/local/popcorn/aarch64/lib/libelf.a(verdef_64_tom.o)
 .bss           0x0000000000463c30        0x0 0x4 /usr/local/popcorn/aarch64/lib/libelf.a(getscn.o)
 .bss           0x0000000000463c30        0x0 0x4 /usr/local/popcorn/aarch64/lib/libelf.a(newscn.o)
 .bss           0x0000000000463c30        0x0 0x4 /usr/local/popcorn/aarch64/lib/libelf.a(32.fsize.o)
 .bss           0x0000000000463c30        0x0 0x4 /usr/local/popcorn/aarch64/lib/libc.a(arch_crash.o)
 .bss           0x0000000000463c30        0x0 0x4 /usr/local/popcorn/aarch64/lib/libc.a(getenv.o)
 .bss           0x0000000000463c30        0x0 0x4 /usr/local/popcorn/aarch64/lib/libc.a(assert.o)
 .bss           0x0000000000463c30        0x0 0x4 /usr/local/popcorn/aarch64/lib/libc.a(open.o)
 .bss           0x0000000000463c30        0x0 0x4 /usr/local/popcorn/aarch64/lib/libc.a(getrlimit.o)
 .bss           0x0000000000463c30        0x0 0x4 /usr/local/popcorn/aarch64/lib/libc.a(getc.o)
 .bss           0x0000000000463c30        0x0 0x4 /usr/local/popcorn/aarch64/lib/libc.a(getline.o)
 .bss           0x0000000000463c30        0x0 0x4 /usr/local/popcorn/aarch64/lib/libc.a(perror.o)
 .bss           0x0000000000463c30        0x0 0x4 /usr/local/popcorn/aarch64/lib/libc.a(snprintf.o)
 .bss           0x0000000000463c30        0x0 0x4 /usr/local/popcorn/aarch64/lib/libc.a(bsearch.o)
 .bss           0x0000000000463c30        0x0 0x4 /usr/local/popcorn/aarch64/lib/libc.a(strtol.o)
 .bss           0x0000000000463c30        0x0 0x4 /usr/local/popcorn/aarch64/lib/libc.a(strncmp.o)
 .bss           0x0000000000463c30        0x0 0x4 /usr/local/popcorn/aarch64/lib/libc.a(__syscall_cp.o)
 .bss           0x0000000000463c30        0x0 0x4 /usr/local/popcorn/aarch64/lib/libc.a(pthread_attr_get.o)
 .bss           0x0000000000463c30        0x0 0x4 /usr/local/popcorn/aarch64/lib/libc.a(pthread_getattr_np.o)
 .bss           0x0000000000463c30        0x0 0x4 /usr/local/popcorn/aarch64/lib/libc.a(pthread_migrate.o)
 .bss           0x0000000000463c30        0x0 0x4 /usr/local/popcorn/aarch64/lib/libc.a(pthread_self.o)
 .bss           0x0000000000463c30        0x0 0x4 /usr/local/popcorn/aarch64/lib/libc.a(close.o)
 .bss           0x0000000000463c30        0x0 0x4 /usr/local/popcorn/aarch64/lib/libc.a(getpid.o)
 .bss           0x0000000000463c30        0x0 0x4 /usr/local/popcorn/aarch64/lib/libc.a(lseek.o)
 .bss           0x0000000000463c30        0x0 0x4 /usr/local/popcorn/aarch64/lib/libc.a(read.o)
 .bss           0x0000000000463c30        0x0 0x4 /usr/local/popcorn/aarch64/lib/libc.a(abort.o)
 .bss           0x0000000000463c30        0x0 0x4 /usr/local/popcorn/aarch64/lib/libc.a(syscall.o)
 .bss           0x0000000000463c30        0x0 0x4 /usr/local/popcorn/aarch64/lib/libc.a(block.o)
 .bss           0x0000000000463c30        0x0 0x4 /usr/local/popcorn/aarch64/lib/libc.a(raise.o)
 .bss           0x0000000000463c30        0x0 0x4 /usr/local/popcorn/aarch64/lib/libc.a(fputc.o)
 .bss           0x0000000000463c30        0x0 0x4 /usr/local/popcorn/aarch64/lib/libc.a(getdelim.o)
 .bss           0x0000000000463c30        0x0 0x4 /usr/local/popcorn/aarch64/lib/libc.a(__overflow.o)
 .bss           0x0000000000463c30        0x0 0x1 /usr/lib/gcc-cross/aarch64-linux-gnu/6/libgcc.a(addtf3.o)
 .bss           0x0000000000463c30        0x0 0x1 /usr/lib/gcc-cross/aarch64-linux-gnu/6/libgcc.a(divtf3.o)
 .bss           0x0000000000463c30        0x0 0x1 /usr/lib/gcc-cross/aarch64-linux-gnu/6/libgcc.a(eqtf2.o)
 .bss           0x0000000000463c30        0x0 0x1 /usr/lib/gcc-cross/aarch64-linux-gnu/6/libgcc.a(getf2.o)
 .bss           0x0000000000463c30        0x0 0x1 /usr/lib/gcc-cross/aarch64-linux-gnu/6/libgcc.a(letf2.o)
 .bss           0x0000000000463c30        0x0 0x1 /usr/lib/gcc-cross/aarch64-linux-gnu/6/libgcc.a(multf3.o)
 .bss           0x0000000000463c30        0x0 0x1 /usr/lib/gcc-cross/aarch64-linux-gnu/6/libgcc.a(subtf3.o)
 .bss           0x0000000000463c30        0x0 0x1 /usr/lib/gcc-cross/aarch64-linux-gnu/6/libgcc.a(unordtf2.o)
 .bss           0x0000000000463c30        0x0 0x1 /usr/lib/gcc-cross/aarch64-linux-gnu/6/libgcc.a(fixtfsi.o)
 .bss           0x0000000000463c30        0x0 0x1 /usr/lib/gcc-cross/aarch64-linux-gnu/6/libgcc.a(fixunstfsi.o)
 .bss           0x0000000000463c30        0x0 0x1 /usr/lib/gcc-cross/aarch64-linux-gnu/6/libgcc.a(floatsitf.o)
 .bss           0x0000000000463c30        0x0 0x1 /usr/lib/gcc-cross/aarch64-linux-gnu/6/libgcc.a(floatunsitf.o)
 .bss           0x0000000000463c30        0x0 0x1 /usr/lib/gcc-cross/aarch64-linux-gnu/6/libgcc.a(extendsftf2.o)
 .bss           0x0000000000463c30        0x0 0x1 /usr/lib/gcc-cross/aarch64-linux-gnu/6/libgcc.a(extenddftf2.o)
 .bss           0x0000000000463c30        0x0 0x1 /usr/lib/gcc-cross/aarch64-linux-gnu/6/libgcc.a(trunctfsf2.o)
 .bss           0x0000000000463c30        0x0 0x1 /usr/lib/gcc-cross/aarch64-linux-gnu/6/libgcc.a(trunctfdf2.o)
 .bss           0x0000000000463c30        0x0 0x1 /usr/lib/gcc-cross/aarch64-linux-gnu/6/libgcc.a(sfp-exceptions.o)
 ** common      0x0000000000464000    0x20080

.debug_str      0x0000000000000000     0x4e25
 ** merge strings
                0x0000000000000000     0x4e25

.debug_loc      0x0000000000000000     0xf757
 .debug_loc     0x0000000000000000        0x0 0x1 dc_aarch64.o
 .debug_loc     0x0000000000000000        0x0 0x1 adc_aarch64.o
 .debug_loc     0x0000000000000000        0x0 0x1 extbuild_aarch64.o
 .debug_loc     0x0000000000000000        0x0 0x1 jobcntl_aarch64.o
 .debug_loc     0x0000000000000000        0x0 0x1 rbt_aarch64.o
 .debug_loc     0x0000000000000000        0x0 0x1 c_timers_aarch64.o
 .debug_loc     0x0000000000000000        0x0 0x1 print_results_aarch64.o
 .debug_loc     0x0000000000000000        0x0 0x1 randdp_aarch64.o
 .debug_loc     0x0000000000000000        0x0 0x1 c_print_results_aarch64.o
 .debug_loc     0x0000000000000000        0x0 0x1 wtime_aarch64.o
 .debug_loc     0x0000000000000000       0x36 0x1 /usr/local/popcorn/aarch64/lib/crt1.o
 .debug_loc     0x0000000000000036       0x69 0x1 /usr/local/popcorn/aarch64/lib/libc.a(isdigit.o)
 .debug_loc     0x000000000000009f      0x265 0x1 /usr/local/popcorn/aarch64/lib/libc.a(__libc_start_main.o)
 .debug_loc     0x0000000000000304        0x0 0x1 /usr/local/popcorn/aarch64/lib/libc.a(__errno_location.o)
 .debug_loc     0x0000000000000304       0x6c 0x1 /usr/local/popcorn/aarch64/lib/libc.a(exit.o)
 .debug_loc     0x0000000000000370        0x0 0x1 /usr/local/popcorn/aarch64/lib/libc.a(libc.o)
 .debug_loc     0x0000000000000370        0x0 0x1 /usr/local/popcorn/aarch64/lib/libc.a(calloc.o)
 .debug_loc     0x0000000000000370        0x0 0x1 /usr/local/popcorn/aarch64/lib/libc.a(lite_malloc.o)
 .debug_loc     0x0000000000000370        0x0 0x1 /usr/local/popcorn/aarch64/lib/libc.a(malloc.o)
 .debug_loc     0x0000000000000370        0x0 0x1 /usr/local/popcorn/aarch64/lib/libc.a(popcorn_malloc.o)
 .debug_loc     0x0000000000000370     0x1234 0x1 /usr/local/popcorn/aarch64/lib/libc.a(pow.o)
 .debug_loc     0x00000000000015a4      0x1b2 0x1 /usr/local/popcorn/aarch64/lib/libc.a(scalbn.o)
 .debug_loc     0x0000000000001756       0x69 0x1 /usr/local/popcorn/aarch64/lib/libc.a(madvise.o)
 .debug_loc     0x00000000000017bf      0x24b 0x1 /usr/local/popcorn/aarch64/lib/libc.a(mmap.o)
 .debug_loc     0x0000000000001a0a      0x193 0x1 /usr/local/popcorn/aarch64/lib/libc.a(mremap.o)
 .debug_loc     0x0000000000001b9d       0xb5 0x1 /usr/local/popcorn/aarch64/lib/libc.a(munmap.o)
 .debug_loc     0x0000000000001c52       0xd5 0x1 /usr/local/popcorn/aarch64/lib/libc.a(fclose.o)
 .debug_loc     0x0000000000001d27       0xc5 0x1 /usr/local/popcorn/aarch64/lib/libc.a(fflush.o)
 .debug_loc     0x0000000000001dec      0x294 0x1 /usr/local/popcorn/aarch64/lib/libc.a(fgets.o)
 .debug_loc     0x0000000000002080      0x10e 0x1 /usr/local/popcorn/aarch64/lib/libc.a(fopen.o)
 .debug_loc     0x000000000000218e       0x23 0x1 /usr/local/popcorn/aarch64/lib/libc.a(fprintf.o)
 .debug_loc     0x00000000000021b1      0x25a 0x1 /usr/local/popcorn/aarch64/lib/libc.a(fread.o)
 .debug_loc     0x000000000000240b       0x23 0x1 /usr/local/popcorn/aarch64/lib/libc.a(fscanf.o)
 .debug_loc     0x000000000000242e      0x18d 0x1 /usr/local/popcorn/aarch64/lib/libc.a(fseek.o)
 .debug_loc     0x00000000000025bb       0xb2 0x1 /usr/local/popcorn/aarch64/lib/libc.a(ftell.o)
 .debug_loc     0x000000000000266d      0x257 0x1 /usr/local/popcorn/aarch64/lib/libc.a(fwrite.o)
 .debug_loc     0x00000000000028c4        0x0 0x1 /usr/local/popcorn/aarch64/lib/libc.a(ofl.o)
 .debug_loc     0x00000000000028c4       0x49 0x1 /usr/local/popcorn/aarch64/lib/libc.a(printf.o)
 .debug_loc     0x000000000000290d       0x23 0x1 /usr/local/popcorn/aarch64/lib/libc.a(sprintf.o)
 .debug_loc     0x0000000000002930       0x23 0x1 /usr/local/popcorn/aarch64/lib/libc.a(sscanf.o)
 .debug_loc     0x0000000000002953        0x0 0x1 /usr/local/popcorn/aarch64/lib/libc.a(stderr.o)
 .debug_loc     0x0000000000002953        0x0 0x1 /usr/local/popcorn/aarch64/lib/libc.a(stdout.o)
 .debug_loc     0x0000000000002953     0x36de 0x1 /usr/local/popcorn/aarch64/lib/libc.a(vfprintf.o)
 .debug_loc     0x0000000000006031      0xcb3 0x1 /usr/local/popcorn/aarch64/lib/libc.a(vfscanf.o)
 .debug_loc     0x0000000000006ce4       0x90 0x1 /usr/local/popcorn/aarch64/lib/libc.a(vsprintf.o)
 .debug_loc     0x0000000000006d74       0xdb 0x1 /usr/local/popcorn/aarch64/lib/libc.a(vsscanf.o)
 .debug_loc     0x0000000000006e4f       0x98 0x1 /usr/local/popcorn/aarch64/lib/libc.a(atoi.o)
 .debug_loc     0x0000000000006ee7      0xb7e 0x1 /usr/local/popcorn/aarch64/lib/libc.a(qsort.o)
 .debug_loc     0x0000000000007a65        0x0 0x1 /usr/local/popcorn/aarch64/lib/libc.a(memchr.o)
 .debug_loc     0x0000000000007a65        0x0 0x1 /usr/local/popcorn/aarch64/lib/libc.a(memcpy.o)
 .debug_loc     0x0000000000007a65        0x0 0x1 /usr/local/popcorn/aarch64/lib/libc.a(memset.o)
 .debug_loc     0x0000000000007a65        0x0 0x1 /usr/local/popcorn/aarch64/lib/libc.a(strcat.o)
 .debug_loc     0x0000000000007a65        0x0 0x1 /usr/local/popcorn/aarch64/lib/libc.a(strchr.o)
 .debug_loc     0x0000000000007a65        0x0 0x1 /usr/local/popcorn/aarch64/lib/libc.a(strchrnul.o)
 .debug_loc     0x0000000000007a65        0x0 0x1 /usr/local/popcorn/aarch64/lib/libc.a(strcmp.o)
 .debug_loc     0x0000000000007a65        0x0 0x1 /usr/local/popcorn/aarch64/lib/libc.a(strcpy.o)
 .debug_loc     0x0000000000007a65        0x0 0x1 /usr/local/popcorn/aarch64/lib/libc.a(strlen.o)
 .debug_loc     0x0000000000007a65        0x0 0x1 /usr/local/popcorn/aarch64/lib/libc.a(strnlen.o)
 .debug_loc     0x0000000000007a65        0x0 0x1 /usr/local/popcorn/aarch64/lib/libc.a(strstr.o)
 .debug_loc     0x0000000000007a65      0x11b 0x1 /usr/local/popcorn/aarch64/lib/libc.a(__lock.o)
 .debug_loc     0x0000000000007b80      0x2f1 0x1 /usr/local/popcorn/aarch64/lib/libc.a(__wait.o)
 .debug_loc     0x0000000000007e71       0x90 0x1 /usr/local/popcorn/aarch64/lib/libc.a(gettimeofday.o)
 .debug_loc     0x0000000000007f01       0x82 0x1 /usr/local/popcorn/aarch64/lib/libc.a(unlink.o)
 .debug_loc     0x0000000000007f83        0x0 0x1 /usr/local/popcorn/aarch64/lib/libc.a(__environ.o)
 .debug_loc     0x0000000000007f83      0x2b7 0x1 /usr/local/popcorn/aarch64/lib/libc.a(__init_tls.o)
 .debug_loc     0x000000000000823a      0x11b 0x1 /usr/local/popcorn/aarch64/lib/libc.a(platform.o)
 .debug_loc     0x0000000000008355       0x83 0x1 /usr/local/popcorn/aarch64/lib/libc.a(strerror.o)
 .debug_loc     0x00000000000083d8       0x23 0x1 /usr/local/popcorn/aarch64/lib/libc.a(_Exit.o)
 .debug_loc     0x00000000000083fb        0x0 0x1 /usr/local/popcorn/aarch64/lib/libc.a(floatscan.o)
 .debug_loc     0x00000000000083fb        0x0 0x1 /usr/local/popcorn/aarch64/lib/libc.a(intscan.o)
 .debug_loc     0x00000000000083fb        0x0 0x1 /usr/local/popcorn/aarch64/lib/libc.a(shgetc.o)
 .debug_loc     0x00000000000083fb        0x0 0x1 /usr/local/popcorn/aarch64/lib/libc.a(syscall_ret.o)
 .debug_loc     0x00000000000083fb       0x23 0x1 /usr/local/popcorn/aarch64/lib/libc.a(__lctrans.o)
 .debug_loc     0x000000000000841e        0x0 0x1 /usr/local/popcorn/aarch64/lib/libc.a(expand_heap.o)
 .debug_loc     0x000000000000841e        0x0 0x1 /usr/local/popcorn/aarch64/lib/libc.a(__fpclassifyl.o)
 .debug_loc     0x000000000000841e        0x0 0x1 /usr/local/popcorn/aarch64/lib/libc.a(__signbitl.o)
 .debug_loc     0x000000000000841e       0x24 0x1 /usr/local/popcorn/aarch64/lib/libc.a(fabs.o)
 .debug_loc     0x0000000000008442       0x24 0x1 /usr/local/popcorn/aarch64/lib/libc.a(sqrt.o)
 .debug_loc     0x0000000000008466       0x48 0x1 /usr/local/popcorn/aarch64/lib/libc.a(copysignl.o)
 .debug_loc     0x00000000000084ae      0x561 0x1 /usr/local/popcorn/aarch64/lib/libc.a(fmodl.o)
 .debug_loc     0x0000000000008a0f      0x132 0x1 /usr/local/popcorn/aarch64/lib/libc.a(frexpl.o)
 .debug_loc     0x0000000000008b41       0xf2 0x1 /usr/local/popcorn/aarch64/lib/libc.a(scalbnl.o)
 .debug_loc     0x0000000000008c33      0x285 0x1 /usr/local/popcorn/aarch64/lib/libc.a(mbrtowc.o)
 .debug_loc     0x0000000000008eb8       0x23 0x1 /usr/local/popcorn/aarch64/lib/libc.a(mbsinit.o)
 .debug_loc     0x0000000000008edb       0x23 0x1 /usr/local/popcorn/aarch64/lib/libc.a(wctomb.o)
 .debug_loc     0x0000000000008efe      0x1e2 0x1 /usr/local/popcorn/aarch64/lib/libc.a(__fdopen.o)
 .debug_loc     0x00000000000090e0       0x6c 0x1 /usr/local/popcorn/aarch64/lib/libc.a(__fmodeflags.o)
 .debug_loc     0x000000000000914c      0x1f0 0x1 /usr/local/popcorn/aarch64/lib/libc.a(__lockfile.o)
 .debug_loc     0x000000000000933c       0x46 0x1 /usr/local/popcorn/aarch64/lib/libc.a(__stdio_close.o)
 .debug_loc     0x0000000000009382      0x134 0x1 /usr/local/popcorn/aarch64/lib/libc.a(__stdio_read.o)
 .debug_loc     0x00000000000094b6       0x46 0x1 /usr/local/popcorn/aarch64/lib/libc.a(__stdio_seek.o)
 .debug_loc     0x00000000000094fc      0x18d 0x1 /usr/local/popcorn/aarch64/lib/libc.a(__stdio_write.o)
 .debug_loc     0x0000000000009689       0xc5 0x1 /usr/local/popcorn/aarch64/lib/libc.a(__stdout_write.o)
 .debug_loc     0x000000000000974e      0x144 0x1 /usr/local/popcorn/aarch64/lib/libc.a(__string_read.o)
 .debug_loc     0x0000000000009892       0x36 0x1 /usr/local/popcorn/aarch64/lib/libc.a(__toread.o)
 .debug_loc     0x00000000000098c8        0x0 0x1 /usr/local/popcorn/aarch64/lib/libc.a(__towrite.o)
 .debug_loc     0x00000000000098c8       0x6e 0x1 /usr/local/popcorn/aarch64/lib/libc.a(__uflow.o)
 .debug_loc     0x0000000000009936       0x59 0x1 /usr/local/popcorn/aarch64/lib/libc.a(ofl_add.o)
 .debug_loc     0x000000000000998f      0x20d 0x1 /usr/local/popcorn/aarch64/lib/libc.a(vsnprintf.o)
 .debug_loc     0x0000000000009b9c        0x0 0x1 /usr/local/popcorn/aarch64/lib/libc.a(memcmp.o)
 .debug_loc     0x0000000000009b9c        0x0 0x1 /usr/local/popcorn/aarch64/lib/libc.a(stpcpy.o)
 .debug_loc     0x0000000000009b9c      0x12e 0x1 /usr/local/popcorn/aarch64/lib/libc.a(clock_gettime.o)
 .debug_loc     0x0000000000009cca        0x0 0x1 /usr/local/popcorn/aarch64/lib/libc.a(internal.o)
 .debug_loc     0x0000000000009cca       0x59 0x1 /usr/local/popcorn/aarch64/lib/libc.a(wcrtomb.o)
 .debug_loc     0x0000000000009d23       0x36 0x1 /usr/local/popcorn/aarch64/lib/libc.a(__stdio_exit.o)
 .debug_loc     0x0000000000009d59      0x50d 0x1 /usr/local/popcorn/aarch64/lib/libmigrate.a(migrate.o)
 .debug_loc     0x000000000000a266      0x29f 0x1 /usr/local/popcorn/aarch64/lib/libmigrate.a(mapping.o)
 .debug_loc     0x000000000000a505      0x7f1 0x1 /usr/local/popcorn/aarch64/lib/libstack-transform.a(userspace.o)
 .debug_loc     0x000000000000acf6       0xb2 0x1 /usr/local/popcorn/aarch64/lib/libstack-transform.a(init.o)
 .debug_loc     0x000000000000ada8      0x8bc 0x1 /usr/local/popcorn/aarch64/lib/libstack-transform.a(rewrite.o)
 .debug_loc     0x000000000000b664      0x78c 0x1 /usr/local/popcorn/aarch64/lib/libstack-transform.a(unwind.o)
 .debug_loc     0x000000000000bdf0      0x82b 0x1 /usr/local/popcorn/aarch64/lib/libstack-transform.a(util.o)
 .debug_loc     0x000000000000c61b       0x23 0x1 /usr/local/popcorn/aarch64/lib/libstack-transform.a(properties.o)
 .debug_loc     0x000000000000c63e      0x690 0x1 /usr/local/popcorn/aarch64/lib/libstack-transform.a(regs.o)
 .debug_loc     0x000000000000ccce       0x6c 0x1 /usr/local/popcorn/aarch64/lib/libstack-transform.a(properties.o)
 .debug_loc     0x000000000000cd3a      0x6c9 0x1 /usr/local/popcorn/aarch64/lib/libstack-transform.a(regs.o)
 .debug_loc     0x000000000000d403       0x23 0x1 /usr/local/popcorn/aarch64/lib/libstack-transform.a(properties.o)
 .debug_loc     0x000000000000d426      0x489 0x1 /usr/local/popcorn/aarch64/lib/libstack-transform.a(regs.o)
 .debug_loc     0x000000000000d8af      0xc35 0x1 /usr/local/popcorn/aarch64/lib/libstack-transform.a(data.o)
 .debug_loc     0x000000000000e4e4      0x1b0 0x1 /usr/local/popcorn/aarch64/lib/libc.a(arch_crash.o)
 .debug_loc     0x000000000000e694       0x59 0x1 /usr/local/popcorn/aarch64/lib/libc.a(getenv.o)
 .debug_loc     0x000000000000e6ed      0x124 0x1 /usr/local/popcorn/aarch64/lib/libc.a(assert.o)
 .debug_loc     0x000000000000e811       0xb5 0x1 /usr/local/popcorn/aarch64/lib/libc.a(open.o)
 .debug_loc     0x000000000000e8c6       0xea 0x1 /usr/local/popcorn/aarch64/lib/libc.a(getrlimit.o)
 .debug_loc     0x000000000000e9b0       0x49 0x1 /usr/local/popcorn/aarch64/lib/libc.a(getc.o)
 .debug_loc     0x000000000000e9f9       0x49 0x1 /usr/local/popcorn/aarch64/lib/libc.a(getline.o)
 .debug_loc     0x000000000000ea42       0x9f 0x1 /usr/local/popcorn/aarch64/lib/libc.a(perror.o)
 .debug_loc     0x000000000000eae1       0x23 0x1 /usr/local/popcorn/aarch64/lib/libc.a(snprintf.o)
 .debug_loc     0x000000000000eb04      0x157 0x1 /usr/local/popcorn/aarch64/lib/libc.a(bsearch.o)
 .debug_loc     0x000000000000ec5b      0x168 0x1 /usr/local/popcorn/aarch64/lib/libc.a(strtol.o)
 .debug_loc     0x000000000000edc3        0x0 0x1 /usr/local/popcorn/aarch64/lib/libc.a(strncmp.o)
 .debug_loc     0x000000000000edc3        0x0 0x1 /usr/local/popcorn/aarch64/lib/libc.a(__syscall_cp.o)
 .debug_loc     0x000000000000edc3       0x36 0x1 /usr/local/popcorn/aarch64/lib/libc.a(pthread_attr_get.o)
 .debug_loc     0x000000000000edf9       0xc5 0x1 /usr/local/popcorn/aarch64/lib/libc.a(pthread_getattr_np.o)
 .debug_loc     0x000000000000eebe        0x0 0x1 /usr/local/popcorn/aarch64/lib/libc.a(pthread_migrate.o)
 .debug_loc     0x000000000000eebe        0x0 0x1 /usr/local/popcorn/aarch64/lib/libc.a(pthread_self.o)
 .debug_loc     0x000000000000eebe       0x46 0x1 /usr/local/popcorn/aarch64/lib/libc.a(close.o)
 .debug_loc     0x000000000000ef04        0x0 0x1 /usr/local/popcorn/aarch64/lib/libc.a(getpid.o)
 .debug_loc     0x000000000000ef04       0x46 0x1 /usr/local/popcorn/aarch64/lib/libc.a(lseek.o)
 .debug_loc     0x000000000000ef4a       0xb5 0x1 /usr/local/popcorn/aarch64/lib/libc.a(read.o)
 .debug_loc     0x000000000000efff        0x0 0x1 /usr/local/popcorn/aarch64/lib/libc.a(abort.o)
 .debug_loc     0x000000000000efff       0xdb 0x1 /usr/local/popcorn/aarch64/lib/libc.a(block.o)
 .debug_loc     0x000000000000f0da       0x9f 0x1 /usr/local/popcorn/aarch64/lib/libc.a(raise.o)
 .debug_loc     0x000000000000f179       0x7f 0x1 /usr/local/popcorn/aarch64/lib/libc.a(fputc.o)
 .debug_loc     0x000000000000f1f8      0x4a8 0x1 /usr/local/popcorn/aarch64/lib/libc.a(getdelim.o)
 .debug_loc     0x000000000000f6a0       0xb7 0x1 /usr/local/popcorn/aarch64/lib/libc.a(__overflow.o)

.debug_abbrev   0x0000000000000000     0x87a0
 .debug_abbrev  0x0000000000000000      0x132 0x1 dc_aarch64.o
 .debug_abbrev  0x0000000000000132      0x193 0x1 adc_aarch64.o
 .debug_abbrev  0x00000000000002c5      0x15a 0x1 extbuild_aarch64.o
 .debug_abbrev  0x000000000000041f      0x15c 0x1 jobcntl_aarch64.o
 .debug_abbrev  0x000000000000057b      0x125 0x1 rbt_aarch64.o
 .debug_abbrev  0x00000000000006a0       0xa8 0x1 c_timers_aarch64.o
 .debug_abbrev  0x0000000000000748       0x95 0x1 print_results_aarch64.o
 .debug_abbrev  0x00000000000007dd       0x77 0x1 randdp_aarch64.o
 .debug_abbrev  0x0000000000000854       0x62 0x1 c_print_results_aarch64.o
 .debug_abbrev  0x00000000000008b6       0x96 0x1 wtime_aarch64.o
 .debug_abbrev  0x000000000000094c       0x62 0x1 /usr/local/popcorn/aarch64/lib/crt1.o
 .debug_abbrev  0x00000000000009ae      0x104 0x1 /usr/local/popcorn/aarch64/lib/libc.a(isdigit.o)
 .debug_abbrev  0x0000000000000ab2      0x1b0 0x1 /usr/local/popcorn/aarch64/lib/libc.a(__libc_start_main.o)
 .debug_abbrev  0x0000000000000c62      0x12a 0x1 /usr/local/popcorn/aarch64/lib/libc.a(__errno_location.o)
 .debug_abbrev  0x0000000000000d8c       0xa0 0x1 /usr/local/popcorn/aarch64/lib/libc.a(exit.o)
 .debug_abbrev  0x0000000000000e2c       0x93 0x1 /usr/local/popcorn/aarch64/lib/libc.a(libc.o)
 .debug_abbrev  0x0000000000000ebf       0x57 0x1 /usr/local/popcorn/aarch64/lib/libc.a(calloc.o)
 .debug_abbrev  0x0000000000000f16       0xa5 0x1 /usr/local/popcorn/aarch64/lib/libc.a(lite_malloc.o)
 .debug_abbrev  0x0000000000000fbb      0x188 0x1 /usr/local/popcorn/aarch64/lib/libc.a(malloc.o)
 .debug_abbrev  0x0000000000001143      0x1a2 0x1 /usr/local/popcorn/aarch64/lib/libc.a(popcorn_malloc.o)
 .debug_abbrev  0x00000000000012e5      0x105 0x1 /usr/local/popcorn/aarch64/lib/libc.a(pow.o)
 .debug_abbrev  0x00000000000013ea       0x81 0x1 /usr/local/popcorn/aarch64/lib/libc.a(scalbn.o)
 .debug_abbrev  0x000000000000146b       0xc4 0x1 /usr/local/popcorn/aarch64/lib/libc.a(madvise.o)
 .debug_abbrev  0x000000000000152f       0xd8 0x1 /usr/local/popcorn/aarch64/lib/libc.a(mmap.o)
 .debug_abbrev  0x0000000000001607       0xec 0x1 /usr/local/popcorn/aarch64/lib/libc.a(mremap.o)
 .debug_abbrev  0x00000000000016f3       0xcb 0x1 /usr/local/popcorn/aarch64/lib/libc.a(munmap.o)
 .debug_abbrev  0x00000000000017be      0x10c 0x1 /usr/local/popcorn/aarch64/lib/libc.a(fclose.o)
 .debug_abbrev  0x00000000000018ca       0xfd 0x1 /usr/local/popcorn/aarch64/lib/libc.a(fflush.o)
 .debug_abbrev  0x00000000000019c7       0xe5 0x1 /usr/local/popcorn/aarch64/lib/libc.a(fgets.o)
 .debug_abbrev  0x0000000000001aac      0x13d 0x1 /usr/local/popcorn/aarch64/lib/libc.a(fopen.o)
 .debug_abbrev  0x0000000000001be9       0xd4 0x1 /usr/local/popcorn/aarch64/lib/libc.a(fprintf.o)
 .debug_abbrev  0x0000000000001cbd       0xe5 0x1 /usr/local/popcorn/aarch64/lib/libc.a(fread.o)
 .debug_abbrev  0x0000000000001da2       0xd4 0x1 /usr/local/popcorn/aarch64/lib/libc.a(fscanf.o)
 .debug_abbrev  0x0000000000001e76       0xfa 0x1 /usr/local/popcorn/aarch64/lib/libc.a(fseek.o)
 .debug_abbrev  0x0000000000001f70       0xfa 0x1 /usr/local/popcorn/aarch64/lib/libc.a(ftell.o)
 .debug_abbrev  0x000000000000206a      0x10d 0x1 /usr/local/popcorn/aarch64/lib/libc.a(fwrite.o)
 .debug_abbrev  0x0000000000002177       0xe7 0x1 /usr/local/popcorn/aarch64/lib/libc.a(ofl.o)
 .debug_abbrev  0x000000000000225e       0xaf 0x1 /usr/local/popcorn/aarch64/lib/libc.a(printf.o)
 .debug_abbrev  0x000000000000230d       0xbe 0x1 /usr/local/popcorn/aarch64/lib/libc.a(sprintf.o)
 .debug_abbrev  0x00000000000023cb       0xbe 0x1 /usr/local/popcorn/aarch64/lib/libc.a(sscanf.o)
 .debug_abbrev  0x0000000000002489       0xc2 0x1 /usr/local/popcorn/aarch64/lib/libc.a(stderr.o)
 .debug_abbrev  0x000000000000254b       0xcb 0x1 /usr/local/popcorn/aarch64/lib/libc.a(stdout.o)
 .debug_abbrev  0x0000000000002616      0x2bd 0x1 /usr/local/popcorn/aarch64/lib/libc.a(vfprintf.o)
 .debug_abbrev  0x00000000000028d3      0x1d8 0x1 /usr/local/popcorn/aarch64/lib/libc.a(vfscanf.o)
 .debug_abbrev  0x0000000000002aab       0x8f 0x1 /usr/local/popcorn/aarch64/lib/libc.a(vsprintf.o)
 .debug_abbrev  0x0000000000002b3a      0x129 0x1 /usr/local/popcorn/aarch64/lib/libc.a(vsscanf.o)
 .debug_abbrev  0x0000000000002c63       0xa7 0x1 /usr/local/popcorn/aarch64/lib/libc.a(atoi.o)
 .debug_abbrev  0x0000000000002d0a      0x1a0 0x1 /usr/local/popcorn/aarch64/lib/libc.a(qsort.o)
 .debug_abbrev  0x0000000000002eaa       0x82 0x1 /usr/local/popcorn/aarch64/lib/libc.a(memchr.o)
 .debug_abbrev  0x0000000000002f2c       0x80 0x1 /usr/local/popcorn/aarch64/lib/libc.a(memcpy.o)
 .debug_abbrev  0x0000000000002fac       0x6d 0x1 /usr/local/popcorn/aarch64/lib/libc.a(memset.o)
 .debug_abbrev  0x0000000000003019       0x5a 0x1 /usr/local/popcorn/aarch64/lib/libc.a(strcat.o)
 .debug_abbrev  0x0000000000003073       0x62 0x1 /usr/local/popcorn/aarch64/lib/libc.a(strchr.o)
 .debug_abbrev  0x00000000000030d5       0x74 0x1 /usr/local/popcorn/aarch64/lib/libc.a(strchrnul.o)
 .debug_abbrev  0x0000000000003149       0x53 0x1 /usr/local/popcorn/aarch64/lib/libc.a(strcmp.o)
 .debug_abbrev  0x000000000000319c       0x5a 0x1 /usr/local/popcorn/aarch64/lib/libc.a(strcpy.o)
 .debug_abbrev  0x00000000000031f6       0x74 0x1 /usr/local/popcorn/aarch64/lib/libc.a(strlen.o)
 .debug_abbrev  0x000000000000326a       0x6f 0x1 /usr/local/popcorn/aarch64/lib/libc.a(strnlen.o)
 .debug_abbrev  0x00000000000032d9       0xb6 0x1 /usr/local/popcorn/aarch64/lib/libc.a(strstr.o)
 .debug_abbrev  0x000000000000338f       0xfb 0x1 /usr/local/popcorn/aarch64/lib/libc.a(__lock.o)
 .debug_abbrev  0x000000000000348a      0x105 0x1 /usr/local/popcorn/aarch64/lib/libc.a(__wait.o)
 .debug_abbrev  0x000000000000358f       0x96 0x1 /usr/local/popcorn/aarch64/lib/libc.a(gettimeofday.o)
 .debug_abbrev  0x0000000000003625       0xb1 0x1 /usr/local/popcorn/aarch64/lib/libc.a(unlink.o)
 .debug_abbrev  0x00000000000036d6       0x36 0x1 /usr/local/popcorn/aarch64/lib/libc.a(__environ.o)
 .debug_abbrev  0x000000000000370c      0x1c7 0x1 /usr/local/popcorn/aarch64/lib/libc.a(__init_tls.o)
 .debug_abbrev  0x00000000000038d3      0x103 0x1 /usr/local/popcorn/aarch64/lib/libc.a(platform.o)
 .debug_abbrev  0x00000000000039d6      0x16b 0x1 /usr/local/popcorn/aarch64/lib/libc.a(strerror.o)
 .debug_abbrev  0x0000000000003b41       0x8f 0x1 /usr/local/popcorn/aarch64/lib/libc.a(_Exit.o)
 .debug_abbrev  0x0000000000003bd0      0x141 0x1 /usr/local/popcorn/aarch64/lib/libc.a(floatscan.o)
 .debug_abbrev  0x0000000000003d11      0x10e 0x1 /usr/local/popcorn/aarch64/lib/libc.a(intscan.o)
 .debug_abbrev  0x0000000000003e1f       0xed 0x1 /usr/local/popcorn/aarch64/lib/libc.a(shgetc.o)
 .debug_abbrev  0x0000000000003f0c       0x45 0x1 /usr/local/popcorn/aarch64/lib/libc.a(syscall_ret.o)
 .debug_abbrev  0x0000000000003f51      0x14d 0x1 /usr/local/popcorn/aarch64/lib/libc.a(__lctrans.o)
 .debug_abbrev  0x000000000000409e       0xf4 0x1 /usr/local/popcorn/aarch64/lib/libc.a(expand_heap.o)
 .debug_abbrev  0x0000000000004192       0x9b 0x1 /usr/local/popcorn/aarch64/lib/libc.a(__fpclassifyl.o)
 .debug_abbrev  0x000000000000422d       0x8e 0x1 /usr/local/popcorn/aarch64/lib/libc.a(__signbitl.o)
 .debug_abbrev  0x00000000000042bb       0x4b 0x1 /usr/local/popcorn/aarch64/lib/libc.a(fabs.o)
 .debug_abbrev  0x0000000000004306       0x4b 0x1 /usr/local/popcorn/aarch64/lib/libc.a(sqrt.o)
 .debug_abbrev  0x0000000000004351       0xac 0x1 /usr/local/popcorn/aarch64/lib/libc.a(copysignl.o)
 .debug_abbrev  0x00000000000043fd       0xc5 0x1 /usr/local/popcorn/aarch64/lib/libc.a(fmodl.o)
 .debug_abbrev  0x00000000000044c2       0xa2 0x1 /usr/local/popcorn/aarch64/lib/libc.a(frexpl.o)
 .debug_abbrev  0x0000000000004564       0x8e 0x1 /usr/local/popcorn/aarch64/lib/libc.a(scalbnl.o)
 .debug_abbrev  0x00000000000045f2      0x176 0x1 /usr/local/popcorn/aarch64/lib/libc.a(mbrtowc.o)
 .debug_abbrev  0x0000000000004768       0x82 0x1 /usr/local/popcorn/aarch64/lib/libc.a(mbsinit.o)
 .debug_abbrev  0x00000000000047ea       0x6e 0x1 /usr/local/popcorn/aarch64/lib/libc.a(wctomb.o)
 .debug_abbrev  0x0000000000004858      0x15c 0x1 /usr/local/popcorn/aarch64/lib/libc.a(__fdopen.o)
 .debug_abbrev  0x00000000000049b4       0x68 0x1 /usr/local/popcorn/aarch64/lib/libc.a(__fmodeflags.o)
 .debug_abbrev  0x0000000000004a1c      0x1da 0x1 /usr/local/popcorn/aarch64/lib/libc.a(__lockfile.o)
 .debug_abbrev  0x0000000000004bf6      0x14e 0x1 /usr/local/popcorn/aarch64/lib/libc.a(__stdio_close.o)
 .debug_abbrev  0x0000000000004d44      0x161 0x1 /usr/local/popcorn/aarch64/lib/libc.a(__stdio_read.o)
 .debug_abbrev  0x0000000000004ea5      0x136 0x1 /usr/local/popcorn/aarch64/lib/libc.a(__stdio_seek.o)
 .debug_abbrev  0x0000000000004fdb      0x16e 0x1 /usr/local/popcorn/aarch64/lib/libc.a(__stdio_write.o)
 .debug_abbrev  0x0000000000005149      0x127 0x1 /usr/local/popcorn/aarch64/lib/libc.a(__stdout_write.o)
 .debug_abbrev  0x0000000000005270       0xde 0x1 /usr/local/popcorn/aarch64/lib/libc.a(__string_read.o)
 .debug_abbrev  0x000000000000534e       0xe5 0x1 /usr/local/popcorn/aarch64/lib/libc.a(__toread.o)
 .debug_abbrev  0x0000000000005433       0xe5 0x1 /usr/local/popcorn/aarch64/lib/libc.a(__towrite.o)
 .debug_abbrev  0x0000000000005518       0xde 0x1 /usr/local/popcorn/aarch64/lib/libc.a(__uflow.o)
 .debug_abbrev  0x00000000000055f6       0xde 0x1 /usr/local/popcorn/aarch64/lib/libc.a(ofl_add.o)
 .debug_abbrev  0x00000000000056d4      0x136 0x1 /usr/local/popcorn/aarch64/lib/libc.a(vsnprintf.o)
 .debug_abbrev  0x000000000000580a       0x74 0x1 /usr/local/popcorn/aarch64/lib/libc.a(memcmp.o)
 .debug_abbrev  0x000000000000587e       0x80 0x1 /usr/local/popcorn/aarch64/lib/libc.a(stpcpy.o)
 .debug_abbrev  0x00000000000058fe       0x28 0x1 /usr/local/popcorn/aarch64/lib/libc.a(__set_thread_area.o)
 .debug_abbrev  0x0000000000005926       0xf8 0x1 /usr/local/popcorn/aarch64/lib/libc.a(clock_gettime.o)
 .debug_abbrev  0x0000000000005a1e       0x5e 0x1 /usr/local/popcorn/aarch64/lib/libc.a(internal.o)
 .debug_abbrev  0x0000000000005a7c      0x167 0x1 /usr/local/popcorn/aarch64/lib/libc.a(wcrtomb.o)
 .debug_abbrev  0x0000000000005be3       0xff 0x1 /usr/local/popcorn/aarch64/lib/libc.a(__stdio_exit.o)
 .debug_abbrev  0x0000000000005ce2      0x200 0x1 /usr/local/popcorn/aarch64/lib/libmigrate.a(migrate.o)
 .debug_abbrev  0x0000000000005ee2      0x127 0x1 /usr/local/popcorn/aarch64/lib/libmigrate.a(mapping.o)
 .debug_abbrev  0x0000000000006009      0x250 0x1 /usr/local/popcorn/aarch64/lib/libstack-transform.a(userspace.o)
 .debug_abbrev  0x0000000000006259      0x166 0x1 /usr/local/popcorn/aarch64/lib/libstack-transform.a(init.o)
 .debug_abbrev  0x00000000000063bf      0x291 0x1 /usr/local/popcorn/aarch64/lib/libstack-transform.a(rewrite.o)
 .debug_abbrev  0x0000000000006650      0x1f9 0x1 /usr/local/popcorn/aarch64/lib/libstack-transform.a(unwind.o)
 .debug_abbrev  0x0000000000006849      0x19a 0x1 /usr/local/popcorn/aarch64/lib/libstack-transform.a(util.o)
 .debug_abbrev  0x00000000000069e3       0xdd 0x1 /usr/local/popcorn/aarch64/lib/libstack-transform.a(properties.o)
 .debug_abbrev  0x0000000000006ac0      0x131 0x1 /usr/local/popcorn/aarch64/lib/libstack-transform.a(regs.o)
 .debug_abbrev  0x0000000000006bf1       0xec 0x1 /usr/local/popcorn/aarch64/lib/libstack-transform.a(properties.o)
 .debug_abbrev  0x0000000000006cdd      0x131 0x1 /usr/local/popcorn/aarch64/lib/libstack-transform.a(regs.o)
 .debug_abbrev  0x0000000000006e0e       0xdd 0x1 /usr/local/popcorn/aarch64/lib/libstack-transform.a(properties.o)
 .debug_abbrev  0x0000000000006eeb      0x131 0x1 /usr/local/popcorn/aarch64/lib/libstack-transform.a(regs.o)
 .debug_abbrev  0x000000000000701c      0x249 0x1 /usr/local/popcorn/aarch64/lib/libstack-transform.a(data.o)
 .debug_abbrev  0x0000000000007265       0xab 0x1 /usr/local/popcorn/aarch64/lib/libc.a(arch_crash.o)
 .debug_abbrev  0x0000000000007310       0x89 0x1 /usr/local/popcorn/aarch64/lib/libc.a(getenv.o)
 .debug_abbrev  0x0000000000007399       0x57 0x1 /usr/local/popcorn/aarch64/lib/libc.a(assert.o)
 .debug_abbrev  0x00000000000073f0      0x100 0x1 /usr/local/popcorn/aarch64/lib/libc.a(open.o)
 .debug_abbrev  0x00000000000074f0      0x10c 0x1 /usr/local/popcorn/aarch64/lib/libc.a(getrlimit.o)
 .debug_abbrev  0x00000000000075fc       0xdc 0x1 /usr/local/popcorn/aarch64/lib/libc.a(getc.o)
 .debug_abbrev  0x00000000000076d8       0x8b 0x1 /usr/local/popcorn/aarch64/lib/libc.a(getline.o)
 .debug_abbrev  0x0000000000007763       0xdc 0x1 /usr/local/popcorn/aarch64/lib/libc.a(perror.o)
 .debug_abbrev  0x000000000000783f       0xbe 0x1 /usr/local/popcorn/aarch64/lib/libc.a(snprintf.o)
 .debug_abbrev  0x00000000000078fd       0x95 0x1 /usr/local/popcorn/aarch64/lib/libc.a(bsearch.o)
 .debug_abbrev  0x0000000000007992      0x15d 0x1 /usr/local/popcorn/aarch64/lib/libc.a(strtol.o)
 .debug_abbrev  0x0000000000007aef       0x74 0x1 /usr/local/popcorn/aarch64/lib/libc.a(strncmp.o)
 .debug_abbrev  0x0000000000007b63       0x70 0x1 /usr/local/popcorn/aarch64/lib/libc.a(__syscall_cp.o)
 .debug_abbrev  0x0000000000007bd3      0x109 0x1 /usr/local/popcorn/aarch64/lib/libc.a(pthread_attr_get.o)
 .debug_abbrev  0x0000000000007cdc      0x125 0x1 /usr/local/popcorn/aarch64/lib/libc.a(pthread_getattr_np.o)
 .debug_abbrev  0x0000000000007e01      0x14f 0x1 /usr/local/popcorn/aarch64/lib/libc.a(pthread_migrate.o)
 .debug_abbrev  0x0000000000007f50      0x126 0x1 /usr/local/popcorn/aarch64/lib/libc.a(pthread_self.o)
 .debug_abbrev  0x0000000000008076       0x81 0x1 /usr/local/popcorn/aarch64/lib/libc.a(close.o)
 .debug_abbrev  0x00000000000080f7       0xa1 0x1 /usr/local/popcorn/aarch64/lib/libc.a(getpid.o)
 .debug_abbrev  0x0000000000008198       0xbf 0x1 /usr/local/popcorn/aarch64/lib/libc.a(lseek.o)
 .debug_abbrev  0x0000000000008257       0x5d 0x1 /usr/local/popcorn/aarch64/lib/libc.a(read.o)
 .debug_abbrev  0x00000000000082b4       0x67 0x1 /usr/local/popcorn/aarch64/lib/libc.a(abort.o)
 .debug_abbrev  0x000000000000831b       0x28 0x1 /usr/local/popcorn/aarch64/lib/libc.a(syscall.o)
 .debug_abbrev  0x0000000000008343       0xce 0x1 /usr/local/popcorn/aarch64/lib/libc.a(block.o)
 .debug_abbrev  0x0000000000008411       0xf6 0x1 /usr/local/popcorn/aarch64/lib/libc.a(raise.o)
 .debug_abbrev  0x0000000000008507       0xcf 0x1 /usr/local/popcorn/aarch64/lib/libc.a(fputc.o)
 .debug_abbrev  0x00000000000085d6       0xec 0x1 /usr/local/popcorn/aarch64/lib/libc.a(getdelim.o)
 .debug_abbrev  0x00000000000086c2       0xde 0x1 /usr/local/popcorn/aarch64/lib/libc.a(__overflow.o)

.debug_info     0x0000000000000000    0x20170
 .debug_info    0x0000000000000000      0x8f2 0x1 dc_aarch64.o
 .debug_info    0x00000000000008f2      0xb85 0x1 adc_aarch64.o
 .debug_info    0x0000000000001477     0x10f9 0x1 extbuild_aarch64.o
 .debug_info    0x0000000000002570     0x143a 0x1 jobcntl_aarch64.o
 .debug_info    0x00000000000039aa      0x8fa 0x1 rbt_aarch64.o
 .debug_info    0x00000000000042a4      0x14e 0x1 c_timers_aarch64.o
 .debug_info    0x00000000000043f2      0x1c4 0x1 print_results_aarch64.o
 .debug_info    0x00000000000045b6      0x25b 0x1 randdp_aarch64.o
 .debug_info    0x0000000000004811      0x18c 0x1 c_print_results_aarch64.o
 .debug_info    0x000000000000499d       0xc7 0x1 wtime_aarch64.o
 .debug_info    0x0000000000004a64       0x8b 0x1 /usr/local/popcorn/aarch64/lib/crt1.o
 .debug_info    0x0000000000004aef      0x10e 0x1 /usr/local/popcorn/aarch64/lib/libc.a(isdigit.o)
 .debug_info    0x0000000000004bfd      0x3b1 0x1 /usr/local/popcorn/aarch64/lib/libc.a(__libc_start_main.o)
 .debug_info    0x0000000000004fae      0x3a5 0x1 /usr/local/popcorn/aarch64/lib/libc.a(__errno_location.o)
 .debug_info    0x0000000000005353       0xb0 0x1 /usr/local/popcorn/aarch64/lib/libc.a(exit.o)
 .debug_info    0x0000000000005403      0x1d7 0x1 /usr/local/popcorn/aarch64/lib/libc.a(libc.o)
 .debug_info    0x00000000000055da       0xf5 0x1 /usr/local/popcorn/aarch64/lib/libc.a(calloc.o)
 .debug_info    0x00000000000056cf      0x12f 0x1 /usr/local/popcorn/aarch64/lib/libc.a(lite_malloc.o)
 .debug_info    0x00000000000057fe      0xba3 0x1 /usr/local/popcorn/aarch64/lib/libc.a(malloc.o)
 .debug_info    0x00000000000063a1      0xd0e 0x1 /usr/local/popcorn/aarch64/lib/libc.a(popcorn_malloc.o)
 .debug_info    0x00000000000070af      0x79b 0x1 /usr/local/popcorn/aarch64/lib/libc.a(pow.o)
 .debug_info    0x000000000000784a       0xc9 0x1 /usr/local/popcorn/aarch64/lib/libc.a(scalbn.o)
 .debug_info    0x0000000000007913      0x121 0x1 /usr/local/popcorn/aarch64/lib/libc.a(madvise.o)
 .debug_info    0x0000000000007a34      0x1b6 0x1 /usr/local/popcorn/aarch64/lib/libc.a(mmap.o)
 .debug_info    0x0000000000007bea      0x1e5 0x1 /usr/local/popcorn/aarch64/lib/libc.a(mremap.o)
 .debug_info    0x0000000000007dcf      0x113 0x1 /usr/local/popcorn/aarch64/lib/libc.a(munmap.o)
 .debug_info    0x0000000000007ee2      0x373 0x1 /usr/local/popcorn/aarch64/lib/libc.a(fclose.o)
 .debug_info    0x0000000000008255      0x35c 0x1 /usr/local/popcorn/aarch64/lib/libc.a(fflush.o)
 .debug_info    0x00000000000085b1      0x374 0x1 /usr/local/popcorn/aarch64/lib/libc.a(fgets.o)
 .debug_info    0x0000000000008925      0x507 0x1 /usr/local/popcorn/aarch64/lib/libc.a(fopen.o)
 .debug_info    0x0000000000008e2c      0x10e 0x1 /usr/local/popcorn/aarch64/lib/libc.a(fprintf.o)
 .debug_info    0x0000000000008f3a      0x383 0x1 /usr/local/popcorn/aarch64/lib/libc.a(fread.o)
 .debug_info    0x00000000000092bd      0x10e 0x1 /usr/local/popcorn/aarch64/lib/libc.a(fscanf.o)
 .debug_info    0x00000000000093cb      0x3c1 0x1 /usr/local/popcorn/aarch64/lib/libc.a(fseek.o)
 .debug_info    0x000000000000978c      0x385 0x1 /usr/local/popcorn/aarch64/lib/libc.a(ftell.o)
 .debug_info    0x0000000000009b11      0x3d4 0x1 /usr/local/popcorn/aarch64/lib/libc.a(fwrite.o)
 .debug_info    0x0000000000009ee5      0x341 0x1 /usr/local/popcorn/aarch64/lib/libc.a(ofl.o)
 .debug_info    0x000000000000a226       0xe6 0x1 /usr/local/popcorn/aarch64/lib/libc.a(printf.o)
 .debug_info    0x000000000000a30c       0xfd 0x1 /usr/local/popcorn/aarch64/lib/libc.a(sprintf.o)
 .debug_info    0x000000000000a409       0xf3 0x1 /usr/local/popcorn/aarch64/lib/libc.a(sscanf.o)
 .debug_info    0x000000000000a4fc      0x336 0x1 /usr/local/popcorn/aarch64/lib/libc.a(stderr.o)
 .debug_info    0x000000000000a832      0x337 0x1 /usr/local/popcorn/aarch64/lib/libc.a(stdout.o)
 .debug_info    0x000000000000ab69     0x1126 0x1 /usr/local/popcorn/aarch64/lib/libc.a(vfprintf.o)
 .debug_info    0x000000000000bc8f      0x693 0x1 /usr/local/popcorn/aarch64/lib/libc.a(vfscanf.o)
 .debug_info    0x000000000000c322       0xe7 0x1 /usr/local/popcorn/aarch64/lib/libc.a(vsprintf.o)
 .debug_info    0x000000000000c409      0x3cb 0x1 /usr/local/popcorn/aarch64/lib/libc.a(vsscanf.o)
 .debug_info    0x000000000000c7d4       0xb9 0x1 /usr/local/popcorn/aarch64/lib/libc.a(atoi.o)
 .debug_info    0x000000000000c88d      0x622 0x1 /usr/local/popcorn/aarch64/lib/libc.a(qsort.o)
 .debug_info    0x000000000000ceaf       0xef 0x1 /usr/local/popcorn/aarch64/lib/libc.a(memchr.o)
 .debug_info    0x000000000000cf9e      0x110 0x1 /usr/local/popcorn/aarch64/lib/libc.a(memcpy.o)
 .debug_info    0x000000000000d0ae      0x115 0x1 /usr/local/popcorn/aarch64/lib/libc.a(memset.o)
 .debug_info    0x000000000000d1c3       0x81 0x1 /usr/local/popcorn/aarch64/lib/libc.a(strcat.o)
 .debug_info    0x000000000000d244       0x98 0x1 /usr/local/popcorn/aarch64/lib/libc.a(strchr.o)
 .debug_info    0x000000000000d2dc       0xc9 0x1 /usr/local/popcorn/aarch64/lib/libc.a(strchrnul.o)
 .debug_info    0x000000000000d3a5       0x85 0x1 /usr/local/popcorn/aarch64/lib/libc.a(strcmp.o)
 .debug_info    0x000000000000d42a       0x81 0x1 /usr/local/popcorn/aarch64/lib/libc.a(strcpy.o)
 .debug_info    0x000000000000d4ab       0xad 0x1 /usr/local/popcorn/aarch64/lib/libc.a(strlen.o)
 .debug_info    0x000000000000d558       0x92 0x1 /usr/local/popcorn/aarch64/lib/libc.a(strnlen.o)
 .debug_info    0x000000000000d5ea      0x2e5 0x1 /usr/local/popcorn/aarch64/lib/libc.a(strstr.o)
 .debug_info    0x000000000000d8cf      0x2ea 0x1 /usr/local/popcorn/aarch64/lib/libc.a(__lock.o)
 .debug_info    0x000000000000dbb9      0x34f 0x1 /usr/local/popcorn/aarch64/lib/libc.a(__wait.o)
 .debug_info    0x000000000000df08       0xee 0x1 /usr/local/popcorn/aarch64/lib/libc.a(gettimeofday.o)
 .debug_info    0x000000000000dff6      0x114 0x1 /usr/local/popcorn/aarch64/lib/libc.a(unlink.o)
 .debug_info    0x000000000000e10a       0x45 0x1 /usr/local/popcorn/aarch64/lib/libc.a(__environ.o)
 .debug_info    0x000000000000e14f      0x7aa 0x1 /usr/local/popcorn/aarch64/lib/libc.a(__init_tls.o)
 .debug_info    0x000000000000e8f9      0x285 0x1 /usr/local/popcorn/aarch64/lib/libc.a(platform.o)
 .debug_info    0x000000000000eb7e      0x495 0x1 /usr/local/popcorn/aarch64/lib/libc.a(strerror.o)
 .debug_info    0x000000000000f013       0xcb 0x1 /usr/local/popcorn/aarch64/lib/libc.a(_Exit.o)
 .debug_info    0x000000000000f0de      0x844 0x1 /usr/local/popcorn/aarch64/lib/libc.a(floatscan.o)
 .debug_info    0x000000000000f922      0x3de 0x1 /usr/local/popcorn/aarch64/lib/libc.a(intscan.o)
 .debug_info    0x000000000000fd00      0x340 0x1 /usr/local/popcorn/aarch64/lib/libc.a(shgetc.o)
 .debug_info    0x0000000000010040       0x61 0x1 /usr/local/popcorn/aarch64/lib/libc.a(syscall_ret.o)
 .debug_info    0x00000000000100a1      0x467 0x1 /usr/local/popcorn/aarch64/lib/libc.a(__lctrans.o)
 .debug_info    0x0000000000010508      0x494 0x1 /usr/local/popcorn/aarch64/lib/libc.a(expand_heap.o)
 .debug_info    0x000000000001099c      0x12f 0x1 /usr/local/popcorn/aarch64/lib/libc.a(__fpclassifyl.o)
 .debug_info    0x0000000000010acb      0x124 0x1 /usr/local/popcorn/aarch64/lib/libc.a(__signbitl.o)
 .debug_info    0x0000000000010bef       0x5b 0x1 /usr/local/popcorn/aarch64/lib/libc.a(fabs.o)
 .debug_info    0x0000000000010c4a       0x5b 0x1 /usr/local/popcorn/aarch64/lib/libc.a(sqrt.o)
 .debug_info    0x0000000000010ca5      0x13b 0x1 /usr/local/popcorn/aarch64/lib/libc.a(copysignl.o)
 .debug_info    0x0000000000010de0      0x25a 0x1 /usr/local/popcorn/aarch64/lib/libc.a(fmodl.o)
 .debug_info    0x000000000001103a      0x145 0x1 /usr/local/popcorn/aarch64/lib/libc.a(frexpl.o)
 .debug_info    0x000000000001117f      0x142 0x1 /usr/local/popcorn/aarch64/lib/libc.a(scalbnl.o)
 .debug_info    0x00000000000112c1      0x4f8 0x1 /usr/local/popcorn/aarch64/lib/libc.a(mbrtowc.o)
 .debug_info    0x00000000000117b9       0xa1 0x1 /usr/local/popcorn/aarch64/lib/libc.a(mbsinit.o)
 .debug_info    0x000000000001185a       0x86 0x1 /usr/local/popcorn/aarch64/lib/libc.a(wctomb.o)
 .debug_info    0x00000000000118e0      0x54c 0x1 /usr/local/popcorn/aarch64/lib/libc.a(__fdopen.o)
 .debug_info    0x0000000000011e2c       0x7b 0x1 /usr/local/popcorn/aarch64/lib/libc.a(__fmodeflags.o)
 .debug_info    0x0000000000011ea7      0x8b0 0x1 /usr/local/popcorn/aarch64/lib/libc.a(__lockfile.o)
 .debug_info    0x0000000000012757      0x38a 0x1 /usr/local/popcorn/aarch64/lib/libc.a(__stdio_close.o)
 .debug_info    0x0000000000012ae1      0x413 0x1 /usr/local/popcorn/aarch64/lib/libc.a(__stdio_read.o)
 .debug_info    0x0000000000012ef4      0x3b4 0x1 /usr/local/popcorn/aarch64/lib/libc.a(__stdio_seek.o)
 .debug_info    0x00000000000132a8      0x42e 0x1 /usr/local/popcorn/aarch64/lib/libc.a(__stdio_write.o)
 .debug_info    0x00000000000136d6      0x408 0x1 /usr/local/popcorn/aarch64/lib/libc.a(__stdout_write.o)
 .debug_info    0x0000000000013ade      0x34c 0x1 /usr/local/popcorn/aarch64/lib/libc.a(__string_read.o)
 .debug_info    0x0000000000013e2a      0x316 0x1 /usr/local/popcorn/aarch64/lib/libc.a(__toread.o)
 .debug_info    0x0000000000014140      0x314 0x1 /usr/local/popcorn/aarch64/lib/libc.a(__towrite.o)
 .debug_info    0x0000000000014454      0x310 0x1 /usr/local/popcorn/aarch64/lib/libc.a(__uflow.o)
 .debug_info    0x0000000000014764      0x315 0x1 /usr/local/popcorn/aarch64/lib/libc.a(ofl_add.o)
 .debug_info    0x0000000000014a79      0x468 0x1 /usr/local/popcorn/aarch64/lib/libc.a(vsnprintf.o)
 .debug_info    0x0000000000014ee1       0xbb 0x1 /usr/local/popcorn/aarch64/lib/libc.a(memcmp.o)
 .debug_info    0x0000000000014f9c       0xd0 0x1 /usr/local/popcorn/aarch64/lib/libc.a(stpcpy.o)
 .debug_info    0x000000000001506c       0xbe 0x1 /usr/local/popcorn/aarch64/lib/libc.a(__set_thread_area.o)
 .debug_info    0x000000000001512a      0x189 0x1 /usr/local/popcorn/aarch64/lib/libc.a(clock_gettime.o)
 .debug_info    0x00000000000152b3       0x5e 0x1 /usr/local/popcorn/aarch64/lib/libc.a(internal.o)
 .debug_info    0x0000000000015311      0x462 0x1 /usr/local/popcorn/aarch64/lib/libc.a(wcrtomb.o)
 .debug_info    0x0000000000015773      0x338 0x1 /usr/local/popcorn/aarch64/lib/libc.a(__stdio_exit.o)
 .debug_info    0x0000000000015aab      0x416 0x1 /usr/local/popcorn/aarch64/lib/libmigrate.a(migrate.o)
 .debug_info    0x0000000000015ec1      0x298 0x1 /usr/local/popcorn/aarch64/lib/libmigrate.a(mapping.o)
 .debug_info    0x0000000000016159      0xd01 0x1 /usr/local/popcorn/aarch64/lib/libstack-transform.a(userspace.o)
 .debug_info    0x0000000000016e5a      0x868 0x1 /usr/local/popcorn/aarch64/lib/libstack-transform.a(init.o)
 .debug_info    0x00000000000176c2      0xecf 0x1 /usr/local/popcorn/aarch64/lib/libstack-transform.a(rewrite.o)
 .debug_info    0x0000000000018591      0xd31 0x1 /usr/local/popcorn/aarch64/lib/libstack-transform.a(unwind.o)
 .debug_info    0x00000000000192c2      0xc1e 0x1 /usr/local/popcorn/aarch64/lib/libstack-transform.a(util.o)
 .debug_info    0x0000000000019ee0      0x1eb 0x1 /usr/local/popcorn/aarch64/lib/libstack-transform.a(properties.o)
 .debug_info    0x000000000001a0cb      0x61a 0x1 /usr/local/popcorn/aarch64/lib/libstack-transform.a(regs.o)
 .debug_info    0x000000000001a6e5      0x206 0x1 /usr/local/popcorn/aarch64/lib/libstack-transform.a(properties.o)
 .debug_info    0x000000000001a8eb      0x613 0x1 /usr/local/popcorn/aarch64/lib/libstack-transform.a(regs.o)
 .debug_info    0x000000000001aefe      0x1eb 0x1 /usr/local/popcorn/aarch64/lib/libstack-transform.a(properties.o)
 .debug_info    0x000000000001b0e9      0x748 0x1 /usr/local/popcorn/aarch64/lib/libstack-transform.a(regs.o)
 .debug_info    0x000000000001b831      0xec5 0x1 /usr/local/popcorn/aarch64/lib/libstack-transform.a(data.o)
 .debug_info    0x000000000001c6f6      0x1cc 0x1 /usr/local/popcorn/aarch64/lib/libc.a(arch_crash.o)
 .debug_info    0x000000000001c8c2       0xa1 0x1 /usr/local/popcorn/aarch64/lib/libc.a(getenv.o)
 .debug_info    0x000000000001c963       0x95 0x1 /usr/local/popcorn/aarch64/lib/libc.a(assert.o)
 .debug_info    0x000000000001c9f8      0x1c0 0x1 /usr/local/popcorn/aarch64/lib/libc.a(open.o)
 .debug_info    0x000000000001cbb8      0x212 0x1 /usr/local/popcorn/aarch64/lib/libc.a(getrlimit.o)
 .debug_info    0x000000000001cdca      0x30c 0x1 /usr/local/popcorn/aarch64/lib/libc.a(getc.o)
 .debug_info    0x000000000001d0d6       0xcd 0x1 /usr/local/popcorn/aarch64/lib/libc.a(getline.o)
 .debug_info    0x000000000001d1a3      0x334 0x1 /usr/local/popcorn/aarch64/lib/libc.a(perror.o)
 .debug_info    0x000000000001d4d7      0x11c 0x1 /usr/local/popcorn/aarch64/lib/libc.a(snprintf.o)
 .debug_info    0x000000000001d5f3       0xeb 0x1 /usr/local/popcorn/aarch64/lib/libc.a(bsearch.o)
 .debug_info    0x000000000001d6de      0x5aa 0x1 /usr/local/popcorn/aarch64/lib/libc.a(strtol.o)
 .debug_info    0x000000000001dc88       0xc7 0x1 /usr/local/popcorn/aarch64/lib/libc.a(strncmp.o)
 .debug_info    0x000000000001dd4f      0x127 0x1 /usr/local/popcorn/aarch64/lib/libc.a(__syscall_cp.o)
 .debug_info    0x000000000001de76      0x59c 0x1 /usr/local/popcorn/aarch64/lib/libc.a(pthread_attr_get.o)
 .debug_info    0x000000000001e412      0x431 0x1 /usr/local/popcorn/aarch64/lib/libc.a(pthread_getattr_np.o)
 .debug_info    0x000000000001e843      0x3de 0x1 /usr/local/popcorn/aarch64/lib/libc.a(pthread_migrate.o)
 .debug_info    0x000000000001ec21      0x3ac 0x1 /usr/local/popcorn/aarch64/lib/libc.a(pthread_self.o)
 .debug_info    0x000000000001efcd       0x98 0x1 /usr/local/popcorn/aarch64/lib/libc.a(close.o)
 .debug_info    0x000000000001f065       0xb6 0x1 /usr/local/popcorn/aarch64/lib/libc.a(getpid.o)
 .debug_info    0x000000000001f11b      0x115 0x1 /usr/local/popcorn/aarch64/lib/libc.a(lseek.o)
 .debug_info    0x000000000001f230       0x9e 0x1 /usr/local/popcorn/aarch64/lib/libc.a(read.o)
 .debug_info    0x000000000001f2ce       0x6d 0x1 /usr/local/popcorn/aarch64/lib/libc.a(abort.o)
 .debug_info    0x000000000001f33b       0xac 0x1 /usr/local/popcorn/aarch64/lib/libc.a(syscall.o)
 .debug_info    0x000000000001f3e7      0x202 0x1 /usr/local/popcorn/aarch64/lib/libc.a(block.o)
 .debug_info    0x000000000001f5e9      0x197 0x1 /usr/local/popcorn/aarch64/lib/libc.a(raise.o)
 .debug_info    0x000000000001f780      0x310 0x1 /usr/local/popcorn/aarch64/lib/libc.a(fputc.o)
 .debug_info    0x000000000001fa90      0x3c1 0x1 /usr/local/popcorn/aarch64/lib/libc.a(getdelim.o)
 .debug_info    0x000000000001fe51      0x31f 0x1 /usr/local/popcorn/aarch64/lib/libc.a(__overflow.o)

.debug_ranges   0x0000000000000000     0x3790
 .debug_ranges  0x0000000000000000       0x40 0x1 dc_aarch64.o
 .debug_ranges  0x0000000000000040      0x110 0x1 adc_aarch64.o
 .debug_ranges  0x0000000000000150      0x120 0x1 extbuild_aarch64.o
 .debug_ranges  0x0000000000000270      0x1d0 0x1 jobcntl_aarch64.o
 .debug_ranges  0x0000000000000440       0xa0 0x1 rbt_aarch64.o
 .debug_ranges  0x00000000000004e0       0x60 0x1 c_timers_aarch64.o
 .debug_ranges  0x0000000000000540        0x0 0x1 print_results_aarch64.o
 .debug_ranges  0x0000000000000540       0x30 0x1 randdp_aarch64.o
 .debug_ranges  0x0000000000000570        0x0 0x1 c_print_results_aarch64.o
 .debug_ranges  0x0000000000000570        0x0 0x1 wtime_aarch64.o
 .debug_ranges  0x0000000000000570        0x0 0x1 /usr/local/popcorn/aarch64/lib/crt1.o
 .debug_ranges  0x0000000000000570       0x30 0x1 /usr/local/popcorn/aarch64/lib/libc.a(isdigit.o)
 .debug_ranges  0x00000000000005a0       0xc0 0x1 /usr/local/popcorn/aarch64/lib/libc.a(__libc_start_main.o)
 .debug_ranges  0x0000000000000660        0x0 0x1 /usr/local/popcorn/aarch64/lib/libc.a(__errno_location.o)
 .debug_ranges  0x0000000000000660       0x40 0x1 /usr/local/popcorn/aarch64/lib/libc.a(exit.o)
 .debug_ranges  0x00000000000006a0        0x0 0x1 /usr/local/popcorn/aarch64/lib/libc.a(libc.o)
 .debug_ranges  0x00000000000006a0       0x40 0x1 /usr/local/popcorn/aarch64/lib/libc.a(calloc.o)
 .debug_ranges  0x00000000000006e0        0x0 0x1 /usr/local/popcorn/aarch64/lib/libc.a(lite_malloc.o)
 .debug_ranges  0x00000000000006e0      0x230 0x1 /usr/local/popcorn/aarch64/lib/libc.a(malloc.o)
 .debug_ranges  0x0000000000000910      0x250 0x1 /usr/local/popcorn/aarch64/lib/libc.a(popcorn_malloc.o)
 .debug_ranges  0x0000000000000b60      0x200 0x1 /usr/local/popcorn/aarch64/lib/libc.a(pow.o)
 .debug_ranges  0x0000000000000d60        0x0 0x1 /usr/local/popcorn/aarch64/lib/libc.a(scalbn.o)
 .debug_ranges  0x0000000000000d60        0x0 0x1 /usr/local/popcorn/aarch64/lib/libc.a(madvise.o)
 .debug_ranges  0x0000000000000d60       0x60 0x1 /usr/local/popcorn/aarch64/lib/libc.a(mmap.o)
 .debug_ranges  0x0000000000000dc0       0x30 0x1 /usr/local/popcorn/aarch64/lib/libc.a(mremap.o)
 .debug_ranges  0x0000000000000df0       0x30 0x1 /usr/local/popcorn/aarch64/lib/libc.a(munmap.o)
 .debug_ranges  0x0000000000000e20       0x30 0x1 /usr/local/popcorn/aarch64/lib/libc.a(fclose.o)
 .debug_ranges  0x0000000000000e50       0x30 0x1 /usr/local/popcorn/aarch64/lib/libc.a(fflush.o)
 .debug_ranges  0x0000000000000e80        0x0 0x1 /usr/local/popcorn/aarch64/lib/libc.a(fgets.o)
 .debug_ranges  0x0000000000000e80        0x0 0x1 /usr/local/popcorn/aarch64/lib/libc.a(fopen.o)
 .debug_ranges  0x0000000000000e80        0x0 0x1 /usr/local/popcorn/aarch64/lib/libc.a(fprintf.o)
 .debug_ranges  0x0000000000000e80        0x0 0x1 /usr/local/popcorn/aarch64/lib/libc.a(fread.o)
 .debug_ranges  0x0000000000000e80        0x0 0x1 /usr/local/popcorn/aarch64/lib/libc.a(fscanf.o)
 .debug_ranges  0x0000000000000e80       0x40 0x1 /usr/local/popcorn/aarch64/lib/libc.a(fseek.o)
 .debug_ranges  0x0000000000000ec0       0x40 0x1 /usr/local/popcorn/aarch64/lib/libc.a(ftell.o)
 .debug_ranges  0x0000000000000f00       0x60 0x1 /usr/local/popcorn/aarch64/lib/libc.a(fwrite.o)
 .debug_ranges  0x0000000000000f60       0x30 0x1 /usr/local/popcorn/aarch64/lib/libc.a(ofl.o)
 .debug_ranges  0x0000000000000f90        0x0 0x1 /usr/local/popcorn/aarch64/lib/libc.a(printf.o)
 .debug_ranges  0x0000000000000f90        0x0 0x1 /usr/local/popcorn/aarch64/lib/libc.a(sprintf.o)
 .debug_ranges  0x0000000000000f90        0x0 0x1 /usr/local/popcorn/aarch64/lib/libc.a(sscanf.o)
 .debug_ranges  0x0000000000000f90        0x0 0x1 /usr/local/popcorn/aarch64/lib/libc.a(stderr.o)
 .debug_ranges  0x0000000000000f90        0x0 0x1 /usr/local/popcorn/aarch64/lib/libc.a(stdout.o)
 .debug_ranges  0x0000000000000f90      0xbd0 0x1 /usr/local/popcorn/aarch64/lib/libc.a(vfprintf.o)
 .debug_ranges  0x0000000000001b60       0xb0 0x1 /usr/local/popcorn/aarch64/lib/libc.a(vfscanf.o)
 .debug_ranges  0x0000000000001c10        0x0 0x1 /usr/local/popcorn/aarch64/lib/libc.a(vsprintf.o)
 .debug_ranges  0x0000000000001c10       0x30 0x1 /usr/local/popcorn/aarch64/lib/libc.a(vsscanf.o)
 .debug_ranges  0x0000000000001c40        0x0 0x1 /usr/local/popcorn/aarch64/lib/libc.a(atoi.o)
 .debug_ranges  0x0000000000001c40      0x180 0x1 /usr/local/popcorn/aarch64/lib/libc.a(qsort.o)
 .debug_ranges  0x0000000000001dc0        0x0 0x1 /usr/local/popcorn/aarch64/lib/libc.a(memchr.o)
 .debug_ranges  0x0000000000001dc0        0x0 0x1 /usr/local/popcorn/aarch64/lib/libc.a(memcpy.o)
 .debug_ranges  0x0000000000001dc0        0x0 0x1 /usr/local/popcorn/aarch64/lib/libc.a(memset.o)
 .debug_ranges  0x0000000000001dc0        0x0 0x1 /usr/local/popcorn/aarch64/lib/libc.a(strcat.o)
 .debug_ranges  0x0000000000001dc0        0x0 0x1 /usr/local/popcorn/aarch64/lib/libc.a(strchr.o)
 .debug_ranges  0x0000000000001dc0        0x0 0x1 /usr/local/popcorn/aarch64/lib/libc.a(strchrnul.o)
 .debug_ranges  0x0000000000001dc0        0x0 0x1 /usr/local/popcorn/aarch64/lib/libc.a(strcmp.o)
 .debug_ranges  0x0000000000001dc0        0x0 0x1 /usr/local/popcorn/aarch64/lib/libc.a(strcpy.o)
 .debug_ranges  0x0000000000001dc0        0x0 0x1 /usr/local/popcorn/aarch64/lib/libc.a(strlen.o)
 .debug_ranges  0x0000000000001dc0        0x0 0x1 /usr/local/popcorn/aarch64/lib/libc.a(strnlen.o)
 .debug_ranges  0x0000000000001dc0       0x60 0x1 /usr/local/popcorn/aarch64/lib/libc.a(strstr.o)
 .debug_ranges  0x0000000000001e20       0x90 0x1 /usr/local/popcorn/aarch64/lib/libc.a(__lock.o)
 .debug_ranges  0x0000000000001eb0       0x60 0x1 /usr/local/popcorn/aarch64/lib/libc.a(__wait.o)
 .debug_ranges  0x0000000000001f10        0x0 0x1 /usr/local/popcorn/aarch64/lib/libc.a(gettimeofday.o)
 .debug_ranges  0x0000000000001f10        0x0 0x1 /usr/local/popcorn/aarch64/lib/libc.a(unlink.o)
 .debug_ranges  0x0000000000001f10        0x0 0x1 /usr/local/popcorn/aarch64/lib/libc.a(__environ.o)
 .debug_ranges  0x0000000000001f10       0x40 0x1 /usr/local/popcorn/aarch64/lib/libc.a(__init_tls.o)
 .debug_ranges  0x0000000000001f50       0x40 0x1 /usr/local/popcorn/aarch64/lib/libc.a(platform.o)
 .debug_ranges  0x0000000000001f90       0x30 0x1 /usr/local/popcorn/aarch64/lib/libc.a(strerror.o)
 .debug_ranges  0x0000000000001fc0        0x0 0x1 /usr/local/popcorn/aarch64/lib/libc.a(_Exit.o)
 .debug_ranges  0x0000000000001fc0       0x60 0x1 /usr/local/popcorn/aarch64/lib/libc.a(floatscan.o)
 .debug_ranges  0x0000000000002020       0x30 0x1 /usr/local/popcorn/aarch64/lib/libc.a(intscan.o)
 .debug_ranges  0x0000000000002050       0x30 0x1 /usr/local/popcorn/aarch64/lib/libc.a(shgetc.o)
 .debug_ranges  0x0000000000002080        0x0 0x1 /usr/local/popcorn/aarch64/lib/libc.a(syscall_ret.o)
 .debug_ranges  0x0000000000002080       0x40 0x1 /usr/local/popcorn/aarch64/lib/libc.a(__lctrans.o)
 .debug_ranges  0x00000000000020c0       0xe0 0x1 /usr/local/popcorn/aarch64/lib/libc.a(expand_heap.o)
 .debug_ranges  0x00000000000021a0        0x0 0x1 /usr/local/popcorn/aarch64/lib/libc.a(__fpclassifyl.o)
 .debug_ranges  0x00000000000021a0        0x0 0x1 /usr/local/popcorn/aarch64/lib/libc.a(__signbitl.o)
 .debug_ranges  0x00000000000021a0        0x0 0x1 /usr/local/popcorn/aarch64/lib/libc.a(fabs.o)
 .debug_ranges  0x00000000000021a0        0x0 0x1 /usr/local/popcorn/aarch64/lib/libc.a(sqrt.o)
 .debug_ranges  0x00000000000021a0        0x0 0x1 /usr/local/popcorn/aarch64/lib/libc.a(copysignl.o)
 .debug_ranges  0x00000000000021a0        0x0 0x1 /usr/local/popcorn/aarch64/lib/libc.a(fmodl.o)
 .debug_ranges  0x00000000000021a0        0x0 0x1 /usr/local/popcorn/aarch64/lib/libc.a(frexpl.o)
 .debug_ranges  0x00000000000021a0        0x0 0x1 /usr/local/popcorn/aarch64/lib/libc.a(scalbnl.o)
 .debug_ranges  0x00000000000021a0        0x0 0x1 /usr/local/popcorn/aarch64/lib/libc.a(mbrtowc.o)
 .debug_ranges  0x00000000000021a0        0x0 0x1 /usr/local/popcorn/aarch64/lib/libc.a(mbsinit.o)
 .debug_ranges  0x00000000000021a0        0x0 0x1 /usr/local/popcorn/aarch64/lib/libc.a(wctomb.o)
 .debug_ranges  0x00000000000021a0       0x30 0x1 /usr/local/popcorn/aarch64/lib/libc.a(__fdopen.o)
 .debug_ranges  0x00000000000021d0        0x0 0x1 /usr/local/popcorn/aarch64/lib/libc.a(__fmodeflags.o)
 .debug_ranges  0x00000000000021d0       0x60 0x1 /usr/local/popcorn/aarch64/lib/libc.a(__lockfile.o)
 .debug_ranges  0x0000000000002230       0x30 0x1 /usr/local/popcorn/aarch64/lib/libc.a(__stdio_close.o)
 .debug_ranges  0x0000000000002260        0x0 0x1 /usr/local/popcorn/aarch64/lib/libc.a(__stdio_read.o)
 .debug_ranges  0x0000000000002260        0x0 0x1 /usr/local/popcorn/aarch64/lib/libc.a(__stdio_seek.o)
 .debug_ranges  0x0000000000002260       0x30 0x1 /usr/local/popcorn/aarch64/lib/libc.a(__stdio_write.o)
 .debug_ranges  0x0000000000002290        0x0 0x1 /usr/local/popcorn/aarch64/lib/libc.a(__stdout_write.o)
 .debug_ranges  0x0000000000002290        0x0 0x1 /usr/local/popcorn/aarch64/lib/libc.a(__string_read.o)
 .debug_ranges  0x0000000000002290       0x30 0x1 /usr/local/popcorn/aarch64/lib/libc.a(__toread.o)
 .debug_ranges  0x00000000000022c0       0x30 0x1 /usr/local/popcorn/aarch64/lib/libc.a(__towrite.o)
 .debug_ranges  0x00000000000022f0        0x0 0x1 /usr/local/popcorn/aarch64/lib/libc.a(__uflow.o)
 .debug_ranges  0x00000000000022f0        0x0 0x1 /usr/local/popcorn/aarch64/lib/libc.a(ofl_add.o)
 .debug_ranges  0x00000000000022f0       0x30 0x1 /usr/local/popcorn/aarch64/lib/libc.a(vsnprintf.o)
 .debug_ranges  0x0000000000002320        0x0 0x1 /usr/local/popcorn/aarch64/lib/libc.a(memcmp.o)
 .debug_ranges  0x0000000000002320        0x0 0x1 /usr/local/popcorn/aarch64/lib/libc.a(stpcpy.o)
 .debug_ranges  0x0000000000002320        0x0 0x1 /usr/local/popcorn/aarch64/lib/libc.a(clock_gettime.o)
 .debug_ranges  0x0000000000002320        0x0 0x1 /usr/local/popcorn/aarch64/lib/libc.a(internal.o)
 .debug_ranges  0x0000000000002320        0x0 0x1 /usr/local/popcorn/aarch64/lib/libc.a(wcrtomb.o)
 .debug_ranges  0x0000000000002320       0x30 0x1 /usr/local/popcorn/aarch64/lib/libc.a(__stdio_exit.o)
 .debug_ranges  0x0000000000002350      0x140 0x1 /usr/local/popcorn/aarch64/lib/libmigrate.a(migrate.o)
 .debug_ranges  0x0000000000002490       0xd0 0x1 /usr/local/popcorn/aarch64/lib/libmigrate.a(mapping.o)
 .debug_ranges  0x0000000000002560       0xe0 0x1 /usr/local/popcorn/aarch64/lib/libstack-transform.a(userspace.o)
 .debug_ranges  0x0000000000002640       0x50 0x1 /usr/local/popcorn/aarch64/lib/libstack-transform.a(init.o)
 .debug_ranges  0x0000000000002690      0x370 0x1 /usr/local/popcorn/aarch64/lib/libstack-transform.a(rewrite.o)
 .debug_ranges  0x0000000000002a00      0x130 0x1 /usr/local/popcorn/aarch64/lib/libstack-transform.a(unwind.o)
 .debug_ranges  0x0000000000002b30       0xf0 0x1 /usr/local/popcorn/aarch64/lib/libstack-transform.a(util.o)
 .debug_ranges  0x0000000000002c20       0x40 0x1 /usr/local/popcorn/aarch64/lib/libstack-transform.a(properties.o)
 .debug_ranges  0x0000000000002c60      0x120 0x1 /usr/local/popcorn/aarch64/lib/libstack-transform.a(regs.o)
 .debug_ranges  0x0000000000002d80       0x40 0x1 /usr/local/popcorn/aarch64/lib/libstack-transform.a(properties.o)
 .debug_ranges  0x0000000000002dc0      0x120 0x1 /usr/local/popcorn/aarch64/lib/libstack-transform.a(regs.o)
 .debug_ranges  0x0000000000002ee0       0x40 0x1 /usr/local/popcorn/aarch64/lib/libstack-transform.a(properties.o)
 .debug_ranges  0x0000000000002f20      0x120 0x1 /usr/local/popcorn/aarch64/lib/libstack-transform.a(regs.o)
 .debug_ranges  0x0000000000003040      0x410 0x1 /usr/local/popcorn/aarch64/lib/libstack-transform.a(data.o)
 .debug_ranges  0x0000000000003450       0x50 0x1 /usr/local/popcorn/aarch64/lib/libc.a(arch_crash.o)
 .debug_ranges  0x00000000000034a0       0x30 0x1 /usr/local/popcorn/aarch64/lib/libc.a(getenv.o)
 .debug_ranges  0x00000000000034d0        0x0 0x1 /usr/local/popcorn/aarch64/lib/libc.a(assert.o)
 .debug_ranges  0x00000000000034d0       0x30 0x1 /usr/local/popcorn/aarch64/lib/libc.a(open.o)
 .debug_ranges  0x0000000000003500        0x0 0x1 /usr/local/popcorn/aarch64/lib/libc.a(getrlimit.o)
 .debug_ranges  0x0000000000003500        0x0 0x1 /usr/local/popcorn/aarch64/lib/libc.a(getc.o)
 .debug_ranges  0x0000000000003500        0x0 0x1 /usr/local/popcorn/aarch64/lib/libc.a(getline.o)
 .debug_ranges  0x0000000000003500        0x0 0x1 /usr/local/popcorn/aarch64/lib/libc.a(perror.o)
 .debug_ranges  0x0000000000003500        0x0 0x1 /usr/local/popcorn/aarch64/lib/libc.a(snprintf.o)
 .debug_ranges  0x0000000000003500        0x0 0x1 /usr/local/popcorn/aarch64/lib/libc.a(bsearch.o)
 .debug_ranges  0x0000000000003500       0x80 0x1 /usr/local/popcorn/aarch64/lib/libc.a(strtol.o)
 .debug_ranges  0x0000000000003580        0x0 0x1 /usr/local/popcorn/aarch64/lib/libc.a(strncmp.o)
 .debug_ranges  0x0000000000003580       0x30 0x1 /usr/local/popcorn/aarch64/lib/libc.a(__syscall_cp.o)
 .debug_ranges  0x00000000000035b0      0x110 0x1 /usr/local/popcorn/aarch64/lib/libc.a(pthread_attr_get.o)
 .debug_ranges  0x00000000000036c0        0x0 0x1 /usr/local/popcorn/aarch64/lib/libc.a(pthread_getattr_np.o)
 .debug_ranges  0x00000000000036c0       0x30 0x1 /usr/local/popcorn/aarch64/lib/libc.a(pthread_migrate.o)
 .debug_ranges  0x00000000000036f0        0x0 0x1 /usr/local/popcorn/aarch64/lib/libc.a(pthread_self.o)
 .debug_ranges  0x00000000000036f0       0x30 0x1 /usr/local/popcorn/aarch64/lib/libc.a(close.o)
 .debug_ranges  0x0000000000003720        0x0 0x1 /usr/local/popcorn/aarch64/lib/libc.a(getpid.o)
 .debug_ranges  0x0000000000003720        0x0 0x1 /usr/local/popcorn/aarch64/lib/libc.a(lseek.o)
 .debug_ranges  0x0000000000003720        0x0 0x1 /usr/local/popcorn/aarch64/lib/libc.a(read.o)
 .debug_ranges  0x0000000000003720        0x0 0x1 /usr/local/popcorn/aarch64/lib/libc.a(abort.o)
 .debug_ranges  0x0000000000003720       0x40 0x1 /usr/local/popcorn/aarch64/lib/libc.a(block.o)
 .debug_ranges  0x0000000000003760        0x0 0x1 /usr/local/popcorn/aarch64/lib/libc.a(raise.o)
 .debug_ranges  0x0000000000003760        0x0 0x1 /usr/local/popcorn/aarch64/lib/libc.a(fputc.o)
 .debug_ranges  0x0000000000003760       0x30 0x1 /usr/local/popcorn/aarch64/lib/libc.a(getdelim.o)
 .debug_ranges  0x0000000000003790        0x0 0x1 /usr/local/popcorn/aarch64/lib/libc.a(__overflow.o)

.debug_pubnames
                0x0000000000000000     0x370d
 .debug_pubnames
                0x0000000000000000       0xb8 0x1 dc_aarch64.o
 .debug_pubnames
                0x00000000000000b8      0x1e5 0x1 adc_aarch64.o
 .debug_pubnames
                0x000000000000029d      0x17c 0x1 extbuild_aarch64.o
 .debug_pubnames
                0x0000000000000419      0x1fa 0x1 jobcntl_aarch64.o
 .debug_pubnames
                0x0000000000000613       0xc5 0x1 rbt_aarch64.o
 .debug_pubnames
                0x00000000000006d8       0x77 0x1 c_timers_aarch64.o
 .debug_pubnames
                0x000000000000074f       0x24 0x1 print_results_aarch64.o
 .debug_pubnames
                0x0000000000000773       0x28 0x1 randdp_aarch64.o
 .debug_pubnames
                0x000000000000079b       0x26 0x1 c_print_results_aarch64.o
 .debug_pubnames
                0x00000000000007c1       0x25 0x1 wtime_aarch64.o
 .debug_pubnames
                0x00000000000007e6       0x1f 0x1 /usr/local/popcorn/aarch64/lib/crt1.o
 .debug_pubnames
                0x0000000000000805       0x2e 0x1 /usr/local/popcorn/aarch64/lib/libc.a(isdigit.o)
 .debug_pubnames
                0x0000000000000833       0xa4 0x1 /usr/local/popcorn/aarch64/lib/libc.a(__libc_start_main.o)
 .debug_pubnames
                0x00000000000008d7       0x3a 0x1 /usr/local/popcorn/aarch64/lib/libc.a(__errno_location.o)
 .debug_pubnames
                0x0000000000000911       0x38 0x1 /usr/local/popcorn/aarch64/lib/libc.a(exit.o)
 .debug_pubnames
                0x0000000000000949       0x5a 0x1 /usr/local/popcorn/aarch64/lib/libc.a(libc.o)
 .debug_pubnames
                0x00000000000009a3       0x47 0x1 /usr/local/popcorn/aarch64/lib/libc.a(calloc.o)
 .debug_pubnames
                0x00000000000009ea       0x3f 0x1 /usr/local/popcorn/aarch64/lib/libc.a(lite_malloc.o)
 .debug_pubnames
                0x0000000000000a29      0x1e9 0x1 /usr/local/popcorn/aarch64/lib/libc.a(malloc.o)
 .debug_pubnames
                0x0000000000000c12      0x238 0x1 /usr/local/popcorn/aarch64/lib/libc.a(popcorn_malloc.o)
 .debug_pubnames
                0x0000000000000e4a       0xfb 0x1 /usr/local/popcorn/aarch64/lib/libc.a(pow.o)
 .debug_pubnames
                0x0000000000000f45       0x1d 0x1 /usr/local/popcorn/aarch64/lib/libc.a(scalbn.o)
 .debug_pubnames
                0x0000000000000f62       0x2f 0x1 /usr/local/popcorn/aarch64/lib/libc.a(madvise.o)
 .debug_pubnames
                0x0000000000000f91       0x36 0x1 /usr/local/popcorn/aarch64/lib/libc.a(mmap.o)
 .debug_pubnames
                0x0000000000000fc7       0x38 0x1 /usr/local/popcorn/aarch64/lib/libc.a(mremap.o)
 .debug_pubnames
                0x0000000000000fff       0x38 0x1 /usr/local/popcorn/aarch64/lib/libc.a(munmap.o)
 .debug_pubnames
                0x0000000000001037       0x27 0x1 /usr/local/popcorn/aarch64/lib/libc.a(fclose.o)
 .debug_pubnames
                0x000000000000105e       0x27 0x1 /usr/local/popcorn/aarch64/lib/libc.a(fflush.o)
 .debug_pubnames
                0x0000000000001085       0x1c 0x1 /usr/local/popcorn/aarch64/lib/libc.a(fgets.o)
 .debug_pubnames
                0x00000000000010a1       0x49 0x1 /usr/local/popcorn/aarch64/lib/libc.a(fopen.o)
 .debug_pubnames
                0x00000000000010ea       0x1e 0x1 /usr/local/popcorn/aarch64/lib/libc.a(fprintf.o)
 .debug_pubnames
                0x0000000000001108       0x1c 0x1 /usr/local/popcorn/aarch64/lib/libc.a(fread.o)
 .debug_pubnames
                0x0000000000001124       0x1d 0x1 /usr/local/popcorn/aarch64/lib/libc.a(fscanf.o)
 .debug_pubnames
                0x0000000000001141       0x3f 0x1 /usr/local/popcorn/aarch64/lib/libc.a(fseek.o)
 .debug_pubnames
                0x0000000000001180       0x3f 0x1 /usr/local/popcorn/aarch64/lib/libc.a(ftell.o)
 .debug_pubnames
                0x00000000000011bf       0x2b 0x1 /usr/local/popcorn/aarch64/lib/libc.a(fwrite.o)
 .debug_pubnames
                0x00000000000011ea       0x4c 0x1 /usr/local/popcorn/aarch64/lib/libc.a(ofl.o)
 .debug_pubnames
                0x0000000000001236       0x1d 0x1 /usr/local/popcorn/aarch64/lib/libc.a(printf.o)
 .debug_pubnames
                0x0000000000001253       0x1e 0x1 /usr/local/popcorn/aarch64/lib/libc.a(sprintf.o)
 .debug_pubnames
                0x0000000000001271       0x1d 0x1 /usr/local/popcorn/aarch64/lib/libc.a(sscanf.o)
 .debug_pubnames
                0x000000000000128e       0x3d 0x1 /usr/local/popcorn/aarch64/lib/libc.a(stderr.o)
 .debug_pubnames
                0x00000000000012cb       0x3d 0x1 /usr/local/popcorn/aarch64/lib/libc.a(stdout.o)
 .debug_pubnames
                0x0000000000001308       0xb9 0x1 /usr/local/popcorn/aarch64/lib/libc.a(vfprintf.o)
 .debug_pubnames
                0x00000000000013c1       0x44 0x1 /usr/local/popcorn/aarch64/lib/libc.a(vfscanf.o)
 .debug_pubnames
                0x0000000000001405       0x1f 0x1 /usr/local/popcorn/aarch64/lib/libc.a(vsprintf.o)
 .debug_pubnames
                0x0000000000001424       0x2a 0x1 /usr/local/popcorn/aarch64/lib/libc.a(vsscanf.o)
 .debug_pubnames
                0x000000000000144e       0x29 0x1 /usr/local/popcorn/aarch64/lib/libc.a(atoi.o)
 .debug_pubnames
                0x0000000000001477       0x7c 0x1 /usr/local/popcorn/aarch64/lib/libc.a(qsort.o)
 .debug_pubnames
                0x00000000000014f3       0x1d 0x1 /usr/local/popcorn/aarch64/lib/libc.a(memchr.o)
 .debug_pubnames
                0x0000000000001510       0x1d 0x1 /usr/local/popcorn/aarch64/lib/libc.a(memcpy.o)
 .debug_pubnames
                0x000000000000152d       0x1d 0x1 /usr/local/popcorn/aarch64/lib/libc.a(memset.o)
 .debug_pubnames
                0x000000000000154a       0x1d 0x1 /usr/local/popcorn/aarch64/lib/libc.a(strcat.o)
 .debug_pubnames
                0x0000000000001567       0x1d 0x1 /usr/local/popcorn/aarch64/lib/libc.a(strchr.o)
 .debug_pubnames
                0x0000000000001584       0x22 0x1 /usr/local/popcorn/aarch64/lib/libc.a(strchrnul.o)
 .debug_pubnames
                0x00000000000015a6       0x1d 0x1 /usr/local/popcorn/aarch64/lib/libc.a(strcmp.o)
 .debug_pubnames
                0x00000000000015c3       0x1d 0x1 /usr/local/popcorn/aarch64/lib/libc.a(strcpy.o)
 .debug_pubnames
                0x00000000000015e0       0x1d 0x1 /usr/local/popcorn/aarch64/lib/libc.a(strlen.o)
 .debug_pubnames
                0x00000000000015fd       0x1e 0x1 /usr/local/popcorn/aarch64/lib/libc.a(strnlen.o)
 .debug_pubnames
                0x000000000000161b       0x6b 0x1 /usr/local/popcorn/aarch64/lib/libc.a(strstr.o)
 .debug_pubnames
                0x0000000000001686       0x7b 0x1 /usr/local/popcorn/aarch64/lib/libc.a(__lock.o)
 .debug_pubnames
                0x0000000000001701       0x70 0x1 /usr/local/popcorn/aarch64/lib/libc.a(__wait.o)
 .debug_pubnames
                0x0000000000001771       0x23 0x1 /usr/local/popcorn/aarch64/lib/libc.a(gettimeofday.o)
 .debug_pubnames
                0x0000000000001794       0x2c 0x1 /usr/local/popcorn/aarch64/lib/libc.a(unlink.o)
 .debug_pubnames
                0x00000000000017c0       0x20 0x1 /usr/local/popcorn/aarch64/lib/libc.a(__environ.o)
 .debug_pubnames
                0x00000000000017e0       0x8a 0x1 /usr/local/popcorn/aarch64/lib/libc.a(__init_tls.o)
 .debug_pubnames
                0x000000000000186a       0x75 0x1 /usr/local/popcorn/aarch64/lib/libc.a(platform.o)
 .debug_pubnames
                0x00000000000018df       0x58 0x1 /usr/local/popcorn/aarch64/lib/libc.a(strerror.o)
 .debug_pubnames
                0x0000000000001937       0x2b 0x1 /usr/local/popcorn/aarch64/lib/libc.a(_Exit.o)
 .debug_pubnames
                0x0000000000001962       0x66 0x1 /usr/local/popcorn/aarch64/lib/libc.a(floatscan.o)
 .debug_pubnames
                0x00000000000019c8       0x38 0x1 /usr/local/popcorn/aarch64/lib/libc.a(intscan.o)
 .debug_pubnames
                0x0000000000001a00       0x2b 0x1 /usr/local/popcorn/aarch64/lib/libc.a(shgetc.o)
 .debug_pubnames
                0x0000000000001a2b       0x24 0x1 /usr/local/popcorn/aarch64/lib/libc.a(syscall_ret.o)
 .debug_pubnames
                0x0000000000001a4f       0x4f 0x1 /usr/local/popcorn/aarch64/lib/libc.a(__lctrans.o)
 .debug_pubnames
                0x0000000000001a9e      0x129 0x1 /usr/local/popcorn/aarch64/lib/libc.a(expand_heap.o)
 .debug_pubnames
                0x0000000000001bc7       0x24 0x1 /usr/local/popcorn/aarch64/lib/libc.a(__fpclassifyl.o)
 .debug_pubnames
                0x0000000000001beb       0x21 0x1 /usr/local/popcorn/aarch64/lib/libc.a(__signbitl.o)
 .debug_pubnames
                0x0000000000001c0c       0x1b 0x1 /usr/local/popcorn/aarch64/lib/libc.a(fabs.o)
 .debug_pubnames
                0x0000000000001c27       0x1b 0x1 /usr/local/popcorn/aarch64/lib/libc.a(sqrt.o)
 .debug_pubnames
                0x0000000000001c42       0x20 0x1 /usr/local/popcorn/aarch64/lib/libc.a(copysignl.o)
 .debug_pubnames
                0x0000000000001c62       0x3f 0x1 /usr/local/popcorn/aarch64/lib/libc.a(fmodl.o)
 .debug_pubnames
                0x0000000000001ca1       0x1d 0x1 /usr/local/popcorn/aarch64/lib/libc.a(frexpl.o)
 .debug_pubnames
                0x0000000000001cbe       0x1e 0x1 /usr/local/popcorn/aarch64/lib/libc.a(scalbnl.o)
 .debug_pubnames
                0x0000000000001cdc       0x44 0x1 /usr/local/popcorn/aarch64/lib/libc.a(mbrtowc.o)
 .debug_pubnames
                0x0000000000001d20       0x1e 0x1 /usr/local/popcorn/aarch64/lib/libc.a(mbsinit.o)
 .debug_pubnames
                0x0000000000001d3e       0x1d 0x1 /usr/local/popcorn/aarch64/lib/libc.a(wctomb.o)
 .debug_pubnames
                0x0000000000001d5b       0x3d 0x1 /usr/local/popcorn/aarch64/lib/libc.a(__fdopen.o)
 .debug_pubnames
                0x0000000000001d98       0x23 0x1 /usr/local/popcorn/aarch64/lib/libc.a(__fmodeflags.o)
 .debug_pubnames
                0x0000000000001dbb       0x95 0x1 /usr/local/popcorn/aarch64/lib/libc.a(__lockfile.o)
 .debug_pubnames
                0x0000000000001e50       0x3d 0x1 /usr/local/popcorn/aarch64/lib/libc.a(__stdio_close.o)
 .debug_pubnames
                0x0000000000001e8d       0x32 0x1 /usr/local/popcorn/aarch64/lib/libc.a(__stdio_read.o)
 .debug_pubnames
                0x0000000000001ebf       0x32 0x1 /usr/local/popcorn/aarch64/lib/libc.a(__stdio_seek.o)
 .debug_pubnames
                0x0000000000001ef1       0x33 0x1 /usr/local/popcorn/aarch64/lib/libc.a(__stdio_write.o)
 .debug_pubnames
                0x0000000000001f24       0x34 0x1 /usr/local/popcorn/aarch64/lib/libc.a(__stdout_write.o)
 .debug_pubnames
                0x0000000000001f58       0x24 0x1 /usr/local/popcorn/aarch64/lib/libc.a(__string_read.o)
 .debug_pubnames
                0x0000000000001f7c       0x3d 0x1 /usr/local/popcorn/aarch64/lib/libc.a(__toread.o)
 .debug_pubnames
                0x0000000000001fb9       0x3f 0x1 /usr/local/popcorn/aarch64/lib/libc.a(__towrite.o)
 .debug_pubnames
                0x0000000000001ff8       0x1e 0x1 /usr/local/popcorn/aarch64/lib/libc.a(__uflow.o)
 .debug_pubnames
                0x0000000000002016       0x20 0x1 /usr/local/popcorn/aarch64/lib/libc.a(ofl_add.o)
 .debug_pubnames
                0x0000000000002036       0x2d 0x1 /usr/local/popcorn/aarch64/lib/libc.a(vsnprintf.o)
 .debug_pubnames
                0x0000000000002063       0x1d 0x1 /usr/local/popcorn/aarch64/lib/libc.a(memcmp.o)
 .debug_pubnames
                0x0000000000002080       0x1f 0x1 /usr/local/popcorn/aarch64/lib/libc.a(stpcpy.o)
 .debug_pubnames
                0x000000000000209f       0x35 0x1 /usr/local/popcorn/aarch64/lib/libc.a(clock_gettime.o)
 .debug_pubnames
                0x00000000000020d4       0x1e 0x1 /usr/local/popcorn/aarch64/lib/libc.a(internal.o)
 .debug_pubnames
                0x00000000000020f2       0x31 0x1 /usr/local/popcorn/aarch64/lib/libc.a(wcrtomb.o)
 .debug_pubnames
                0x0000000000002123       0x41 0x1 /usr/local/popcorn/aarch64/lib/libc.a(__stdio_exit.o)
 .debug_pubnames
                0x0000000000002164       0xf9 0x1 /usr/local/popcorn/aarch64/lib/libmigrate.a(migrate.o)
 .debug_pubnames
                0x000000000000225d       0xb4 0x1 /usr/local/popcorn/aarch64/lib/libmigrate.a(mapping.o)
 .debug_pubnames
                0x0000000000002311      0x179 0x1 /usr/local/popcorn/aarch64/lib/libstack-transform.a(userspace.o)
 .debug_pubnames
                0x000000000000248a       0x49 0x1 /usr/local/popcorn/aarch64/lib/libstack-transform.a(init.o)
 .debug_pubnames
                0x00000000000024d3      0x183 0x1 /usr/local/popcorn/aarch64/lib/libstack-transform.a(rewrite.o)
 .debug_pubnames
                0x0000000000002656      0x129 0x1 /usr/local/popcorn/aarch64/lib/libstack-transform.a(unwind.o)
 .debug_pubnames
                0x000000000000277f       0xda 0x1 /usr/local/popcorn/aarch64/lib/libstack-transform.a(util.o)
 .debug_pubnames
                0x0000000000002859       0xad 0x1 /usr/local/popcorn/aarch64/lib/libstack-transform.a(properties.o)
 .debug_pubnames
                0x0000000000002906      0x189 0x1 /usr/local/popcorn/aarch64/lib/libstack-transform.a(regs.o)
 .debug_pubnames
                0x0000000000002a8f       0xb9 0x1 /usr/local/popcorn/aarch64/lib/libstack-transform.a(properties.o)
 .debug_pubnames
                0x0000000000002b48      0x1ad 0x1 /usr/local/popcorn/aarch64/lib/libstack-transform.a(regs.o)
 .debug_pubnames
                0x0000000000002cf5       0xa7 0x1 /usr/local/popcorn/aarch64/lib/libstack-transform.a(properties.o)
 .debug_pubnames
                0x0000000000002d9c      0x177 0x1 /usr/local/popcorn/aarch64/lib/libstack-transform.a(regs.o)
 .debug_pubnames
                0x0000000000002f13      0x113 0x1 /usr/local/popcorn/aarch64/lib/libstack-transform.a(data.o)
 .debug_pubnames
                0x0000000000003026       0x5b 0x1 /usr/local/popcorn/aarch64/lib/libc.a(arch_crash.o)
 .debug_pubnames
                0x0000000000003081       0x1d 0x1 /usr/local/popcorn/aarch64/lib/libc.a(getenv.o)
 .debug_pubnames
                0x000000000000309e       0x24 0x1 /usr/local/popcorn/aarch64/lib/libc.a(assert.o)
 .debug_pubnames
                0x00000000000030c2       0x2a 0x1 /usr/local/popcorn/aarch64/lib/libc.a(open.o)
 .debug_pubnames
                0x00000000000030ec       0x3e 0x1 /usr/local/popcorn/aarch64/lib/libc.a(getrlimit.o)
 .debug_pubnames
                0x000000000000312a       0x1b 0x1 /usr/local/popcorn/aarch64/lib/libc.a(getc.o)
 .debug_pubnames
                0x0000000000003145       0x1e 0x1 /usr/local/popcorn/aarch64/lib/libc.a(getline.o)
 .debug_pubnames
                0x0000000000003163       0x1d 0x1 /usr/local/popcorn/aarch64/lib/libc.a(perror.o)
 .debug_pubnames
                0x0000000000003180       0x1f 0x1 /usr/local/popcorn/aarch64/lib/libc.a(snprintf.o)
 .debug_pubnames
                0x000000000000319f       0x1e 0x1 /usr/local/popcorn/aarch64/lib/libc.a(bsearch.o)
 .debug_pubnames
                0x00000000000031bd       0x69 0x1 /usr/local/popcorn/aarch64/lib/libc.a(strtol.o)
 .debug_pubnames
                0x0000000000003226       0x1e 0x1 /usr/local/popcorn/aarch64/lib/libc.a(strncmp.o)
 .debug_pubnames
                0x0000000000003244       0x2c 0x1 /usr/local/popcorn/aarch64/lib/libc.a(__syscall_cp.o)
 .debug_pubnames
                0x0000000000003270      0x206 0x1 /usr/local/popcorn/aarch64/lib/libc.a(pthread_attr_get.o)
 .debug_pubnames
                0x0000000000003476       0x29 0x1 /usr/local/popcorn/aarch64/lib/libc.a(pthread_getattr_np.o)
 .debug_pubnames
                0x000000000000349f       0x5f 0x1 /usr/local/popcorn/aarch64/lib/libc.a(pthread_migrate.o)
 .debug_pubnames
                0x00000000000034fe       0x41 0x1 /usr/local/popcorn/aarch64/lib/libc.a(pthread_self.o)
 .debug_pubnames
                0x000000000000353f       0x26 0x1 /usr/local/popcorn/aarch64/lib/libc.a(close.o)
 .debug_pubnames
                0x0000000000003565       0x2c 0x1 /usr/local/popcorn/aarch64/lib/libc.a(getpid.o)
 .debug_pubnames
                0x0000000000003591       0x2b 0x1 /usr/local/popcorn/aarch64/lib/libc.a(lseek.o)
 .debug_pubnames
                0x00000000000035bc       0x1b 0x1 /usr/local/popcorn/aarch64/lib/libc.a(read.o)
 .debug_pubnames
                0x00000000000035d7       0x28 0x1 /usr/local/popcorn/aarch64/lib/libc.a(abort.o)
 .debug_pubnames
                0x00000000000035ff       0x78 0x1 /usr/local/popcorn/aarch64/lib/libc.a(block.o)
 .debug_pubnames
                0x0000000000003677       0x3a 0x1 /usr/local/popcorn/aarch64/lib/libc.a(raise.o)
 .debug_pubnames
                0x00000000000036b1       0x1c 0x1 /usr/local/popcorn/aarch64/lib/libc.a(fputc.o)
 .debug_pubnames
                0x00000000000036cd       0x1f 0x1 /usr/local/popcorn/aarch64/lib/libc.a(getdelim.o)
 .debug_pubnames
                0x00000000000036ec       0x21 0x1 /usr/local/popcorn/aarch64/lib/libc.a(__overflow.o)

.debug_pubtypes
                0x0000000000000000     0x5789
 .debug_pubtypes
                0x0000000000000000      0x148 0x1 dc_aarch64.o
 .debug_pubtypes
                0x0000000000000148       0xa7 0x1 adc_aarch64.o
 .debug_pubtypes
                0x00000000000001ef      0x133 0x1 extbuild_aarch64.o
 .debug_pubtypes
                0x0000000000000322      0x153 0x1 jobcntl_aarch64.o
 .debug_pubtypes
                0x0000000000000475      0x114 0x1 rbt_aarch64.o
 .debug_pubtypes
                0x0000000000000589       0x25 0x1 c_timers_aarch64.o
 .debug_pubtypes
                0x00000000000005ae       0x3a 0x1 print_results_aarch64.o
 .debug_pubtypes
                0x00000000000005e8       0x25 0x1 randdp_aarch64.o
 .debug_pubtypes
                0x000000000000060d       0x3b 0x1 c_print_results_aarch64.o
 .debug_pubtypes
                0x0000000000000648       0x59 0x1 wtime_aarch64.o
 .debug_pubtypes
                0x00000000000006a1       0x30 0x1 /usr/local/popcorn/aarch64/lib/crt1.o
 .debug_pubtypes
                0x00000000000006d1       0x4c 0x1 /usr/local/popcorn/aarch64/lib/libc.a(isdigit.o)
 .debug_pubtypes
                0x000000000000071d       0x74 0x1 /usr/local/popcorn/aarch64/lib/libc.a(__libc_start_main.o)
 .debug_pubtypes
                0x0000000000000791       0xb5 0x1 /usr/local/popcorn/aarch64/lib/libc.a(__errno_location.o)
 .debug_pubtypes
                0x0000000000000846       0x3e 0x1 /usr/local/popcorn/aarch64/lib/libc.a(exit.o)
 .debug_pubtypes
                0x0000000000000884       0x72 0x1 /usr/local/popcorn/aarch64/lib/libc.a(libc.o)
 .debug_pubtypes
                0x00000000000008f6       0x3b 0x1 /usr/local/popcorn/aarch64/lib/libc.a(calloc.o)
 .debug_pubtypes
                0x0000000000000931       0x52 0x1 /usr/local/popcorn/aarch64/lib/libc.a(lite_malloc.o)
 .debug_pubtypes
                0x0000000000000983       0xae 0x1 /usr/local/popcorn/aarch64/lib/libc.a(malloc.o)
 .debug_pubtypes
                0x0000000000000a31       0xae 0x1 /usr/local/popcorn/aarch64/lib/libc.a(popcorn_malloc.o)
 .debug_pubtypes
                0x0000000000000adf       0x72 0x1 /usr/local/popcorn/aarch64/lib/libc.a(pow.o)
 .debug_pubtypes
                0x0000000000000b51       0x55 0x1 /usr/local/popcorn/aarch64/lib/libc.a(scalbn.o)
 .debug_pubtypes
                0x0000000000000ba6       0x48 0x1 /usr/local/popcorn/aarch64/lib/libc.a(madvise.o)
 .debug_pubtypes
                0x0000000000000bee       0x52 0x1 /usr/local/popcorn/aarch64/lib/libc.a(mmap.o)
 .debug_pubtypes
                0x0000000000000c40       0x78 0x1 /usr/local/popcorn/aarch64/lib/libc.a(mremap.o)
 .debug_pubtypes
                0x0000000000000cb8       0x48 0x1 /usr/local/popcorn/aarch64/lib/libc.a(munmap.o)
 .debug_pubtypes
                0x0000000000000d00       0xc2 0x1 /usr/local/popcorn/aarch64/lib/libc.a(fclose.o)
 .debug_pubtypes
                0x0000000000000dc2       0xc2 0x1 /usr/local/popcorn/aarch64/lib/libc.a(fflush.o)
 .debug_pubtypes
                0x0000000000000e84       0xc2 0x1 /usr/local/popcorn/aarch64/lib/libc.a(fgets.o)
 .debug_pubtypes
                0x0000000000000f46       0xc2 0x1 /usr/local/popcorn/aarch64/lib/libc.a(fopen.o)
 .debug_pubtypes
                0x0000000000001008       0x5c 0x1 /usr/local/popcorn/aarch64/lib/libc.a(fprintf.o)
 .debug_pubtypes
                0x0000000000001064       0xc2 0x1 /usr/local/popcorn/aarch64/lib/libc.a(fread.o)
 .debug_pubtypes
                0x0000000000001126       0x5c 0x1 /usr/local/popcorn/aarch64/lib/libc.a(fscanf.o)
 .debug_pubtypes
                0x0000000000001182       0xc2 0x1 /usr/local/popcorn/aarch64/lib/libc.a(fseek.o)
 .debug_pubtypes
                0x0000000000001244       0xc2 0x1 /usr/local/popcorn/aarch64/lib/libc.a(ftell.o)
 .debug_pubtypes
                0x0000000000001306       0xc2 0x1 /usr/local/popcorn/aarch64/lib/libc.a(fwrite.o)
 .debug_pubtypes
                0x00000000000013c8       0xc2 0x1 /usr/local/popcorn/aarch64/lib/libc.a(ofl.o)
 .debug_pubtypes
                0x000000000000148a       0x53 0x1 /usr/local/popcorn/aarch64/lib/libc.a(printf.o)
 .debug_pubtypes
                0x00000000000014dd       0x53 0x1 /usr/local/popcorn/aarch64/lib/libc.a(sprintf.o)
 .debug_pubtypes
                0x0000000000001530       0x53 0x1 /usr/local/popcorn/aarch64/lib/libc.a(sscanf.o)
 .debug_pubtypes
                0x0000000000001583       0xc2 0x1 /usr/local/popcorn/aarch64/lib/libc.a(stderr.o)
 .debug_pubtypes
                0x0000000000001645       0xc2 0x1 /usr/local/popcorn/aarch64/lib/libc.a(stdout.o)
 .debug_pubtypes
                0x0000000000001707      0x1a1 0x1 /usr/local/popcorn/aarch64/lib/libc.a(vfprintf.o)
 .debug_pubtypes
                0x00000000000018a8      0x17c 0x1 /usr/local/popcorn/aarch64/lib/libc.a(vfscanf.o)
 .debug_pubtypes
                0x0000000000001a24       0x53 0x1 /usr/local/popcorn/aarch64/lib/libc.a(vsprintf.o)
 .debug_pubtypes
                0x0000000000001a77       0xf2 0x1 /usr/local/popcorn/aarch64/lib/libc.a(vsscanf.o)
 .debug_pubtypes
                0x0000000000001b69       0x34 0x1 /usr/local/popcorn/aarch64/lib/libc.a(atoi.o)
 .debug_pubtypes
                0x0000000000001b9d       0x6e 0x1 /usr/local/popcorn/aarch64/lib/libc.a(qsort.o)
 .debug_pubtypes
                0x0000000000001c0b       0x5b 0x1 /usr/local/popcorn/aarch64/lib/libc.a(memchr.o)
 .debug_pubtypes
                0x0000000000001c66       0x71 0x1 /usr/local/popcorn/aarch64/lib/libc.a(memcpy.o)
 .debug_pubtypes
                0x0000000000001cd7       0x86 0x1 /usr/local/popcorn/aarch64/lib/libc.a(memset.o)
 .debug_pubtypes
                0x0000000000001d5d       0x1b 0x1 /usr/local/popcorn/aarch64/lib/libc.a(strcat.o)
 .debug_pubtypes
                0x0000000000001d78       0x35 0x1 /usr/local/popcorn/aarch64/lib/libc.a(strchr.o)
 .debug_pubtypes
                0x0000000000001dad       0x64 0x1 /usr/local/popcorn/aarch64/lib/libc.a(strchrnul.o)
 .debug_pubtypes
                0x0000000000001e11       0x35 0x1 /usr/local/popcorn/aarch64/lib/libc.a(strcmp.o)
 .debug_pubtypes
                0x0000000000001e46       0x1b 0x1 /usr/local/popcorn/aarch64/lib/libc.a(strcpy.o)
 .debug_pubtypes
                0x0000000000001e61       0x4a 0x1 /usr/local/popcorn/aarch64/lib/libc.a(strlen.o)
 .debug_pubtypes
                0x0000000000001eab       0x3c 0x1 /usr/local/popcorn/aarch64/lib/libc.a(strnlen.o)
 .debug_pubtypes
                0x0000000000001ee7       0x8c 0x1 /usr/local/popcorn/aarch64/lib/libc.a(strstr.o)
 .debug_pubtypes
                0x0000000000001f73       0x27 0x1 /usr/local/popcorn/aarch64/lib/libc.a(__lock.o)
 .debug_pubtypes
                0x0000000000001f9a       0x38 0x1 /usr/local/popcorn/aarch64/lib/libc.a(__wait.o)
 .debug_pubtypes
                0x0000000000001fd2       0x5b 0x1 /usr/local/popcorn/aarch64/lib/libc.a(gettimeofday.o)
 .debug_pubtypes
                0x000000000000202d       0x30 0x1 /usr/local/popcorn/aarch64/lib/libc.a(unlink.o)
 .debug_pubtypes
                0x000000000000205d       0x1b 0x1 /usr/local/popcorn/aarch64/lib/libc.a(__environ.o)
 .debug_pubtypes
                0x0000000000002078      0x161 0x1 /usr/local/popcorn/aarch64/lib/libc.a(__init_tls.o)
 .debug_pubtypes
                0x00000000000021d9       0x73 0x1 /usr/local/popcorn/aarch64/lib/libc.a(platform.o)
 .debug_pubtypes
                0x000000000000224c       0xc6 0x1 /usr/local/popcorn/aarch64/lib/libc.a(strerror.o)
 .debug_pubtypes
                0x0000000000002312       0x27 0x1 /usr/local/popcorn/aarch64/lib/libc.a(_Exit.o)
 .debug_pubtypes
                0x0000000000002339       0xfe 0x1 /usr/local/popcorn/aarch64/lib/libc.a(floatscan.o)
 .debug_pubtypes
                0x0000000000002437       0xdd 0x1 /usr/local/popcorn/aarch64/lib/libc.a(intscan.o)
 .debug_pubtypes
                0x0000000000002514       0xc2 0x1 /usr/local/popcorn/aarch64/lib/libc.a(shgetc.o)
 .debug_pubtypes
                0x00000000000025d6       0x35 0x1 /usr/local/popcorn/aarch64/lib/libc.a(syscall_ret.o)
 .debug_pubtypes
                0x000000000000260b       0xc6 0x1 /usr/local/popcorn/aarch64/lib/libc.a(__lctrans.o)
 .debug_pubtypes
                0x00000000000026d1       0x67 0x1 /usr/local/popcorn/aarch64/lib/libc.a(expand_heap.o)
 .debug_pubtypes
                0x0000000000002738       0x97 0x1 /usr/local/popcorn/aarch64/lib/libc.a(__fpclassifyl.o)
 .debug_pubtypes
                0x00000000000027cf       0x97 0x1 /usr/local/popcorn/aarch64/lib/libc.a(__signbitl.o)
 .debug_pubtypes
                0x0000000000002866       0x1d 0x1 /usr/local/popcorn/aarch64/lib/libc.a(fabs.o)
 .debug_pubtypes
                0x0000000000002883       0x1d 0x1 /usr/local/popcorn/aarch64/lib/libc.a(sqrt.o)
 .debug_pubtypes
                0x00000000000028a0       0x8f 0x1 /usr/local/popcorn/aarch64/lib/libc.a(copysignl.o)
 .debug_pubtypes
                0x000000000000292f       0xc7 0x1 /usr/local/popcorn/aarch64/lib/libc.a(fmodl.o)
 .debug_pubtypes
                0x00000000000029f6       0x97 0x1 /usr/local/popcorn/aarch64/lib/libc.a(frexpl.o)
 .debug_pubtypes
                0x0000000000002a8d       0x97 0x1 /usr/local/popcorn/aarch64/lib/libc.a(scalbnl.o)
 .debug_pubtypes
                0x0000000000002b24      0x11d 0x1 /usr/local/popcorn/aarch64/lib/libc.a(mbrtowc.o)
 .debug_pubtypes
                0x0000000000002c41       0x49 0x1 /usr/local/popcorn/aarch64/lib/libc.a(mbsinit.o)
 .debug_pubtypes
                0x0000000000002c8a       0x40 0x1 /usr/local/popcorn/aarch64/lib/libc.a(wctomb.o)
 .debug_pubtypes
                0x0000000000002cca       0xe1 0x1 /usr/local/popcorn/aarch64/lib/libc.a(__fdopen.o)
 .debug_pubtypes
                0x0000000000002dab       0x23 0x1 /usr/local/popcorn/aarch64/lib/libc.a(__fmodeflags.o)
 .debug_pubtypes
                0x0000000000002dce      0x100 0x1 /usr/local/popcorn/aarch64/lib/libc.a(__lockfile.o)
 .debug_pubtypes
                0x0000000000002ece       0xc2 0x1 /usr/local/popcorn/aarch64/lib/libc.a(__stdio_close.o)
 .debug_pubtypes
                0x0000000000002f90       0xd8 0x1 /usr/local/popcorn/aarch64/lib/libc.a(__stdio_read.o)
 .debug_pubtypes
                0x0000000000003068       0xc2 0x1 /usr/local/popcorn/aarch64/lib/libc.a(__stdio_seek.o)
 .debug_pubtypes
                0x000000000000312a       0xd8 0x1 /usr/local/popcorn/aarch64/lib/libc.a(__stdio_write.o)
 .debug_pubtypes
                0x0000000000003202       0xe1 0x1 /usr/local/popcorn/aarch64/lib/libc.a(__stdout_write.o)
 .debug_pubtypes
                0x00000000000032e3       0xc2 0x1 /usr/local/popcorn/aarch64/lib/libc.a(__string_read.o)
 .debug_pubtypes
                0x00000000000033a5       0xc2 0x1 /usr/local/popcorn/aarch64/lib/libc.a(__toread.o)
 .debug_pubtypes
                0x0000000000003467       0xc2 0x1 /usr/local/popcorn/aarch64/lib/libc.a(__towrite.o)
 .debug_pubtypes
                0x0000000000003529       0xc2 0x1 /usr/local/popcorn/aarch64/lib/libc.a(__uflow.o)
 .debug_pubtypes
                0x00000000000035eb       0xc2 0x1 /usr/local/popcorn/aarch64/lib/libc.a(ofl_add.o)
 .debug_pubtypes
                0x00000000000036ad       0xfd 0x1 /usr/local/popcorn/aarch64/lib/libc.a(vsnprintf.o)
 .debug_pubtypes
                0x00000000000037aa       0x4d 0x1 /usr/local/popcorn/aarch64/lib/libc.a(memcmp.o)
 .debug_pubtypes
                0x00000000000037f7       0x4a 0x1 /usr/local/popcorn/aarch64/lib/libc.a(stpcpy.o)
 .debug_pubtypes
                0x0000000000003841       0x4d 0x1 /usr/local/popcorn/aarch64/lib/libc.a(clock_gettime.o)
 .debug_pubtypes
                0x000000000000388e       0x30 0x1 /usr/local/popcorn/aarch64/lib/libc.a(internal.o)
 .debug_pubtypes
                0x00000000000038be      0x101 0x1 /usr/local/popcorn/aarch64/lib/libc.a(wcrtomb.o)
 .debug_pubtypes
                0x00000000000039bf       0xc2 0x1 /usr/local/popcorn/aarch64/lib/libc.a(__stdio_exit.o)
 .debug_pubtypes
                0x0000000000003a81       0x87 0x1 /usr/local/popcorn/aarch64/lib/libmigrate.a(migrate.o)
 .debug_pubtypes
                0x0000000000003b08       0x67 0x1 /usr/local/popcorn/aarch64/lib/libmigrate.a(mapping.o)
 .debug_pubtypes
                0x0000000000003b6f      0x1ec 0x1 /usr/local/popcorn/aarch64/lib/libstack-transform.a(userspace.o)
 .debug_pubtypes
                0x0000000000003d5b      0x1cf 0x1 /usr/local/popcorn/aarch64/lib/libstack-transform.a(init.o)
 .debug_pubtypes
                0x0000000000003f2a      0x1ec 0x1 /usr/local/popcorn/aarch64/lib/libstack-transform.a(rewrite.o)
 .debug_pubtypes
                0x0000000000004116      0x1ec 0x1 /usr/local/popcorn/aarch64/lib/libstack-transform.a(unwind.o)
 .debug_pubtypes
                0x0000000000004302      0x20e 0x1 /usr/local/popcorn/aarch64/lib/libstack-transform.a(util.o)
 .debug_pubtypes
                0x0000000000004510       0x8f 0x1 /usr/local/popcorn/aarch64/lib/libstack-transform.a(properties.o)
 .debug_pubtypes
                0x000000000000459f       0xa0 0x1 /usr/local/popcorn/aarch64/lib/libstack-transform.a(regs.o)
 .debug_pubtypes
                0x000000000000463f       0x8f 0x1 /usr/local/popcorn/aarch64/lib/libstack-transform.a(properties.o)
 .debug_pubtypes
                0x00000000000046ce       0x8c 0x1 /usr/local/popcorn/aarch64/lib/libstack-transform.a(regs.o)
 .debug_pubtypes
                0x000000000000475a       0x8f 0x1 /usr/local/popcorn/aarch64/lib/libstack-transform.a(properties.o)
 .debug_pubtypes
                0x00000000000047e9       0xcd 0x1 /usr/local/popcorn/aarch64/lib/libstack-transform.a(regs.o)
 .debug_pubtypes
                0x00000000000048b6      0x20c 0x1 /usr/local/popcorn/aarch64/lib/libstack-transform.a(data.o)
 .debug_pubtypes
                0x0000000000004ac2       0x29 0x1 /usr/local/popcorn/aarch64/lib/libc.a(arch_crash.o)
 .debug_pubtypes
                0x0000000000004aeb       0x3c 0x1 /usr/local/popcorn/aarch64/lib/libc.a(getenv.o)
 .debug_pubtypes
                0x0000000000004b27       0x23 0x1 /usr/local/popcorn/aarch64/lib/libc.a(assert.o)
 .debug_pubtypes
                0x0000000000004b4a       0x7c 0x1 /usr/local/popcorn/aarch64/lib/libc.a(open.o)
 .debug_pubtypes
                0x0000000000004bc6       0x6e 0x1 /usr/local/popcorn/aarch64/lib/libc.a(getrlimit.o)
 .debug_pubtypes
                0x0000000000004c34       0xc2 0x1 /usr/local/popcorn/aarch64/lib/libc.a(getc.o)
 .debug_pubtypes
                0x0000000000004cf6       0x5e 0x1 /usr/local/popcorn/aarch64/lib/libc.a(getline.o)
 .debug_pubtypes
                0x0000000000004d54       0xc2 0x1 /usr/local/popcorn/aarch64/lib/libc.a(perror.o)
 .debug_pubtypes
                0x0000000000004e16       0x74 0x1 /usr/local/popcorn/aarch64/lib/libc.a(snprintf.o)
 .debug_pubtypes
                0x0000000000004e8a       0x44 0x1 /usr/local/popcorn/aarch64/lib/libc.a(bsearch.o)
 .debug_pubtypes
                0x0000000000004ece      0x10a 0x1 /usr/local/popcorn/aarch64/lib/libc.a(strtol.o)
 .debug_pubtypes
                0x0000000000004fd8       0x56 0x1 /usr/local/popcorn/aarch64/lib/libc.a(strncmp.o)
 .debug_pubtypes
                0x000000000000502e       0x31 0x1 /usr/local/popcorn/aarch64/lib/libc.a(__syscall_cp.o)
 .debug_pubtypes
                0x000000000000505f      0x104 0x1 /usr/local/popcorn/aarch64/lib/libc.a(pthread_attr_get.o)
 .debug_pubtypes
                0x0000000000005163       0xd6 0x1 /usr/local/popcorn/aarch64/lib/libc.a(pthread_getattr_np.o)
 .debug_pubtypes
                0x0000000000005239       0xb5 0x1 /usr/local/popcorn/aarch64/lib/libc.a(pthread_migrate.o)
 .debug_pubtypes
                0x00000000000052ee       0xc3 0x1 /usr/local/popcorn/aarch64/lib/libc.a(pthread_self.o)
 .debug_pubtypes
                0x00000000000053b1       0x27 0x1 /usr/local/popcorn/aarch64/lib/libc.a(close.o)
 .debug_pubtypes
                0x00000000000053d8       0x31 0x1 /usr/local/popcorn/aarch64/lib/libc.a(getpid.o)
 .debug_pubtypes
                0x0000000000005409       0x31 0x1 /usr/local/popcorn/aarch64/lib/libc.a(lseek.o)
 .debug_pubtypes
                0x000000000000543a       0x54 0x1 /usr/local/popcorn/aarch64/lib/libc.a(read.o)
 .debug_pubtypes
                0x000000000000548e       0x1b 0x1 /usr/local/popcorn/aarch64/lib/libc.a(abort.o)
 .debug_pubtypes
                0x00000000000054a9       0x35 0x1 /usr/local/popcorn/aarch64/lib/libc.a(block.o)
 .debug_pubtypes
                0x00000000000054de       0x59 0x1 /usr/local/popcorn/aarch64/lib/libc.a(raise.o)
 .debug_pubtypes
                0x0000000000005537       0xc2 0x1 /usr/local/popcorn/aarch64/lib/libc.a(fputc.o)
 .debug_pubtypes
                0x00000000000055f9       0xce 0x1 /usr/local/popcorn/aarch64/lib/libc.a(getdelim.o)
 .debug_pubtypes
                0x00000000000056c7       0xc2 0x1 /usr/local/popcorn/aarch64/lib/libc.a(__overflow.o)

.comment        0x0000000000000000       0x35
 ** merge strings
                0x0000000000000000       0x35

.stack_transform.unwind
                0x0000000000000000      0x870
 .stack_transform.unwind
                0x0000000000000000       0x48 0x4 dc_aarch64.o
 .stack_transform.unwind
                0x0000000000000048      0x150 0x4 adc_aarch64.o
 .stack_transform.unwind
                0x0000000000000198      0x1f0 0x4 extbuild_aarch64.o
 .stack_transform.unwind
                0x0000000000000388      0x230 0x4 jobcntl_aarch64.o
 .stack_transform.unwind
                0x00000000000005b8       0xd8 0x4 rbt_aarch64.o
 .stack_transform.unwind
                0x0000000000000690       0x58 0x4 c_timers_aarch64.o
 .stack_transform.unwind
                0x00000000000006e8       0x38 0x4 print_results_aarch64.o
 .stack_transform.unwind
                0x0000000000000720       0x38 0x4 randdp_aarch64.o
 .stack_transform.unwind
                0x0000000000000758       0x38 0x4 c_print_results_aarch64.o
 .stack_transform.unwind
                0x0000000000000790       0x10 0x4 wtime_aarch64.o
 .stack_transform.unwind
                0x00000000000007a0       0x18 0x4 /usr/local/popcorn/aarch64/lib/libc.a(__libc_start_main.o)
 .stack_transform.unwind
                0x00000000000007b8       0x80 0x4 /usr/local/popcorn/aarch64/lib/libmigrate.a(migrate.o)
 .stack_transform.unwind
                0x0000000000000838       0x38 0x4 /usr/local/popcorn/aarch64/lib/libmigrate.a(mapping.o)

.stack_transform.unwind_arange
                0x0000000000000000      0x5e0
 .stack_transform.unwind_arange
                0x0000000000000000       0x30 0x8 dc_aarch64.o
 .stack_transform.unwind_arange
                0x0000000000000030      0x100 0x8 adc_aarch64.o
 .stack_transform.unwind_arange
                0x0000000000000130      0x110 0x8 extbuild_aarch64.o
 .stack_transform.unwind_arange
                0x0000000000000240      0x1c0 0x8 jobcntl_aarch64.o
 .stack_transform.unwind_arange
                0x0000000000000400       0x90 0x8 rbt_aarch64.o
 .stack_transform.unwind_arange
                0x0000000000000490       0x50 0x8 c_timers_aarch64.o
 .stack_transform.unwind_arange
                0x00000000000004e0       0x10 0x8 print_results_aarch64.o
 .stack_transform.unwind_arange
                0x00000000000004f0       0x20 0x8 randdp_aarch64.o
 .stack_transform.unwind_arange
                0x0000000000000510       0x10 0x8 c_print_results_aarch64.o
 .stack_transform.unwind_arange
                0x0000000000000520       0x10 0x8 wtime_aarch64.o
 .stack_transform.unwind_arange
                0x0000000000000530       0x10 0x8 /usr/local/popcorn/aarch64/lib/libc.a(__libc_start_main.o)
 .stack_transform.unwind_arange
                0x0000000000000540       0x70 0x8 /usr/local/popcorn/aarch64/lib/libmigrate.a(migrate.o)
 .stack_transform.unwind_arange
                0x00000000000005b0       0x30 0x8 /usr/local/popcorn/aarch64/lib/libmigrate.a(mapping.o)

.debug_line     0x0000000000000000    0x1797f
 .debug_line    0x0000000000000000      0x5a4 0x1 dc_aarch64.o
 .debug_line    0x00000000000005a4     0x15bb 0x1 adc_aarch64.o
 .debug_line    0x0000000000001b5f     0x1f45 0x1 extbuild_aarch64.o
 .debug_line    0x0000000000003aa4     0x1802 0x1 jobcntl_aarch64.o
 .debug_line    0x00000000000052a6      0xb4b 0x1 rbt_aarch64.o
 .debug_line    0x0000000000005df1       0xf5 0x1 c_timers_aarch64.o
 .debug_line    0x0000000000005ee6      0x15d 0x1 print_results_aarch64.o
 .debug_line    0x0000000000006043      0x232 0x1 randdp_aarch64.o
 .debug_line    0x0000000000006275      0x110 0x1 c_print_results_aarch64.o
 .debug_line    0x0000000000006385       0xb5 0x1 wtime_aarch64.o
 .debug_line    0x000000000000643a       0x4b 0x1 /usr/local/popcorn/aarch64/lib/crt1.o
 .debug_line    0x0000000000006485       0xa7 0x1 /usr/local/popcorn/aarch64/lib/libc.a(isdigit.o)
 .debug_line    0x000000000000652c      0x275 0x1 /usr/local/popcorn/aarch64/lib/libc.a(__libc_start_main.o)
 .debug_line    0x00000000000067a1       0xdf 0x1 /usr/local/popcorn/aarch64/lib/libc.a(__errno_location.o)
 .debug_line    0x0000000000006880       0xaa 0x1 /usr/local/popcorn/aarch64/lib/libc.a(exit.o)
 .debug_line    0x000000000000692a       0x6c 0x1 /usr/local/popcorn/aarch64/lib/libc.a(libc.o)
 .debug_line    0x0000000000006996      0x120 0x1 /usr/local/popcorn/aarch64/lib/libc.a(calloc.o)
 .debug_line    0x0000000000006ab6      0x164 0x1 /usr/local/popcorn/aarch64/lib/libc.a(lite_malloc.o)
 .debug_line    0x0000000000006c1a     0x11e2 0x1 /usr/local/popcorn/aarch64/lib/libc.a(malloc.o)
 .debug_line    0x0000000000007dfc     0x144b 0x1 /usr/local/popcorn/aarch64/lib/libc.a(popcorn_malloc.o)
 .debug_line    0x0000000000009247      0x54b 0x1 /usr/local/popcorn/aarch64/lib/libc.a(pow.o)
 .debug_line    0x0000000000009792       0xac 0x1 /usr/local/popcorn/aarch64/lib/libc.a(scalbn.o)
 .debug_line    0x000000000000983e       0xa5 0x1 /usr/local/popcorn/aarch64/lib/libc.a(madvise.o)
 .debug_line    0x00000000000098e3       0xf0 0x1 /usr/local/popcorn/aarch64/lib/libc.a(mmap.o)
 .debug_line    0x00000000000099d3       0xff 0x1 /usr/local/popcorn/aarch64/lib/libc.a(mremap.o)
 .debug_line    0x0000000000009ad2       0xb8 0x1 /usr/local/popcorn/aarch64/lib/libc.a(munmap.o)
 .debug_line    0x0000000000009b8a      0x107 0x1 /usr/local/popcorn/aarch64/lib/libc.a(fclose.o)
 .debug_line    0x0000000000009c91      0x146 0x1 /usr/local/popcorn/aarch64/lib/libc.a(fflush.o)
 .debug_line    0x0000000000009dd7      0x14e 0x1 /usr/local/popcorn/aarch64/lib/libc.a(fgets.o)
 .debug_line    0x0000000000009f25      0x110 0x1 /usr/local/popcorn/aarch64/lib/libc.a(fopen.o)
 .debug_line    0x000000000000a035       0x76 0x1 /usr/local/popcorn/aarch64/lib/libc.a(fprintf.o)
 .debug_line    0x000000000000a0ab      0x115 0x1 /usr/local/popcorn/aarch64/lib/libc.a(fread.o)
 .debug_line    0x000000000000a1c0       0x75 0x1 /usr/local/popcorn/aarch64/lib/libc.a(fscanf.o)
 .debug_line    0x000000000000a235      0x120 0x1 /usr/local/popcorn/aarch64/lib/libc.a(fseek.o)
 .debug_line    0x000000000000a355      0x108 0x1 /usr/local/popcorn/aarch64/lib/libc.a(ftell.o)
 .debug_line    0x000000000000a45d      0x12c 0x1 /usr/local/popcorn/aarch64/lib/libc.a(fwrite.o)
 .debug_line    0x000000000000a589       0xaa 0x1 /usr/local/popcorn/aarch64/lib/libc.a(ofl.o)
 .debug_line    0x000000000000a633       0x82 0x1 /usr/local/popcorn/aarch64/lib/libc.a(printf.o)
 .debug_line    0x000000000000a6b5       0x76 0x1 /usr/local/popcorn/aarch64/lib/libc.a(sprintf.o)
 .debug_line    0x000000000000a72b       0x75 0x1 /usr/local/popcorn/aarch64/lib/libc.a(sscanf.o)
 .debug_line    0x000000000000a7a0       0x7b 0x1 /usr/local/popcorn/aarch64/lib/libc.a(stderr.o)
 .debug_line    0x000000000000a81b       0x7b 0x1 /usr/local/popcorn/aarch64/lib/libc.a(stdout.o)
 .debug_line    0x000000000000a896     0x1326 0x1 /usr/local/popcorn/aarch64/lib/libc.a(vfprintf.o)
 .debug_line    0x000000000000bbbc      0x61a 0x1 /usr/local/popcorn/aarch64/lib/libc.a(vfscanf.o)
 .debug_line    0x000000000000c1d6       0x72 0x1 /usr/local/popcorn/aarch64/lib/libc.a(vsprintf.o)
 .debug_line    0x000000000000c248       0xbb 0x1 /usr/local/popcorn/aarch64/lib/libc.a(vsscanf.o)
 .debug_line    0x000000000000c303       0xab 0x1 /usr/local/popcorn/aarch64/lib/libc.a(atoi.o)
 .debug_line    0x000000000000c3ae      0x3ca 0x1 /usr/local/popcorn/aarch64/lib/libc.a(qsort.o)
 .debug_line    0x000000000000c778      0x1a7 0x1 /usr/local/popcorn/aarch64/lib/libc.a(memchr.o)
 .debug_line    0x000000000000c91f      0x5cd 0x1 /usr/local/popcorn/aarch64/lib/libc.a(memcpy.o)
 .debug_line    0x000000000000ceec      0x2ca 0x1 /usr/local/popcorn/aarch64/lib/libc.a(memset.o)
 .debug_line    0x000000000000d1b6       0x62 0x1 /usr/local/popcorn/aarch64/lib/libc.a(strcat.o)
 .debug_line    0x000000000000d218       0x84 0x1 /usr/local/popcorn/aarch64/lib/libc.a(strchr.o)
 .debug_line    0x000000000000d29c      0x18c 0x1 /usr/local/popcorn/aarch64/lib/libc.a(strchrnul.o)
 .debug_line    0x000000000000d428       0xa0 0x1 /usr/local/popcorn/aarch64/lib/libc.a(strcmp.o)
 .debug_line    0x000000000000d4c8       0x59 0x1 /usr/local/popcorn/aarch64/lib/libc.a(strcpy.o)
 .debug_line    0x000000000000d521      0x128 0x1 /usr/local/popcorn/aarch64/lib/libc.a(strlen.o)
 .debug_line    0x000000000000d649       0xa2 0x1 /usr/local/popcorn/aarch64/lib/libc.a(strnlen.o)
 .debug_line    0x000000000000d6eb      0x7d9 0x1 /usr/local/popcorn/aarch64/lib/libc.a(strstr.o)
 .debug_line    0x000000000000dec4      0x134 0x1 /usr/local/popcorn/aarch64/lib/libc.a(__lock.o)
 .debug_line    0x000000000000dff8      0x125 0x1 /usr/local/popcorn/aarch64/lib/libc.a(__wait.o)
 .debug_line    0x000000000000e11d       0x87 0x1 /usr/local/popcorn/aarch64/lib/libc.a(gettimeofday.o)
 .debug_line    0x000000000000e1a4       0x85 0x1 /usr/local/popcorn/aarch64/lib/libc.a(unlink.o)
 .debug_line    0x000000000000e229       0x34 0x1 /usr/local/popcorn/aarch64/lib/libc.a(__environ.o)
 .debug_line    0x000000000000e25d      0x284 0x1 /usr/local/popcorn/aarch64/lib/libc.a(__init_tls.o)
 .debug_line    0x000000000000e4e1      0x135 0x1 /usr/local/popcorn/aarch64/lib/libc.a(platform.o)
 .debug_line    0x000000000000e616      0x128 0x1 /usr/local/popcorn/aarch64/lib/libc.a(strerror.o)
 .debug_line    0x000000000000e73e       0x7c 0x1 /usr/local/popcorn/aarch64/lib/libc.a(_Exit.o)
 .debug_line    0x000000000000e7ba     0x16f0 0x1 /usr/local/popcorn/aarch64/lib/libc.a(floatscan.o)
 .debug_line    0x000000000000feaa      0x6a2 0x1 /usr/local/popcorn/aarch64/lib/libc.a(intscan.o)
 .debug_line    0x000000000001054c      0x211 0x1 /usr/local/popcorn/aarch64/lib/libc.a(shgetc.o)
 .debug_line    0x000000000001075d       0x6f 0x1 /usr/local/popcorn/aarch64/lib/libc.a(syscall_ret.o)
 .debug_line    0x00000000000107cc      0x11c 0x1 /usr/local/popcorn/aarch64/lib/libc.a(__lctrans.o)
 .debug_line    0x00000000000108e8      0x68a 0x1 /usr/local/popcorn/aarch64/lib/libc.a(expand_heap.o)
 .debug_line    0x0000000000010f72       0xaa 0x1 /usr/local/popcorn/aarch64/lib/libc.a(__fpclassifyl.o)
 .debug_line    0x000000000001101c       0x87 0x1 /usr/local/popcorn/aarch64/lib/libc.a(__signbitl.o)
 .debug_line    0x00000000000110a3       0x4e 0x1 /usr/local/popcorn/aarch64/lib/libc.a(fabs.o)
 .debug_line    0x00000000000110f1       0x4e 0x1 /usr/local/popcorn/aarch64/lib/libc.a(sqrt.o)
 .debug_line    0x000000000001113f       0x95 0x1 /usr/local/popcorn/aarch64/lib/libc.a(copysignl.o)
 .debug_line    0x00000000000111d4      0x175 0x1 /usr/local/popcorn/aarch64/lib/libc.a(fmodl.o)
 .debug_line    0x0000000000011349       0xba 0x1 /usr/local/popcorn/aarch64/lib/libc.a(frexpl.o)
 .debug_line    0x0000000000011403       0xc1 0x1 /usr/local/popcorn/aarch64/lib/libc.a(scalbnl.o)
 .debug_line    0x00000000000114c4      0x185 0x1 /usr/local/popcorn/aarch64/lib/libc.a(mbrtowc.o)
 .debug_line    0x0000000000011649       0x73 0x1 /usr/local/popcorn/aarch64/lib/libc.a(mbsinit.o)
 .debug_line    0x00000000000116bc       0x71 0x1 /usr/local/popcorn/aarch64/lib/libc.a(wctomb.o)
 .debug_line    0x000000000001172d      0x1a2 0x1 /usr/local/popcorn/aarch64/lib/libc.a(__fdopen.o)
 .debug_line    0x00000000000118cf       0xb3 0x1 /usr/local/popcorn/aarch64/lib/libc.a(__fmodeflags.o)
 .debug_line    0x0000000000011982      0x1a5 0x1 /usr/local/popcorn/aarch64/lib/libc.a(__lockfile.o)
 .debug_line    0x0000000000011b27       0xec 0x1 /usr/local/popcorn/aarch64/lib/libc.a(__stdio_close.o)
 .debug_line    0x0000000000011c13      0x139 0x1 /usr/local/popcorn/aarch64/lib/libc.a(__stdio_read.o)
 .debug_line    0x0000000000011d4c       0xcd 0x1 /usr/local/popcorn/aarch64/lib/libc.a(__stdio_seek.o)
 .debug_line    0x0000000000011e19      0x171 0x1 /usr/local/popcorn/aarch64/lib/libc.a(__stdio_write.o)
 .debug_line    0x0000000000011f8a       0xff 0x1 /usr/local/popcorn/aarch64/lib/libc.a(__stdout_write.o)
 .debug_line    0x0000000000012089       0xba 0x1 /usr/local/popcorn/aarch64/lib/libc.a(__string_read.o)
 .debug_line    0x0000000000012143       0xe4 0x1 /usr/local/popcorn/aarch64/lib/libc.a(__toread.o)
 .debug_line    0x0000000000012227       0xd6 0x1 /usr/local/popcorn/aarch64/lib/libc.a(__towrite.o)
 .debug_line    0x00000000000122fd       0xae 0x1 /usr/local/popcorn/aarch64/lib/libc.a(__uflow.o)
 .debug_line    0x00000000000123ab       0xab 0x1 /usr/local/popcorn/aarch64/lib/libc.a(ofl_add.o)
 .debug_line    0x0000000000012456      0x12f 0x1 /usr/local/popcorn/aarch64/lib/libc.a(vsnprintf.o)
 .debug_line    0x0000000000012585       0xe9 0x1 /usr/local/popcorn/aarch64/lib/libc.a(memcmp.o)
 .debug_line    0x000000000001266e      0x14e 0x1 /usr/local/popcorn/aarch64/lib/libc.a(stpcpy.o)
 .debug_line    0x00000000000127bc       0x47 0x1 /usr/local/popcorn/aarch64/lib/libc.a(__set_thread_area.o)
 .debug_line    0x0000000000012803       0xd4 0x1 /usr/local/popcorn/aarch64/lib/libc.a(clock_gettime.o)
 .debug_line    0x00000000000128d7       0x58 0x1 /usr/local/popcorn/aarch64/lib/libc.a(internal.o)
 .debug_line    0x000000000001292f      0x14b 0x1 /usr/local/popcorn/aarch64/lib/libc.a(wcrtomb.o)
 .debug_line    0x0000000000012a7a       0xfc 0x1 /usr/local/popcorn/aarch64/lib/libc.a(__stdio_exit.o)
 .debug_line    0x0000000000012b76      0x363 0x1 /usr/local/popcorn/aarch64/lib/libmigrate.a(migrate.o)
 .debug_line    0x0000000000012ed9      0x337 0x1 /usr/local/popcorn/aarch64/lib/libmigrate.a(mapping.o)
 .debug_line    0x0000000000013210      0x418 0x1 /usr/local/popcorn/aarch64/lib/libstack-transform.a(userspace.o)
 .debug_line    0x0000000000013628      0x2aa 0x1 /usr/local/popcorn/aarch64/lib/libstack-transform.a(init.o)
 .debug_line    0x00000000000138d2      0x8cc 0x1 /usr/local/popcorn/aarch64/lib/libstack-transform.a(rewrite.o)
 .debug_line    0x000000000001419e      0x4e8 0x1 /usr/local/popcorn/aarch64/lib/libstack-transform.a(unwind.o)
 .debug_line    0x0000000000014686      0x3e6 0x1 /usr/local/popcorn/aarch64/lib/libstack-transform.a(util.o)
 .debug_line    0x0000000000014a6c       0xf8 0x1 /usr/local/popcorn/aarch64/lib/libstack-transform.a(properties.o)
 .debug_line    0x0000000000014b64      0x527 0x1 /usr/local/popcorn/aarch64/lib/libstack-transform.a(regs.o)
 .debug_line    0x000000000001508b       0xfe 0x1 /usr/local/popcorn/aarch64/lib/libstack-transform.a(properties.o)
 .debug_line    0x0000000000015189      0x544 0x1 /usr/local/popcorn/aarch64/lib/libstack-transform.a(regs.o)
 .debug_line    0x00000000000156cd       0xf6 0x1 /usr/local/popcorn/aarch64/lib/libstack-transform.a(properties.o)
 .debug_line    0x00000000000157c3      0x3dc 0x1 /usr/local/popcorn/aarch64/lib/libstack-transform.a(regs.o)
 .debug_line    0x0000000000015b9f      0x776 0x1 /usr/local/popcorn/aarch64/lib/libstack-transform.a(data.o)
 .debug_line    0x0000000000016315       0x9d 0x1 /usr/local/popcorn/aarch64/lib/libc.a(arch_crash.o)
 .debug_line    0x00000000000163b2       0x89 0x1 /usr/local/popcorn/aarch64/lib/libc.a(getenv.o)
 .debug_line    0x000000000001643b       0x52 0x1 /usr/local/popcorn/aarch64/lib/libc.a(assert.o)
 .debug_line    0x000000000001648d       0xd9 0x1 /usr/local/popcorn/aarch64/lib/libc.a(open.o)
 .debug_line    0x0000000000016566      0x124 0x1 /usr/local/popcorn/aarch64/lib/libc.a(getrlimit.o)
 .debug_line    0x000000000001668a       0xc2 0x1 /usr/local/popcorn/aarch64/lib/libc.a(getc.o)
 .debug_line    0x000000000001674c       0x68 0x1 /usr/local/popcorn/aarch64/lib/libc.a(getline.o)
 .debug_line    0x00000000000167b4       0xd1 0x1 /usr/local/popcorn/aarch64/lib/libc.a(perror.o)
 .debug_line    0x0000000000016885       0x77 0x1 /usr/local/popcorn/aarch64/lib/libc.a(snprintf.o)
 .debug_line    0x00000000000168fc       0x83 0x1 /usr/local/popcorn/aarch64/lib/libc.a(bsearch.o)
 .debug_line    0x000000000001697f      0x16a 0x1 /usr/local/popcorn/aarch64/lib/libc.a(strtol.o)
 .debug_line    0x0000000000016ae9      0x10a 0x1 /usr/local/popcorn/aarch64/lib/libc.a(strncmp.o)
 .debug_line    0x0000000000016bf3       0x84 0x1 /usr/local/popcorn/aarch64/lib/libc.a(__syscall_cp.o)
 .debug_line    0x0000000000016c77      0x277 0x1 /usr/local/popcorn/aarch64/lib/libc.a(pthread_attr_get.o)
 .debug_line    0x0000000000016eee      0x127 0x1 /usr/local/popcorn/aarch64/lib/libc.a(pthread_getattr_np.o)
 .debug_line    0x0000000000017015      0x104 0x1 /usr/local/popcorn/aarch64/lib/libc.a(pthread_migrate.o)
 .debug_line    0x0000000000017119       0xdb 0x1 /usr/local/popcorn/aarch64/lib/libc.a(pthread_self.o)
 .debug_line    0x00000000000171f4       0x70 0x1 /usr/local/popcorn/aarch64/lib/libc.a(close.o)
 .debug_line    0x0000000000017264       0x9a 0x1 /usr/local/popcorn/aarch64/lib/libc.a(getpid.o)
 .debug_line    0x00000000000172fe       0x9e 0x1 /usr/local/popcorn/aarch64/lib/libc.a(lseek.o)
 .debug_line    0x000000000001739c       0x69 0x1 /usr/local/popcorn/aarch64/lib/libc.a(read.o)
 .debug_line    0x0000000000017405       0x74 0x1 /usr/local/popcorn/aarch64/lib/libc.a(abort.o)
 .debug_line    0x0000000000017479       0x44 0x1 /usr/local/popcorn/aarch64/lib/libc.a(syscall.o)
 .debug_line    0x00000000000174bd       0xd1 0x1 /usr/local/popcorn/aarch64/lib/libc.a(block.o)
 .debug_line    0x000000000001758e       0xb6 0x1 /usr/local/popcorn/aarch64/lib/libc.a(raise.o)
 .debug_line    0x0000000000017644       0xcf 0x1 /usr/local/popcorn/aarch64/lib/libc.a(fputc.o)
 .debug_line    0x0000000000017713      0x199 0x1 /usr/local/popcorn/aarch64/lib/libc.a(getdelim.o)
 .debug_line    0x00000000000178ac       0xd3 0x1 /usr/local/popcorn/aarch64/lib/libc.a(__overflow.o)

.debug_frame    0x0000000000000000     0x3d98
 .debug_frame   0x0000000000000000       0x38 0x8 /usr/local/popcorn/aarch64/lib/crt1.o
 .debug_frame   0x0000000000000038       0x48 0x8 /usr/local/popcorn/aarch64/lib/libc.a(isdigit.o)
 .debug_frame   0x0000000000000080       0xc0 0x8 /usr/local/popcorn/aarch64/lib/libc.a(__libc_start_main.o)
 .debug_frame   0x0000000000000140       0x30 0x8 /usr/local/popcorn/aarch64/lib/libc.a(__errno_location.o)
 .debug_frame   0x0000000000000170       0x80 0x8 /usr/local/popcorn/aarch64/lib/libc.a(exit.o)
 .debug_frame   0x00000000000001f0       0x78 0x8 /usr/local/popcorn/aarch64/lib/libc.a(calloc.o)
 .debug_frame   0x0000000000000268       0x38 0x8 /usr/local/popcorn/aarch64/lib/libc.a(lite_malloc.o)
 .debug_frame   0x00000000000002a0      0x448 0x8 /usr/local/popcorn/aarch64/lib/libc.a(malloc.o)
 .debug_frame   0x00000000000006e8      0x488 0x8 /usr/local/popcorn/aarch64/lib/libc.a(popcorn_malloc.o)
 .debug_frame   0x0000000000000b70       0x58 0x8 /usr/local/popcorn/aarch64/lib/libc.a(pow.o)
 .debug_frame   0x0000000000000bc8       0x30 0x8 /usr/local/popcorn/aarch64/lib/libc.a(scalbn.o)
 .debug_frame   0x0000000000000bf8       0x38 0x8 /usr/local/popcorn/aarch64/lib/libc.a(madvise.o)
 .debug_frame   0x0000000000000c30       0x60 0x8 /usr/local/popcorn/aarch64/lib/libc.a(mmap.o)
 .debug_frame   0x0000000000000c90       0x60 0x8 /usr/local/popcorn/aarch64/lib/libc.a(mremap.o)
 .debug_frame   0x0000000000000cf0       0x58 0x8 /usr/local/popcorn/aarch64/lib/libc.a(munmap.o)
 .debug_frame   0x0000000000000d48       0x58 0x8 /usr/local/popcorn/aarch64/lib/libc.a(fclose.o)
 .debug_frame   0x0000000000000da0       0x40 0x8 /usr/local/popcorn/aarch64/lib/libc.a(fflush.o)
 .debug_frame   0x0000000000000de0       0x50 0x8 /usr/local/popcorn/aarch64/lib/libc.a(fgets.o)
 .debug_frame   0x0000000000000e30       0x40 0x8 /usr/local/popcorn/aarch64/lib/libc.a(fopen.o)
 .debug_frame   0x0000000000000e70       0x40 0x8 /usr/local/popcorn/aarch64/lib/libc.a(fprintf.o)
 .debug_frame   0x0000000000000eb0       0x48 0x8 /usr/local/popcorn/aarch64/lib/libc.a(fread.o)
 .debug_frame   0x0000000000000ef8       0x40 0x8 /usr/local/popcorn/aarch64/lib/libc.a(fscanf.o)
 .debug_frame   0x0000000000000f38       0x88 0x8 /usr/local/popcorn/aarch64/lib/libc.a(fseek.o)
 .debug_frame   0x0000000000000fc0       0x80 0x8 /usr/local/popcorn/aarch64/lib/libc.a(ftell.o)
 .debug_frame   0x0000000000001040       0x78 0x8 /usr/local/popcorn/aarch64/lib/libc.a(fwrite.o)
 .debug_frame   0x00000000000010b8       0x50 0x8 /usr/local/popcorn/aarch64/lib/libc.a(ofl.o)
 .debug_frame   0x0000000000001108       0x40 0x8 /usr/local/popcorn/aarch64/lib/libc.a(printf.o)
 .debug_frame   0x0000000000001148       0x40 0x8 /usr/local/popcorn/aarch64/lib/libc.a(sprintf.o)
 .debug_frame   0x0000000000001188       0x40 0x8 /usr/local/popcorn/aarch64/lib/libc.a(sscanf.o)
 .debug_frame   0x00000000000011c8       0xf0 0x8 /usr/local/popcorn/aarch64/lib/libc.a(vfprintf.o)
 .debug_frame   0x00000000000012b8       0x50 0x8 /usr/local/popcorn/aarch64/lib/libc.a(vfscanf.o)
 .debug_frame   0x0000000000001308       0x38 0x8 /usr/local/popcorn/aarch64/lib/libc.a(vsprintf.o)
 .debug_frame   0x0000000000001340       0x58 0x8 /usr/local/popcorn/aarch64/lib/libc.a(vsscanf.o)
 .debug_frame   0x0000000000001398       0x30 0x8 /usr/local/popcorn/aarch64/lib/libc.a(atoi.o)
 .debug_frame   0x00000000000013c8       0xf8 0x8 /usr/local/popcorn/aarch64/lib/libc.a(qsort.o)
 .debug_frame   0x00000000000014c0       0x38 0x8 /usr/local/popcorn/aarch64/lib/libc.a(memchr.o)
 .debug_frame   0x00000000000014f8       0x38 0x8 /usr/local/popcorn/aarch64/lib/libc.a(memcpy.o)
 .debug_frame   0x0000000000001530       0x38 0x8 /usr/local/popcorn/aarch64/lib/libc.a(memset.o)
 .debug_frame   0x0000000000001568       0x38 0x8 /usr/local/popcorn/aarch64/lib/libc.a(strcat.o)
 .debug_frame   0x00000000000015a0       0x38 0x8 /usr/local/popcorn/aarch64/lib/libc.a(strchr.o)
 .debug_frame   0x00000000000015d8       0x38 0x8 /usr/local/popcorn/aarch64/lib/libc.a(strchrnul.o)
 .debug_frame   0x0000000000001610       0x38 0x8 /usr/local/popcorn/aarch64/lib/libc.a(strcmp.o)
 .debug_frame   0x0000000000001648       0x38 0x8 /usr/local/popcorn/aarch64/lib/libc.a(strcpy.o)
 .debug_frame   0x0000000000001680       0x38 0x8 /usr/local/popcorn/aarch64/lib/libc.a(strlen.o)
 .debug_frame   0x00000000000016b8       0x38 0x8 /usr/local/popcorn/aarch64/lib/libc.a(strnlen.o)
 .debug_frame   0x00000000000016f0       0xc0 0x8 /usr/local/popcorn/aarch64/lib/libc.a(strstr.o)
 .debug_frame   0x00000000000017b0       0x58 0x8 /usr/local/popcorn/aarch64/lib/libc.a(__lock.o)
 .debug_frame   0x0000000000001808       0x30 0x8 /usr/local/popcorn/aarch64/lib/libc.a(__wait.o)
 .debug_frame   0x0000000000001838       0x40 0x8 /usr/local/popcorn/aarch64/lib/libc.a(gettimeofday.o)
 .debug_frame   0x0000000000001878       0x38 0x8 /usr/local/popcorn/aarch64/lib/libc.a(unlink.o)
 .debug_frame   0x00000000000018b0       0x90 0x8 /usr/local/popcorn/aarch64/lib/libc.a(__init_tls.o)
 .debug_frame   0x0000000000001940       0x80 0x8 /usr/local/popcorn/aarch64/lib/libc.a(platform.o)
 .debug_frame   0x00000000000019c0       0x48 0x8 /usr/local/popcorn/aarch64/lib/libc.a(strerror.o)
 .debug_frame   0x0000000000001a08       0x30 0x8 /usr/local/popcorn/aarch64/lib/libc.a(_Exit.o)
 .debug_frame   0x0000000000001a38       0xc8 0x8 /usr/local/popcorn/aarch64/lib/libc.a(floatscan.o)
 .debug_frame   0x0000000000001b00       0x58 0x8 /usr/local/popcorn/aarch64/lib/libc.a(intscan.o)
 .debug_frame   0x0000000000001b58       0x58 0x8 /usr/local/popcorn/aarch64/lib/libc.a(shgetc.o)
 .debug_frame   0x0000000000001bb0       0x38 0x8 /usr/local/popcorn/aarch64/lib/libc.a(syscall_ret.o)
 .debug_frame   0x0000000000001be8       0x60 0x8 /usr/local/popcorn/aarch64/lib/libc.a(__lctrans.o)
 .debug_frame   0x0000000000001c48      0x1b0 0x8 /usr/local/popcorn/aarch64/lib/libc.a(expand_heap.o)
 .debug_frame   0x0000000000001df8       0x38 0x8 /usr/local/popcorn/aarch64/lib/libc.a(__fpclassifyl.o)
 .debug_frame   0x0000000000001e30       0x38 0x8 /usr/local/popcorn/aarch64/lib/libc.a(__signbitl.o)
 .debug_frame   0x0000000000001e68       0x30 0x8 /usr/local/popcorn/aarch64/lib/libc.a(fabs.o)
 .debug_frame   0x0000000000001e98       0x30 0x8 /usr/local/popcorn/aarch64/lib/libc.a(sqrt.o)
 .debug_frame   0x0000000000001ec8       0x38 0x8 /usr/local/popcorn/aarch64/lib/libc.a(copysignl.o)
 .debug_frame   0x0000000000001f00       0x48 0x8 /usr/local/popcorn/aarch64/lib/libc.a(fmodl.o)
 .debug_frame   0x0000000000001f48       0x40 0x8 /usr/local/popcorn/aarch64/lib/libc.a(frexpl.o)
 .debug_frame   0x0000000000001f88       0x40 0x8 /usr/local/popcorn/aarch64/lib/libc.a(scalbnl.o)
 .debug_frame   0x0000000000001fc8       0x38 0x8 /usr/local/popcorn/aarch64/lib/libc.a(mbrtowc.o)
 .debug_frame   0x0000000000002000       0x30 0x8 /usr/local/popcorn/aarch64/lib/libc.a(mbsinit.o)
 .debug_frame   0x0000000000002030       0x38 0x8 /usr/local/popcorn/aarch64/lib/libc.a(wctomb.o)
 .debug_frame   0x0000000000002068       0x40 0x8 /usr/local/popcorn/aarch64/lib/libc.a(__fdopen.o)
 .debug_frame   0x00000000000020a8       0x40 0x8 /usr/local/popcorn/aarch64/lib/libc.a(__fmodeflags.o)
 .debug_frame   0x00000000000020e8       0x58 0x8 /usr/local/popcorn/aarch64/lib/libc.a(__lockfile.o)
 .debug_frame   0x0000000000002140       0x50 0x8 /usr/local/popcorn/aarch64/lib/libc.a(__stdio_close.o)
 .debug_frame   0x0000000000002190       0x48 0x8 /usr/local/popcorn/aarch64/lib/libc.a(__stdio_read.o)
 .debug_frame   0x00000000000021d8       0x30 0x8 /usr/local/popcorn/aarch64/lib/libc.a(__stdio_seek.o)
 .debug_frame   0x0000000000002208       0x48 0x8 /usr/local/popcorn/aarch64/lib/libc.a(__stdio_write.o)
 .debug_frame   0x0000000000002250       0x38 0x8 /usr/local/popcorn/aarch64/lib/libc.a(__stdout_write.o)
 .debug_frame   0x0000000000002288       0x48 0x8 /usr/local/popcorn/aarch64/lib/libc.a(__string_read.o)
 .debug_frame   0x00000000000022d0       0x58 0x8 /usr/local/popcorn/aarch64/lib/libc.a(__toread.o)
 .debug_frame   0x0000000000002328       0x48 0x8 /usr/local/popcorn/aarch64/lib/libc.a(__towrite.o)
 .debug_frame   0x0000000000002370       0x40 0x8 /usr/local/popcorn/aarch64/lib/libc.a(__uflow.o)
 .debug_frame   0x00000000000023b0       0x40 0x8 /usr/local/popcorn/aarch64/lib/libc.a(ofl_add.o)
 .debug_frame   0x00000000000023f0       0x78 0x8 /usr/local/popcorn/aarch64/lib/libc.a(vsnprintf.o)
 .debug_frame   0x0000000000002468       0x38 0x8 /usr/local/popcorn/aarch64/lib/libc.a(memcmp.o)
 .debug_frame   0x00000000000024a0       0x38 0x8 /usr/local/popcorn/aarch64/lib/libc.a(stpcpy.o)
 .debug_frame   0x00000000000024d8       0x38 0x8 /usr/local/popcorn/aarch64/lib/libc.a(clock_gettime.o)
 .debug_frame   0x0000000000002510       0x38 0x8 /usr/local/popcorn/aarch64/lib/libc.a(wcrtomb.o)
 .debug_frame   0x0000000000002548       0x68 0x8 /usr/local/popcorn/aarch64/lib/libc.a(__stdio_exit.o)
 .debug_frame   0x00000000000025b0      0x150 0x8 /usr/local/popcorn/aarch64/lib/libmigrate.a(migrate.o)
 .debug_frame   0x0000000000002700       0xd8 0x8 /usr/local/popcorn/aarch64/lib/libmigrate.a(mapping.o)
 .debug_frame   0x00000000000027d8       0xc0 0x8 /usr/local/popcorn/aarch64/lib/libstack-transform.a(userspace.o)
 .debug_frame   0x0000000000002898       0x98 0x8 /usr/local/popcorn/aarch64/lib/libstack-transform.a(init.o)
 .debug_frame   0x0000000000002930       0xd0 0x8 /usr/local/popcorn/aarch64/lib/libstack-transform.a(rewrite.o)
 .debug_frame   0x0000000000002a00      0x150 0x8 /usr/local/popcorn/aarch64/lib/libstack-transform.a(unwind.o)
 .debug_frame   0x0000000000002b50      0x130 0x8 /usr/local/popcorn/aarch64/lib/libstack-transform.a(util.o)
 .debug_frame   0x0000000000002c80       0x68 0x8 /usr/local/popcorn/aarch64/lib/libstack-transform.a(properties.o)
 .debug_frame   0x0000000000002ce8      0x1d0 0x8 /usr/local/popcorn/aarch64/lib/libstack-transform.a(regs.o)
 .debug_frame   0x0000000000002eb8       0x68 0x8 /usr/local/popcorn/aarch64/lib/libstack-transform.a(properties.o)
 .debug_frame   0x0000000000002f20      0x1d0 0x8 /usr/local/popcorn/aarch64/lib/libstack-transform.a(regs.o)
 .debug_frame   0x00000000000030f0       0x68 0x8 /usr/local/popcorn/aarch64/lib/libstack-transform.a(properties.o)
 .debug_frame   0x0000000000003158      0x1e0 0x8 /usr/local/popcorn/aarch64/lib/libstack-transform.a(regs.o)
 .debug_frame   0x0000000000003338      0x178 0x8 /usr/local/popcorn/aarch64/lib/libstack-transform.a(data.o)
 .debug_frame   0x00000000000034b0       0x78 0x8 /usr/local/popcorn/aarch64/lib/libc.a(arch_crash.o)
 .debug_frame   0x0000000000003528       0x40 0x8 /usr/local/popcorn/aarch64/lib/libc.a(getenv.o)
 .debug_frame   0x0000000000003568       0x38 0x8 /usr/local/popcorn/aarch64/lib/libc.a(assert.o)
 .debug_frame   0x00000000000035a0       0x40 0x8 /usr/local/popcorn/aarch64/lib/libc.a(open.o)
 .debug_frame   0x00000000000035e0       0x40 0x8 /usr/local/popcorn/aarch64/lib/libc.a(getrlimit.o)
 .debug_frame   0x0000000000003620       0x40 0x8 /usr/local/popcorn/aarch64/lib/libc.a(getc.o)
 .debug_frame   0x0000000000003660       0x30 0x8 /usr/local/popcorn/aarch64/lib/libc.a(getline.o)
 .debug_frame   0x0000000000003690       0x40 0x8 /usr/local/popcorn/aarch64/lib/libc.a(perror.o)
 .debug_frame   0x00000000000036d0       0x40 0x8 /usr/local/popcorn/aarch64/lib/libc.a(snprintf.o)
 .debug_frame   0x0000000000003710       0x48 0x8 /usr/local/popcorn/aarch64/lib/libc.a(bsearch.o)
 .debug_frame   0x0000000000003758       0xd8 0x8 /usr/local/popcorn/aarch64/lib/libc.a(strtol.o)
 .debug_frame   0x0000000000003830       0x38 0x8 /usr/local/popcorn/aarch64/lib/libc.a(strncmp.o)
 .debug_frame   0x0000000000003868       0x48 0x8 /usr/local/popcorn/aarch64/lib/libc.a(__syscall_cp.o)
 .debug_frame   0x00000000000038b0      0x198 0x8 /usr/local/popcorn/aarch64/lib/libc.a(pthread_attr_get.o)
 .debug_frame   0x0000000000003a48       0x40 0x8 /usr/local/popcorn/aarch64/lib/libc.a(pthread_getattr_np.o)
 .debug_frame   0x0000000000003a88       0x48 0x8 /usr/local/popcorn/aarch64/lib/libc.a(pthread_migrate.o)
 .debug_frame   0x0000000000003ad0       0x30 0x8 /usr/local/popcorn/aarch64/lib/libc.a(pthread_self.o)
 .debug_frame   0x0000000000003b00       0x50 0x8 /usr/local/popcorn/aarch64/lib/libc.a(close.o)
 .debug_frame   0x0000000000003b50       0x30 0x8 /usr/local/popcorn/aarch64/lib/libc.a(getpid.o)
 .debug_frame   0x0000000000003b80       0x30 0x8 /usr/local/popcorn/aarch64/lib/libc.a(lseek.o)
 .debug_frame   0x0000000000003bb0       0x38 0x8 /usr/local/popcorn/aarch64/lib/libc.a(read.o)
 .debug_frame   0x0000000000003be8       0x40 0x8 /usr/local/popcorn/aarch64/lib/libc.a(abort.o)
 .debug_frame   0x0000000000003c28       0x60 0x8 /usr/local/popcorn/aarch64/lib/libc.a(block.o)
 .debug_frame   0x0000000000003c88       0x40 0x8 /usr/local/popcorn/aarch64/lib/libc.a(raise.o)
 .debug_frame   0x0000000000003cc8       0x40 0x8 /usr/local/popcorn/aarch64/lib/libc.a(fputc.o)
 .debug_frame   0x0000000000003d08       0x50 0x8 /usr/local/popcorn/aarch64/lib/libc.a(getdelim.o)
 .debug_frame   0x0000000000003d58       0x40 0x8 /usr/local/popcorn/aarch64/lib/libc.a(__overflow.o)

.debug_aranges  0x0000000000000000       0x60
 .debug_aranges
                0x0000000000000000       0x30 0x1 /usr/local/popcorn/aarch64/lib/libc.a(__set_thread_area.o)
 .debug_aranges
                0x0000000000000030       0x30 0x1 /usr/local/popcorn/aarch64/lib/libc.a(syscall.o)

.note.gnu.gold-version
                0x0000000000000000       0x1c
 ** note header
                0x0000000000000000       0x10
 ** fill        0x0000000000000010        0x9
 ** zero fill   0x0000000000000019        0x3

.symtab         0x0000000000000000    0x16c08
 ** symtab      0x0000000000000000    0x16c08

.strtab         0x0000000000000000     0x5b2b
 ** string table
                0x0000000000000000     0x5b2b

.shstrtab       0x0000000000000000      0x17c
 ** string table
                0x0000000000000000      0x17c
