Archive member included because of file (symbol)

/usr/local/popcorn/x86_64/lib/libc.a(isdigit.o)
                              dc_x86_64.o (isdigit)
/usr/local/popcorn/x86_64/lib/libc.a(__libc_start_main.o)
                              /usr/local/popcorn/x86_64/lib/crt1.o (__libc_start_main)
/usr/local/popcorn/x86_64/lib/libc.a(__errno_location.o)
                              dc_x86_64.o (__errno_location)
/usr/local/popcorn/x86_64/lib/libc.a(exit.o)
                              dc_x86_64.o (exit)
/usr/local/popcorn/x86_64/lib/libc.a(libc.o)
                              /usr/local/popcorn/x86_64/lib/libc.a(__libc_start_main.o) (__hwcap)
/usr/local/popcorn/x86_64/lib/libc.a(calloc.o)
                              adc_x86_64.o (calloc)
/usr/local/popcorn/x86_64/lib/libc.a(lite_malloc.o)
                              /usr/local/popcorn/x86_64/lib/libc.a(calloc.o) (__malloc0)
/usr/local/popcorn/x86_64/lib/libc.a(malloc.o)
                              dc_x86_64.o (free)
/usr/local/popcorn/x86_64/lib/libc.a(popcorn_malloc.o)
                              /usr/local/popcorn/x86_64/lib/libc.a(calloc.o) (__popcorn_malloc0)
/usr/local/popcorn/x86_64/lib/libc.a(pow.o)
                              print_results_x86_64.o (pow)
/usr/local/popcorn/x86_64/lib/libc.a(scalbn.o)
                              /usr/local/popcorn/x86_64/lib/libc.a(pow.o) (scalbn)
/usr/local/popcorn/x86_64/lib/libc.a(fabs.o)
                              /usr/local/popcorn/x86_64/lib/libc.a(pow.o) (fabs)
/usr/local/popcorn/x86_64/lib/libc.a(sqrt.o)
                              /usr/local/popcorn/x86_64/lib/libc.a(pow.o) (sqrt)
/usr/local/popcorn/x86_64/lib/libc.a(madvise.o)
                              /usr/local/popcorn/x86_64/lib/libc.a(malloc.o) (__madvise)
/usr/local/popcorn/x86_64/lib/libc.a(mmap.o)
                              /usr/local/popcorn/x86_64/lib/libc.a(malloc.o) (__mmap)
/usr/local/popcorn/x86_64/lib/libc.a(mremap.o)
                              /usr/local/popcorn/x86_64/lib/libc.a(malloc.o) (__mremap)
/usr/local/popcorn/x86_64/lib/libc.a(munmap.o)
                              /usr/local/popcorn/x86_64/lib/libc.a(malloc.o) (__munmap)
/usr/local/popcorn/x86_64/lib/libc.a(fclose.o)
                              adc_x86_64.o (fclose)
/usr/local/popcorn/x86_64/lib/libc.a(fflush.o)
                              jobcntl_x86_64.o (fflush)
/usr/local/popcorn/x86_64/lib/libc.a(fgets.o)
                              adc_x86_64.o (fgets)
/usr/local/popcorn/x86_64/lib/libc.a(fopen.o)
                              adc_x86_64.o (fopen)
/usr/local/popcorn/x86_64/lib/libc.a(fprintf.o)
                              dc_x86_64.o (fprintf)
/usr/local/popcorn/x86_64/lib/libc.a(fread.o)
                              extbuild_x86_64.o (fread)
/usr/local/popcorn/x86_64/lib/libc.a(fscanf.o)
                              extbuild_x86_64.o (fscanf)
/usr/local/popcorn/x86_64/lib/libc.a(fseek.o)
                              extbuild_x86_64.o (fseek)
/usr/local/popcorn/x86_64/lib/libc.a(ftell.o)
                              extbuild_x86_64.o (ftell)
/usr/local/popcorn/x86_64/lib/libc.a(fwrite.o)
                              adc_x86_64.o (fwrite)
/usr/local/popcorn/x86_64/lib/libc.a(ofl.o)
                              /usr/local/popcorn/x86_64/lib/libc.a(fclose.o) (__ofl_lock)
/usr/local/popcorn/x86_64/lib/libc.a(printf.o)
                              print_results_x86_64.o (printf)
/usr/local/popcorn/x86_64/lib/libc.a(sprintf.o)
                              adc_x86_64.o (sprintf)
/usr/local/popcorn/x86_64/lib/libc.a(sscanf.o)
                              adc_x86_64.o (sscanf)
/usr/local/popcorn/x86_64/lib/libc.a(stderr.o)
                              dc_x86_64.o (stderr)
/usr/local/popcorn/x86_64/lib/libc.a(stdout.o)
                              dc_x86_64.o (stdout)
/usr/local/popcorn/x86_64/lib/libc.a(vfprintf.o)
                              /usr/local/popcorn/x86_64/lib/libc.a(fprintf.o) (vfprintf)
/usr/local/popcorn/x86_64/lib/libc.a(vfscanf.o)
                              /usr/local/popcorn/x86_64/lib/libc.a(fscanf.o) (vfscanf)
/usr/local/popcorn/x86_64/lib/libc.a(vsprintf.o)
                              /usr/local/popcorn/x86_64/lib/libc.a(sprintf.o) (vsprintf)
/usr/local/popcorn/x86_64/lib/libc.a(vsscanf.o)
                              /usr/local/popcorn/x86_64/lib/libc.a(sscanf.o) (vsscanf)
/usr/local/popcorn/x86_64/lib/libc.a(atoi.o)
                              dc_x86_64.o (atoi)
/usr/local/popcorn/x86_64/lib/libc.a(qsort.o)
                              adc_x86_64.o (qsort)
/usr/local/popcorn/x86_64/lib/libc.a(memchr.o)
                              /usr/local/popcorn/x86_64/lib/libc.a(fgets.o) (memchr)
/usr/local/popcorn/x86_64/lib/libc.a(strcat.o)
                              extbuild_x86_64.o (strcat)
/usr/local/popcorn/x86_64/lib/libc.a(strchr.o)
                              adc_x86_64.o (strchr)
/usr/local/popcorn/x86_64/lib/libc.a(strchrnul.o)
                              /usr/local/popcorn/x86_64/lib/libc.a(strchr.o) (__strchrnul)
/usr/local/popcorn/x86_64/lib/libc.a(strcmp.o)
                              extbuild_x86_64.o (strcmp)
/usr/local/popcorn/x86_64/lib/libc.a(strcpy.o)
                              dc_x86_64.o (strcpy)
/usr/local/popcorn/x86_64/lib/libc.a(strlen.o)
                              adc_x86_64.o (strlen)
/usr/local/popcorn/x86_64/lib/libc.a(strnlen.o)
                              /usr/local/popcorn/x86_64/lib/libc.a(vfprintf.o) (strnlen)
/usr/local/popcorn/x86_64/lib/libc.a(strstr.o)
                              adc_x86_64.o (strstr)
/usr/local/popcorn/x86_64/lib/libc.a(memcpy.o)
                              extbuild_x86_64.o (memcpy)
/usr/local/popcorn/x86_64/lib/libc.a(memset.o)
                              /usr/local/popcorn/x86_64/lib/libc.a(__libc_start_main.o) (memset)
/usr/local/popcorn/x86_64/lib/libc.a(__lock.o)
                              /usr/local/popcorn/x86_64/lib/libc.a(lite_malloc.o) (__lock)
/usr/local/popcorn/x86_64/lib/libc.a(__wait.o)
                              /usr/local/popcorn/x86_64/lib/libc.a(malloc.o) (__wait)
/usr/local/popcorn/x86_64/lib/libc.a(gettimeofday.o)
                              wtime_x86_64.o (gettimeofday)
/usr/local/popcorn/x86_64/lib/libc.a(unlink.o)
                              jobcntl_x86_64.o (unlink)
/usr/local/popcorn/x86_64/lib/libc.a(__environ.o)
                              /usr/local/popcorn/x86_64/lib/libc.a(__libc_start_main.o) (__environ)
/usr/local/popcorn/x86_64/lib/libc.a(__init_tls.o)
                              /usr/local/popcorn/x86_64/lib/libc.a(__libc_start_main.o) (__init_tls)
/usr/local/popcorn/x86_64/lib/libc.a(platform.o)
                              /usr/local/popcorn/x86_64/lib/libc.a(calloc.o) (popcorn_getnid)
/usr/local/popcorn/x86_64/lib/libc.a(strerror.o)
                              /usr/local/popcorn/x86_64/lib/libc.a(vfprintf.o) (strerror)
/usr/local/popcorn/x86_64/lib/libc.a(_Exit.o)
                              /usr/local/popcorn/x86_64/lib/libc.a(exit.o) (_Exit)
/usr/local/popcorn/x86_64/lib/libc.a(floatscan.o)
                              /usr/local/popcorn/x86_64/lib/libc.a(vfscanf.o) (__floatscan)
/usr/local/popcorn/x86_64/lib/libc.a(intscan.o)
                              /usr/local/popcorn/x86_64/lib/libc.a(vfscanf.o) (__intscan)
/usr/local/popcorn/x86_64/lib/libc.a(shgetc.o)
                              /usr/local/popcorn/x86_64/lib/libc.a(vfscanf.o) (__shgetc)
/usr/local/popcorn/x86_64/lib/libc.a(syscall_ret.o)
                              /usr/local/popcorn/x86_64/lib/libc.a(madvise.o) (__syscall_ret)
/usr/local/popcorn/x86_64/lib/libc.a(__lctrans.o)
                              /usr/local/popcorn/x86_64/lib/libc.a(strerror.o) (__lctrans)
/usr/local/popcorn/x86_64/lib/libc.a(expand_heap.o)
                              /usr/local/popcorn/x86_64/lib/libc.a(lite_malloc.o) (__expand_heap)
/usr/local/popcorn/x86_64/lib/libc.a(__fpclassifyl.o)
                              /usr/local/popcorn/x86_64/lib/libc.a(vfprintf.o) (__fpclassifyl)
/usr/local/popcorn/x86_64/lib/libc.a(__signbitl.o)
                              /usr/local/popcorn/x86_64/lib/libc.a(vfprintf.o) (__signbitl)
/usr/local/popcorn/x86_64/lib/libc.a(copysignl.o)
                              /usr/local/popcorn/x86_64/lib/libc.a(floatscan.o) (copysignl)
/usr/local/popcorn/x86_64/lib/libc.a(frexpl.o)
                              /usr/local/popcorn/x86_64/lib/libc.a(vfprintf.o) (frexpl)
/usr/local/popcorn/x86_64/lib/libc.a(scalbnl.o)
                              /usr/local/popcorn/x86_64/lib/libc.a(floatscan.o) (scalbnl)
/usr/local/popcorn/x86_64/lib/libc.a(fmodl.o)
                              /usr/local/popcorn/x86_64/lib/libc.a(floatscan.o) (fmodl)
/usr/local/popcorn/x86_64/lib/libc.a(mbrtowc.o)
                              /usr/local/popcorn/x86_64/lib/libc.a(vfscanf.o) (mbrtowc)
/usr/local/popcorn/x86_64/lib/libc.a(mbsinit.o)
                              /usr/local/popcorn/x86_64/lib/libc.a(vfscanf.o) (mbsinit)
/usr/local/popcorn/x86_64/lib/libc.a(wctomb.o)
                              /usr/local/popcorn/x86_64/lib/libc.a(vfprintf.o) (wctomb)
/usr/local/popcorn/x86_64/lib/libc.a(__fdopen.o)
                              /usr/local/popcorn/x86_64/lib/libc.a(fopen.o) (__fdopen)
/usr/local/popcorn/x86_64/lib/libc.a(__fmodeflags.o)
                              /usr/local/popcorn/x86_64/lib/libc.a(fopen.o) (__fmodeflags)
/usr/local/popcorn/x86_64/lib/libc.a(__lockfile.o)
                              /usr/local/popcorn/x86_64/lib/libc.a(fclose.o) (__lockfile)
/usr/local/popcorn/x86_64/lib/libc.a(__stdio_close.o)
                              /usr/local/popcorn/x86_64/lib/libc.a(stderr.o) (__stdio_close)
/usr/local/popcorn/x86_64/lib/libc.a(__stdio_read.o)
                              /usr/local/popcorn/x86_64/lib/libc.a(__fdopen.o) (__stdio_read)
/usr/local/popcorn/x86_64/lib/libc.a(__stdio_seek.o)
                              /usr/local/popcorn/x86_64/lib/libc.a(stderr.o) (__stdio_seek)
/usr/local/popcorn/x86_64/lib/libc.a(__stdio_write.o)
                              /usr/local/popcorn/x86_64/lib/libc.a(stderr.o) (__stdio_write)
/usr/local/popcorn/x86_64/lib/libc.a(__stdout_write.o)
                              /usr/local/popcorn/x86_64/lib/libc.a(stdout.o) (__stdout_write)
/usr/local/popcorn/x86_64/lib/libc.a(__string_read.o)
                              /usr/local/popcorn/x86_64/lib/libc.a(vsscanf.o) (__string_read)
/usr/local/popcorn/x86_64/lib/libc.a(__toread.o)
                              /usr/local/popcorn/x86_64/lib/libc.a(fread.o) (__toread)
/usr/local/popcorn/x86_64/lib/libc.a(__towrite.o)
                              /usr/local/popcorn/x86_64/lib/libc.a(fwrite.o) (__towrite)
/usr/local/popcorn/x86_64/lib/libc.a(__uflow.o)
                              /usr/local/popcorn/x86_64/lib/libc.a(fgets.o) (__uflow)
/usr/local/popcorn/x86_64/lib/libc.a(ofl_add.o)
                              /usr/local/popcorn/x86_64/lib/libc.a(__fdopen.o) (__ofl_add)
/usr/local/popcorn/x86_64/lib/libc.a(vsnprintf.o)
                              /usr/local/popcorn/x86_64/lib/libc.a(vsprintf.o) (vsnprintf)
/usr/local/popcorn/x86_64/lib/libc.a(memcmp.o)
                              /usr/local/popcorn/x86_64/lib/libc.a(strstr.o) (memcmp)
/usr/local/popcorn/x86_64/lib/libc.a(stpcpy.o)
                              /usr/local/popcorn/x86_64/lib/libc.a(strcpy.o) (__stpcpy)
/usr/local/popcorn/x86_64/lib/libc.a(__set_thread_area.o)
                              /usr/local/popcorn/x86_64/lib/libc.a(__init_tls.o) (__set_thread_area)
/usr/local/popcorn/x86_64/lib/libc.a(clock_gettime.o)
                              /usr/local/popcorn/x86_64/lib/libc.a(gettimeofday.o) (clock_gettime)
/usr/local/popcorn/x86_64/lib/libc.a(internal.o)
                              /usr/local/popcorn/x86_64/lib/libc.a(mbrtowc.o) (__fsmu8)
/usr/local/popcorn/x86_64/lib/libc.a(wcrtomb.o)
                              /usr/local/popcorn/x86_64/lib/libc.a(wctomb.o) (wcrtomb)
/usr/local/popcorn/x86_64/lib/libc.a(__stdio_exit.o)
                              /usr/local/popcorn/x86_64/lib/libc.a(__toread.o) (__stdio_exit_needed)
/usr/local/popcorn/x86_64/lib/libmigrate.a(migrate.o)
                              dc_x86_64.o (check_migrate)
/usr/local/popcorn/x86_64/lib/libmigrate.a(migrate_aarch64.o)
                              /usr/local/popcorn/x86_64/lib/libmigrate.a(migrate.o) (__migrate_fixup_aarch64)
/usr/local/popcorn/x86_64/lib/libmigrate.a(migrate_powerpc64.o)
                              /usr/local/popcorn/x86_64/lib/libmigrate.a(migrate.o) (__migrate_fixup_powerpc64)
/usr/local/popcorn/x86_64/lib/libmigrate.a(migrate_x86_64.o)
                              /usr/local/popcorn/x86_64/lib/libmigrate.a(migrate.o) (__migrate_fixup_x86_64)
/usr/local/popcorn/x86_64/lib/libmigrate.a(mapping.o)
                              /usr/local/popcorn/x86_64/lib/libmigrate.a(migrate.o) (get_node_mapping)
/usr/local/popcorn/x86_64/lib/libstack-transform.a(userspace.o)
                              /usr/local/popcorn/x86_64/lib/libmigrate.a(migrate.o) (st_userspace_rewrite)
/usr/local/popcorn/x86_64/lib/libstack-transform.a(init.o)
                              /usr/local/popcorn/x86_64/lib/libstack-transform.a(userspace.o) (st_destroy)
/usr/local/popcorn/x86_64/lib/libstack-transform.a(rewrite.o)
                              /usr/local/popcorn/x86_64/lib/libstack-transform.a(userspace.o) (st_rewrite_stack)
/usr/local/popcorn/x86_64/lib/libstack-transform.a(unwind.o)
                              /usr/local/popcorn/x86_64/lib/libstack-transform.a(rewrite.o) (bootstrap_first_frame)
/usr/local/popcorn/x86_64/lib/libstack-transform.a(util.o)
                              /usr/local/popcorn/x86_64/lib/libstack-transform.a(rewrite.o) (get_function_address)
/usr/local/popcorn/x86_64/lib/libstack-transform.a(properties.o)
                              /usr/local/popcorn/x86_64/lib/libstack-transform.a(util.o) (properties_aarch64)
/usr/local/popcorn/x86_64/lib/libstack-transform.a(regs.o)
                              /usr/local/popcorn/x86_64/lib/libstack-transform.a(util.o) (regs_aarch64)
/usr/local/popcorn/x86_64/lib/libstack-transform.a(properties.o)
                              /usr/local/popcorn/x86_64/lib/libstack-transform.a(util.o) (properties_powerpc64)
/usr/local/popcorn/x86_64/lib/libstack-transform.a(regs.o)
                              /usr/local/popcorn/x86_64/lib/libstack-transform.a(util.o) (regs_powerpc64)
/usr/local/popcorn/x86_64/lib/libstack-transform.a(properties.o)
                              /usr/local/popcorn/x86_64/lib/libstack-transform.a(util.o) (properties_x86_64)
/usr/local/popcorn/x86_64/lib/libstack-transform.a(regs.o)
                              /usr/local/popcorn/x86_64/lib/libstack-transform.a(util.o) (regs_x86_64)
/usr/local/popcorn/x86_64/lib/libstack-transform.a(data.o)
                              /usr/local/popcorn/x86_64/lib/libstack-transform.a(rewrite.o) (get_savedfbp_loc)
/usr/local/popcorn/x86_64/lib/libelf.a(begin.o)
                              /usr/local/popcorn/x86_64/lib/libstack-transform.a(init.o) (elf_begin)
/usr/local/popcorn/x86_64/lib/libelf.a(end.o)
                              /usr/local/popcorn/x86_64/lib/libstack-transform.a(init.o) (elf_end)
/usr/local/popcorn/x86_64/lib/libelf.a(getdata.o)
                              /usr/local/popcorn/x86_64/lib/libstack-transform.a(util.o) (elf_getdata)
/usr/local/popcorn/x86_64/lib/libelf.a(getident.o)
                              /usr/local/popcorn/x86_64/lib/libstack-transform.a(init.o) (elf_getident)
/usr/local/popcorn/x86_64/lib/libelf.a(nextscn.o)
                              /usr/local/popcorn/x86_64/lib/libstack-transform.a(util.o) (elf_nextscn)
/usr/local/popcorn/x86_64/lib/libelf.a(strptr.o)
                              /usr/local/popcorn/x86_64/lib/libstack-transform.a(util.o) (elf_strptr)
/usr/local/popcorn/x86_64/lib/libelf.a(version.o)
                              /usr/local/popcorn/x86_64/lib/libstack-transform.a(userspace.o) (elf_version)
/usr/local/popcorn/x86_64/lib/libelf.a(32.getehdr.o)
                              /usr/local/popcorn/x86_64/lib/libstack-transform.a(init.o) (elf64_getehdr)
/usr/local/popcorn/x86_64/lib/libelf.a(32.xlatetof.o)
                              /usr/local/popcorn/x86_64/lib/libelf.a(getdata.o) (_elf32_xltsize)
/usr/local/popcorn/x86_64/lib/libelf.a(cook.o)
                              /usr/local/popcorn/x86_64/lib/libelf.a(getident.o) (_elf_cook)
/usr/local/popcorn/x86_64/lib/libelf.a(data.o)
                              /usr/local/popcorn/x86_64/lib/libelf.a(begin.o) (_elf_errno)
/usr/local/popcorn/x86_64/lib/libelf.a(input.o)
                              /usr/local/popcorn/x86_64/lib/libelf.a(begin.o) (_elf_mmap)
/usr/local/popcorn/x86_64/lib/libelf.a(x.elfext.o)
                              /usr/local/popcorn/x86_64/lib/libstack-transform.a(util.o) (elf_getshdrstrndx)
/usr/local/popcorn/x86_64/lib/libelf.a(64.xlatetof.o)
                              /usr/local/popcorn/x86_64/lib/libelf.a(getdata.o) (_elf64_xltsize)
/usr/local/popcorn/x86_64/lib/libelf.a(gelfshdr.o)
                              /usr/local/popcorn/x86_64/lib/libstack-transform.a(util.o) (gelf_getshdr)
/usr/local/popcorn/x86_64/lib/libelf.a(swap64.o)
                              /usr/local/popcorn/x86_64/lib/libelf.a(64.xlatetof.o) (_elf_load_i64L)
/usr/local/popcorn/x86_64/lib/libelf.a(verdef_32_tof.o)
                              /usr/local/popcorn/x86_64/lib/libelf.a(32.xlatetof.o) (_elf_verdef_32L11_tof)
/usr/local/popcorn/x86_64/lib/libelf.a(verdef_32_tom.o)
                              /usr/local/popcorn/x86_64/lib/libelf.a(32.xlatetof.o) (_elf_verdef_32L11_tom)
/usr/local/popcorn/x86_64/lib/libelf.a(verdef_64_tof.o)
                              /usr/local/popcorn/x86_64/lib/libelf.a(64.xlatetof.o) (_elf_verdef_64L11_tof)
/usr/local/popcorn/x86_64/lib/libelf.a(verdef_64_tom.o)
                              /usr/local/popcorn/x86_64/lib/libelf.a(64.xlatetof.o) (_elf_verdef_64L11_tom)
/usr/local/popcorn/x86_64/lib/libelf.a(getscn.o)
                              /usr/local/popcorn/x86_64/lib/libelf.a(strptr.o) (elf_getscn)
/usr/local/popcorn/x86_64/lib/libelf.a(newscn.o)
                              /usr/local/popcorn/x86_64/lib/libelf.a(x.elfext.o) (_elf_first_scn)
/usr/local/popcorn/x86_64/lib/libelf.a(32.fsize.o)
                              /usr/local/popcorn/x86_64/lib/libelf.a(cook.o) (_elf_fmsize)
/usr/local/popcorn/x86_64/lib/libc.a(arch_crash.o)
                              /usr/local/popcorn/x86_64/lib/libmigrate.a(migrate_x86_64.o) (crash_x86_64)
/usr/local/popcorn/x86_64/lib/libc.a(getenv.o)
                              /usr/local/popcorn/x86_64/lib/libmigrate.a(mapping.o) (getenv)
/usr/local/popcorn/x86_64/lib/libc.a(assert.o)
                              /usr/local/popcorn/x86_64/lib/libmigrate.a(migrate.o) (__assert_fail)
/usr/local/popcorn/x86_64/lib/libc.a(open.o)
                              /usr/local/popcorn/x86_64/lib/libstack-transform.a(init.o) (open)
/usr/local/popcorn/x86_64/lib/libc.a(getrlimit.o)
                              /usr/local/popcorn/x86_64/lib/libstack-transform.a(userspace.o) (getrlimit)
/usr/local/popcorn/x86_64/lib/libc.a(getc.o)
                              /usr/local/popcorn/x86_64/lib/libmigrate.a(mapping.o) (getc)
/usr/local/popcorn/x86_64/lib/libc.a(getline.o)
                              /usr/local/popcorn/x86_64/lib/libstack-transform.a(userspace.o) (getline)
/usr/local/popcorn/x86_64/lib/libc.a(perror.o)
                              /usr/local/popcorn/x86_64/lib/libmigrate.a(migrate.o) (perror)
/usr/local/popcorn/x86_64/lib/libc.a(snprintf.o)
                              /usr/local/popcorn/x86_64/lib/libstack-transform.a(userspace.o) (snprintf)
/usr/local/popcorn/x86_64/lib/libc.a(bsearch.o)
                              /usr/local/popcorn/x86_64/lib/libmigrate.a(mapping.o) (bsearch)
/usr/local/popcorn/x86_64/lib/libc.a(strtol.o)
                              /usr/local/popcorn/x86_64/lib/libelf.a(version.o) (strtol)
/usr/local/popcorn/x86_64/lib/libc.a(strncmp.o)
                              /usr/local/popcorn/x86_64/lib/libstack-transform.a(userspace.o) (strncmp)
/usr/local/popcorn/x86_64/lib/libc.a(memmove.o)
                              /usr/local/popcorn/x86_64/lib/libelf.a(32.xlatetof.o) (memmove)
/usr/local/popcorn/x86_64/lib/libc.a(__syscall_cp.o)
                              /usr/local/popcorn/x86_64/lib/libc.a(open.o) (__syscall_cp)
/usr/local/popcorn/x86_64/lib/libc.a(pthread_attr_get.o)
                              /usr/local/popcorn/x86_64/lib/libstack-transform.a(userspace.o) (pthread_attr_getstack)
/usr/local/popcorn/x86_64/lib/libc.a(pthread_getattr_np.o)
                              /usr/local/popcorn/x86_64/lib/libstack-transform.a(userspace.o) (pthread_getattr_np)
/usr/local/popcorn/x86_64/lib/libc.a(pthread_migrate.o)
                              /usr/local/popcorn/x86_64/lib/libmigrate.a(migrate.o) (pthread_get_migrate_args)
/usr/local/popcorn/x86_64/lib/libc.a(pthread_self.o)
                              /usr/local/popcorn/x86_64/lib/libstack-transform.a(userspace.o) (pthread_self)
/usr/local/popcorn/x86_64/lib/libc.a(close.o)
                              /usr/local/popcorn/x86_64/lib/libstack-transform.a(init.o) (close)
/usr/local/popcorn/x86_64/lib/libc.a(getpid.o)
                              /usr/local/popcorn/x86_64/lib/libstack-transform.a(userspace.o) (getpid)
/usr/local/popcorn/x86_64/lib/libc.a(lseek.o)
                              /usr/local/popcorn/x86_64/lib/libelf.a(begin.o) (lseek)
/usr/local/popcorn/x86_64/lib/libc.a(read.o)
                              /usr/local/popcorn/x86_64/lib/libelf.a(input.o) (read)
/usr/local/popcorn/x86_64/lib/libc.a(abort.o)
                              /usr/local/popcorn/x86_64/lib/libc.a(assert.o) (abort)
/usr/local/popcorn/x86_64/lib/libc.a(syscall.o)
                              /usr/local/popcorn/x86_64/lib/libc.a(__syscall_cp.o) (__syscall)
/usr/local/popcorn/x86_64/lib/libc.a(block.o)
                              /usr/local/popcorn/x86_64/lib/libc.a(abort.o) (__block_all_sigs)
/usr/local/popcorn/x86_64/lib/libc.a(raise.o)
                              /usr/local/popcorn/x86_64/lib/libc.a(abort.o) (raise)
/usr/local/popcorn/x86_64/lib/libc.a(fputc.o)
                              /usr/local/popcorn/x86_64/lib/libc.a(perror.o) (fputc)
/usr/local/popcorn/x86_64/lib/libc.a(getdelim.o)
                              /usr/local/popcorn/x86_64/lib/libc.a(getline.o) (getdelim)
/usr/local/popcorn/x86_64/lib/libc.a(__overflow.o)
                              /usr/local/popcorn/x86_64/lib/libc.a(fputc.o) (__overflow)

Allocating common symbols
Common symbol       size              file

mal                 0x20000           /usr/local/popcorn/x86_64/lib/libc.a(popcorn_malloc.o)
__libc              0x70              /usr/local/popcorn/x86_64/lib/libc.a(libc.o)
__hwcap             0x8               /usr/local/popcorn/x86_64/lib/libc.a(libc.o)
__sysinfo           0x8               /usr/local/popcorn/x86_64/lib/libc.a(libc.o)

Discarded input sections

 .note.GNU-stack
                0x0000000000000000        0x0 0x1 dc_x86_64.o
 .note.GNU-stack
                0x0000000000000000        0x0 0x1 adc_x86_64.o
 .note.GNU-stack
                0x0000000000000000        0x0 0x1 extbuild_x86_64.o
 .note.GNU-stack
                0x0000000000000000        0x0 0x1 jobcntl_x86_64.o
 .note.GNU-stack
                0x0000000000000000        0x0 0x1 rbt_x86_64.o
 .note.GNU-stack
                0x0000000000000000        0x0 0x1 c_timers_x86_64.o
 .note.GNU-stack
                0x0000000000000000        0x0 0x1 print_results_x86_64.o
 .note.GNU-stack
                0x0000000000000000        0x0 0x1 randdp_x86_64.o
 .note.GNU-stack
                0x0000000000000000        0x0 0x1 c_print_results_x86_64.o
 .note.GNU-stack
                0x0000000000000000        0x0 0x1 wtime_x86_64.o
 .note.GNU-stack
                0x0000000000000000        0x0 0x1 /usr/local/popcorn/x86_64/lib/crt1.o
 .note.GNU-stack
                0x0000000000000000        0x0 0x1 /usr/local/popcorn/x86_64/lib/libc.a(isdigit.o)
 .note.GNU-stack
                0x0000000000000000        0x0 0x1 /usr/local/popcorn/x86_64/lib/libc.a(__libc_start_main.o)
 .note.GNU-stack
                0x0000000000000000        0x0 0x1 /usr/local/popcorn/x86_64/lib/libc.a(__errno_location.o)
 .note.GNU-stack
                0x0000000000000000        0x0 0x1 /usr/local/popcorn/x86_64/lib/libc.a(exit.o)
 .note.GNU-stack
                0x0000000000000000        0x0 0x1 /usr/local/popcorn/x86_64/lib/libc.a(libc.o)
 .note.GNU-stack
                0x0000000000000000        0x0 0x1 /usr/local/popcorn/x86_64/lib/libc.a(calloc.o)
 .note.GNU-stack
                0x0000000000000000        0x0 0x1 /usr/local/popcorn/x86_64/lib/libc.a(lite_malloc.o)
 .note.GNU-stack
                0x0000000000000000        0x0 0x1 /usr/local/popcorn/x86_64/lib/libc.a(malloc.o)
 .note.GNU-stack
                0x0000000000000000        0x0 0x1 /usr/local/popcorn/x86_64/lib/libc.a(popcorn_malloc.o)
 .note.GNU-stack
                0x0000000000000000        0x0 0x1 /usr/local/popcorn/x86_64/lib/libc.a(pow.o)
 .note.GNU-stack
                0x0000000000000000        0x0 0x1 /usr/local/popcorn/x86_64/lib/libc.a(scalbn.o)
 .note.GNU-stack
                0x0000000000000000        0x0 0x1 /usr/local/popcorn/x86_64/lib/libc.a(fabs.o)
 .note.GNU-stack
                0x0000000000000000        0x0 0x1 /usr/local/popcorn/x86_64/lib/libc.a(sqrt.o)
 .note.GNU-stack
                0x0000000000000000        0x0 0x1 /usr/local/popcorn/x86_64/lib/libc.a(madvise.o)
 .note.GNU-stack
                0x0000000000000000        0x0 0x1 /usr/local/popcorn/x86_64/lib/libc.a(mmap.o)
 .note.GNU-stack
                0x0000000000000000        0x0 0x1 /usr/local/popcorn/x86_64/lib/libc.a(mremap.o)
 .note.GNU-stack
                0x0000000000000000        0x0 0x1 /usr/local/popcorn/x86_64/lib/libc.a(munmap.o)
 .note.GNU-stack
                0x0000000000000000        0x0 0x1 /usr/local/popcorn/x86_64/lib/libc.a(fclose.o)
 .note.GNU-stack
                0x0000000000000000        0x0 0x1 /usr/local/popcorn/x86_64/lib/libc.a(fflush.o)
 .note.GNU-stack
                0x0000000000000000        0x0 0x1 /usr/local/popcorn/x86_64/lib/libc.a(fgets.o)
 .note.GNU-stack
                0x0000000000000000        0x0 0x1 /usr/local/popcorn/x86_64/lib/libc.a(fopen.o)
 .note.GNU-stack
                0x0000000000000000        0x0 0x1 /usr/local/popcorn/x86_64/lib/libc.a(fprintf.o)
 .note.GNU-stack
                0x0000000000000000        0x0 0x1 /usr/local/popcorn/x86_64/lib/libc.a(fread.o)
 .note.GNU-stack
                0x0000000000000000        0x0 0x1 /usr/local/popcorn/x86_64/lib/libc.a(fscanf.o)
 .note.GNU-stack
                0x0000000000000000        0x0 0x1 /usr/local/popcorn/x86_64/lib/libc.a(fseek.o)
 .note.GNU-stack
                0x0000000000000000        0x0 0x1 /usr/local/popcorn/x86_64/lib/libc.a(ftell.o)
 .note.GNU-stack
                0x0000000000000000        0x0 0x1 /usr/local/popcorn/x86_64/lib/libc.a(fwrite.o)
 .note.GNU-stack
                0x0000000000000000        0x0 0x1 /usr/local/popcorn/x86_64/lib/libc.a(ofl.o)
 .note.GNU-stack
                0x0000000000000000        0x0 0x1 /usr/local/popcorn/x86_64/lib/libc.a(printf.o)
 .note.GNU-stack
                0x0000000000000000        0x0 0x1 /usr/local/popcorn/x86_64/lib/libc.a(sprintf.o)
 .note.GNU-stack
                0x0000000000000000        0x0 0x1 /usr/local/popcorn/x86_64/lib/libc.a(sscanf.o)
 .note.GNU-stack
                0x0000000000000000        0x0 0x1 /usr/local/popcorn/x86_64/lib/libc.a(stderr.o)
 .note.GNU-stack
                0x0000000000000000        0x0 0x1 /usr/local/popcorn/x86_64/lib/libc.a(stdout.o)
 .note.GNU-stack
                0x0000000000000000        0x0 0x1 /usr/local/popcorn/x86_64/lib/libc.a(vfprintf.o)
 .note.GNU-stack
                0x0000000000000000        0x0 0x1 /usr/local/popcorn/x86_64/lib/libc.a(vfscanf.o)
 .note.GNU-stack
                0x0000000000000000        0x0 0x1 /usr/local/popcorn/x86_64/lib/libc.a(vsprintf.o)
 .note.GNU-stack
                0x0000000000000000        0x0 0x1 /usr/local/popcorn/x86_64/lib/libc.a(vsscanf.o)
 .note.GNU-stack
                0x0000000000000000        0x0 0x1 /usr/local/popcorn/x86_64/lib/libc.a(atoi.o)
 .note.GNU-stack
                0x0000000000000000        0x0 0x1 /usr/local/popcorn/x86_64/lib/libc.a(qsort.o)
 .note.GNU-stack
                0x0000000000000000        0x0 0x1 /usr/local/popcorn/x86_64/lib/libc.a(memchr.o)
 .note.GNU-stack
                0x0000000000000000        0x0 0x1 /usr/local/popcorn/x86_64/lib/libc.a(strcat.o)
 .note.GNU-stack
                0x0000000000000000        0x0 0x1 /usr/local/popcorn/x86_64/lib/libc.a(strchr.o)
 .note.GNU-stack
                0x0000000000000000        0x0 0x1 /usr/local/popcorn/x86_64/lib/libc.a(strchrnul.o)
 .note.GNU-stack
                0x0000000000000000        0x0 0x1 /usr/local/popcorn/x86_64/lib/libc.a(strcmp.o)
 .note.GNU-stack
                0x0000000000000000        0x0 0x1 /usr/local/popcorn/x86_64/lib/libc.a(strcpy.o)
 .note.GNU-stack
                0x0000000000000000        0x0 0x1 /usr/local/popcorn/x86_64/lib/libc.a(strlen.o)
 .note.GNU-stack
                0x0000000000000000        0x0 0x1 /usr/local/popcorn/x86_64/lib/libc.a(strnlen.o)
 .note.GNU-stack
                0x0000000000000000        0x0 0x1 /usr/local/popcorn/x86_64/lib/libc.a(strstr.o)
 .note.GNU-stack
                0x0000000000000000        0x0 0x1 /usr/local/popcorn/x86_64/lib/libc.a(memcpy.o)
 .note.GNU-stack
                0x0000000000000000        0x0 0x1 /usr/local/popcorn/x86_64/lib/libc.a(memset.o)
 .note.GNU-stack
                0x0000000000000000        0x0 0x1 /usr/local/popcorn/x86_64/lib/libc.a(__lock.o)
 .note.GNU-stack
                0x0000000000000000        0x0 0x1 /usr/local/popcorn/x86_64/lib/libc.a(__wait.o)
 .note.GNU-stack
                0x0000000000000000        0x0 0x1 /usr/local/popcorn/x86_64/lib/libc.a(gettimeofday.o)
 .note.GNU-stack
                0x0000000000000000        0x0 0x1 /usr/local/popcorn/x86_64/lib/libc.a(unlink.o)
 .note.GNU-stack
                0x0000000000000000        0x0 0x1 /usr/local/popcorn/x86_64/lib/libc.a(__environ.o)
 .note.GNU-stack
                0x0000000000000000        0x0 0x1 /usr/local/popcorn/x86_64/lib/libc.a(__init_tls.o)
 .note.GNU-stack
                0x0000000000000000        0x0 0x1 /usr/local/popcorn/x86_64/lib/libc.a(platform.o)
 .note.GNU-stack
                0x0000000000000000        0x0 0x1 /usr/local/popcorn/x86_64/lib/libc.a(strerror.o)
 .note.GNU-stack
                0x0000000000000000        0x0 0x1 /usr/local/popcorn/x86_64/lib/libc.a(_Exit.o)
 .note.GNU-stack
                0x0000000000000000        0x0 0x1 /usr/local/popcorn/x86_64/lib/libc.a(floatscan.o)
 .note.GNU-stack
                0x0000000000000000        0x0 0x1 /usr/local/popcorn/x86_64/lib/libc.a(intscan.o)
 .note.GNU-stack
                0x0000000000000000        0x0 0x1 /usr/local/popcorn/x86_64/lib/libc.a(shgetc.o)
 .note.GNU-stack
                0x0000000000000000        0x0 0x1 /usr/local/popcorn/x86_64/lib/libc.a(syscall_ret.o)
 .note.GNU-stack
                0x0000000000000000        0x0 0x1 /usr/local/popcorn/x86_64/lib/libc.a(__lctrans.o)
 .note.GNU-stack
                0x0000000000000000        0x0 0x1 /usr/local/popcorn/x86_64/lib/libc.a(expand_heap.o)
 .note.GNU-stack
                0x0000000000000000        0x0 0x1 /usr/local/popcorn/x86_64/lib/libc.a(__fpclassifyl.o)
 .note.GNU-stack
                0x0000000000000000        0x0 0x1 /usr/local/popcorn/x86_64/lib/libc.a(__signbitl.o)
 .note.GNU-stack
                0x0000000000000000        0x0 0x1 /usr/local/popcorn/x86_64/lib/libc.a(copysignl.o)
 .note.GNU-stack
                0x0000000000000000        0x0 0x1 /usr/local/popcorn/x86_64/lib/libc.a(frexpl.o)
 .note.GNU-stack
                0x0000000000000000        0x0 0x1 /usr/local/popcorn/x86_64/lib/libc.a(scalbnl.o)
 .note.GNU-stack
                0x0000000000000000        0x0 0x1 /usr/local/popcorn/x86_64/lib/libc.a(fmodl.o)
 .note.GNU-stack
                0x0000000000000000        0x0 0x1 /usr/local/popcorn/x86_64/lib/libc.a(mbrtowc.o)
 .note.GNU-stack
                0x0000000000000000        0x0 0x1 /usr/local/popcorn/x86_64/lib/libc.a(mbsinit.o)
 .note.GNU-stack
                0x0000000000000000        0x0 0x1 /usr/local/popcorn/x86_64/lib/libc.a(wctomb.o)
 .note.GNU-stack
                0x0000000000000000        0x0 0x1 /usr/local/popcorn/x86_64/lib/libc.a(__fdopen.o)
 .note.GNU-stack
                0x0000000000000000        0x0 0x1 /usr/local/popcorn/x86_64/lib/libc.a(__fmodeflags.o)
 .note.GNU-stack
                0x0000000000000000        0x0 0x1 /usr/local/popcorn/x86_64/lib/libc.a(__lockfile.o)
 .note.GNU-stack
                0x0000000000000000        0x0 0x1 /usr/local/popcorn/x86_64/lib/libc.a(__stdio_close.o)
 .note.GNU-stack
                0x0000000000000000        0x0 0x1 /usr/local/popcorn/x86_64/lib/libc.a(__stdio_read.o)
 .note.GNU-stack
                0x0000000000000000        0x0 0x1 /usr/local/popcorn/x86_64/lib/libc.a(__stdio_seek.o)
 .note.GNU-stack
                0x0000000000000000        0x0 0x1 /usr/local/popcorn/x86_64/lib/libc.a(__stdio_write.o)
 .note.GNU-stack
                0x0000000000000000        0x0 0x1 /usr/local/popcorn/x86_64/lib/libc.a(__stdout_write.o)
 .note.GNU-stack
                0x0000000000000000        0x0 0x1 /usr/local/popcorn/x86_64/lib/libc.a(__string_read.o)
 .note.GNU-stack
                0x0000000000000000        0x0 0x1 /usr/local/popcorn/x86_64/lib/libc.a(__toread.o)
 .note.GNU-stack
                0x0000000000000000        0x0 0x1 /usr/local/popcorn/x86_64/lib/libc.a(__towrite.o)
 .note.GNU-stack
                0x0000000000000000        0x0 0x1 /usr/local/popcorn/x86_64/lib/libc.a(__uflow.o)
 .note.GNU-stack
                0x0000000000000000        0x0 0x1 /usr/local/popcorn/x86_64/lib/libc.a(ofl_add.o)
 .note.GNU-stack
                0x0000000000000000        0x0 0x1 /usr/local/popcorn/x86_64/lib/libc.a(vsnprintf.o)
 .note.GNU-stack
                0x0000000000000000        0x0 0x1 /usr/local/popcorn/x86_64/lib/libc.a(memcmp.o)
 .note.GNU-stack
                0x0000000000000000        0x0 0x1 /usr/local/popcorn/x86_64/lib/libc.a(stpcpy.o)
 .note.GNU-stack
                0x0000000000000000        0x0 0x1 /usr/local/popcorn/x86_64/lib/libc.a(__set_thread_area.o)
 .note.GNU-stack
                0x0000000000000000        0x0 0x1 /usr/local/popcorn/x86_64/lib/libc.a(clock_gettime.o)
 .note.GNU-stack
                0x0000000000000000        0x0 0x1 /usr/local/popcorn/x86_64/lib/libc.a(internal.o)
 .note.GNU-stack
                0x0000000000000000        0x0 0x1 /usr/local/popcorn/x86_64/lib/libc.a(wcrtomb.o)
 .note.GNU-stack
                0x0000000000000000        0x0 0x1 /usr/local/popcorn/x86_64/lib/libc.a(__stdio_exit.o)
 .note.GNU-stack
                0x0000000000000000        0x0 0x1 /usr/local/popcorn/x86_64/lib/libmigrate.a(migrate.o)
 .note.GNU-stack
                0x0000000000000000        0x0 0x1 /usr/local/popcorn/x86_64/lib/libmigrate.a(mapping.o)
 .note.GNU-stack
                0x0000000000000000        0x0 0x1 /usr/local/popcorn/x86_64/lib/libstack-transform.a(userspace.o)
 .note.GNU-stack
                0x0000000000000000        0x0 0x1 /usr/local/popcorn/x86_64/lib/libstack-transform.a(init.o)
 .note.GNU-stack
                0x0000000000000000        0x0 0x1 /usr/local/popcorn/x86_64/lib/libstack-transform.a(rewrite.o)
 .note.GNU-stack
                0x0000000000000000        0x0 0x1 /usr/local/popcorn/x86_64/lib/libstack-transform.a(unwind.o)
 .note.GNU-stack
                0x0000000000000000        0x0 0x1 /usr/local/popcorn/x86_64/lib/libstack-transform.a(util.o)
 .note.GNU-stack
                0x0000000000000000        0x0 0x1 /usr/local/popcorn/x86_64/lib/libstack-transform.a(properties.o)
 .note.GNU-stack
                0x0000000000000000        0x0 0x1 /usr/local/popcorn/x86_64/lib/libstack-transform.a(regs.o)
 .note.GNU-stack
                0x0000000000000000        0x0 0x1 /usr/local/popcorn/x86_64/lib/libstack-transform.a(properties.o)
 .note.GNU-stack
                0x0000000000000000        0x0 0x1 /usr/local/popcorn/x86_64/lib/libstack-transform.a(regs.o)
 .note.GNU-stack
                0x0000000000000000        0x0 0x1 /usr/local/popcorn/x86_64/lib/libstack-transform.a(properties.o)
 .note.GNU-stack
                0x0000000000000000        0x0 0x1 /usr/local/popcorn/x86_64/lib/libstack-transform.a(regs.o)
 .note.GNU-stack
                0x0000000000000000        0x0 0x1 /usr/local/popcorn/x86_64/lib/libstack-transform.a(data.o)
 .note.GNU-stack
                0x0000000000000000        0x0 0x1 /usr/local/popcorn/x86_64/lib/libelf.a(begin.o)
 .note.GNU-stack
                0x0000000000000000        0x0 0x1 /usr/local/popcorn/x86_64/lib/libelf.a(end.o)
 .note.GNU-stack
                0x0000000000000000        0x0 0x1 /usr/local/popcorn/x86_64/lib/libelf.a(getdata.o)
 .note.GNU-stack
                0x0000000000000000        0x0 0x1 /usr/local/popcorn/x86_64/lib/libelf.a(getident.o)
 .note.GNU-stack
                0x0000000000000000        0x0 0x1 /usr/local/popcorn/x86_64/lib/libelf.a(nextscn.o)
 .note.GNU-stack
                0x0000000000000000        0x0 0x1 /usr/local/popcorn/x86_64/lib/libelf.a(strptr.o)
 .note.GNU-stack
                0x0000000000000000        0x0 0x1 /usr/local/popcorn/x86_64/lib/libelf.a(version.o)
 .note.GNU-stack
                0x0000000000000000        0x0 0x1 /usr/local/popcorn/x86_64/lib/libelf.a(32.getehdr.o)
 .note.GNU-stack
                0x0000000000000000        0x0 0x1 /usr/local/popcorn/x86_64/lib/libelf.a(32.xlatetof.o)
 .note.GNU-stack
                0x0000000000000000        0x0 0x1 /usr/local/popcorn/x86_64/lib/libelf.a(cook.o)
 .note.GNU-stack
                0x0000000000000000        0x0 0x1 /usr/local/popcorn/x86_64/lib/libelf.a(data.o)
 .note.GNU-stack
                0x0000000000000000        0x0 0x1 /usr/local/popcorn/x86_64/lib/libelf.a(input.o)
 .note.GNU-stack
                0x0000000000000000        0x0 0x1 /usr/local/popcorn/x86_64/lib/libelf.a(x.elfext.o)
 .note.GNU-stack
                0x0000000000000000        0x0 0x1 /usr/local/popcorn/x86_64/lib/libelf.a(64.xlatetof.o)
 .note.GNU-stack
                0x0000000000000000        0x0 0x1 /usr/local/popcorn/x86_64/lib/libelf.a(gelfshdr.o)
 .note.GNU-stack
                0x0000000000000000        0x0 0x1 /usr/local/popcorn/x86_64/lib/libelf.a(swap64.o)
 .note.GNU-stack
                0x0000000000000000        0x0 0x1 /usr/local/popcorn/x86_64/lib/libelf.a(verdef_32_tof.o)
 .note.GNU-stack
                0x0000000000000000        0x0 0x1 /usr/local/popcorn/x86_64/lib/libelf.a(verdef_32_tom.o)
 .note.GNU-stack
                0x0000000000000000        0x0 0x1 /usr/local/popcorn/x86_64/lib/libelf.a(verdef_64_tof.o)
 .note.GNU-stack
                0x0000000000000000        0x0 0x1 /usr/local/popcorn/x86_64/lib/libelf.a(verdef_64_tom.o)
 .note.GNU-stack
                0x0000000000000000        0x0 0x1 /usr/local/popcorn/x86_64/lib/libelf.a(getscn.o)
 .note.GNU-stack
                0x0000000000000000        0x0 0x1 /usr/local/popcorn/x86_64/lib/libelf.a(newscn.o)
 .note.GNU-stack
                0x0000000000000000        0x0 0x1 /usr/local/popcorn/x86_64/lib/libelf.a(32.fsize.o)
 .note.GNU-stack
                0x0000000000000000        0x0 0x1 /usr/local/popcorn/x86_64/lib/libc.a(arch_crash.o)
 .note.GNU-stack
                0x0000000000000000        0x0 0x1 /usr/local/popcorn/x86_64/lib/libc.a(getenv.o)
 .note.GNU-stack
                0x0000000000000000        0x0 0x1 /usr/local/popcorn/x86_64/lib/libc.a(assert.o)
 .note.GNU-stack
                0x0000000000000000        0x0 0x1 /usr/local/popcorn/x86_64/lib/libc.a(open.o)
 .note.GNU-stack
                0x0000000000000000        0x0 0x1 /usr/local/popcorn/x86_64/lib/libc.a(getrlimit.o)
 .note.GNU-stack
                0x0000000000000000        0x0 0x1 /usr/local/popcorn/x86_64/lib/libc.a(getc.o)
 .note.GNU-stack
                0x0000000000000000        0x0 0x1 /usr/local/popcorn/x86_64/lib/libc.a(getline.o)
 .note.GNU-stack
                0x0000000000000000        0x0 0x1 /usr/local/popcorn/x86_64/lib/libc.a(perror.o)
 .note.GNU-stack
                0x0000000000000000        0x0 0x1 /usr/local/popcorn/x86_64/lib/libc.a(snprintf.o)
 .note.GNU-stack
                0x0000000000000000        0x0 0x1 /usr/local/popcorn/x86_64/lib/libc.a(bsearch.o)
 .note.GNU-stack
                0x0000000000000000        0x0 0x1 /usr/local/popcorn/x86_64/lib/libc.a(strtol.o)
 .note.GNU-stack
                0x0000000000000000        0x0 0x1 /usr/local/popcorn/x86_64/lib/libc.a(strncmp.o)
 .note.GNU-stack
                0x0000000000000000        0x0 0x1 /usr/local/popcorn/x86_64/lib/libc.a(memmove.o)
 .note.GNU-stack
                0x0000000000000000        0x0 0x1 /usr/local/popcorn/x86_64/lib/libc.a(__syscall_cp.o)
 .note.GNU-stack
                0x0000000000000000        0x0 0x1 /usr/local/popcorn/x86_64/lib/libc.a(pthread_attr_get.o)
 .note.GNU-stack
                0x0000000000000000        0x0 0x1 /usr/local/popcorn/x86_64/lib/libc.a(pthread_getattr_np.o)
 .note.GNU-stack
                0x0000000000000000        0x0 0x1 /usr/local/popcorn/x86_64/lib/libc.a(pthread_migrate.o)
 .note.GNU-stack
                0x0000000000000000        0x0 0x1 /usr/local/popcorn/x86_64/lib/libc.a(pthread_self.o)
 .note.GNU-stack
                0x0000000000000000        0x0 0x1 /usr/local/popcorn/x86_64/lib/libc.a(close.o)
 .note.GNU-stack
                0x0000000000000000        0x0 0x1 /usr/local/popcorn/x86_64/lib/libc.a(getpid.o)
 .note.GNU-stack
                0x0000000000000000        0x0 0x1 /usr/local/popcorn/x86_64/lib/libc.a(lseek.o)
 .note.GNU-stack
                0x0000000000000000        0x0 0x1 /usr/local/popcorn/x86_64/lib/libc.a(read.o)
 .note.GNU-stack
                0x0000000000000000        0x0 0x1 /usr/local/popcorn/x86_64/lib/libc.a(abort.o)
 .note.GNU-stack
                0x0000000000000000        0x0 0x1 /usr/local/popcorn/x86_64/lib/libc.a(syscall.o)
 .note.GNU-stack
                0x0000000000000000        0x0 0x1 /usr/local/popcorn/x86_64/lib/libc.a(block.o)
 .note.GNU-stack
                0x0000000000000000        0x0 0x1 /usr/local/popcorn/x86_64/lib/libc.a(raise.o)
 .note.GNU-stack
                0x0000000000000000        0x0 0x1 /usr/local/popcorn/x86_64/lib/libc.a(fputc.o)
 .note.GNU-stack
                0x0000000000000000        0x0 0x1 /usr/local/popcorn/x86_64/lib/libc.a(getdelim.o)
 .note.GNU-stack
                0x0000000000000000        0x0 0x1 /usr/local/popcorn/x86_64/lib/libc.a(__overflow.o)

Memory map

 ** file header
                0x0000000000400000       0x40
 ** segment headers
                0x0000000000400040      0x150

.note.gnu.build-id
                0x0000000000400190       0x24
 ** note header
                0x0000000000400190       0x10
 ** zero fill   0x00000000004001a0       0x14

.text           0x00000000004001c0    0x2a4ea
 .text.exit     0x00000000004001c0       0x1d 0x1 /usr/local/popcorn/x86_64/lib/libc.a(exit.o)
                0x00000000004001c0                exit
 .text          0x00000000004001e0        0x0 0x4 dc_x86_64.o
 .text.main     0x00000000004001e0      0x481 0x10 dc_x86_64.o
                0x00000000004001e0                main
 ** fill        0x0000000000400661        0xf
 .text.DC       0x0000000000400670      0x515 0x10 dc_x86_64.o
                0x0000000000400670                DC
 ** fill        0x0000000000400b85        0xb
 .text.Verify   0x0000000000400b90      0x16e 0x10 dc_x86_64.o
                0x0000000000400b90                Verify
 ** fill        0x0000000000400cfe        0x2
 .text          0x0000000000400d00        0x0 0x4 adc_x86_64.o
 .text.swap4    0x0000000000400d00       0x63 0x10 adc_x86_64.o
                0x0000000000400d00                swap4
 ** fill        0x0000000000400d63        0xd
 .text.swap8    0x0000000000400d70       0x9f 0x10 adc_x86_64.o
                0x0000000000400d70                swap8
 ** fill        0x0000000000400e0f        0x1
 .text.initADCpar
                0x0000000000400e10       0x6d 0x10 adc_x86_64.o
                0x0000000000400e10                initADCpar
 ** fill        0x0000000000400e7d        0x3
 .text.ShowFactorization
                0x0000000000400e80      0x17c 0x10 adc_x86_64.o
                0x0000000000400e80                ShowFactorization
 ** fill        0x0000000000400ffc        0x4
 .text.ListFirstPrimes
                0x0000000000401000      0x1aa 0x10 adc_x86_64.o
                0x0000000000401000                ListFirstPrimes
 ** fill        0x00000000004011aa        0x6
 .text.GetLCM   0x00000000004011b0      0x38f 0x10 adc_x86_64.o
                0x00000000004011b0                GetLCM
 ** fill        0x000000000040153f        0x1
 .text.ExtendFactors
                0x0000000000401540      0x239 0x10 adc_x86_64.o
                0x0000000000401540                ExtendFactors
 ** fill        0x0000000000401779        0x7
 .text.GetFactorization
                0x0000000000401780      0x479 0x10 adc_x86_64.o
                0x0000000000401780                GetFactorization
 ** fill        0x0000000000401bf9        0x7
 .text.CompareSizesByValue
                0x0000000000401c00       0xa5 0x10 adc_x86_64.o
                0x0000000000401c00                CompareSizesByValue
 ** fill        0x0000000000401ca5        0xb
 .text.CompareViewsBySize
                0x0000000000401cb0      0x103 0x10 adc_x86_64.o
                0x0000000000401cb0                CompareViewsBySize
 ** fill        0x0000000000401db3        0xd
 .text.CalculateVeiwSizes
                0x0000000000401dc0      0x75c 0x10 adc_x86_64.o
                0x0000000000401dc0                CalculateVeiwSizes
 ** fill        0x000000000040251c        0x4
 .text.ParseParFile
                0x0000000000402520      0x493 0x10 adc_x86_64.o
                0x0000000000402520                ParseParFile
 ** fill        0x00000000004029b3        0xd
 .text.WriteADCPar
                0x00000000004029c0      0x17f 0x10 adc_x86_64.o
                0x00000000004029c0                WriteADCPar
 ** fill        0x0000000000402b3f        0x1
 .text.ShowADCPar
                0x0000000000402b40       0xe6 0x10 adc_x86_64.o
                0x0000000000402b40                ShowADCPar
 ** fill        0x0000000000402c26        0xa
 .text.GetNextTuple
                0x0000000000402c30      0x433 0x10 adc_x86_64.o
                0x0000000000402c30                GetNextTuple
 ** fill        0x0000000000403063        0xd
 .text.GenerateADC
                0x0000000000403070      0x335 0x10 adc_x86_64.o
                0x0000000000403070                GenerateADC
 ** fill        0x00000000004033a5        0x3
 .text          0x00000000004033a8        0x0 0x4 extbuild_x86_64.o
 ** fill        0x00000000004033a8        0x8
 .text.ReadWholeInputData
                0x00000000004033b0      0x15b 0x10 extbuild_x86_64.o
                0x00000000004033b0                ReadWholeInputData
 ** fill        0x000000000040350b        0x5
 .text.ComputeMemoryFittedView
                0x0000000000403510      0x271 0x10 extbuild_x86_64.o
                0x0000000000403510                ComputeMemoryFittedView
 ** fill        0x0000000000403781        0xf
 .text.SelectToView
                0x0000000000403790       0xd4 0x10 extbuild_x86_64.o
                0x0000000000403790                SelectToView
 ** fill        0x0000000000403864        0xc
 .text.SharedSortAggregate
                0x0000000000403870      0xaa7 0x10 extbuild_x86_64.o
                0x0000000000403870                SharedSortAggregate
 ** fill        0x0000000000404317        0x9
 .text.MultiWayMerge
                0x0000000000404320      0x94b 0x10 extbuild_x86_64.o
                0x0000000000404320                MultiWayMerge
 ** fill        0x0000000000404c6b        0x5
 .text.PrefixedAggregate
                0x0000000000404c70      0x65c 0x10 extbuild_x86_64.o
                0x0000000000404c70                PrefixedAggregate
 ** fill        0x00000000004052cc        0x4
 .text.RunFormation
                0x00000000004052d0      0x3e1 0x10 extbuild_x86_64.o
                0x00000000004052d0                RunFormation
 ** fill        0x00000000004056b1        0xf
 .text.SeekAndReadNextSubChunk
                0x00000000004056c0       0xd1 0x10 extbuild_x86_64.o
                0x00000000004056c0                SeekAndReadNextSubChunk
 ** fill        0x0000000000405791        0xf
 .text.ReadSubChunk
                0x00000000004057a0      0x1e9 0x10 extbuild_x86_64.o
                0x00000000004057a0                ReadSubChunk
 ** fill        0x0000000000405989        0x7
 .text.AdcFileOpen
                0x0000000000405990       0x8d 0x10 extbuild_x86_64.o
                0x0000000000405990                AdcFileOpen
 ** fill        0x0000000000405a1d        0x3
 .text.AdcFileName
                0x0000000000405a20       0x6c 0x10 extbuild_x86_64.o
                0x0000000000405a20                AdcFileName
 ** fill        0x0000000000405a8c        0x4
 .text.NewAdcViewCntl
                0x0000000000405a90      0xa33 0x10 extbuild_x86_64.o
                0x0000000000405a90                NewAdcViewCntl
 ** fill        0x00000000004064c3        0xd
 .text.InitAdcViewCntl
                0x00000000004064d0      0x1e5 0x10 extbuild_x86_64.o
                0x00000000004064d0                InitAdcViewCntl
 ** fill        0x00000000004066b5        0xb
 .text.CloseAdcView
                0x00000000004066c0      0x31d 0x10 extbuild_x86_64.o
                0x00000000004066c0                CloseAdcView
 ** fill        0x00000000004069dd        0x3
 .text.AdcCntlLog
                0x00000000004069e0      0x105 0x10 extbuild_x86_64.o
                0x00000000004069e0                AdcCntlLog
 ** fill        0x0000000000406ae5        0xb
 .text.ViewSizesVerification
                0x0000000000406af0      0x481 0x10 extbuild_x86_64.o
                0x0000000000406af0                ViewSizesVerification
 ** fill        0x0000000000406f71        0xf
 .text.ComputeGivenGroupbys
                0x0000000000406f80      0x42d 0x10 extbuild_x86_64.o
                0x0000000000406f80                ComputeGivenGroupbys
 ** fill        0x00000000004073ad        0x3
 .text          0x00000000004073b0        0x0 0x4 jobcntl_x86_64.o
 .text.SetOneBit
                0x00000000004073b0       0x59 0x10 jobcntl_x86_64.o
                0x00000000004073b0                SetOneBit
 ** fill        0x0000000000407409        0x7
 .text.SetOneBit32
                0x0000000000407410       0x52 0x10 jobcntl_x86_64.o
                0x0000000000407410                SetOneBit32
 ** fill        0x0000000000407462        0xe
 .text.Mlo32    0x0000000000407470       0x91 0x10 jobcntl_x86_64.o
                0x0000000000407470                Mlo32
 ** fill        0x0000000000407501        0xf
 .text.mro32    0x0000000000407510       0x91 0x10 jobcntl_x86_64.o
                0x0000000000407510                mro32
 ** fill        0x00000000004075a1        0xf
 .text.setLeadingOnes32
                0x00000000004075b0       0x7e 0x10 jobcntl_x86_64.o
                0x00000000004075b0                setLeadingOnes32
 ** fill        0x000000000040762e        0x2
 .text.DeleteOneFile
                0x0000000000407630       0x32 0x10 jobcntl_x86_64.o
                0x0000000000407630                DeleteOneFile
 ** fill        0x0000000000407662        0xe
 .text.WriteOne32Tuple
                0x0000000000407670       0xee 0x10 jobcntl_x86_64.o
                0x0000000000407670                WriteOne32Tuple
 ** fill        0x000000000040775e        0x2
 .text.NumOfCombsFromNbyK
                0x0000000000407760       0xad 0x10 jobcntl_x86_64.o
                0x0000000000407760                NumOfCombsFromNbyK
 ** fill        0x000000000040780d        0x3
 .text.JobPoolUpdate
                0x0000000000407810       0xda 0x10 jobcntl_x86_64.o
                0x0000000000407810                JobPoolUpdate
 ** fill        0x00000000004078ea        0x6
 .text.GetParent
                0x00000000004078f0      0x5bd 0x10 jobcntl_x86_64.o
                0x00000000004078f0                GetParent
 ** fill        0x0000000000407ead        0x3
 .text.NumberOfOnes
                0x0000000000407eb0       0xa0 0x10 jobcntl_x86_64.o
                0x0000000000407eb0                NumberOfOnes
 .text.GetSmallestParent
                0x0000000000407f50      0x248 0x10 jobcntl_x86_64.o
                0x0000000000407f50                GetSmallestParent
 ** fill        0x0000000000408198        0x8
 .text.GetPrefixedParent
                0x00000000004081a0      0x285 0x10 jobcntl_x86_64.o
                0x00000000004081a0                GetPrefixedParent
 ** fill        0x0000000000408425        0xb
 .text.JobPoolInit
                0x0000000000408430       0xbc 0x10 jobcntl_x86_64.o
                0x0000000000408430                JobPoolInit
 ** fill        0x00000000004084ec        0x4
 .text.WriteOne64Tuple
                0x00000000004084f0       0xf4 0x10 jobcntl_x86_64.o
                0x00000000004084f0                WriteOne64Tuple
 ** fill        0x00000000004085e4        0xc
 .text.GetRegTupleFromBin64
                0x00000000004085f0       0xe0 0x10 jobcntl_x86_64.o
                0x00000000004085f0                GetRegTupleFromBin64
 .text.getRegTupleFromBin32
                0x00000000004086d0       0xd1 0x10 jobcntl_x86_64.o
                0x00000000004086d0                getRegTupleFromBin32
 ** fill        0x00000000004087a1        0xf
 .text.GetRegTupleFromParent
                0x00000000004087b0      0x11a 0x10 jobcntl_x86_64.o
                0x00000000004087b0                GetRegTupleFromParent
 ** fill        0x00000000004088ca        0x6
 .text.CreateBinTuple
                0x00000000004088d0       0x95 0x10 jobcntl_x86_64.o
                0x00000000004088d0                CreateBinTuple
 ** fill        0x0000000000408965        0xb
 .text.d32v     0x0000000000408970       0xaf 0x10 jobcntl_x86_64.o
                0x0000000000408970                d32v
 ** fill        0x0000000000408a1f        0x1
 .text.Comp8gbuf
                0x0000000000408a20       0x85 0x10 jobcntl_x86_64.o
                0x0000000000408a20                Comp8gbuf
 ** fill        0x0000000000408aa5        0xb
 .text.restore  0x0000000000408ab0      0x195 0x10 jobcntl_x86_64.o
                0x0000000000408ab0                restore
 ** fill        0x0000000000408c45        0xb
 .text.vszsort  0x0000000000408c50      0x12e 0x10 jobcntl_x86_64.o
                0x0000000000408c50                vszsort
 ** fill        0x0000000000408d7e        0x2
 .text.countTupleOnes
                0x0000000000408d80       0xa7 0x10 jobcntl_x86_64.o
                0x0000000000408d80                countTupleOnes
 ** fill        0x0000000000408e27        0x9
 .text.restoreo
                0x0000000000408e30      0x189 0x10 jobcntl_x86_64.o
                0x0000000000408e30                restoreo
 ** fill        0x0000000000408fb9        0x7
 .text.onessort
                0x0000000000408fc0      0x128 0x10 jobcntl_x86_64.o
                0x0000000000408fc0                onessort
 ** fill        0x00000000004090e8        0x8
 .text.MultiFileProcJobs
                0x00000000004090f0      0x508 0x10 jobcntl_x86_64.o
                0x00000000004090f0                MultiFileProcJobs
 ** fill        0x00000000004095f8        0x8
 .text.PartitionCube
                0x0000000000409600      0x36b 0x10 jobcntl_x86_64.o
                0x0000000000409600                PartitionCube
 ** fill        0x000000000040996b        0x1
 .text          0x000000000040996c        0x0 0x4 rbt_x86_64.o
 ** fill        0x000000000040996c        0x4
 .text.KeyComp  0x0000000000409970       0xda 0x10 rbt_x86_64.o
                0x0000000000409970                KeyComp
 ** fill        0x0000000000409a4a        0x6
 .text.TreeInsert
                0x0000000000409a50      0x7a5 0x10 rbt_x86_64.o
                0x0000000000409a50                TreeInsert
 ** fill        0x000000000040a1f5        0xb
 .text.WriteViewToDisk
                0x000000000040a200      0x17b 0x10 rbt_x86_64.o
                0x000000000040a200                WriteViewToDisk
 ** fill        0x000000000040a37b        0x5
 .text.WriteViewToDiskCS
                0x000000000040a380      0x1d4 0x10 rbt_x86_64.o
                0x000000000040a380                WriteViewToDiskCS
 ** fill        0x000000000040a554        0xc
 .text.computeChecksum
                0x000000000040a560      0x153 0x10 rbt_x86_64.o
                0x000000000040a560                computeChecksum
 ** fill        0x000000000040a6b3        0xd
 .text.WriteChunkToDisk
                0x000000000040a6c0      0x146 0x10 rbt_x86_64.o
                0x000000000040a6c0                WriteChunkToDisk
 ** fill        0x000000000040a806        0xa
 .text.CreateEmptyTree
                0x000000000040a810      0x1c5 0x10 rbt_x86_64.o
                0x000000000040a810                CreateEmptyTree
 ** fill        0x000000000040a9d5        0xb
 .text.InitializeTree
                0x000000000040a9e0       0xff 0x10 rbt_x86_64.o
                0x000000000040a9e0                InitializeTree
 ** fill        0x000000000040aadf        0x1
 .text.DestroyTree
                0x000000000040aae0       0xe1 0x10 rbt_x86_64.o
                0x000000000040aae0                DestroyTree
 ** fill        0x000000000040abc1        0x3
 .text          0x000000000040abc4        0x0 0x4 c_timers_x86_64.o
 ** fill        0x000000000040abc4        0xc
 .text.timer_clear
                0x000000000040abd0       0x34 0x10 c_timers_x86_64.o
                0x000000000040abd0                timer_clear
 ** fill        0x000000000040ac04        0xc
 .text.timer_start
                0x000000000040ac10       0x36 0x10 c_timers_x86_64.o
                0x000000000040ac10                timer_start
 ** fill        0x000000000040ac46        0xa
 .text.elapsed_time
                0x000000000040ac50       0x38 0x10 c_timers_x86_64.o
 ** fill        0x000000000040ac88        0x8
 .text.timer_stop
                0x000000000040ac90       0x61 0x10 c_timers_x86_64.o
                0x000000000040ac90                timer_stop
 ** fill        0x000000000040acf1        0xf
 .text.timer_read
                0x000000000040ad00       0x3e 0x10 c_timers_x86_64.o
                0x000000000040ad00                timer_read
 ** fill        0x000000000040ad3e        0x2
 .text          0x000000000040ad40        0x0 0x4 print_results_x86_64.o
 .text.print_results
                0x000000000040ad40      0x3ba 0x10 print_results_x86_64.o
                0x000000000040ad40                print_results
 ** fill        0x000000000040b0fa        0x2
 .text          0x000000000040b0fc        0x0 0x4 randdp_x86_64.o
 ** fill        0x000000000040b0fc        0x4
 .text.randlc   0x000000000040b100      0x1a4 0x10 randdp_x86_64.o
                0x000000000040b100                randlc
 ** fill        0x000000000040b2a4        0xc
 .text.vranlc   0x000000000040b2b0      0x215 0x10 randdp_x86_64.o
                0x000000000040b2b0                vranlc
 ** fill        0x000000000040b4c5        0x3
 .text          0x000000000040b4c8        0x0 0x4 c_print_results_x86_64.o
 ** fill        0x000000000040b4c8        0x8
 .text.c_print_results
                0x000000000040b4d0      0x34e 0x10 c_print_results_x86_64.o
                0x000000000040b4d0                c_print_results
 ** fill        0x000000000040b81e        0x2
 .text          0x000000000040b820        0x0 0x4 wtime_x86_64.o
 .text.wtime_   0x000000000040b820       0x86 0x10 wtime_x86_64.o
                0x000000000040b820                wtime_
 ** fill        0x000000000040b8a6        0x2
 .text          0x000000000040b8a8       0x16 0x4 /usr/local/popcorn/x86_64/lib/crt1.o
                0x000000000040b8a8                _start
 .text._start_c
                0x000000000040b8be       0x1f 0x1 /usr/local/popcorn/x86_64/lib/crt1.o
                0x000000000040b8be                _start_c
 ** fill        0x000000000040b8dd        0x3
 .text          0x000000000040b8e0        0x0 0x4 /usr/local/popcorn/x86_64/lib/libc.a(isdigit.o)
 .text.isdigit  0x000000000040b8e0        0xc 0x1 /usr/local/popcorn/x86_64/lib/libc.a(isdigit.o)
                0x000000000040b8e0                isdigit
 .text.__isdigit_l
                0x000000000040b8ec        0xc 0x1 /usr/local/popcorn/x86_64/lib/libc.a(isdigit.o)
                0x000000000040b8ec                __isdigit_l
                0x000000000040b8ec                isdigit_l
 .text          0x000000000040b8f8        0x0 0x4 /usr/local/popcorn/x86_64/lib/libc.a(__libc_start_main.o)
 .text.dummy    0x000000000040b8f8        0x1 0x1 /usr/local/popcorn/x86_64/lib/libc.a(__libc_start_main.o)
                0x000000000040b8f8                _init
 .text.dummy1   0x000000000040b8f9        0x1 0x1 /usr/local/popcorn/x86_64/lib/libc.a(__libc_start_main.o)
                0x000000000040b8f9                __init_ssp
 .text.__init_libc
                0x000000000040b8fa      0x1a3 0x1 /usr/local/popcorn/x86_64/lib/libc.a(__libc_start_main.o)
                0x000000000040b8fa                __init_libc
 .text.libc_start_init
                0x000000000040ba9d       0x31 0x1 /usr/local/popcorn/x86_64/lib/libc.a(__libc_start_main.o)
                0x000000000040ba9d                __libc_start_init
 .text.__libc_start_main
                0x000000000040bace       0x43 0x1 /usr/local/popcorn/x86_64/lib/libc.a(__libc_start_main.o)
                0x000000000040bace                __libc_start_main
 ** fill        0x000000000040bb11        0x3
 .text          0x000000000040bb14        0x0 0x4 /usr/local/popcorn/x86_64/lib/libc.a(__errno_location.o)
 .text.__errno_location
                0x000000000040bb14        0xe 0x1 /usr/local/popcorn/x86_64/lib/libc.a(__errno_location.o)
                0x000000000040bb14                __errno_location
 ** fill        0x000000000040bb22        0x2
 .text          0x000000000040bb24        0x0 0x4 /usr/local/popcorn/x86_64/lib/libc.a(exit.o)
 .text.libc_exit_fini
                0x000000000040bb24       0x35 0x1 /usr/local/popcorn/x86_64/lib/libc.a(exit.o)
                0x000000000040bb24                __libc_exit_fini
 .text.dummy    0x000000000040bb59        0x1 0x1 /usr/local/popcorn/x86_64/lib/libc.a(exit.o)
                0x000000000040bb59                __funcs_on_exit
                0x000000000040bb59                _fini
 ** fill        0x000000000040bb5a        0x1
 .text          0x000000000040bb5c        0x0 0x4 /usr/local/popcorn/x86_64/lib/libc.a(libc.o)
 .text          0x000000000040bb5c        0x0 0x4 /usr/local/popcorn/x86_64/lib/libc.a(calloc.o)
 ** fill        0x000000000040bb5c        0x8
 .text.calloc   0x000000000040bb70       0x6c 0x10 /usr/local/popcorn/x86_64/lib/libc.a(calloc.o)
                0x000000000040bb70                calloc
 ** fill        0x000000000040bbdc        0x4
 .text.popcorn_calloc
                0x000000000040bbe0       0x72 0x10 /usr/local/popcorn/x86_64/lib/libc.a(calloc.o)
                0x000000000040bbe0                popcorn_calloc
 ** fill        0x000000000040bc52        0xe
 .text.popcorn_calloc_cur
                0x000000000040bc60       0x3c 0x10 /usr/local/popcorn/x86_64/lib/libc.a(calloc.o)
                0x000000000040bc60                popcorn_calloc_cur
 .text          0x000000000040bc9c        0x0 0x4 /usr/local/popcorn/x86_64/lib/libc.a(lite_malloc.o)
 ** fill        0x000000000040bc9c        0x4
 .text.__simple_malloc
                0x000000000040bca0      0x1a4 0x10 /usr/local/popcorn/x86_64/lib/libc.a(lite_malloc.o)
 .text          0x000000000040be44        0x0 0x4 /usr/local/popcorn/x86_64/lib/libc.a(malloc.o)
 ** fill        0x000000000040be44        0xc
 .text.__init_malloc
                0x000000000040be50       0x2d 0x10 /usr/local/popcorn/x86_64/lib/libc.a(malloc.o)
 ** fill        0x000000000040be7d        0x3
 .text.malloc   0x000000000040be80      0x27a 0x10 /usr/local/popcorn/x86_64/lib/libc.a(malloc.o)
                0x000000000040be80                malloc
 ** fill        0x000000000040c0fa        0x6
 .text.adjust_size
                0x000000000040c100       0x94 0x10 /usr/local/popcorn/x86_64/lib/libc.a(malloc.o)
 ** fill        0x000000000040c194        0xc
 .text.bin_index_up
                0x000000000040c1a0       0x89 0x10 /usr/local/popcorn/x86_64/lib/libc.a(malloc.o)
 ** fill        0x000000000040c229        0x7
 .text.expand_heap
                0x000000000040c230      0x117 0x10 /usr/local/popcorn/x86_64/lib/libc.a(malloc.o)
 ** fill        0x000000000040c347        0x9
 .text.alloc_rev
                0x000000000040c350       0xad 0x10 /usr/local/popcorn/x86_64/lib/libc.a(malloc.o)
 ** fill        0x000000000040c3fd        0x3
 .text.first_set
                0x000000000040c400       0x1b 0x10 /usr/local/popcorn/x86_64/lib/libc.a(malloc.o)
 ** fill        0x000000000040c41b        0x5
 .text.lock_bin
                0x000000000040c420       0x9b 0x10 /usr/local/popcorn/x86_64/lib/libc.a(malloc.o)
 ** fill        0x000000000040c4bb        0x5
 .text.pretrim  0x000000000040c4c0      0x16e 0x10 /usr/local/popcorn/x86_64/lib/libc.a(malloc.o)
 ** fill        0x000000000040c62e        0x2
 .text.unbin    0x000000000040c630       0xaf 0x10 /usr/local/popcorn/x86_64/lib/libc.a(malloc.o)
 ** fill        0x000000000040c6df        0x1
 .text.unlock_bin
                0x000000000040c6e0       0x32 0x10 /usr/local/popcorn/x86_64/lib/libc.a(malloc.o)
 ** fill        0x000000000040c712        0xe
 .text.trim     0x000000000040c720       0xb9 0x10 /usr/local/popcorn/x86_64/lib/libc.a(malloc.o)
 ** fill        0x000000000040c7d9        0x7
 .text.__malloc0
                0x000000000040c7e0       0xab 0x10 /usr/local/popcorn/x86_64/lib/libc.a(malloc.o)
                0x000000000040c7e0                __malloc0
 ** fill        0x000000000040c88b        0x5
 .text.realloc  0x000000000040c890      0x3b7 0x10 /usr/local/popcorn/x86_64/lib/libc.a(malloc.o)
                0x000000000040c890                realloc
 ** fill        0x000000000040cc47        0x9
 .text.free     0x000000000040cc50      0x423 0x10 /usr/local/popcorn/x86_64/lib/libc.a(malloc.o)
                0x000000000040cc50                free
 ** fill        0x000000000040d073        0xd
 .text.alloc_fwd
                0x000000000040d080       0x97 0x10 /usr/local/popcorn/x86_64/lib/libc.a(malloc.o)
 ** fill        0x000000000040d117        0x9
 .text.bin_index
                0x000000000040d120       0x94 0x10 /usr/local/popcorn/x86_64/lib/libc.a(malloc.o)
 ** fill        0x000000000040d1b4        0xc
 .text.lock     0x000000000040d1c0       0x65 0x10 /usr/local/popcorn/x86_64/lib/libc.a(malloc.o)
 ** fill        0x000000000040d225        0xb
 .text.unlock   0x000000000040d230       0x56 0x10 /usr/local/popcorn/x86_64/lib/libc.a(malloc.o)
 ** fill        0x000000000040d286        0xa
 .text.a_or_64  0x000000000040d290       0x1a 0x10 /usr/local/popcorn/x86_64/lib/libc.a(malloc.o)
 ** fill        0x000000000040d2aa        0x6
 .text.a_ctz_64
                0x000000000040d2b0       0x1c 0x10 /usr/local/popcorn/x86_64/lib/libc.a(malloc.o)
 ** fill        0x000000000040d2cc        0x4
 .text.a_and_64
                0x000000000040d2d0       0x1a 0x10 /usr/local/popcorn/x86_64/lib/libc.a(malloc.o)
 ** fill        0x000000000040d2ea        0x6
 .text.a_crash  0x000000000040d2f0        0x7 0x10 /usr/local/popcorn/x86_64/lib/libc.a(malloc.o)
 ** fill        0x000000000040d2f7        0x9
 .text.a_swap   0x000000000040d300       0x1c 0x10 /usr/local/popcorn/x86_64/lib/libc.a(malloc.o)
 ** fill        0x000000000040d31c        0x4
 .text.a_store  0x000000000040d320       0x1b 0x10 /usr/local/popcorn/x86_64/lib/libc.a(malloc.o)
 ** fill        0x000000000040d33b        0x5
 .text.__wake   0x000000000040d340       0x8b 0x10 /usr/local/popcorn/x86_64/lib/libc.a(malloc.o)
 ** fill        0x000000000040d3cb        0x5
 .text.__syscall3
                0x000000000040d3d0       0x30 0x10 /usr/local/popcorn/x86_64/lib/libc.a(malloc.o)
 .text          0x000000000040d400        0x0 0x4 /usr/local/popcorn/x86_64/lib/libc.a(popcorn_malloc.o)
 .text.__init_malloc
                0x000000000040d400       0x2d 0x10 /usr/local/popcorn/x86_64/lib/libc.a(popcorn_malloc.o)
 ** fill        0x000000000040d42d        0x3
 .text.popcorn_malloc
                0x000000000040d430      0x3fe 0x10 /usr/local/popcorn/x86_64/lib/libc.a(popcorn_malloc.o)
                0x000000000040d430                popcorn_malloc
 ** fill        0x000000000040d82e        0x2
 .text.adjust_size
                0x000000000040d830       0x94 0x10 /usr/local/popcorn/x86_64/lib/libc.a(popcorn_malloc.o)
 ** fill        0x000000000040d8c4        0xc
 .text.bin_index_up
                0x000000000040d8d0       0x89 0x10 /usr/local/popcorn/x86_64/lib/libc.a(popcorn_malloc.o)
 ** fill        0x000000000040d959        0x7
 .text.lock     0x000000000040d960       0x65 0x10 /usr/local/popcorn/x86_64/lib/libc.a(popcorn_malloc.o)
 ** fill        0x000000000040d9c5        0xb
 .text.unlock   0x000000000040d9d0       0x56 0x10 /usr/local/popcorn/x86_64/lib/libc.a(popcorn_malloc.o)
 ** fill        0x000000000040da26        0xa
 .text.expand_heap
                0x000000000040da30      0x184 0x10 /usr/local/popcorn/x86_64/lib/libc.a(popcorn_malloc.o)
 ** fill        0x000000000040dbb4        0xc
 .text.alloc_rev
                0x000000000040dbc0       0xbe 0x10 /usr/local/popcorn/x86_64/lib/libc.a(popcorn_malloc.o)
 ** fill        0x000000000040dc7e        0x2
 .text.first_set
                0x000000000040dc80       0x1b 0x10 /usr/local/popcorn/x86_64/lib/libc.a(popcorn_malloc.o)
 ** fill        0x000000000040dc9b        0x5
 .text.lock_bin
                0x000000000040dca0       0xdd 0x10 /usr/local/popcorn/x86_64/lib/libc.a(popcorn_malloc.o)
 ** fill        0x000000000040dd7d        0x3
 .text.pretrim  0x000000000040dd80      0x176 0x10 /usr/local/popcorn/x86_64/lib/libc.a(popcorn_malloc.o)
 ** fill        0x000000000040def6        0xa
 .text.unbin    0x000000000040df00       0xbd 0x10 /usr/local/popcorn/x86_64/lib/libc.a(popcorn_malloc.o)
 ** fill        0x000000000040dfbd        0x3
 .text.unlock_bin
                0x000000000040dfc0       0x40 0x10 /usr/local/popcorn/x86_64/lib/libc.a(popcorn_malloc.o)
 .text.trim     0x000000000040e000       0xc9 0x10 /usr/local/popcorn/x86_64/lib/libc.a(popcorn_malloc.o)
 ** fill        0x000000000040e0c9        0x7
 .text.__popcorn_malloc0
                0x000000000040e0d0       0xb1 0x10 /usr/local/popcorn/x86_64/lib/libc.a(popcorn_malloc.o)
                0x000000000040e0d0                __popcorn_malloc0
 ** fill        0x000000000040e181        0xf
 .text.popcorn_malloc_cur
                0x000000000040e190       0x2c 0x10 /usr/local/popcorn/x86_64/lib/libc.a(popcorn_malloc.o)
                0x000000000040e190                popcorn_malloc_cur
 ** fill        0x000000000040e1bc        0x4
 .text.popcorn_realloc
                0x000000000040e1c0      0x3f7 0x10 /usr/local/popcorn/x86_64/lib/libc.a(popcorn_malloc.o)
                0x000000000040e1c0                popcorn_realloc
 ** fill        0x000000000040e5b7        0x9
 .text.popcorn_free
                0x000000000040e5c0      0x4a2 0x10 /usr/local/popcorn/x86_64/lib/libc.a(popcorn_malloc.o)
                0x000000000040e5c0                popcorn_free
 ** fill        0x000000000040ea62        0xe
 .text.alloc_fwd
                0x000000000040ea70       0xa6 0x10 /usr/local/popcorn/x86_64/lib/libc.a(popcorn_malloc.o)
 ** fill        0x000000000040eb16        0xa
 .text.popcorn_realloc_cur
                0x000000000040eb20       0x3c 0x10 /usr/local/popcorn/x86_64/lib/libc.a(popcorn_malloc.o)
                0x000000000040eb20                popcorn_realloc_cur
 ** fill        0x000000000040eb5c        0x4
 .text.bin_index
                0x000000000040eb60       0x94 0x10 /usr/local/popcorn/x86_64/lib/libc.a(popcorn_malloc.o)
 ** fill        0x000000000040ebf4        0xc
 .text.a_or_64  0x000000000040ec00       0x1a 0x10 /usr/local/popcorn/x86_64/lib/libc.a(popcorn_malloc.o)
 ** fill        0x000000000040ec1a        0x6
 .text.a_swap   0x000000000040ec20       0x1c 0x10 /usr/local/popcorn/x86_64/lib/libc.a(popcorn_malloc.o)
 ** fill        0x000000000040ec3c        0x4
 .text.a_store  0x000000000040ec40       0x1b 0x10 /usr/local/popcorn/x86_64/lib/libc.a(popcorn_malloc.o)
 ** fill        0x000000000040ec5b        0x5
 .text.__wake   0x000000000040ec60       0x8b 0x10 /usr/local/popcorn/x86_64/lib/libc.a(popcorn_malloc.o)
 ** fill        0x000000000040eceb        0x5
 .text.__syscall3
                0x000000000040ecf0       0x30 0x10 /usr/local/popcorn/x86_64/lib/libc.a(popcorn_malloc.o)
 .text.a_ctz_64
                0x000000000040ed20       0x1c 0x10 /usr/local/popcorn/x86_64/lib/libc.a(popcorn_malloc.o)
 ** fill        0x000000000040ed3c        0x4
 .text.a_and_64
                0x000000000040ed40       0x1a 0x10 /usr/local/popcorn/x86_64/lib/libc.a(popcorn_malloc.o)
 ** fill        0x000000000040ed5a        0x6
 .text.a_crash  0x000000000040ed60        0x7 0x10 /usr/local/popcorn/x86_64/lib/libc.a(popcorn_malloc.o)
 ** fill        0x000000000040ed67        0x1
 .text          0x000000000040ed68        0x0 0x4 /usr/local/popcorn/x86_64/lib/libc.a(pow.o)
 .text.pow      0x000000000040ed68      0x7fa 0x1 /usr/local/popcorn/x86_64/lib/libc.a(pow.o)
                0x000000000040ed68                pow
 ** fill        0x000000000040f562        0x2
 .text          0x000000000040f564        0x0 0x4 /usr/local/popcorn/x86_64/lib/libc.a(scalbn.o)
 .text.scalbn   0x000000000040f564       0x8e 0x1 /usr/local/popcorn/x86_64/lib/libc.a(scalbn.o)
                0x000000000040f564                scalbn
 ** fill        0x000000000040f5f2        0x2
 .text          0x000000000040f5f4        0x0 0x4 /usr/local/popcorn/x86_64/lib/libc.a(fabs.o)
 .text.fabs     0x000000000040f5f4       0x12 0x1 /usr/local/popcorn/x86_64/lib/libc.a(fabs.o)
                0x000000000040f5f4                fabs
 ** fill        0x000000000040f606        0x2
 .text          0x000000000040f608        0x0 0x4 /usr/local/popcorn/x86_64/lib/libc.a(sqrt.o)
 .text.sqrt     0x000000000040f608        0x5 0x1 /usr/local/popcorn/x86_64/lib/libc.a(sqrt.o)
                0x000000000040f608                sqrt
 ** fill        0x000000000040f60d        0x3
 .text          0x000000000040f610        0x0 0x4 /usr/local/popcorn/x86_64/lib/libc.a(madvise.o)
 .text.__madvise
                0x000000000040f610       0x12 0x1 /usr/local/popcorn/x86_64/lib/libc.a(madvise.o)
                0x000000000040f610                __madvise
                0x000000000040f610                madvise
 ** fill        0x000000000040f622        0x2
 .text          0x000000000040f624        0x0 0x4 /usr/local/popcorn/x86_64/lib/libc.a(mmap.o)
 .text.dummy    0x000000000040f624        0x1 0x1 /usr/local/popcorn/x86_64/lib/libc.a(mmap.o)
                0x000000000040f624                __vm_wait
 .text.__mmap   0x000000000040f625       0xb5 0x1 /usr/local/popcorn/x86_64/lib/libc.a(mmap.o)
                0x000000000040f625                __mmap
                0x000000000040f625                mmap
                0x000000000040f625                mmap64
 ** fill        0x000000000040f6da        0x2
 .text          0x000000000040f6dc        0x0 0x4 /usr/local/popcorn/x86_64/lib/libc.a(mremap.o)
 .text.dummy    0x000000000040f6dc        0x1 0x1 /usr/local/popcorn/x86_64/lib/libc.a(mremap.o)
 .text.__mremap
                0x000000000040f6dd      0x11e 0x1 /usr/local/popcorn/x86_64/lib/libc.a(mremap.o)
                0x000000000040f6dd                __mremap
                0x000000000040f6dd                mremap
 ** fill        0x000000000040f7fb        0x1
 .text          0x000000000040f7fc        0x0 0x4 /usr/local/popcorn/x86_64/lib/libc.a(munmap.o)
 .text.dummy    0x000000000040f7fc        0x1 0x1 /usr/local/popcorn/x86_64/lib/libc.a(munmap.o)
 .text.__munmap
                0x000000000040f7fd       0x2b 0x1 /usr/local/popcorn/x86_64/lib/libc.a(munmap.o)
                0x000000000040f7fd                __munmap
                0x000000000040f7fd                munmap
 .text          0x000000000040f828        0x0 0x4 /usr/local/popcorn/x86_64/lib/libc.a(fclose.o)
 .text.dummy    0x000000000040f828        0x1 0x1 /usr/local/popcorn/x86_64/lib/libc.a(fclose.o)
                0x000000000040f828                __unlist_locked_file
 .text.fclose   0x000000000040f829       0xb4 0x1 /usr/local/popcorn/x86_64/lib/libc.a(fclose.o)
                0x000000000040f829                fclose
 ** fill        0x000000000040f8dd        0x3
 .text          0x000000000040f8e0        0x0 0x4 /usr/local/popcorn/x86_64/lib/libc.a(fflush.o)
 .text.fflush   0x000000000040f8e0      0x10d 0x1 /usr/local/popcorn/x86_64/lib/libc.a(fflush.o)
                0x000000000040f8e0                fflush
                0x000000000040f8e0                fflush_unlocked
 ** fill        0x000000000040f9ed        0x3
 .text          0x000000000040f9f0        0x0 0x4 /usr/local/popcorn/x86_64/lib/libc.a(fgets.o)
 .text.fgets    0x000000000040f9f0      0x18e 0x1 /usr/local/popcorn/x86_64/lib/libc.a(fgets.o)
                0x000000000040f9f0                fgets
                0x000000000040f9f0                fgets_unlocked
 ** fill        0x000000000040fb7e        0x2
 .text          0x000000000040fb80        0x0 0x4 /usr/local/popcorn/x86_64/lib/libc.a(fopen.o)
 .text.fopen    0x000000000040fb80       0x94 0x1 /usr/local/popcorn/x86_64/lib/libc.a(fopen.o)
                0x000000000040fb80                fopen
                0x000000000040fb80                fopen64
 .text          0x000000000040fc14        0x0 0x4 /usr/local/popcorn/x86_64/lib/libc.a(fprintf.o)
 .text.fprintf  0x000000000040fc14       0x97 0x1 /usr/local/popcorn/x86_64/lib/libc.a(fprintf.o)
                0x000000000040fc14                fprintf
 ** fill        0x000000000040fcab        0x1
 .text          0x000000000040fcac        0x0 0x4 /usr/local/popcorn/x86_64/lib/libc.a(fread.o)
 .text.fread    0x000000000040fcac      0x106 0x1 /usr/local/popcorn/x86_64/lib/libc.a(fread.o)
                0x000000000040fcac                fread
                0x000000000040fcac                fread_unlocked
 ** fill        0x000000000040fdb2        0x2
 .text          0x000000000040fdb4        0x0 0x4 /usr/local/popcorn/x86_64/lib/libc.a(fscanf.o)
 .text.fscanf   0x000000000040fdb4       0x97 0x1 /usr/local/popcorn/x86_64/lib/libc.a(fscanf.o)
                0x000000000040fdb4                __isoc99_fscanf
                0x000000000040fdb4                fscanf
 ** fill        0x000000000040fe4b        0x1
 .text          0x000000000040fe4c        0x0 0x4 /usr/local/popcorn/x86_64/lib/libc.a(fseek.o)
 .text.__fseeko_unlocked
                0x000000000040fe4c       0x83 0x1 /usr/local/popcorn/x86_64/lib/libc.a(fseek.o)
                0x000000000040fe4c                __fseeko_unlocked
 .text.__fseeko
                0x000000000040fecf       0x60 0x1 /usr/local/popcorn/x86_64/lib/libc.a(fseek.o)
                0x000000000040fecf                __fseeko
                0x000000000040fecf                fseeko
                0x000000000040fecf                fseeko64
 .text.fseek    0x000000000040ff2f        0x5 0x1 /usr/local/popcorn/x86_64/lib/libc.a(fseek.o)
                0x000000000040ff2f                fseek
 .text          0x000000000040ff34        0x0 0x4 /usr/local/popcorn/x86_64/lib/libc.a(ftell.o)
 .text.__ftello_unlocked
                0x000000000040ff34       0x43 0x1 /usr/local/popcorn/x86_64/lib/libc.a(ftell.o)
                0x000000000040ff34                __ftello_unlocked
 .text.__ftello
                0x000000000040ff77       0x46 0x1 /usr/local/popcorn/x86_64/lib/libc.a(ftell.o)
                0x000000000040ff77                __ftello
                0x000000000040ff77                ftello
                0x000000000040ff77                ftello64
 .text.ftell    0x000000000040ffbd        0x5 0x1 /usr/local/popcorn/x86_64/lib/libc.a(ftell.o)
                0x000000000040ffbd                ftell
 ** fill        0x000000000040ffc2        0x2
 .text          0x000000000040ffc4        0x0 0x4 /usr/local/popcorn/x86_64/lib/libc.a(fwrite.o)
 .text.__fwritex
                0x000000000040ffc4       0xc1 0x1 /usr/local/popcorn/x86_64/lib/libc.a(fwrite.o)
                0x000000000040ffc4                __fwritex
 .text.fwrite   0x0000000000410085       0x8c 0x1 /usr/local/popcorn/x86_64/lib/libc.a(fwrite.o)
                0x0000000000410085                fwrite
                0x0000000000410085                fwrite_unlocked
 ** fill        0x0000000000410111        0x3
 .text          0x0000000000410114        0x0 0x4 /usr/local/popcorn/x86_64/lib/libc.a(ofl.o)
 .text.__ofl_lock
                0x0000000000410114       0x12 0x1 /usr/local/popcorn/x86_64/lib/libc.a(ofl.o)
                0x0000000000410114                __ofl_lock
 .text.__ofl_unlock
                0x0000000000410126        0xa 0x1 /usr/local/popcorn/x86_64/lib/libc.a(ofl.o)
                0x0000000000410126                __ofl_unlock
 .text          0x0000000000410130        0x0 0x4 /usr/local/popcorn/x86_64/lib/libc.a(printf.o)
 .text.printf   0x0000000000410130       0xa9 0x1 /usr/local/popcorn/x86_64/lib/libc.a(printf.o)
                0x0000000000410130                printf
 ** fill        0x00000000004101d9        0x3
 .text          0x00000000004101dc        0x0 0x4 /usr/local/popcorn/x86_64/lib/libc.a(sprintf.o)
 .text.sprintf  0x00000000004101dc       0x97 0x1 /usr/local/popcorn/x86_64/lib/libc.a(sprintf.o)
                0x00000000004101dc                sprintf
 ** fill        0x0000000000410273        0x1
 .text          0x0000000000410274        0x0 0x4 /usr/local/popcorn/x86_64/lib/libc.a(sscanf.o)
 .text.sscanf   0x0000000000410274       0x97 0x1 /usr/local/popcorn/x86_64/lib/libc.a(sscanf.o)
                0x0000000000410274                __isoc99_sscanf
                0x0000000000410274                sscanf
 ** fill        0x000000000041030b        0x1
 .text          0x000000000041030c        0x0 0x4 /usr/local/popcorn/x86_64/lib/libc.a(stderr.o)
 .text          0x000000000041030c        0x0 0x4 /usr/local/popcorn/x86_64/lib/libc.a(stdout.o)
 .text          0x000000000041030c        0x0 0x4 /usr/local/popcorn/x86_64/lib/libc.a(vfprintf.o)
 .text.vfprintf
                0x000000000041030c      0x1ba 0x1 /usr/local/popcorn/x86_64/lib/libc.a(vfprintf.o)
                0x000000000041030c                vfprintf
 .text.printf_core
                0x00000000004104c6     0x1e06 0x1 /usr/local/popcorn/x86_64/lib/libc.a(vfprintf.o)
 .text.getint   0x00000000004122cc       0x54 0x1 /usr/local/popcorn/x86_64/lib/libc.a(vfprintf.o)
 .text.pop_arg  0x0000000000412320      0x1a6 0x1 /usr/local/popcorn/x86_64/lib/libc.a(vfprintf.o)
 .text.pad      0x00000000004124c6       0xbd 0x1 /usr/local/popcorn/x86_64/lib/libc.a(vfprintf.o)
 ** fill        0x0000000000412583        0x1
 .text          0x0000000000412584        0x0 0x4 /usr/local/popcorn/x86_64/lib/libc.a(vfscanf.o)
 .text.vfscanf  0x0000000000412584      0xccc 0x1 /usr/local/popcorn/x86_64/lib/libc.a(vfscanf.o)
                0x0000000000412584                __isoc99_vfscanf
                0x0000000000412584                vfscanf
 .text          0x0000000000413250        0x0 0x4 /usr/local/popcorn/x86_64/lib/libc.a(vsprintf.o)
 .text.vsprintf
                0x0000000000413250       0x16 0x1 /usr/local/popcorn/x86_64/lib/libc.a(vsprintf.o)
                0x0000000000413250                vsprintf
 ** fill        0x0000000000413266        0x2
 .text          0x0000000000413268        0x0 0x4 /usr/local/popcorn/x86_64/lib/libc.a(vsscanf.o)
 .text.vsscanf  0x0000000000413268       0x68 0x1 /usr/local/popcorn/x86_64/lib/libc.a(vsscanf.o)
                0x0000000000413268                __isoc99_vsscanf
                0x0000000000413268                vsscanf
 .text.do_read  0x00000000004132d0        0x5 0x1 /usr/local/popcorn/x86_64/lib/libc.a(vsscanf.o)
 ** fill        0x00000000004132d5        0x3
 .text          0x00000000004132d8        0x0 0x4 /usr/local/popcorn/x86_64/lib/libc.a(atoi.o)
 .text.atoi     0x00000000004132d8       0x5a 0x1 /usr/local/popcorn/x86_64/lib/libc.a(atoi.o)
                0x00000000004132d8                atoi
 ** fill        0x0000000000413332        0x2
 .text          0x0000000000413334        0x0 0x4 /usr/local/popcorn/x86_64/lib/libc.a(qsort.o)
 .text.qsort    0x0000000000413334      0x353 0x1 /usr/local/popcorn/x86_64/lib/libc.a(qsort.o)
                0x0000000000413334                qsort
 .text.sift     0x0000000000413687       0xf0 0x1 /usr/local/popcorn/x86_64/lib/libc.a(qsort.o)
 .text.trinkle  0x0000000000413777      0x235 0x1 /usr/local/popcorn/x86_64/lib/libc.a(qsort.o)
 .text.cycle    0x00000000004139ac       0x90 0x1 /usr/local/popcorn/x86_64/lib/libc.a(qsort.o)
 .text          0x0000000000413a3c        0x0 0x4 /usr/local/popcorn/x86_64/lib/libc.a(memchr.o)
 ** fill        0x0000000000413a3c        0x4
 .text.memchr   0x0000000000413a40      0x1dd 0x10 /usr/local/popcorn/x86_64/lib/libc.a(memchr.o)
                0x0000000000413a40                memchr
 ** fill        0x0000000000413c1d        0x3
 .text          0x0000000000413c20        0x0 0x4 /usr/local/popcorn/x86_64/lib/libc.a(strcat.o)
 .text.strcat   0x0000000000413c20       0x48 0x10 /usr/local/popcorn/x86_64/lib/libc.a(strcat.o)
                0x0000000000413c20                strcat
 .text          0x0000000000413c68        0x0 0x4 /usr/local/popcorn/x86_64/lib/libc.a(strchr.o)
 ** fill        0x0000000000413c68        0x8
 .text.strchr   0x0000000000413c70       0x5a 0x10 /usr/local/popcorn/x86_64/lib/libc.a(strchr.o)
                0x0000000000413c70                strchr
 ** fill        0x0000000000413cca        0x2
 .text          0x0000000000413ccc        0x0 0x4 /usr/local/popcorn/x86_64/lib/libc.a(strchrnul.o)
 ** fill        0x0000000000413ccc        0x4
 .text.__strchrnul
                0x0000000000413cd0      0x1cc 0x10 /usr/local/popcorn/x86_64/lib/libc.a(strchrnul.o)
                0x0000000000413cd0                __strchrnul
                0x0000000000413cd0                strchrnul
 .text          0x0000000000413e9c        0x0 0x4 /usr/local/popcorn/x86_64/lib/libc.a(strcmp.o)
 ** fill        0x0000000000413e9c        0x4
 .text.strcmp   0x0000000000413ea0       0x7f 0x10 /usr/local/popcorn/x86_64/lib/libc.a(strcmp.o)
                0x0000000000413ea0                strcmp
 ** fill        0x0000000000413f1f        0x1
 .text          0x0000000000413f20        0x0 0x4 /usr/local/popcorn/x86_64/lib/libc.a(strcpy.o)
 .text.strcpy   0x0000000000413f20       0x2e 0x10 /usr/local/popcorn/x86_64/lib/libc.a(strcpy.o)
                0x0000000000413f20                strcpy
 ** fill        0x0000000000413f4e        0x2
 .text          0x0000000000413f50        0x0 0x4 /usr/local/popcorn/x86_64/lib/libc.a(strlen.o)
 .text.strlen   0x0000000000413f50       0xfe 0x10 /usr/local/popcorn/x86_64/lib/libc.a(strlen.o)
                0x0000000000413f50                strlen
 ** fill        0x000000000041404e        0x2
 .text          0x0000000000414050        0x0 0x4 /usr/local/popcorn/x86_64/lib/libc.a(strnlen.o)
 .text.strnlen  0x0000000000414050       0x56 0x10 /usr/local/popcorn/x86_64/lib/libc.a(strnlen.o)
                0x0000000000414050                strnlen
 ** fill        0x00000000004140a6        0x2
 .text          0x00000000004140a8        0x0 0x4 /usr/local/popcorn/x86_64/lib/libc.a(strstr.o)
 ** fill        0x00000000004140a8        0x8
 .text.strstr   0x00000000004140b0      0x13c 0x10 /usr/local/popcorn/x86_64/lib/libc.a(strstr.o)
                0x00000000004140b0                strstr
 ** fill        0x00000000004141ec        0x4
 .text.twobyte_strstr
                0x00000000004141f0       0xe6 0x10 /usr/local/popcorn/x86_64/lib/libc.a(strstr.o)
 ** fill        0x00000000004142d6        0xa
 .text.threebyte_strstr
                0x00000000004142e0       0xf5 0x10 /usr/local/popcorn/x86_64/lib/libc.a(strstr.o)
 ** fill        0x00000000004143d5        0xb
 .text.fourbyte_strstr
                0x00000000004143e0      0x109 0x10 /usr/local/popcorn/x86_64/lib/libc.a(strstr.o)
 ** fill        0x00000000004144e9        0x7
 .text.twoway_strstr
                0x00000000004144f0      0x724 0x10 /usr/local/popcorn/x86_64/lib/libc.a(strstr.o)
 .text          0x0000000000414c14        0x0 0x4 /usr/local/popcorn/x86_64/lib/libc.a(memcpy.o)
 .text.memcpy   0x0000000000414c14       0x32 0x1 /usr/local/popcorn/x86_64/lib/libc.a(memcpy.o)
                0x0000000000414c14                __memcpy_fwd
                0x0000000000414c14                memcpy
 ** fill        0x0000000000414c46        0x2
 .text          0x0000000000414c48        0x0 0x4 /usr/local/popcorn/x86_64/lib/libc.a(memset.o)
 .text.memset   0x0000000000414c48       0xc4 0x1 /usr/local/popcorn/x86_64/lib/libc.a(memset.o)
                0x0000000000414c48                memset
 .text          0x0000000000414d0c        0x0 0x4 /usr/local/popcorn/x86_64/lib/libc.a(__lock.o)
 .text.__lock   0x0000000000414d0c       0x47 0x1 /usr/local/popcorn/x86_64/lib/libc.a(__lock.o)
                0x0000000000414d0c                __lock
 .text.__unlock
                0x0000000000414d53       0x3d 0x1 /usr/local/popcorn/x86_64/lib/libc.a(__lock.o)
                0x0000000000414d53                __unlock
 .text          0x0000000000414d90        0x0 0x4 /usr/local/popcorn/x86_64/lib/libc.a(__wait.o)
 .text.__wait   0x0000000000414d90       0x76 0x1 /usr/local/popcorn/x86_64/lib/libc.a(__wait.o)
                0x0000000000414d90                __wait
 ** fill        0x0000000000414e06        0x2
 .text          0x0000000000414e08        0x0 0x4 /usr/local/popcorn/x86_64/lib/libc.a(gettimeofday.o)
 .text.gettimeofday
                0x0000000000414e08       0x46 0x1 /usr/local/popcorn/x86_64/lib/libc.a(gettimeofday.o)
                0x0000000000414e08                gettimeofday
 ** fill        0x0000000000414e4e        0x2
 .text          0x0000000000414e50        0x0 0x4 /usr/local/popcorn/x86_64/lib/libc.a(unlink.o)
 .text.unlink   0x0000000000414e50        0xf 0x1 /usr/local/popcorn/x86_64/lib/libc.a(unlink.o)
                0x0000000000414e50                unlink
 ** fill        0x0000000000414e5f        0x1
 .text          0x0000000000414e60        0x0 0x4 /usr/local/popcorn/x86_64/lib/libc.a(__environ.o)
 .text          0x0000000000414e60        0x0 0x4 /usr/local/popcorn/x86_64/lib/libc.a(__init_tls.o)
 .text.__init_tp
                0x0000000000414e60       0x4e 0x1 /usr/local/popcorn/x86_64/lib/libc.a(__init_tls.o)
                0x0000000000414e60                __init_tp
 .text.__copy_tls
                0x0000000000414eae       0x9e 0x1 /usr/local/popcorn/x86_64/lib/libc.a(__init_tls.o)
                0x0000000000414eae                __copy_tls
 .text.static_init_tls
                0x0000000000414f4c      0x144 0x1 /usr/local/popcorn/x86_64/lib/libc.a(__init_tls.o)
                0x0000000000414f4c                __init_tls
 .text          0x0000000000415090        0x0 0x4 /usr/local/popcorn/x86_64/lib/libc.a(platform.o)
 .text.popcorn_getnid
                0x0000000000415090       0x29 0x1 /usr/local/popcorn/x86_64/lib/libc.a(platform.o)
                0x0000000000415090                popcorn_getnid
 .text.popcorn_getthreadinfo
                0x00000000004150b9        0xf 0x1 /usr/local/popcorn/x86_64/lib/libc.a(platform.o)
                0x00000000004150b9                popcorn_getthreadinfo
 .text.popcorn_getnodeinfo
                0x00000000004150c8       0x78 0x1 /usr/local/popcorn/x86_64/lib/libc.a(platform.o)
                0x00000000004150c8                popcorn_getnodeinfo
 .text          0x0000000000415140        0x0 0x4 /usr/local/popcorn/x86_64/lib/libc.a(strerror.o)
 .text.__strerror_l
                0x0000000000415140       0x44 0x1 /usr/local/popcorn/x86_64/lib/libc.a(strerror.o)
                0x0000000000415140                __strerror_l
                0x0000000000415140                strerror_l
 .text.strerror
                0x0000000000415184       0x15 0x1 /usr/local/popcorn/x86_64/lib/libc.a(strerror.o)
                0x0000000000415184                strerror
 ** fill        0x0000000000415199        0x3
 .text          0x000000000041519c        0x0 0x4 /usr/local/popcorn/x86_64/lib/libc.a(_Exit.o)
 .text._Exit    0x000000000041519c       0x13 0x1 /usr/local/popcorn/x86_64/lib/libc.a(_Exit.o)
                0x000000000041519c                _Exit
 ** fill        0x00000000004151af        0x1
 .text          0x00000000004151b0        0x0 0x4 /usr/local/popcorn/x86_64/lib/libc.a(floatscan.o)
 .text.__floatscan
                0x00000000004151b0      0x704 0x10 /usr/local/popcorn/x86_64/lib/libc.a(floatscan.o)
                0x00000000004151b0                __floatscan
 ** fill        0x00000000004158b4        0xc
 .text.__isspace
                0x00000000004158c0       0x2f 0x10 /usr/local/popcorn/x86_64/lib/libc.a(floatscan.o)
 ** fill        0x00000000004158ef        0x1
 .text.hexfloat
                0x00000000004158f0      0x86e 0x10 /usr/local/popcorn/x86_64/lib/libc.a(floatscan.o)
 ** fill        0x000000000041615e        0x2
 .text.decfloat
                0x0000000000416160     0x145b 0x10 /usr/local/popcorn/x86_64/lib/libc.a(floatscan.o)
 ** fill        0x00000000004175bb        0x5
 .text.scanexp  0x00000000004175c0      0x369 0x10 /usr/local/popcorn/x86_64/lib/libc.a(floatscan.o)
 ** fill        0x0000000000417929        0x3
 .text          0x000000000041792c        0x0 0x4 /usr/local/popcorn/x86_64/lib/libc.a(intscan.o)
 ** fill        0x000000000041792c        0x4
 .text.__intscan
                0x0000000000417930      0x9b1 0x10 /usr/local/popcorn/x86_64/lib/libc.a(intscan.o)
                0x0000000000417930                __intscan
 ** fill        0x00000000004182e1        0xf
 .text.__isspace
                0x00000000004182f0       0x2f 0x10 /usr/local/popcorn/x86_64/lib/libc.a(intscan.o)
 ** fill        0x000000000041831f        0x1
 .text          0x0000000000418320        0x0 0x4 /usr/local/popcorn/x86_64/lib/libc.a(shgetc.o)
 .text.__shlim  0x0000000000418320       0x8a 0x10 /usr/local/popcorn/x86_64/lib/libc.a(shgetc.o)
                0x0000000000418320                __shlim
 ** fill        0x00000000004183aa        0x6
 .text.__shgetc
                0x00000000004183b0      0x166 0x10 /usr/local/popcorn/x86_64/lib/libc.a(shgetc.o)
                0x00000000004183b0                __shgetc
 ** fill        0x0000000000418516        0x2
 .text          0x0000000000418518        0x0 0x4 /usr/local/popcorn/x86_64/lib/libc.a(syscall_ret.o)
 ** fill        0x0000000000418518        0x8
 .text.__syscall_ret
                0x0000000000418520       0x50 0x10 /usr/local/popcorn/x86_64/lib/libc.a(syscall_ret.o)
                0x0000000000418520                __syscall_ret
 .text          0x0000000000418570        0x0 0x4 /usr/local/popcorn/x86_64/lib/libc.a(__lctrans.o)
 .text.dummy    0x0000000000418570        0x4 0x1 /usr/local/popcorn/x86_64/lib/libc.a(__lctrans.o)
                0x0000000000418570                __lctrans_impl
 .text.__lctrans
                0x0000000000418574        0x5 0x1 /usr/local/popcorn/x86_64/lib/libc.a(__lctrans.o)
                0x0000000000418574                __lctrans
 .text.__lctrans_cur
                0x0000000000418579       0x19 0x1 /usr/local/popcorn/x86_64/lib/libc.a(__lctrans.o)
                0x0000000000418579                __lctrans_cur
 ** fill        0x0000000000418592        0x2
 .text          0x0000000000418594        0x0 0x4 /usr/local/popcorn/x86_64/lib/libc.a(expand_heap.o)
 ** fill        0x0000000000418594        0xc
 .text.__expand_heap
                0x00000000004185a0      0x200 0x10 /usr/local/popcorn/x86_64/lib/libc.a(expand_heap.o)
                0x00000000004185a0                __expand_heap
 .text.__syscall1
                0x00000000004187a0       0x20 0x10 /usr/local/popcorn/x86_64/lib/libc.a(expand_heap.o)
 .text.traverses_stack_p
                0x00000000004187c0       0xf0 0x10 /usr/local/popcorn/x86_64/lib/libc.a(expand_heap.o)
 .text.__expand_heap_node
                0x00000000004188b0      0x219 0x10 /usr/local/popcorn/x86_64/lib/libc.a(expand_heap.o)
                0x00000000004188b0                __expand_heap_node
 ** fill        0x0000000000418ac9        0x7
 .text.popcorn_get_arena
                0x0000000000418ad0       0x4f 0x10 /usr/local/popcorn/x86_64/lib/libc.a(expand_heap.o)
                0x0000000000418ad0                popcorn_get_arena
 ** fill        0x0000000000418b1f        0x1
 .text.set_arena_start
                0x0000000000418b20      0x122 0x10 /usr/local/popcorn/x86_64/lib/libc.a(expand_heap.o)
 ** fill        0x0000000000418c42        0xe
 .text.a_swap   0x0000000000418c50       0x1c 0x10 /usr/local/popcorn/x86_64/lib/libc.a(expand_heap.o)
 ** fill        0x0000000000418c6c        0x4
 .text.a_store  0x0000000000418c70       0x1b 0x10 /usr/local/popcorn/x86_64/lib/libc.a(expand_heap.o)
 ** fill        0x0000000000418c8b        0x5
 .text.__wake   0x0000000000418c90       0x8b 0x10 /usr/local/popcorn/x86_64/lib/libc.a(expand_heap.o)
 ** fill        0x0000000000418d1b        0x5
 .text.__syscall3
                0x0000000000418d20       0x30 0x10 /usr/local/popcorn/x86_64/lib/libc.a(expand_heap.o)
 .text          0x0000000000418d50        0x0 0x4 /usr/local/popcorn/x86_64/lib/libc.a(__fpclassifyl.o)
 .text.__fpclassifyl
                0x0000000000418d50       0x55 0x1 /usr/local/popcorn/x86_64/lib/libc.a(__fpclassifyl.o)
                0x0000000000418d50                __fpclassifyl
 ** fill        0x0000000000418da5        0x3
 .text          0x0000000000418da8        0x0 0x4 /usr/local/popcorn/x86_64/lib/libc.a(__signbitl.o)
 .text.__signbitl
                0x0000000000418da8        0xa 0x1 /usr/local/popcorn/x86_64/lib/libc.a(__signbitl.o)
                0x0000000000418da8                __signbitl
 ** fill        0x0000000000418db2        0x2
 .text          0x0000000000418db4        0x0 0x4 /usr/local/popcorn/x86_64/lib/libc.a(copysignl.o)
 .text.copysignl
                0x0000000000418db4       0x2c 0x1 /usr/local/popcorn/x86_64/lib/libc.a(copysignl.o)
                0x0000000000418db4                copysignl
 .text          0x0000000000418de0        0x0 0x4 /usr/local/popcorn/x86_64/lib/libc.a(frexpl.o)
 .text.frexpl   0x0000000000418de0       0x80 0x1 /usr/local/popcorn/x86_64/lib/libc.a(frexpl.o)
                0x0000000000418de0                frexpl
 .text          0x0000000000418e60        0x0 0x4 /usr/local/popcorn/x86_64/lib/libc.a(scalbnl.o)
 .text.scalbnl  0x0000000000418e60       0x93 0x1 /usr/local/popcorn/x86_64/lib/libc.a(scalbnl.o)
                0x0000000000418e60                scalbnl
 ** fill        0x0000000000418ef3        0x1
 .text          0x0000000000418ef4        0x0 0x4 /usr/local/popcorn/x86_64/lib/libc.a(fmodl.o)
 .text.fmodl    0x0000000000418ef4       0x14 0x1 /usr/local/popcorn/x86_64/lib/libc.a(fmodl.o)
                0x0000000000418ef4                fmodl
 .text          0x0000000000418f08        0x0 0x4 /usr/local/popcorn/x86_64/lib/libc.a(mbrtowc.o)
 .text.mbrtowc  0x0000000000418f08      0x134 0x1 /usr/local/popcorn/x86_64/lib/libc.a(mbrtowc.o)
                0x0000000000418f08                mbrtowc
 .text          0x000000000041903c        0x0 0x4 /usr/local/popcorn/x86_64/lib/libc.a(mbsinit.o)
 .text.mbsinit  0x000000000041903c       0x11 0x1 /usr/local/popcorn/x86_64/lib/libc.a(mbsinit.o)
                0x000000000041903c                mbsinit
 ** fill        0x000000000041904d        0x3
 .text          0x0000000000419050        0x0 0x4 /usr/local/popcorn/x86_64/lib/libc.a(wctomb.o)
 .text.wctomb   0x0000000000419050       0x11 0x1 /usr/local/popcorn/x86_64/lib/libc.a(wctomb.o)
                0x0000000000419050                wctomb
 ** fill        0x0000000000419061        0x3
 .text          0x0000000000419064        0x0 0x4 /usr/local/popcorn/x86_64/lib/libc.a(__fdopen.o)
 .text.__fdopen
                0x0000000000419064      0x182 0x1 /usr/local/popcorn/x86_64/lib/libc.a(__fdopen.o)
                0x0000000000419064                __fdopen
                0x0000000000419064                fdopen
 ** fill        0x00000000004191e6        0x2
 .text          0x00000000004191e8        0x0 0x4 /usr/local/popcorn/x86_64/lib/libc.a(__fmodeflags.o)
 .text.__fmodeflags
                0x00000000004191e8       0x8d 0x1 /usr/local/popcorn/x86_64/lib/libc.a(__fmodeflags.o)
                0x00000000004191e8                __fmodeflags
 ** fill        0x0000000000419275        0x3
 .text          0x0000000000419278        0x0 0x4 /usr/local/popcorn/x86_64/lib/libc.a(__lockfile.o)
 .text.__lockfile
                0x0000000000419278       0x72 0x1 /usr/local/popcorn/x86_64/lib/libc.a(__lockfile.o)
                0x0000000000419278                __lockfile
 .text.__unlockfile
                0x00000000004192ea       0x46 0x1 /usr/local/popcorn/x86_64/lib/libc.a(__lockfile.o)
                0x00000000004192ea                __unlockfile
 .text          0x0000000000419330        0x0 0x4 /usr/local/popcorn/x86_64/lib/libc.a(__stdio_close.o)
 .text.dummy    0x0000000000419330        0x3 0x1 /usr/local/popcorn/x86_64/lib/libc.a(__stdio_close.o)
                0x0000000000419330                __aio_close
 .text.__stdio_close
                0x0000000000419333       0x1c 0x1 /usr/local/popcorn/x86_64/lib/libc.a(__stdio_close.o)
                0x0000000000419333                __stdio_close
 ** fill        0x000000000041934f        0x1
 .text          0x0000000000419350        0x0 0x4 /usr/local/popcorn/x86_64/lib/libc.a(__stdio_read.o)
 .text.__stdio_read
                0x0000000000419350       0xb1 0x1 /usr/local/popcorn/x86_64/lib/libc.a(__stdio_read.o)
                0x0000000000419350                __stdio_read
 ** fill        0x0000000000419401        0x3
 .text          0x0000000000419404        0x0 0x4 /usr/local/popcorn/x86_64/lib/libc.a(__stdio_seek.o)
 .text.__stdio_seek
                0x0000000000419404       0x16 0x1 /usr/local/popcorn/x86_64/lib/libc.a(__stdio_seek.o)
                0x0000000000419404                __stdio_seek
 ** fill        0x000000000041941a        0x2
 .text          0x000000000041941c        0x0 0x4 /usr/local/popcorn/x86_64/lib/libc.a(__stdio_write.o)
 .text.__stdio_write
                0x000000000041941c      0x116 0x1 /usr/local/popcorn/x86_64/lib/libc.a(__stdio_write.o)
                0x000000000041941c                __stdio_write
 ** fill        0x0000000000419532        0x2
 .text          0x0000000000419534        0x0 0x4 /usr/local/popcorn/x86_64/lib/libc.a(__stdout_write.o)
 .text.__stdout_write
                0x0000000000419534       0x49 0x1 /usr/local/popcorn/x86_64/lib/libc.a(__stdout_write.o)
                0x0000000000419534                __stdout_write
 ** fill        0x000000000041957d        0x3
 .text          0x0000000000419580        0x0 0x4 /usr/local/popcorn/x86_64/lib/libc.a(__string_read.o)
 .text.__string_read
                0x0000000000419580       0x79 0x1 /usr/local/popcorn/x86_64/lib/libc.a(__string_read.o)
                0x0000000000419580                __string_read
 ** fill        0x00000000004195f9        0x3
 .text          0x00000000004195fc        0x0 0x4 /usr/local/popcorn/x86_64/lib/libc.a(__toread.o)
 .text.__toread
                0x00000000004195fc       0x6f 0x1 /usr/local/popcorn/x86_64/lib/libc.a(__toread.o)
                0x00000000004195fc                __toread
 .text.__toread_needs_stdio_exit
                0x000000000041966b        0x5 0x1 /usr/local/popcorn/x86_64/lib/libc.a(__toread.o)
                0x000000000041966b                __toread_needs_stdio_exit
 .text          0x0000000000419670        0x0 0x4 /usr/local/popcorn/x86_64/lib/libc.a(__towrite.o)
 .text.__towrite
                0x0000000000419670       0x41 0x1 /usr/local/popcorn/x86_64/lib/libc.a(__towrite.o)
                0x0000000000419670                __towrite
 .text.__towrite_needs_stdio_exit
                0x00000000004196b1        0x5 0x1 /usr/local/popcorn/x86_64/lib/libc.a(__towrite.o)
                0x00000000004196b1                __towrite_needs_stdio_exit
 ** fill        0x00000000004196b6        0x2
 .text          0x00000000004196b8        0x0 0x4 /usr/local/popcorn/x86_64/lib/libc.a(__uflow.o)
 .text.__uflow  0x00000000004196b8       0x38 0x1 /usr/local/popcorn/x86_64/lib/libc.a(__uflow.o)
                0x00000000004196b8                __uflow
 .text          0x00000000004196f0        0x0 0x4 /usr/local/popcorn/x86_64/lib/libc.a(ofl_add.o)
 .text.__ofl_add
                0x00000000004196f0       0x29 0x1 /usr/local/popcorn/x86_64/lib/libc.a(ofl_add.o)
                0x00000000004196f0                __ofl_add
 ** fill        0x0000000000419719        0x3
 .text          0x000000000041971c        0x0 0x4 /usr/local/popcorn/x86_64/lib/libc.a(vsnprintf.o)
 .text.vsnprintf
                0x000000000041971c       0xcb 0x1 /usr/local/popcorn/x86_64/lib/libc.a(vsnprintf.o)
                0x000000000041971c                vsnprintf
 .text.sn_write
                0x00000000004197e7       0xb7 0x1 /usr/local/popcorn/x86_64/lib/libc.a(vsnprintf.o)
 ** fill        0x000000000041989e        0x2
 .text          0x00000000004198a0        0x0 0x4 /usr/local/popcorn/x86_64/lib/libc.a(memcmp.o)
 .text.memcmp   0x00000000004198a0       0xba 0x10 /usr/local/popcorn/x86_64/lib/libc.a(memcmp.o)
                0x00000000004198a0                memcmp
 ** fill        0x000000000041995a        0x2
 .text          0x000000000041995c        0x0 0x4 /usr/local/popcorn/x86_64/lib/libc.a(stpcpy.o)
 ** fill        0x000000000041995c        0x4
 .text.__stpcpy
                0x0000000000419960      0x15f 0x10 /usr/local/popcorn/x86_64/lib/libc.a(stpcpy.o)
                0x0000000000419960                __stpcpy
                0x0000000000419960                stpcpy
 ** fill        0x0000000000419abf        0x1
 .text          0x0000000000419ac0        0x0 0x4 /usr/local/popcorn/x86_64/lib/libc.a(__set_thread_area.o)
 .text.__set_thread_area
                0x0000000000419ac0       0x10 0x1 /usr/local/popcorn/x86_64/lib/libc.a(__set_thread_area.o)
                0x0000000000419ac0                __set_thread_area
 .text          0x0000000000419ad0        0x0 0x4 /usr/local/popcorn/x86_64/lib/libc.a(clock_gettime.o)
 .text.__clock_gettime
                0x0000000000419ad0       0x56 0x1 /usr/local/popcorn/x86_64/lib/libc.a(clock_gettime.o)
                0x0000000000419ad0                __clock_gettime
                0x0000000000419ad0                clock_gettime
 ** fill        0x0000000000419b26        0x2
 .text          0x0000000000419b28        0x0 0x4 /usr/local/popcorn/x86_64/lib/libc.a(internal.o)
 .text          0x0000000000419b28        0x0 0x4 /usr/local/popcorn/x86_64/lib/libc.a(wcrtomb.o)
 .text.wcrtomb  0x0000000000419b28      0x118 0x1 /usr/local/popcorn/x86_64/lib/libc.a(wcrtomb.o)
                0x0000000000419b28                wcrtomb
 .text          0x0000000000419c40        0x0 0x4 /usr/local/popcorn/x86_64/lib/libc.a(__stdio_exit.o)
 .text.__stdio_exit
                0x0000000000419c40       0x35 0x1 /usr/local/popcorn/x86_64/lib/libc.a(__stdio_exit.o)
                0x0000000000419c40                __stdio_exit
                0x0000000000419c40                __stdio_exit_needed
 .text.close_file
                0x0000000000419c75       0x45 0x1 /usr/local/popcorn/x86_64/lib/libc.a(__stdio_exit.o)
 ** fill        0x0000000000419cba        0x2
 .text          0x0000000000419cbc        0x0 0x4 /usr/local/popcorn/x86_64/lib/libmigrate.a(migrate.o)
 ** fill        0x0000000000419cbc        0x4
 .text.node_available
                0x0000000000419cc0       0x27 0x10 /usr/local/popcorn/x86_64/lib/libmigrate.a(migrate.o)
                0x0000000000419cc0                node_available
 ** fill        0x0000000000419ce7        0x9
 .text.current_arch
                0x0000000000419cf0       0x37 0x10 /usr/local/popcorn/x86_64/lib/libmigrate.a(migrate.o)
                0x0000000000419cf0                current_arch
 ** fill        0x0000000000419d27        0x9
 .text.current_nid
                0x0000000000419d30        0xd 0x10 /usr/local/popcorn/x86_64/lib/libmigrate.a(migrate.o)
                0x0000000000419d30                current_nid
 ** fill        0x0000000000419d3d        0x3
 .text.__init_nodes_info
                0x0000000000419d40       0x2b 0x10 /usr/local/popcorn/x86_64/lib/libmigrate.a(migrate.o)
                0x0000000000419d40                __init_nodes_info
 ** fill        0x0000000000419d6b        0x5
 .text.__migrate_shim_internal
                0x0000000000419d70      0x576 0x10 /usr/local/popcorn/x86_64/lib/libmigrate.a(migrate.o)
                0x0000000000419d70                __migrate_shim_internal
 ** fill        0x000000000041a2e6        0xa
 .text.check_migrate
                0x000000000041a2f0       0x58 0x10 /usr/local/popcorn/x86_64/lib/libmigrate.a(migrate.o)
                0x000000000041a2f0                check_migrate
 ** fill        0x000000000041a348        0x8
 .text.migrate  0x000000000041a350       0x39 0x10 /usr/local/popcorn/x86_64/lib/libmigrate.a(migrate.o)
                0x000000000041a350                migrate
 ** fill        0x000000000041a389        0x7
 .text.migrate_schedule
                0x000000000041a390       0x3e 0x10 /usr/local/popcorn/x86_64/lib/libmigrate.a(migrate.o)
                0x000000000041a390                migrate_schedule
 ** fill        0x000000000041a3ce        0x2
 .text.get_call_site
                0x000000000041a3d0        0xa 0x10 /usr/local/popcorn/x86_64/lib/libmigrate.a(migrate.o)
 .text          0x000000000041a3da        0x0 0x1 /usr/local/popcorn/x86_64/lib/libmigrate.a(migrate_aarch64.o)
 ** fill        0x000000000041a3da        0x2
 .text.__migrate_fixup_aarch64
                0x000000000041a3dc        0x0 0x4 /usr/local/popcorn/x86_64/lib/libmigrate.a(migrate_aarch64.o)
                0x000000000041a3dc                __migrate_fixup_aarch64
 .text          0x000000000041a3dc        0x0 0x1 /usr/local/popcorn/x86_64/lib/libmigrate.a(migrate_powerpc64.o)
 .text.__migrate_fixup_powerpc64
                0x000000000041a3dc        0x0 0x4 /usr/local/popcorn/x86_64/lib/libmigrate.a(migrate_powerpc64.o)
                0x000000000041a3dc                __migrate_fixup_powerpc64
 .text          0x000000000041a3dc        0x0 0x1 /usr/local/popcorn/x86_64/lib/libmigrate.a(migrate_x86_64.o)
 .text.__migrate_fixup_x86_64
                0x000000000041a3dc       0x69 0x1 /usr/local/popcorn/x86_64/lib/libmigrate.a(migrate_x86_64.o)
                0x000000000041a3dc                __migrate_fixup_x86_64
 ** fill        0x000000000041a445        0x3
 .text          0x000000000041a448        0x0 0x4 /usr/local/popcorn/x86_64/lib/libmigrate.a(mapping.o)
 ** fill        0x000000000041a448        0x8
 .text.set_default_node
                0x000000000041a450        0xd 0x10 /usr/local/popcorn/x86_64/lib/libmigrate.a(mapping.o)
                0x000000000041a450                set_default_node
 ** fill        0x000000000041a45d        0x3
 .text.cleanup  0x000000000041a460       0x9c 0x10 /usr/local/popcorn/x86_64/lib/libmigrate.a(mapping.o)
 ** fill        0x000000000041a4fc        0x4
 .text.region_compare
                0x000000000041a500       0x27 0x10 /usr/local/popcorn/x86_64/lib/libmigrate.a(mapping.o)
                0x000000000041a500                region_compare
 ** fill        0x000000000041a527        0x9
 .text.read_mapping_schedule
                0x000000000041a530      0x343 0x10 /usr/local/popcorn/x86_64/lib/libmigrate.a(mapping.o)
 ** fill        0x000000000041a873        0xd
 .text.region_find
                0x000000000041a880       0x27 0x10 /usr/local/popcorn/x86_64/lib/libmigrate.a(mapping.o)
                0x000000000041a880                region_find
 ** fill        0x000000000041a8a7        0x9
 .text.get_node_mapping
                0x000000000041a8b0       0x86 0x10 /usr/local/popcorn/x86_64/lib/libmigrate.a(mapping.o)
                0x000000000041a8b0                get_node_mapping
 ** fill        0x000000000041a936        0x2
 .text          0x000000000041a938        0x0 0x4 /usr/local/popcorn/x86_64/lib/libstack-transform.a(userspace.o)
 ** fill        0x000000000041a938        0x8
 .text.__st_userspace_ctor
                0x000000000041a940      0x3a1 0x10 /usr/local/popcorn/x86_64/lib/libstack-transform.a(userspace.o)
                0x000000000041a940                __st_userspace_ctor
 ** fill        0x000000000041ace1        0xf
 .text.__st_userspace_dtor
                0x000000000041acf0       0x8e 0x10 /usr/local/popcorn/x86_64/lib/libstack-transform.a(userspace.o)
                0x000000000041acf0                __st_userspace_dtor
 ** fill        0x000000000041ad7e        0x2
 .text.get_stack_bounds
                0x000000000041ad80       0xc2 0x10 /usr/local/popcorn/x86_64/lib/libstack-transform.a(userspace.o)
                0x000000000041ad80                get_stack_bounds
 ** fill        0x000000000041ae42        0xe
 .text.st_userspace_rewrite
                0x000000000041ae50      0x15d 0x10 /usr/local/popcorn/x86_64/lib/libstack-transform.a(userspace.o)
                0x000000000041ae50                st_userspace_rewrite
 ** fill        0x000000000041afad        0x3
 .text          0x000000000041afb0        0x0 0x4 /usr/local/popcorn/x86_64/lib/libstack-transform.a(init.o)
 .text.__st_ctor
                0x000000000041afb0        0x5 0x10 /usr/local/popcorn/x86_64/lib/libstack-transform.a(init.o)
 ** fill        0x000000000041afb5        0xb
 .text.__st_dtor
                0x000000000041afc0        0x5 0x10 /usr/local/popcorn/x86_64/lib/libstack-transform.a(init.o)
                0x000000000041afc0                __st_dtor
 ** fill        0x000000000041afc5        0xb
 .text.st_init  0x000000000041afd0      0x212 0x10 /usr/local/popcorn/x86_64/lib/libstack-transform.a(init.o)
                0x000000000041afd0                st_init
 ** fill        0x000000000041b1e2        0xe
 .text.st_destroy
                0x000000000041b1f0       0x24 0x10 /usr/local/popcorn/x86_64/lib/libstack-transform.a(init.o)
                0x000000000041b1f0                st_destroy
 .text          0x000000000041b214        0x0 0x4 /usr/local/popcorn/x86_64/lib/libstack-transform.a(rewrite.o)
 ** fill        0x000000000041b214        0xc
 .text.st_rewrite_stack
                0x000000000041b220      0x7c6 0x10 /usr/local/popcorn/x86_64/lib/libstack-transform.a(rewrite.o)
                0x000000000041b220                st_rewrite_stack
 ** fill        0x000000000041b9e6        0xa
 .text.rewrite_frame
                0x000000000041b9f0      0x482 0x10 /usr/local/popcorn/x86_64/lib/libstack-transform.a(rewrite.o)
 ** fill        0x000000000041be72        0xe
 .text.st_rewrite_ondemand
                0x000000000041be80       0x26 0x10 /usr/local/popcorn/x86_64/lib/libstack-transform.a(rewrite.o)
                0x000000000041be80                st_rewrite_ondemand
 ** fill        0x000000000041bea6        0xa
 .text.rewrite_val
                0x000000000041beb0      0x2ad 0x10 /usr/local/popcorn/x86_64/lib/libstack-transform.a(rewrite.o)
 ** fill        0x000000000041c15d        0x3
 .text          0x000000000041c160        0x0 0x4 /usr/local/popcorn/x86_64/lib/libstack-transform.a(unwind.o)
 .text.first_frame
                0x000000000041c160        0x8 0x10 /usr/local/popcorn/x86_64/lib/libstack-transform.a(unwind.o)
                0x000000000041c160                first_frame
 ** fill        0x000000000041c168        0x8
 .text.calculate_cfa
                0x000000000041c170       0x2d 0x10 /usr/local/popcorn/x86_64/lib/libstack-transform.a(unwind.o)
                0x000000000041c170                calculate_cfa
 ** fill        0x000000000041c19d        0x3
 .text.bootstrap_first_frame
                0x000000000041c1a0       0x2d 0x10 /usr/local/popcorn/x86_64/lib/libstack-transform.a(unwind.o)
                0x000000000041c1a0                bootstrap_first_frame
 ** fill        0x000000000041c1cd        0x3
 .text.bootstrap_first_frame_funcentry
                0x000000000041c1d0       0x4b 0x10 /usr/local/popcorn/x86_64/lib/libstack-transform.a(unwind.o)
                0x000000000041c1d0                bootstrap_first_frame_funcentry
 ** fill        0x000000000041c21b        0x5
 .text.pop_frame
                0x000000000041c220      0x1ee 0x10 /usr/local/popcorn/x86_64/lib/libstack-transform.a(unwind.o)
                0x000000000041c220                pop_frame
 ** fill        0x000000000041c40e        0x2
 .text.pop_frame_funcentry
                0x000000000041c410      0x13e 0x10 /usr/local/popcorn/x86_64/lib/libstack-transform.a(unwind.o)
                0x000000000041c410                pop_frame_funcentry
 ** fill        0x000000000041c54e        0x2
 .text.get_register_save_loc
                0x000000000041c550       0x61 0x10 /usr/local/popcorn/x86_64/lib/libstack-transform.a(unwind.o)
                0x000000000041c550                get_register_save_loc
 ** fill        0x000000000041c5b1        0xf
 .text.clear_activation
                0x000000000041c5c0       0x48 0x10 /usr/local/popcorn/x86_64/lib/libstack-transform.a(unwind.o)
                0x000000000041c5c0                clear_activation
 .text          0x000000000041c608        0x0 0x4 /usr/local/popcorn/x86_64/lib/libstack-transform.a(util.o)
 ** fill        0x000000000041c608        0x8
 .text.arch_name
                0x000000000041c610       0x29 0x10 /usr/local/popcorn/x86_64/lib/libstack-transform.a(util.o)
                0x000000000041c610                arch_name
 ** fill        0x000000000041c639        0x7
 .text.get_regops
                0x000000000041c640       0x26 0x10 /usr/local/popcorn/x86_64/lib/libstack-transform.a(util.o)
                0x000000000041c640                get_regops
 ** fill        0x000000000041c666        0xa
 .text.get_properties
                0x000000000041c670       0x26 0x10 /usr/local/popcorn/x86_64/lib/libstack-transform.a(util.o)
                0x000000000041c670                get_properties
 ** fill        0x000000000041c696        0xa
 .text.get_section
                0x000000000041c6a0       0xae 0x10 /usr/local/popcorn/x86_64/lib/libstack-transform.a(util.o)
                0x000000000041c6a0                get_section
 ** fill        0x000000000041c74e        0x2
 .text.get_num_entries
                0x000000000041c750       0x4f 0x10 /usr/local/popcorn/x86_64/lib/libstack-transform.a(util.o)
                0x000000000041c750                get_num_entries
 ** fill        0x000000000041c79f        0x1
 .text.get_section_data
                0x000000000041c7a0       0x26 0x10 /usr/local/popcorn/x86_64/lib/libstack-transform.a(util.o)
                0x000000000041c7a0                get_section_data
 ** fill        0x000000000041c7c6        0xa
 .text.get_site_by_addr
                0x000000000041c7d0       0x7a 0x10 /usr/local/popcorn/x86_64/lib/libstack-transform.a(util.o)
                0x000000000041c7d0                get_site_by_addr
 ** fill        0x000000000041c84a        0x6
 .text.get_site_by_id
                0x000000000041c850       0x70 0x10 /usr/local/popcorn/x86_64/lib/libstack-transform.a(util.o)
                0x000000000041c850                get_site_by_id
 .text.get_unwind_offset_by_addr
                0x000000000041c8c0       0x8c 0x10 /usr/local/popcorn/x86_64/lib/libstack-transform.a(util.o)
                0x000000000041c8c0                get_unwind_offset_by_addr
 ** fill        0x000000000041c94c        0x4
 .text.get_function_address
                0x000000000041c950       0x80 0x10 /usr/local/popcorn/x86_64/lib/libstack-transform.a(util.o)
                0x000000000041c950                get_function_address
 .text          0x000000000041c9d0        0x0 0x4 /usr/local/popcorn/x86_64/lib/libstack-transform.a(properties.o)
 .text.align_sp_aarch64
                0x000000000041c9d0        0xc 0x10 /usr/local/popcorn/x86_64/lib/libstack-transform.a(properties.o)
 ** fill        0x000000000041c9dc        0x4
 .text.is_callee_saved_aarch64
                0x000000000041c9e0       0x1f 0x10 /usr/local/popcorn/x86_64/lib/libstack-transform.a(properties.o)
 ** fill        0x000000000041c9ff        0x1
 .text.callee_reg_size_aarch64
                0x000000000041ca00       0x41 0x10 /usr/local/popcorn/x86_64/lib/libstack-transform.a(properties.o)
 ** fill        0x000000000041ca41        0x3
 .text          0x000000000041ca44        0x0 0x4 /usr/local/popcorn/x86_64/lib/libstack-transform.a(regs.o)
 ** fill        0x000000000041ca44        0xc
 .text.regset_default_aarch64
                0x000000000041ca50        0xf 0x10 /usr/local/popcorn/x86_64/lib/libstack-transform.a(regs.o)
 ** fill        0x000000000041ca5f        0x1
 .text.regset_init_aarch64
                0x000000000041ca60       0x2f 0x10 /usr/local/popcorn/x86_64/lib/libstack-transform.a(regs.o)
 ** fill        0x000000000041ca8f        0x1
 .text.regset_free_aarch64
                0x000000000041ca90        0x5 0x10 /usr/local/popcorn/x86_64/lib/libstack-transform.a(regs.o)
 ** fill        0x000000000041ca95        0xb
 .text.regset_clone_aarch64
                0x000000000041caa0       0x13 0x10 /usr/local/popcorn/x86_64/lib/libstack-transform.a(regs.o)
 ** fill        0x000000000041cab3        0xd
 .text.regset_copyin_aarch64
                0x000000000041cac0        0xa 0x10 /usr/local/popcorn/x86_64/lib/libstack-transform.a(regs.o)
 ** fill        0x000000000041caca        0x6
 .text.regset_copyout_aarch64
                0x000000000041cad0       0x13 0x10 /usr/local/popcorn/x86_64/lib/libstack-transform.a(regs.o)
 ** fill        0x000000000041cae3        0xd
 .text.pc_aarch64
                0x000000000041caf0        0x5 0x10 /usr/local/popcorn/x86_64/lib/libstack-transform.a(regs.o)
 ** fill        0x000000000041caf5        0xb
 .text.sp_aarch64
                0x000000000041cb00        0x4 0x10 /usr/local/popcorn/x86_64/lib/libstack-transform.a(regs.o)
 ** fill        0x000000000041cb04        0xc
 .text.fbp_aarch64
                0x000000000041cb10        0x8 0x10 /usr/local/popcorn/x86_64/lib/libstack-transform.a(regs.o)
 ** fill        0x000000000041cb18        0x8
 .text.ra_reg_aarch64
                0x000000000041cb20        0x8 0x10 /usr/local/popcorn/x86_64/lib/libstack-transform.a(regs.o)
 ** fill        0x000000000041cb28        0x8
 .text.set_pc_aarch64
                0x000000000041cb30        0x5 0x10 /usr/local/popcorn/x86_64/lib/libstack-transform.a(regs.o)
 ** fill        0x000000000041cb35        0xb
 .text.set_sp_aarch64
                0x000000000041cb40        0x4 0x10 /usr/local/popcorn/x86_64/lib/libstack-transform.a(regs.o)
 ** fill        0x000000000041cb44        0xc
 .text.set_fbp_aarch64
                0x000000000041cb50        0x8 0x10 /usr/local/popcorn/x86_64/lib/libstack-transform.a(regs.o)
 ** fill        0x000000000041cb58        0x8
 .text.set_ra_reg_aarch64
                0x000000000041cb60        0x8 0x10 /usr/local/popcorn/x86_64/lib/libstack-transform.a(regs.o)
 ** fill        0x000000000041cb68        0x8
 .text.setup_fbp_aarch64
                0x000000000041cb70        0xc 0x10 /usr/local/popcorn/x86_64/lib/libstack-transform.a(regs.o)
 ** fill        0x000000000041cb7c        0x4
 .text.reg_size_aarch64
                0x000000000041cb80       0x3c 0x10 /usr/local/popcorn/x86_64/lib/libstack-transform.a(regs.o)
 ** fill        0x000000000041cbbc        0x4
 .text.reg_aarch64
                0x000000000041cbc0      0x2cb 0x10 /usr/local/popcorn/x86_64/lib/libstack-transform.a(regs.o)
 ** fill        0x000000000041ce8b        0x1
 .text          0x000000000041ce8c        0x0 0x4 /usr/local/popcorn/x86_64/lib/libstack-transform.a(properties.o)
 ** fill        0x000000000041ce8c        0x4
 .text.align_sp_powerpc64
                0x000000000041ce90       0x14 0x10 /usr/local/popcorn/x86_64/lib/libstack-transform.a(properties.o)
 ** fill        0x000000000041cea4        0xc
 .text.is_callee_saved_powerpc64
                0x000000000041ceb0       0x13 0x10 /usr/local/popcorn/x86_64/lib/libstack-transform.a(properties.o)
 ** fill        0x000000000041cec3        0xd
 .text.callee_reg_size_powerpc64
                0x000000000041ced0       0x38 0x10 /usr/local/popcorn/x86_64/lib/libstack-transform.a(properties.o)
 .text          0x000000000041cf08        0x0 0x4 /usr/local/popcorn/x86_64/lib/libstack-transform.a(regs.o)
 ** fill        0x000000000041cf08        0x8
 .text.regset_default_powerpc64
                0x000000000041cf10        0xf 0x10 /usr/local/popcorn/x86_64/lib/libstack-transform.a(regs.o)
 ** fill        0x000000000041cf1f        0x1
 .text.regset_init_powerpc64
                0x000000000041cf20       0x2f 0x10 /usr/local/popcorn/x86_64/lib/libstack-transform.a(regs.o)
 ** fill        0x000000000041cf4f        0x1
 .text.regset_free_powerpc64
                0x000000000041cf50        0x5 0x10 /usr/local/popcorn/x86_64/lib/libstack-transform.a(regs.o)
 ** fill        0x000000000041cf55        0xb
 .text.regset_clone_powerpc64
                0x000000000041cf60       0x13 0x10 /usr/local/popcorn/x86_64/lib/libstack-transform.a(regs.o)
 ** fill        0x000000000041cf73        0xd
 .text.regset_copyin_powerpc64
                0x000000000041cf80        0xa 0x10 /usr/local/popcorn/x86_64/lib/libstack-transform.a(regs.o)
 ** fill        0x000000000041cf8a        0x6
 .text.regset_copyout_powerpc64
                0x000000000041cf90       0x13 0x10 /usr/local/popcorn/x86_64/lib/libstack-transform.a(regs.o)
 ** fill        0x000000000041cfa3        0xd
 .text.pc_powerpc64
                0x000000000041cfb0        0x4 0x10 /usr/local/popcorn/x86_64/lib/libstack-transform.a(regs.o)
 ** fill        0x000000000041cfb4        0xc
 .text.sp_powerpc64
                0x000000000041cfc0        0x5 0x10 /usr/local/popcorn/x86_64/lib/libstack-transform.a(regs.o)
 ** fill        0x000000000041cfc5        0xb
 .text.fbp_powerpc64
                0x000000000041cfd0        0x8 0x10 /usr/local/popcorn/x86_64/lib/libstack-transform.a(regs.o)
 ** fill        0x000000000041cfd8        0x8
 .text.ra_reg_powerpc64
                0x000000000041cfe0        0x5 0x10 /usr/local/popcorn/x86_64/lib/libstack-transform.a(regs.o)
 ** fill        0x000000000041cfe5        0xb
 .text.set_pc_powerpc64
                0x000000000041cff0        0x4 0x10 /usr/local/popcorn/x86_64/lib/libstack-transform.a(regs.o)
 ** fill        0x000000000041cff4        0xc
 .text.set_sp_powerpc64
                0x000000000041d000        0x5 0x10 /usr/local/popcorn/x86_64/lib/libstack-transform.a(regs.o)
 ** fill        0x000000000041d005        0xb
 .text.set_fbp_powerpc64
                0x000000000041d010        0x8 0x10 /usr/local/popcorn/x86_64/lib/libstack-transform.a(regs.o)
 ** fill        0x000000000041d018        0x8
 .text.set_ra_reg_powerpc64
                0x000000000041d020        0x5 0x10 /usr/local/popcorn/x86_64/lib/libstack-transform.a(regs.o)
 ** fill        0x000000000041d025        0xb
 .text.setup_fbp_powerpc64
                0x000000000041d030        0xc 0x10 /usr/local/popcorn/x86_64/lib/libstack-transform.a(regs.o)
 ** fill        0x000000000041d03c        0x4
 .text.reg_size_powerpc64
                0x000000000041d040       0x44 0x10 /usr/local/popcorn/x86_64/lib/libstack-transform.a(regs.o)
 ** fill        0x000000000041d084        0xc
 .text.reg_powerpc64
                0x000000000041d090      0x2e9 0x10 /usr/local/popcorn/x86_64/lib/libstack-transform.a(regs.o)
 ** fill        0x000000000041d379        0x3
 .text          0x000000000041d37c        0x0 0x4 /usr/local/popcorn/x86_64/lib/libstack-transform.a(properties.o)
 ** fill        0x000000000041d37c        0x4
 .text.align_sp_x86_64
                0x000000000041d380        0xd 0x10 /usr/local/popcorn/x86_64/lib/libstack-transform.a(properties.o)
 ** fill        0x000000000041d38d        0x3
 .text.is_callee_saved_x86_64
                0x000000000041d390       0x19 0x10 /usr/local/popcorn/x86_64/lib/libstack-transform.a(properties.o)
 ** fill        0x000000000041d3a9        0x7
 .text.callee_reg_size_x86_64
                0x000000000041d3b0       0x38 0x10 /usr/local/popcorn/x86_64/lib/libstack-transform.a(properties.o)
 .text          0x000000000041d3e8        0x0 0x4 /usr/local/popcorn/x86_64/lib/libstack-transform.a(regs.o)
 ** fill        0x000000000041d3e8        0x8
 .text.regset_default_x86_64
                0x000000000041d3f0        0xf 0x10 /usr/local/popcorn/x86_64/lib/libstack-transform.a(regs.o)
 ** fill        0x000000000041d3ff        0x1
 .text.regset_init_x86_64
                0x000000000041d400       0x2f 0x10 /usr/local/popcorn/x86_64/lib/libstack-transform.a(regs.o)
 ** fill        0x000000000041d42f        0x1
 .text.regset_free_x86_64
                0x000000000041d430        0x5 0x10 /usr/local/popcorn/x86_64/lib/libstack-transform.a(regs.o)
 ** fill        0x000000000041d435        0xb
 .text.regset_clone_x86_64
                0x000000000041d440       0x13 0x10 /usr/local/popcorn/x86_64/lib/libstack-transform.a(regs.o)
 ** fill        0x000000000041d453        0xd
 .text.regset_copyin_x86_64
                0x000000000041d460        0xa 0x10 /usr/local/popcorn/x86_64/lib/libstack-transform.a(regs.o)
 ** fill        0x000000000041d46a        0x6
 .text.regset_copyout_x86_64
                0x000000000041d470       0x13 0x10 /usr/local/popcorn/x86_64/lib/libstack-transform.a(regs.o)
 ** fill        0x000000000041d483        0xd
 .text.pc_x86_64
                0x000000000041d490        0x4 0x10 /usr/local/popcorn/x86_64/lib/libstack-transform.a(regs.o)
 ** fill        0x000000000041d494        0xc
 .text.sp_x86_64
                0x000000000041d4a0        0x5 0x10 /usr/local/popcorn/x86_64/lib/libstack-transform.a(regs.o)
 ** fill        0x000000000041d4a5        0xb
 .text.fbp_x86_64
                0x000000000041d4b0        0x5 0x10 /usr/local/popcorn/x86_64/lib/libstack-transform.a(regs.o)
 ** fill        0x000000000041d4b5        0xb
 .text.ra_reg_x86_64
                0x000000000041d4c0       0x26 0x10 /usr/local/popcorn/x86_64/lib/libstack-transform.a(regs.o)
 ** fill        0x000000000041d4e6        0xa
 .text.set_pc_x86_64
                0x000000000041d4f0        0x4 0x10 /usr/local/popcorn/x86_64/lib/libstack-transform.a(regs.o)
 ** fill        0x000000000041d4f4        0xc
 .text.set_sp_x86_64
                0x000000000041d500        0x5 0x10 /usr/local/popcorn/x86_64/lib/libstack-transform.a(regs.o)
 ** fill        0x000000000041d505        0xb
 .text.set_fbp_x86_64
                0x000000000041d510        0x5 0x10 /usr/local/popcorn/x86_64/lib/libstack-transform.a(regs.o)
 ** fill        0x000000000041d515        0xb
 .text.set_ra_reg_x86_64
                0x000000000041d520       0x26 0x10 /usr/local/popcorn/x86_64/lib/libstack-transform.a(regs.o)
 ** fill        0x000000000041d546        0xa
 .text.setup_fbp_x86_64
                0x000000000041d550        0x9 0x10 /usr/local/popcorn/x86_64/lib/libstack-transform.a(regs.o)
 ** fill        0x000000000041d559        0x7
 .text.reg_size_x86_64
                0x000000000041d560       0x33 0x10 /usr/local/popcorn/x86_64/lib/libstack-transform.a(regs.o)
 ** fill        0x000000000041d593        0xd
 .text.reg_x86_64
                0x000000000041d5a0      0x154 0x10 /usr/local/popcorn/x86_64/lib/libstack-transform.a(regs.o)
 .text          0x000000000041d6f4        0x0 0x4 /usr/local/popcorn/x86_64/lib/libstack-transform.a(data.o)
 ** fill        0x000000000041d6f4        0xc
 .text.put_val  0x000000000041d700      0x20d 0x10 /usr/local/popcorn/x86_64/lib/libstack-transform.a(data.o)
                0x000000000041d700                put_val
 ** fill        0x000000000041d90d        0x3
 .text.get_dest_loc
                0x000000000041d910       0xab 0x10 /usr/local/popcorn/x86_64/lib/libstack-transform.a(data.o)
 ** fill        0x000000000041d9bb        0x5
 .text.put_val_arch
                0x000000000041d9c0      0x384 0x10 /usr/local/popcorn/x86_64/lib/libstack-transform.a(data.o)
                0x000000000041d9c0                put_val_arch
 ** fill        0x000000000041dd44        0xc
 .text.put_val_data
                0x000000000041dd50       0xeb 0x10 /usr/local/popcorn/x86_64/lib/libstack-transform.a(data.o)
                0x000000000041dd50                put_val_data
 ** fill        0x000000000041de3b        0x5
 .text.points_to_stack
                0x000000000041de40      0x116 0x10 /usr/local/popcorn/x86_64/lib/libstack-transform.a(data.o)
                0x000000000041de40                points_to_stack
 ** fill        0x000000000041df56        0xa
 .text.points_to_data
                0x000000000041df60      0x146 0x10 /usr/local/popcorn/x86_64/lib/libstack-transform.a(data.o)
                0x000000000041df60                points_to_data
 ** fill        0x000000000041e0a6        0xa
 .text.set_return_address
                0x000000000041e0b0       0x1d 0x10 /usr/local/popcorn/x86_64/lib/libstack-transform.a(data.o)
                0x000000000041e0b0                set_return_address
 ** fill        0x000000000041e0cd        0x3
 .text.set_return_address_funcentry
                0x000000000041e0d0       0x39 0x10 /usr/local/popcorn/x86_64/lib/libstack-transform.a(data.o)
                0x000000000041e0d0                set_return_address_funcentry
 ** fill        0x000000000041e109        0x7
 .text.get_savedfbp_loc
                0x000000000041e110       0x6b 0x10 /usr/local/popcorn/x86_64/lib/libstack-transform.a(data.o)
                0x000000000041e110                get_savedfbp_loc
 ** fill        0x000000000041e17b        0x1
 .text          0x000000000041e17c        0x0 0x4 /usr/local/popcorn/x86_64/lib/libelf.a(begin.o)
 ** fill        0x000000000041e17c        0x4
 .text.elf_begin
                0x000000000041e180      0xa21 0x10 /usr/local/popcorn/x86_64/lib/libelf.a(begin.o)
                0x000000000041e180                elf_begin
 ** fill        0x000000000041eba1        0xf
 .text._elf_check_type
                0x000000000041ebb0      0x26e 0x10 /usr/local/popcorn/x86_64/lib/libelf.a(begin.o)
 ** fill        0x000000000041ee1e        0x2
 .text.elf_memory
                0x000000000041ee20       0x8a 0x10 /usr/local/popcorn/x86_64/lib/libelf.a(begin.o)
                0x000000000041ee20                elf_memory
 ** fill        0x000000000041eeaa        0x6
 .text.gelf_getclass
                0x000000000041eeb0       0x1c 0x10 /usr/local/popcorn/x86_64/lib/libelf.a(begin.o)
                0x000000000041eeb0                gelf_getclass
 .text          0x000000000041eecc        0x0 0x4 /usr/local/popcorn/x86_64/lib/libelf.a(end.o)
 ** fill        0x000000000041eecc        0x4
 .text.elf_end  0x000000000041eed0      0x1bc 0x10 /usr/local/popcorn/x86_64/lib/libelf.a(end.o)
                0x000000000041eed0                elf_end
 .text          0x000000000041f08c        0x0 0x4 /usr/local/popcorn/x86_64/lib/libelf.a(getdata.o)
 ** fill        0x000000000041f08c        0x4
 .text.elf_getdata
                0x000000000041f090      0x25e 0x10 /usr/local/popcorn/x86_64/lib/libelf.a(getdata.o)
                0x000000000041f090                elf_getdata
 ** fill        0x000000000041f2ee        0x2
 .text          0x000000000041f2f0        0x0 0x4 /usr/local/popcorn/x86_64/lib/libelf.a(getident.o)
 .text.elf_getident
                0x000000000041f2f0       0x63 0x10 /usr/local/popcorn/x86_64/lib/libelf.a(getident.o)
                0x000000000041f2f0                elf_getident
 ** fill        0x000000000041f353        0x1
 .text          0x000000000041f354        0x0 0x4 /usr/local/popcorn/x86_64/lib/libelf.a(nextscn.o)
 ** fill        0x000000000041f354        0xc
 .text.elf_nextscn
                0x000000000041f360       0x80 0x10 /usr/local/popcorn/x86_64/lib/libelf.a(nextscn.o)
                0x000000000041f360                elf_nextscn
 .text          0x000000000041f3e0        0x0 0x4 /usr/local/popcorn/x86_64/lib/libelf.a(strptr.o)
 .text.elf_strptr
                0x000000000041f3e0      0x17a 0x10 /usr/local/popcorn/x86_64/lib/libelf.a(strptr.o)
                0x000000000041f3e0                elf_strptr
 ** fill        0x000000000041f55a        0x2
 .text          0x000000000041f55c        0x0 0x4 /usr/local/popcorn/x86_64/lib/libelf.a(version.o)
 ** fill        0x000000000041f55c        0x4
 .text.elf_version
                0x000000000041f560       0x5c 0x10 /usr/local/popcorn/x86_64/lib/libelf.a(version.o)
                0x000000000041f560                elf_version
 .text          0x000000000041f5bc        0x0 0x4 /usr/local/popcorn/x86_64/lib/libelf.a(32.getehdr.o)
 ** fill        0x000000000041f5bc        0x4
 .text._elf_getehdr
                0x000000000041f5c0       0x5a 0x10 /usr/local/popcorn/x86_64/lib/libelf.a(32.getehdr.o)
                0x000000000041f5c0                _elf_getehdr
 ** fill        0x000000000041f61a        0x6
 .text.elf32_getehdr
                0x000000000041f620       0x5b 0x10 /usr/local/popcorn/x86_64/lib/libelf.a(32.getehdr.o)
                0x000000000041f620                elf32_getehdr
 ** fill        0x000000000041f67b        0x5
 .text.elf64_getehdr
                0x000000000041f680       0x5b 0x10 /usr/local/popcorn/x86_64/lib/libelf.a(32.getehdr.o)
                0x000000000041f680                elf64_getehdr
 ** fill        0x000000000041f6db        0x1
 .text          0x000000000041f6dc        0x0 0x4 /usr/local/popcorn/x86_64/lib/libelf.a(32.xlatetof.o)
 ** fill        0x000000000041f6dc        0x4
 .text._elf32_xltsize
                0x000000000041f6e0       0x88 0x10 /usr/local/popcorn/x86_64/lib/libelf.a(32.xlatetof.o)
                0x000000000041f6e0                _elf32_xltsize
 ** fill        0x000000000041f768        0x8
 .text.elf32_xlatetom
                0x000000000041f770      0x104 0x10 /usr/local/popcorn/x86_64/lib/libelf.a(32.xlatetof.o)
                0x000000000041f770                elf32_xlatetom
 ** fill        0x000000000041f874        0xc
 .text.elf32_xlatetof
                0x000000000041f880      0x104 0x10 /usr/local/popcorn/x86_64/lib/libelf.a(32.xlatetof.o)
                0x000000000041f880                elf32_xlatetof
 ** fill        0x000000000041f984        0xc
 .text.byte_copy
                0x000000000041f990       0x20 0x10 /usr/local/popcorn/x86_64/lib/libelf.a(32.xlatetof.o)
 .text.addr_32L__tom
                0x000000000041f9b0      0x1a3 0x10 /usr/local/popcorn/x86_64/lib/libelf.a(32.xlatetof.o)
 ** fill        0x000000000041fb53        0xd
 .text.addr_32L__tof
                0x000000000041fb60       0xa1 0x10 /usr/local/popcorn/x86_64/lib/libelf.a(32.xlatetof.o)
 ** fill        0x000000000041fc01        0xf
 .text.dyn_32L11_tom
                0x000000000041fc10       0x77 0x10 /usr/local/popcorn/x86_64/lib/libelf.a(32.xlatetof.o)
 ** fill        0x000000000041fc87        0x9
 .text.dyn_32L11_tof
                0x000000000041fc90       0x63 0x10 /usr/local/popcorn/x86_64/lib/libelf.a(32.xlatetof.o)
 ** fill        0x000000000041fcf3        0xd
 .text.ehdr_32L11_tom
                0x000000000041fd00      0x18b 0x10 /usr/local/popcorn/x86_64/lib/libelf.a(32.xlatetof.o)
 ** fill        0x000000000041fe8b        0x5
 .text.ehdr_32L11_tof
                0x000000000041fe90      0x131 0x10 /usr/local/popcorn/x86_64/lib/libelf.a(32.xlatetof.o)
 ** fill        0x000000000041ffc1        0xf
 .text.half_32L__tom
                0x000000000041ffd0      0x1b4 0x10 /usr/local/popcorn/x86_64/lib/libelf.a(32.xlatetof.o)
 ** fill        0x0000000000420184        0xc
 .text.half_32L__tof
                0x0000000000420190      0x1b9 0x10 /usr/local/popcorn/x86_64/lib/libelf.a(32.xlatetof.o)
 ** fill        0x0000000000420349        0x7
 .text.off_32L__tom
                0x0000000000420350      0x1a3 0x10 /usr/local/popcorn/x86_64/lib/libelf.a(32.xlatetof.o)
 ** fill        0x00000000004204f3        0xd
 .text.off_32L__tof
                0x0000000000420500       0xa1 0x10 /usr/local/popcorn/x86_64/lib/libelf.a(32.xlatetof.o)
 ** fill        0x00000000004205a1        0xf
 .text.phdr_32L11_tom
                0x00000000004205b0      0x147 0x10 /usr/local/popcorn/x86_64/lib/libelf.a(32.xlatetof.o)
 ** fill        0x00000000004206f7        0x9
 .text.phdr_32L11_tof
                0x0000000000420700       0xf7 0x10 /usr/local/popcorn/x86_64/lib/libelf.a(32.xlatetof.o)
 ** fill        0x00000000004207f7        0x9
 .text.rela_32L11_tom
                0x0000000000420800       0xbd 0x10 /usr/local/popcorn/x86_64/lib/libelf.a(32.xlatetof.o)
 ** fill        0x00000000004208bd        0x3
 .text.rela_32L11_tof
                0x00000000004208c0       0x8f 0x10 /usr/local/popcorn/x86_64/lib/libelf.a(32.xlatetof.o)
 ** fill        0x000000000042094f        0x1
 .text.rel_32L11_tom
                0x0000000000420950       0x77 0x10 /usr/local/popcorn/x86_64/lib/libelf.a(32.xlatetof.o)
 ** fill        0x00000000004209c7        0x9
 .text.rel_32L11_tof
                0x00000000004209d0       0x63 0x10 /usr/local/popcorn/x86_64/lib/libelf.a(32.xlatetof.o)
 ** fill        0x0000000000420a33        0xd
 .text.shdr_32L11_tom
                0x0000000000420a40      0x1af 0x10 /usr/local/popcorn/x86_64/lib/libelf.a(32.xlatetof.o)
 ** fill        0x0000000000420bef        0x1
 .text.shdr_32L11_tof
                0x0000000000420bf0      0x13b 0x10 /usr/local/popcorn/x86_64/lib/libelf.a(32.xlatetof.o)
 ** fill        0x0000000000420d2b        0x5
 .text.sword_32L__tom
                0x0000000000420d30      0x1a3 0x10 /usr/local/popcorn/x86_64/lib/libelf.a(32.xlatetof.o)
 ** fill        0x0000000000420ed3        0xd
 .text.sword_32L__tof
                0x0000000000420ee0       0xa1 0x10 /usr/local/popcorn/x86_64/lib/libelf.a(32.xlatetof.o)
 ** fill        0x0000000000420f81        0xf
 .text.sym_32L11_tom
                0x0000000000420f90       0xba 0x10 /usr/local/popcorn/x86_64/lib/libelf.a(32.xlatetof.o)
 ** fill        0x000000000042104a        0x6
 .text.sym_32L11_tof
                0x0000000000421050       0x93 0x10 /usr/local/popcorn/x86_64/lib/libelf.a(32.xlatetof.o)
 ** fill        0x00000000004210e3        0xd
 .text.word_32L__tom
                0x00000000004210f0      0x1a3 0x10 /usr/local/popcorn/x86_64/lib/libelf.a(32.xlatetof.o)
 ** fill        0x0000000000421293        0xd
 .text.word_32L__tof
                0x00000000004212a0       0xa1 0x10 /usr/local/popcorn/x86_64/lib/libelf.a(32.xlatetof.o)
 ** fill        0x0000000000421341        0xf
 .text.addr_32M__tom
                0x0000000000421350      0x193 0x10 /usr/local/popcorn/x86_64/lib/libelf.a(32.xlatetof.o)
 ** fill        0x00000000004214e3        0xd
 .text.addr_32M__tof
                0x00000000004214f0       0x91 0x10 /usr/local/popcorn/x86_64/lib/libelf.a(32.xlatetof.o)
 ** fill        0x0000000000421581        0xf
 .text.dyn_32M11_tom
                0x0000000000421590       0x77 0x10 /usr/local/popcorn/x86_64/lib/libelf.a(32.xlatetof.o)
 ** fill        0x0000000000421607        0x9
 .text.dyn_32M11_tof
                0x0000000000421610       0x63 0x10 /usr/local/popcorn/x86_64/lib/libelf.a(32.xlatetof.o)
 ** fill        0x0000000000421673        0xd
 .text.ehdr_32M11_tom
                0x0000000000421680      0x18b 0x10 /usr/local/popcorn/x86_64/lib/libelf.a(32.xlatetof.o)
 ** fill        0x000000000042180b        0x5
 .text.ehdr_32M11_tof
                0x0000000000421810      0x131 0x10 /usr/local/popcorn/x86_64/lib/libelf.a(32.xlatetof.o)
 ** fill        0x0000000000421941        0xf
 .text.half_32M__tom
                0x0000000000421950      0x1b4 0x10 /usr/local/popcorn/x86_64/lib/libelf.a(32.xlatetof.o)
 ** fill        0x0000000000421b04        0xc
 .text.half_32M__tof
                0x0000000000421b10      0x1b9 0x10 /usr/local/popcorn/x86_64/lib/libelf.a(32.xlatetof.o)
 ** fill        0x0000000000421cc9        0x7
 .text.off_32M__tom
                0x0000000000421cd0      0x193 0x10 /usr/local/popcorn/x86_64/lib/libelf.a(32.xlatetof.o)
 ** fill        0x0000000000421e63        0xd
 .text.off_32M__tof
                0x0000000000421e70       0x91 0x10 /usr/local/popcorn/x86_64/lib/libelf.a(32.xlatetof.o)
 ** fill        0x0000000000421f01        0xf
 .text.phdr_32M11_tom
                0x0000000000421f10      0x147 0x10 /usr/local/popcorn/x86_64/lib/libelf.a(32.xlatetof.o)
 ** fill        0x0000000000422057        0x9
 .text.phdr_32M11_tof
                0x0000000000422060       0xf7 0x10 /usr/local/popcorn/x86_64/lib/libelf.a(32.xlatetof.o)
 ** fill        0x0000000000422157        0x9
 .text.rela_32M11_tom
                0x0000000000422160       0xad 0x10 /usr/local/popcorn/x86_64/lib/libelf.a(32.xlatetof.o)
 ** fill        0x000000000042220d        0x3
 .text.rela_32M11_tof
                0x0000000000422210       0x8f 0x10 /usr/local/popcorn/x86_64/lib/libelf.a(32.xlatetof.o)
 ** fill        0x000000000042229f        0x1
 .text.rel_32M11_tom
                0x00000000004222a0       0x77 0x10 /usr/local/popcorn/x86_64/lib/libelf.a(32.xlatetof.o)
 ** fill        0x0000000000422317        0x9
 .text.rel_32M11_tof
                0x0000000000422320       0x63 0x10 /usr/local/popcorn/x86_64/lib/libelf.a(32.xlatetof.o)
 ** fill        0x0000000000422383        0xd
 .text.shdr_32M11_tom
                0x0000000000422390      0x19f 0x10 /usr/local/popcorn/x86_64/lib/libelf.a(32.xlatetof.o)
 ** fill        0x000000000042252f        0x1
 .text.shdr_32M11_tof
                0x0000000000422530      0x13b 0x10 /usr/local/popcorn/x86_64/lib/libelf.a(32.xlatetof.o)
 ** fill        0x000000000042266b        0x5
 .text.sword_32M__tom
                0x0000000000422670      0x193 0x10 /usr/local/popcorn/x86_64/lib/libelf.a(32.xlatetof.o)
 ** fill        0x0000000000422803        0xd
 .text.sword_32M__tof
                0x0000000000422810       0x91 0x10 /usr/local/popcorn/x86_64/lib/libelf.a(32.xlatetof.o)
 ** fill        0x00000000004228a1        0xf
 .text.sym_32M11_tom
                0x00000000004228b0       0xba 0x10 /usr/local/popcorn/x86_64/lib/libelf.a(32.xlatetof.o)
 ** fill        0x000000000042296a        0x6
 .text.sym_32M11_tof
                0x0000000000422970       0x93 0x10 /usr/local/popcorn/x86_64/lib/libelf.a(32.xlatetof.o)
 ** fill        0x0000000000422a03        0xd
 .text.word_32M__tom
                0x0000000000422a10      0x193 0x10 /usr/local/popcorn/x86_64/lib/libelf.a(32.xlatetof.o)
 ** fill        0x0000000000422ba3        0xd
 .text.word_32M__tof
                0x0000000000422bb0       0x91 0x10 /usr/local/popcorn/x86_64/lib/libelf.a(32.xlatetof.o)
 ** fill        0x0000000000422c41        0x3
 .text          0x0000000000422c44        0x0 0x4 /usr/local/popcorn/x86_64/lib/libelf.a(cook.o)
 ** fill        0x0000000000422c44        0xc
 .text._elf_scn_type
                0x0000000000422c50       0x6d 0x10 /usr/local/popcorn/x86_64/lib/libelf.a(cook.o)
                0x0000000000422c50                _elf_scn_type
 ** fill        0x0000000000422cbd        0x3
 .text._elf_xlatetom
                0x0000000000422cc0       0x43 0x10 /usr/local/popcorn/x86_64/lib/libelf.a(cook.o)
                0x0000000000422cc0                _elf_xlatetom
 ** fill        0x0000000000422d03        0xd
 .text._elf_cook
                0x0000000000422d10      0x851 0x10 /usr/local/popcorn/x86_64/lib/libelf.a(cook.o)
                0x0000000000422d10                _elf_cook
 ** fill        0x0000000000423561        0xf
 .text._elf_item
                0x0000000000423570      0x181 0x10 /usr/local/popcorn/x86_64/lib/libelf.a(cook.o)
 ** fill        0x00000000004236f1        0x3
 .text          0x00000000004236f4        0x0 0x4 /usr/local/popcorn/x86_64/lib/libelf.a(data.o)
 .text          0x00000000004236f4        0x0 0x4 /usr/local/popcorn/x86_64/lib/libelf.a(input.o)
 ** fill        0x00000000004236f4        0xc
 .text._elf_read
                0x0000000000423700      0x10c 0x10 /usr/local/popcorn/x86_64/lib/libelf.a(input.o)
                0x0000000000423700                _elf_read
 ** fill        0x000000000042380c        0x4
 .text._elf_mmap
                0x0000000000423810       0x44 0x10 /usr/local/popcorn/x86_64/lib/libelf.a(input.o)
                0x0000000000423810                _elf_mmap
 .text          0x0000000000423854        0x0 0x4 /usr/local/popcorn/x86_64/lib/libelf.a(x.elfext.o)
 ** fill        0x0000000000423854        0xc
 .text.elf_getphdrnum
                0x0000000000423860       0x54 0x10 /usr/local/popcorn/x86_64/lib/libelf.a(x.elfext.o)
                0x0000000000423860                elf_getphdrnum
 ** fill        0x00000000004238b4        0xc
 .text.elf_getshdrnum
                0x00000000004238c0       0x6a 0x10 /usr/local/popcorn/x86_64/lib/libelf.a(x.elfext.o)
                0x00000000004238c0                elf_getshdrnum
 ** fill        0x000000000042392a        0x6
 .text.elf_getshdrstrndx
                0x0000000000423930       0xd3 0x10 /usr/local/popcorn/x86_64/lib/libelf.a(x.elfext.o)
                0x0000000000423930                elf_getshdrstrndx
 ** fill        0x0000000000423a03        0xd
 .text.elf_getphnum
                0x0000000000423a10       0x54 0x10 /usr/local/popcorn/x86_64/lib/libelf.a(x.elfext.o)
                0x0000000000423a10                elf_getphnum
 ** fill        0x0000000000423a64        0xc
 .text.elf_getshnum
                0x0000000000423a70       0x62 0x10 /usr/local/popcorn/x86_64/lib/libelf.a(x.elfext.o)
                0x0000000000423a70                elf_getshnum
 ** fill        0x0000000000423ad2        0xe
 .text.elf_getshstrndx
                0x0000000000423ae0       0xd3 0x10 /usr/local/popcorn/x86_64/lib/libelf.a(x.elfext.o)
                0x0000000000423ae0                elf_getshstrndx
 ** fill        0x0000000000423bb3        0xd
 .text.elfx_update_shstrndx
                0x0000000000423bc0       0xc4 0x10 /usr/local/popcorn/x86_64/lib/libelf.a(x.elfext.o)
                0x0000000000423bc0                elfx_update_shstrndx
 .text          0x0000000000423c84        0x0 0x4 /usr/local/popcorn/x86_64/lib/libelf.a(64.xlatetof.o)
 ** fill        0x0000000000423c84        0xc
 .text._elf64_xltsize
                0x0000000000423c90       0x88 0x10 /usr/local/popcorn/x86_64/lib/libelf.a(64.xlatetof.o)
                0x0000000000423c90                _elf64_xltsize
 ** fill        0x0000000000423d18        0x8
 .text.elf64_xlatetom
                0x0000000000423d20      0x104 0x10 /usr/local/popcorn/x86_64/lib/libelf.a(64.xlatetof.o)
                0x0000000000423d20                elf64_xlatetom
 ** fill        0x0000000000423e24        0xc
 .text.elf64_xlatetof
                0x0000000000423e30      0x104 0x10 /usr/local/popcorn/x86_64/lib/libelf.a(64.xlatetof.o)
                0x0000000000423e30                elf64_xlatetof
 ** fill        0x0000000000423f34        0xc
 .text.gelf_xlatetom
                0x0000000000423f40      0x178 0x10 /usr/local/popcorn/x86_64/lib/libelf.a(64.xlatetof.o)
                0x0000000000423f40                gelf_xlatetom
 ** fill        0x00000000004240b8        0x8
 .text.gelf_xlatetof
                0x00000000004240c0      0x178 0x10 /usr/local/popcorn/x86_64/lib/libelf.a(64.xlatetof.o)
                0x00000000004240c0                gelf_xlatetof
 ** fill        0x0000000000424238        0x8
 .text.byte_copy
                0x0000000000424240       0x20 0x10 /usr/local/popcorn/x86_64/lib/libelf.a(64.xlatetof.o)
 .text.addr_64L__tom
                0x0000000000424260       0x5c 0x10 /usr/local/popcorn/x86_64/lib/libelf.a(64.xlatetof.o)
 ** fill        0x00000000004242bc        0x4
 .text.addr_64L__tof
                0x00000000004242c0       0x5b 0x10 /usr/local/popcorn/x86_64/lib/libelf.a(64.xlatetof.o)
 ** fill        0x000000000042431b        0x5
 .text.dyn_64L11_tom
                0x0000000000424320       0x68 0x10 /usr/local/popcorn/x86_64/lib/libelf.a(64.xlatetof.o)
 ** fill        0x0000000000424388        0x8
 .text.dyn_64L11_tof
                0x0000000000424390       0x68 0x10 /usr/local/popcorn/x86_64/lib/libelf.a(64.xlatetof.o)
 ** fill        0x00000000004243f8        0x8
 .text.ehdr_64L11_tom
                0x0000000000424400      0x1a2 0x10 /usr/local/popcorn/x86_64/lib/libelf.a(64.xlatetof.o)
 ** fill        0x00000000004245a2        0xe
 .text.ehdr_64L11_tof
                0x00000000004245b0      0x182 0x10 /usr/local/popcorn/x86_64/lib/libelf.a(64.xlatetof.o)
 ** fill        0x0000000000424732        0xe
 .text.half_64L__tom
                0x0000000000424740      0x1b4 0x10 /usr/local/popcorn/x86_64/lib/libelf.a(64.xlatetof.o)
 ** fill        0x00000000004248f4        0xc
 .text.half_64L__tof
                0x0000000000424900      0x1b9 0x10 /usr/local/popcorn/x86_64/lib/libelf.a(64.xlatetof.o)
 ** fill        0x0000000000424ab9        0x7
 .text.off_64L__tom
                0x0000000000424ac0       0x5c 0x10 /usr/local/popcorn/x86_64/lib/libelf.a(64.xlatetof.o)
 ** fill        0x0000000000424b1c        0x4
 .text.off_64L__tof
                0x0000000000424b20       0x5b 0x10 /usr/local/popcorn/x86_64/lib/libelf.a(64.xlatetof.o)
 ** fill        0x0000000000424b7b        0x5
 .text.phdr_64L11_tom
                0x0000000000424b80      0x11e 0x10 /usr/local/popcorn/x86_64/lib/libelf.a(64.xlatetof.o)
 ** fill        0x0000000000424c9e        0x2
 .text.phdr_64L11_tof
                0x0000000000424ca0      0x116 0x10 /usr/local/popcorn/x86_64/lib/libelf.a(64.xlatetof.o)
 ** fill        0x0000000000424db6        0xa
 .text.rela_64L11_tom
                0x0000000000424dc0       0x89 0x10 /usr/local/popcorn/x86_64/lib/libelf.a(64.xlatetof.o)
 ** fill        0x0000000000424e49        0x7
 .text.rela_64L11_tof
                0x0000000000424e50       0x89 0x10 /usr/local/popcorn/x86_64/lib/libelf.a(64.xlatetof.o)
 ** fill        0x0000000000424ed9        0x7
 .text.rel_64L11_tom
                0x0000000000424ee0       0x68 0x10 /usr/local/popcorn/x86_64/lib/libelf.a(64.xlatetof.o)
 ** fill        0x0000000000424f48        0x8
 .text.rel_64L11_tof
                0x0000000000424f50       0x68 0x10 /usr/local/popcorn/x86_64/lib/libelf.a(64.xlatetof.o)
 ** fill        0x0000000000424fb8        0x8
 .text.shdr_64L11_tom
                0x0000000000424fc0      0x156 0x10 /usr/local/popcorn/x86_64/lib/libelf.a(64.xlatetof.o)
 ** fill        0x0000000000425116        0xa
 .text.shdr_64L11_tof
                0x0000000000425120      0x146 0x10 /usr/local/popcorn/x86_64/lib/libelf.a(64.xlatetof.o)
 ** fill        0x0000000000425266        0xa
 .text.sword_64L__tom
                0x0000000000425270      0x1a3 0x10 /usr/local/popcorn/x86_64/lib/libelf.a(64.xlatetof.o)
 ** fill        0x0000000000425413        0xd
 .text.sword_64L__tof
                0x0000000000425420       0xa1 0x10 /usr/local/popcorn/x86_64/lib/libelf.a(64.xlatetof.o)
 ** fill        0x00000000004254c1        0xf
 .text.sym_64L11_tom
                0x00000000004254d0       0xbf 0x10 /usr/local/popcorn/x86_64/lib/libelf.a(64.xlatetof.o)
 ** fill        0x000000000042558f        0x1
 .text.sym_64L11_tof
                0x0000000000425590       0xb4 0x10 /usr/local/popcorn/x86_64/lib/libelf.a(64.xlatetof.o)
 ** fill        0x0000000000425644        0xc
 .text.word_64L__tom
                0x0000000000425650      0x1a3 0x10 /usr/local/popcorn/x86_64/lib/libelf.a(64.xlatetof.o)
 ** fill        0x00000000004257f3        0xd
 .text.word_64L__tof
                0x0000000000425800       0xa1 0x10 /usr/local/popcorn/x86_64/lib/libelf.a(64.xlatetof.o)
 ** fill        0x00000000004258a1        0xf
 .text.sxword_64L__tom
                0x00000000004258b0       0x5c 0x10 /usr/local/popcorn/x86_64/lib/libelf.a(64.xlatetof.o)
 ** fill        0x000000000042590c        0x4
 .text.sxword_64L__tof
                0x0000000000425910       0x5b 0x10 /usr/local/popcorn/x86_64/lib/libelf.a(64.xlatetof.o)
 ** fill        0x000000000042596b        0x5
 .text.xword_64L__tom
                0x0000000000425970       0x5c 0x10 /usr/local/popcorn/x86_64/lib/libelf.a(64.xlatetof.o)
 ** fill        0x00000000004259cc        0x4
 .text.xword_64L__tof
                0x00000000004259d0       0x5b 0x10 /usr/local/popcorn/x86_64/lib/libelf.a(64.xlatetof.o)
 ** fill        0x0000000000425a2b        0x5
 .text.addr_64M__tom
                0x0000000000425a30       0x5c 0x10 /usr/local/popcorn/x86_64/lib/libelf.a(64.xlatetof.o)
 ** fill        0x0000000000425a8c        0x4
 .text.addr_64M__tof
                0x0000000000425a90       0x5b 0x10 /usr/local/popcorn/x86_64/lib/libelf.a(64.xlatetof.o)
 ** fill        0x0000000000425aeb        0x5
 .text.dyn_64M11_tom
                0x0000000000425af0       0x68 0x10 /usr/local/popcorn/x86_64/lib/libelf.a(64.xlatetof.o)
 ** fill        0x0000000000425b58        0x8
 .text.dyn_64M11_tof
                0x0000000000425b60       0x68 0x10 /usr/local/popcorn/x86_64/lib/libelf.a(64.xlatetof.o)
 ** fill        0x0000000000425bc8        0x8
 .text.ehdr_64M11_tom
                0x0000000000425bd0      0x1a2 0x10 /usr/local/popcorn/x86_64/lib/libelf.a(64.xlatetof.o)
 ** fill        0x0000000000425d72        0xe
 .text.ehdr_64M11_tof
                0x0000000000425d80      0x182 0x10 /usr/local/popcorn/x86_64/lib/libelf.a(64.xlatetof.o)
 ** fill        0x0000000000425f02        0xe
 .text.half_64M__tom
                0x0000000000425f10      0x1b4 0x10 /usr/local/popcorn/x86_64/lib/libelf.a(64.xlatetof.o)
 ** fill        0x00000000004260c4        0xc
 .text.half_64M__tof
                0x00000000004260d0      0x1b9 0x10 /usr/local/popcorn/x86_64/lib/libelf.a(64.xlatetof.o)
 ** fill        0x0000000000426289        0x7
 .text.off_64M__tom
                0x0000000000426290       0x5c 0x10 /usr/local/popcorn/x86_64/lib/libelf.a(64.xlatetof.o)
 ** fill        0x00000000004262ec        0x4
 .text.off_64M__tof
                0x00000000004262f0       0x5b 0x10 /usr/local/popcorn/x86_64/lib/libelf.a(64.xlatetof.o)
 ** fill        0x000000000042634b        0x5
 .text.phdr_64M11_tom
                0x0000000000426350       0xf6 0x10 /usr/local/popcorn/x86_64/lib/libelf.a(64.xlatetof.o)
 ** fill        0x0000000000426446        0xa
 .text.phdr_64M11_tof
                0x0000000000426450       0xe8 0x10 /usr/local/popcorn/x86_64/lib/libelf.a(64.xlatetof.o)
 ** fill        0x0000000000426538        0x8
 .text.rela_64M11_tom
                0x0000000000426540       0x89 0x10 /usr/local/popcorn/x86_64/lib/libelf.a(64.xlatetof.o)
 ** fill        0x00000000004265c9        0x7
 .text.rela_64M11_tof
                0x00000000004265d0       0x89 0x10 /usr/local/popcorn/x86_64/lib/libelf.a(64.xlatetof.o)
 ** fill        0x0000000000426659        0x7
 .text.rel_64M11_tom
                0x0000000000426660       0x68 0x10 /usr/local/popcorn/x86_64/lib/libelf.a(64.xlatetof.o)
 ** fill        0x00000000004266c8        0x8
 .text.rel_64M11_tof
                0x00000000004266d0       0x68 0x10 /usr/local/popcorn/x86_64/lib/libelf.a(64.xlatetof.o)
 ** fill        0x0000000000426738        0x8
 .text.shdr_64M11_tom
                0x0000000000426740      0x12c 0x10 /usr/local/popcorn/x86_64/lib/libelf.a(64.xlatetof.o)
 ** fill        0x000000000042686c        0x4
 .text.shdr_64M11_tof
                0x0000000000426870      0x110 0x10 /usr/local/popcorn/x86_64/lib/libelf.a(64.xlatetof.o)
 .text.sword_64M__tom
                0x0000000000426980      0x193 0x10 /usr/local/popcorn/x86_64/lib/libelf.a(64.xlatetof.o)
 ** fill        0x0000000000426b13        0xd
 .text.sword_64M__tof
                0x0000000000426b20       0x91 0x10 /usr/local/popcorn/x86_64/lib/libelf.a(64.xlatetof.o)
 ** fill        0x0000000000426bb1        0xf
 .text.sym_64M11_tom
                0x0000000000426bc0       0xbf 0x10 /usr/local/popcorn/x86_64/lib/libelf.a(64.xlatetof.o)
 ** fill        0x0000000000426c7f        0x1
 .text.sym_64M11_tof
                0x0000000000426c80       0xb4 0x10 /usr/local/popcorn/x86_64/lib/libelf.a(64.xlatetof.o)
 ** fill        0x0000000000426d34        0xc
 .text.word_64M__tom
                0x0000000000426d40      0x193 0x10 /usr/local/popcorn/x86_64/lib/libelf.a(64.xlatetof.o)
 ** fill        0x0000000000426ed3        0xd
 .text.word_64M__tof
                0x0000000000426ee0       0x91 0x10 /usr/local/popcorn/x86_64/lib/libelf.a(64.xlatetof.o)
 ** fill        0x0000000000426f71        0xf
 .text.sxword_64M__tom
                0x0000000000426f80       0x5c 0x10 /usr/local/popcorn/x86_64/lib/libelf.a(64.xlatetof.o)
 ** fill        0x0000000000426fdc        0x4
 .text.sxword_64M__tof
                0x0000000000426fe0       0x5b 0x10 /usr/local/popcorn/x86_64/lib/libelf.a(64.xlatetof.o)
 ** fill        0x000000000042703b        0x5
 .text.xword_64M__tom
                0x0000000000427040       0x5c 0x10 /usr/local/popcorn/x86_64/lib/libelf.a(64.xlatetof.o)
 ** fill        0x000000000042709c        0x4
 .text.xword_64M__tof
                0x00000000004270a0       0x5b 0x10 /usr/local/popcorn/x86_64/lib/libelf.a(64.xlatetof.o)
 ** fill        0x00000000004270fb        0x1
 .text          0x00000000004270fc        0x0 0x4 /usr/local/popcorn/x86_64/lib/libelf.a(gelfshdr.o)
 ** fill        0x00000000004270fc        0x4
 .text.gelf_getshdr
                0x0000000000427100      0x101 0x10 /usr/local/popcorn/x86_64/lib/libelf.a(gelfshdr.o)
                0x0000000000427100                gelf_getshdr
 ** fill        0x0000000000427201        0xf
 .text.gelf_update_shdr
                0x0000000000427210      0x139 0x10 /usr/local/popcorn/x86_64/lib/libelf.a(gelfshdr.o)
                0x0000000000427210                gelf_update_shdr
 ** fill        0x0000000000427349        0x3
 .text          0x000000000042734c        0x0 0x4 /usr/local/popcorn/x86_64/lib/libelf.a(swap64.o)
 ** fill        0x000000000042734c        0x4
 .text._elf_load_u64L
                0x0000000000427350       0x4e 0x10 /usr/local/popcorn/x86_64/lib/libelf.a(swap64.o)
                0x0000000000427350                _elf_load_u64L
 ** fill        0x000000000042739e        0x2
 .text._elf_load_u64M
                0x00000000004273a0       0x4e 0x10 /usr/local/popcorn/x86_64/lib/libelf.a(swap64.o)
                0x00000000004273a0                _elf_load_u64M
 ** fill        0x00000000004273ee        0x2
 .text._elf_load_i64L
                0x00000000004273f0       0x4e 0x10 /usr/local/popcorn/x86_64/lib/libelf.a(swap64.o)
                0x00000000004273f0                _elf_load_i64L
 ** fill        0x000000000042743e        0x2
 .text._elf_load_i64M
                0x0000000000427440       0x4e 0x10 /usr/local/popcorn/x86_64/lib/libelf.a(swap64.o)
                0x0000000000427440                _elf_load_i64M
 ** fill        0x000000000042748e        0x2
 .text._elf_store_u64L
                0x0000000000427490       0x3e 0x10 /usr/local/popcorn/x86_64/lib/libelf.a(swap64.o)
                0x0000000000427490                _elf_store_u64L
 ** fill        0x00000000004274ce        0x2
 .text._elf_store_u64M
                0x00000000004274d0       0x3e 0x10 /usr/local/popcorn/x86_64/lib/libelf.a(swap64.o)
                0x00000000004274d0                _elf_store_u64M
 ** fill        0x000000000042750e        0x2
 .text._elf_store_i64L
                0x0000000000427510       0x3e 0x10 /usr/local/popcorn/x86_64/lib/libelf.a(swap64.o)
                0x0000000000427510                _elf_store_i64L
 ** fill        0x000000000042754e        0x2
 .text._elf_store_i64M
                0x0000000000427550       0x3e 0x10 /usr/local/popcorn/x86_64/lib/libelf.a(swap64.o)
                0x0000000000427550                _elf_store_i64M
 ** fill        0x000000000042758e        0x2
 .text          0x0000000000427590        0x0 0x4 /usr/local/popcorn/x86_64/lib/libelf.a(verdef_32_tof.o)
 .text._elf_verdef_32L11_tof
                0x0000000000427590        0xa 0x10 /usr/local/popcorn/x86_64/lib/libelf.a(verdef_32_tof.o)
                0x0000000000427590                _elf_verdef_32L11_tof
 ** fill        0x000000000042759a        0x6
 .text.xlt_verdef
                0x00000000004275a0      0x2fd 0x10 /usr/local/popcorn/x86_64/lib/libelf.a(verdef_32_tof.o)
 ** fill        0x000000000042789d        0x3
 .text._elf_verdef_32M11_tof
                0x00000000004278a0        0xa 0x10 /usr/local/popcorn/x86_64/lib/libelf.a(verdef_32_tof.o)
                0x00000000004278a0                _elf_verdef_32M11_tof
 ** fill        0x00000000004278aa        0x6
 .text._elf_verneed_32L11_tof
                0x00000000004278b0        0xa 0x10 /usr/local/popcorn/x86_64/lib/libelf.a(verdef_32_tof.o)
                0x00000000004278b0                _elf_verneed_32L11_tof
 ** fill        0x00000000004278ba        0x6
 .text.xlt_verneed
                0x00000000004278c0      0x351 0x10 /usr/local/popcorn/x86_64/lib/libelf.a(verdef_32_tof.o)
 ** fill        0x0000000000427c11        0xf
 .text._elf_verneed_32M11_tof
                0x0000000000427c20        0xa 0x10 /usr/local/popcorn/x86_64/lib/libelf.a(verdef_32_tof.o)
                0x0000000000427c20                _elf_verneed_32M11_tof
 ** fill        0x0000000000427c2a        0x2
 .text          0x0000000000427c2c        0x0 0x4 /usr/local/popcorn/x86_64/lib/libelf.a(verdef_32_tom.o)
 ** fill        0x0000000000427c2c        0x4
 .text._elf_verdef_32L11_tom
                0x0000000000427c30        0xa 0x10 /usr/local/popcorn/x86_64/lib/libelf.a(verdef_32_tom.o)
                0x0000000000427c30                _elf_verdef_32L11_tom
 ** fill        0x0000000000427c3a        0x6
 .text.xlt_verdef
                0x0000000000427c40      0x41f 0x10 /usr/local/popcorn/x86_64/lib/libelf.a(verdef_32_tom.o)
 ** fill        0x000000000042805f        0x1
 .text._elf_verdef_32M11_tom
                0x0000000000428060        0xa 0x10 /usr/local/popcorn/x86_64/lib/libelf.a(verdef_32_tom.o)
                0x0000000000428060                _elf_verdef_32M11_tom
 ** fill        0x000000000042806a        0x6
 .text._elf_verneed_32L11_tom
                0x0000000000428070        0xa 0x10 /usr/local/popcorn/x86_64/lib/libelf.a(verdef_32_tom.o)
                0x0000000000428070                _elf_verneed_32L11_tom
 ** fill        0x000000000042807a        0x6
 .text.xlt_verneed
                0x0000000000428080      0x3a1 0x10 /usr/local/popcorn/x86_64/lib/libelf.a(verdef_32_tom.o)
 ** fill        0x0000000000428421        0xf
 .text._elf_verneed_32M11_tom
                0x0000000000428430        0xa 0x10 /usr/local/popcorn/x86_64/lib/libelf.a(verdef_32_tom.o)
                0x0000000000428430                _elf_verneed_32M11_tom
 ** fill        0x000000000042843a        0x2
 .text          0x000000000042843c        0x0 0x4 /usr/local/popcorn/x86_64/lib/libelf.a(verdef_64_tof.o)
 ** fill        0x000000000042843c        0x4
 .text._elf_verdef_64L11_tof
                0x0000000000428440        0xa 0x10 /usr/local/popcorn/x86_64/lib/libelf.a(verdef_64_tof.o)
                0x0000000000428440                _elf_verdef_64L11_tof
 ** fill        0x000000000042844a        0x6
 .text.xlt_verdef
                0x0000000000428450      0x2fd 0x10 /usr/local/popcorn/x86_64/lib/libelf.a(verdef_64_tof.o)
 ** fill        0x000000000042874d        0x3
 .text._elf_verdef_64M11_tof
                0x0000000000428750        0xa 0x10 /usr/local/popcorn/x86_64/lib/libelf.a(verdef_64_tof.o)
                0x0000000000428750                _elf_verdef_64M11_tof
 ** fill        0x000000000042875a        0x6
 .text._elf_verneed_64L11_tof
                0x0000000000428760        0xa 0x10 /usr/local/popcorn/x86_64/lib/libelf.a(verdef_64_tof.o)
                0x0000000000428760                _elf_verneed_64L11_tof
 ** fill        0x000000000042876a        0x6
 .text.xlt_verneed
                0x0000000000428770      0x351 0x10 /usr/local/popcorn/x86_64/lib/libelf.a(verdef_64_tof.o)
 ** fill        0x0000000000428ac1        0xf
 .text._elf_verneed_64M11_tof
                0x0000000000428ad0        0xa 0x10 /usr/local/popcorn/x86_64/lib/libelf.a(verdef_64_tof.o)
                0x0000000000428ad0                _elf_verneed_64M11_tof
 ** fill        0x0000000000428ada        0x2
 .text          0x0000000000428adc        0x0 0x4 /usr/local/popcorn/x86_64/lib/libelf.a(verdef_64_tom.o)
 ** fill        0x0000000000428adc        0x4
 .text._elf_verdef_64L11_tom
                0x0000000000428ae0        0xa 0x10 /usr/local/popcorn/x86_64/lib/libelf.a(verdef_64_tom.o)
                0x0000000000428ae0                _elf_verdef_64L11_tom
 ** fill        0x0000000000428aea        0x6
 .text.xlt_verdef
                0x0000000000428af0      0x41f 0x10 /usr/local/popcorn/x86_64/lib/libelf.a(verdef_64_tom.o)
 ** fill        0x0000000000428f0f        0x1
 .text._elf_verdef_64M11_tom
                0x0000000000428f10        0xa 0x10 /usr/local/popcorn/x86_64/lib/libelf.a(verdef_64_tom.o)
                0x0000000000428f10                _elf_verdef_64M11_tom
 ** fill        0x0000000000428f1a        0x6
 .text._elf_verneed_64L11_tom
                0x0000000000428f20        0xa 0x10 /usr/local/popcorn/x86_64/lib/libelf.a(verdef_64_tom.o)
                0x0000000000428f20                _elf_verneed_64L11_tom
 ** fill        0x0000000000428f2a        0x6
 .text.xlt_verneed
                0x0000000000428f30      0x3a1 0x10 /usr/local/popcorn/x86_64/lib/libelf.a(verdef_64_tom.o)
 ** fill        0x00000000004292d1        0xf
 .text._elf_verneed_64M11_tom
                0x00000000004292e0        0xa 0x10 /usr/local/popcorn/x86_64/lib/libelf.a(verdef_64_tom.o)
                0x00000000004292e0                _elf_verneed_64M11_tom
 ** fill        0x00000000004292ea        0x2
 .text          0x00000000004292ec        0x0 0x4 /usr/local/popcorn/x86_64/lib/libelf.a(getscn.o)
 ** fill        0x00000000004292ec        0x4
 .text.elf_getscn
                0x00000000004292f0       0x70 0x10 /usr/local/popcorn/x86_64/lib/libelf.a(getscn.o)
                0x00000000004292f0                elf_getscn
 .text          0x0000000000429360        0x0 0x4 /usr/local/popcorn/x86_64/lib/libelf.a(newscn.o)
 .text._elf_update_shnum
                0x0000000000429360       0x68 0x10 /usr/local/popcorn/x86_64/lib/libelf.a(newscn.o)
                0x0000000000429360                _elf_update_shnum
 ** fill        0x00000000004293c8        0x8
 .text._elf_first_scn
                0x00000000004293d0       0xed 0x10 /usr/local/popcorn/x86_64/lib/libelf.a(newscn.o)
                0x00000000004293d0                _elf_first_scn
 ** fill        0x00000000004294bd        0x3
 .text.elf_newscn
                0x00000000004294c0      0x249 0x10 /usr/local/popcorn/x86_64/lib/libelf.a(newscn.o)
                0x00000000004294c0                elf_newscn
 ** fill        0x0000000000429709        0x3
 .text          0x000000000042970c        0x0 0x4 /usr/local/popcorn/x86_64/lib/libelf.a(32.fsize.o)
 ** fill        0x000000000042970c        0x4
 .text.elf32_fsize
                0x0000000000429710       0x39 0x10 /usr/local/popcorn/x86_64/lib/libelf.a(32.fsize.o)
                0x0000000000429710                elf32_fsize
 ** fill        0x0000000000429749        0x7
 .text.elf64_fsize
                0x0000000000429750       0x39 0x10 /usr/local/popcorn/x86_64/lib/libelf.a(32.fsize.o)
                0x0000000000429750                elf64_fsize
 ** fill        0x0000000000429789        0x7
 .text.gelf_fsize
                0x0000000000429790       0x76 0x10 /usr/local/popcorn/x86_64/lib/libelf.a(32.fsize.o)
                0x0000000000429790                gelf_fsize
 ** fill        0x0000000000429806        0xa
 .text.gelf_msize
                0x0000000000429810       0x79 0x10 /usr/local/popcorn/x86_64/lib/libelf.a(32.fsize.o)
                0x0000000000429810                gelf_msize
 ** fill        0x0000000000429889        0x3
 .text          0x000000000042988c        0x0 0x4 /usr/local/popcorn/x86_64/lib/libc.a(arch_crash.o)
 .text.__crash_aarch64
                0x000000000042988c        0x3 0x1 /usr/local/popcorn/x86_64/lib/libc.a(arch_crash.o)
                0x000000000042988c                __crash_aarch64
                0x000000000042988c                crash_aarch64
 .text.__crash_powerpc64
                0x000000000042988f        0x3 0x1 /usr/local/popcorn/x86_64/lib/libc.a(arch_crash.o)
                0x000000000042988f                __crash_powerpc64
                0x000000000042988f                crash_powerpc64
 .text.__crash_x86_64
                0x0000000000429892       0x18 0x1 /usr/local/popcorn/x86_64/lib/libc.a(arch_crash.o)
                0x0000000000429892                __crash_x86_64
                0x0000000000429892                crash_x86_64
 .text.__crash  0x00000000004298aa       0x18 0x1 /usr/local/popcorn/x86_64/lib/libc.a(arch_crash.o)
                0x00000000004298aa                __crash
                0x00000000004298aa                crash
 ** fill        0x00000000004298c2        0x2
 .text          0x00000000004298c4        0x0 0x4 /usr/local/popcorn/x86_64/lib/libc.a(getenv.o)
 .text.getenv   0x00000000004298c4       0x85 0x1 /usr/local/popcorn/x86_64/lib/libc.a(getenv.o)
                0x00000000004298c4                getenv
 ** fill        0x0000000000429949        0x3
 .text          0x000000000042994c        0x0 0x4 /usr/local/popcorn/x86_64/lib/libc.a(assert.o)
 .text.__assert_fail
                0x000000000042994c       0x2c 0x1 /usr/local/popcorn/x86_64/lib/libc.a(assert.o)
                0x000000000042994c                __assert_fail
 .text          0x0000000000429978        0x0 0x4 /usr/local/popcorn/x86_64/lib/libc.a(open.o)
 .text.open     0x0000000000429978      0x126 0x1 /usr/local/popcorn/x86_64/lib/libc.a(open.o)
                0x0000000000429978                open
                0x0000000000429978                open64
 ** fill        0x0000000000429a9e        0x2
 .text          0x0000000000429aa0        0x0 0x4 /usr/local/popcorn/x86_64/lib/libc.a(getrlimit.o)
 .text.getrlimit
                0x0000000000429aa0       0xad 0x1 /usr/local/popcorn/x86_64/lib/libc.a(getrlimit.o)
                0x0000000000429aa0                getrlimit
                0x0000000000429aa0                getrlimit64
 ** fill        0x0000000000429b4d        0x3
 .text          0x0000000000429b50        0x0 0x4 /usr/local/popcorn/x86_64/lib/libc.a(getc.o)
 .text.getc     0x0000000000429b50       0x76 0x1 /usr/local/popcorn/x86_64/lib/libc.a(getc.o)
                0x0000000000429b50                _IO_getc
                0x0000000000429b50                getc
 ** fill        0x0000000000429bc6        0x2
 .text          0x0000000000429bc8        0x0 0x4 /usr/local/popcorn/x86_64/lib/libc.a(getline.o)
 .text.getline  0x0000000000429bc8       0x10 0x1 /usr/local/popcorn/x86_64/lib/libc.a(getline.o)
                0x0000000000429bc8                getline
 .text          0x0000000000429bd8        0x0 0x4 /usr/local/popcorn/x86_64/lib/libc.a(perror.o)
 .text.perror   0x0000000000429bd8       0xb8 0x1 /usr/local/popcorn/x86_64/lib/libc.a(perror.o)
                0x0000000000429bd8                perror
 .text          0x0000000000429c90        0x0 0x4 /usr/local/popcorn/x86_64/lib/libc.a(snprintf.o)
 .text.snprintf
                0x0000000000429c90       0x92 0x1 /usr/local/popcorn/x86_64/lib/libc.a(snprintf.o)
                0x0000000000429c90                snprintf
 ** fill        0x0000000000429d22        0x2
 .text          0x0000000000429d24        0x0 0x4 /usr/local/popcorn/x86_64/lib/libc.a(bsearch.o)
 .text.bsearch  0x0000000000429d24       0x84 0x1 /usr/local/popcorn/x86_64/lib/libc.a(bsearch.o)
                0x0000000000429d24                bsearch
 .text          0x0000000000429da8        0x0 0x4 /usr/local/popcorn/x86_64/lib/libc.a(strtol.o)
 .text.strtoull
                0x0000000000429da8        0xc 0x1 /usr/local/popcorn/x86_64/lib/libc.a(strtol.o)
                0x0000000000429da8                __strtoull_internal
                0x0000000000429da8                strtoull
 .text.strtox   0x0000000000429db4       0xac 0x1 /usr/local/popcorn/x86_64/lib/libc.a(strtol.o)
 .text.strtoll  0x0000000000429e60        0xf 0x1 /usr/local/popcorn/x86_64/lib/libc.a(strtol.o)
                0x0000000000429e60                __strtoll_internal
                0x0000000000429e60                strtoll
 .text.strtoul  0x0000000000429e6f        0xc 0x1 /usr/local/popcorn/x86_64/lib/libc.a(strtol.o)
                0x0000000000429e6f                __strtoul_internal
                0x0000000000429e6f                strtoul
 .text.strtol   0x0000000000429e7b        0xf 0x1 /usr/local/popcorn/x86_64/lib/libc.a(strtol.o)
                0x0000000000429e7b                __strtol_internal
                0x0000000000429e7b                strtol
 .text.strtoimax
                0x0000000000429e8a        0xf 0x1 /usr/local/popcorn/x86_64/lib/libc.a(strtol.o)
                0x0000000000429e8a                __strtoimax_internal
                0x0000000000429e8a                strtoimax
 .text.strtoumax
                0x0000000000429e99        0xc 0x1 /usr/local/popcorn/x86_64/lib/libc.a(strtol.o)
                0x0000000000429e99                __strtoumax_internal
                0x0000000000429e99                strtoumax
 ** fill        0x0000000000429ea5        0x3
 .text          0x0000000000429ea8        0x0 0x4 /usr/local/popcorn/x86_64/lib/libc.a(strncmp.o)
 ** fill        0x0000000000429ea8        0x8
 .text.strncmp  0x0000000000429eb0       0xf8 0x10 /usr/local/popcorn/x86_64/lib/libc.a(strncmp.o)
                0x0000000000429eb0                strncmp
 .text          0x0000000000429fa8        0x0 0x4 /usr/local/popcorn/x86_64/lib/libc.a(memmove.o)
 .text.memmove  0x0000000000429fa8       0x25 0x1 /usr/local/popcorn/x86_64/lib/libc.a(memmove.o)
                0x0000000000429fa8                memmove
 ** fill        0x0000000000429fcd        0x3
 .text          0x0000000000429fd0        0x0 0x4 /usr/local/popcorn/x86_64/lib/libc.a(__syscall_cp.o)
 .text.sccp     0x0000000000429fd0       0x13 0x1 /usr/local/popcorn/x86_64/lib/libc.a(__syscall_cp.o)
                0x0000000000429fd0                __syscall_cp_c
 .text.__syscall_cp
                0x0000000000429fe3        0x5 0x1 /usr/local/popcorn/x86_64/lib/libc.a(__syscall_cp.o)
                0x0000000000429fe3                __syscall_cp
 .text          0x0000000000429fe8        0x0 0x4 /usr/local/popcorn/x86_64/lib/libc.a(pthread_attr_get.o)
 .text.pthread_attr_getdetachstate
                0x0000000000429fe8        0x8 0x1 /usr/local/popcorn/x86_64/lib/libc.a(pthread_attr_get.o)
                0x0000000000429fe8                pthread_attr_getdetachstate
 .text.pthread_attr_getguardsize
                0x0000000000429ff0        0xa 0x1 /usr/local/popcorn/x86_64/lib/libc.a(pthread_attr_get.o)
                0x0000000000429ff0                pthread_attr_getguardsize
 .text.pthread_attr_getinheritsched
                0x0000000000429ffa        0x8 0x1 /usr/local/popcorn/x86_64/lib/libc.a(pthread_attr_get.o)
                0x0000000000429ffa                pthread_attr_getinheritsched
 .text.pthread_attr_getschedparam
                0x000000000042a002        0x8 0x1 /usr/local/popcorn/x86_64/lib/libc.a(pthread_attr_get.o)
                0x000000000042a002                pthread_attr_getschedparam
 .text.pthread_attr_getschedpolicy
                0x000000000042a00a        0x8 0x1 /usr/local/popcorn/x86_64/lib/libc.a(pthread_attr_get.o)
                0x000000000042a00a                pthread_attr_getschedpolicy
 .text.pthread_attr_getscope
                0x000000000042a012        0x9 0x1 /usr/local/popcorn/x86_64/lib/libc.a(pthread_attr_get.o)
                0x000000000042a012                pthread_attr_getscope
 .text.pthread_attr_getstack
                0x000000000042a01b       0x1d 0x1 /usr/local/popcorn/x86_64/lib/libc.a(pthread_attr_get.o)
                0x000000000042a01b                pthread_attr_getstack
 .text.pthread_attr_getstacksize
                0x000000000042a038        0x9 0x1 /usr/local/popcorn/x86_64/lib/libc.a(pthread_attr_get.o)
                0x000000000042a038                pthread_attr_getstacksize
 .text.pthread_barrierattr_getpshared
                0x000000000042a041        0xe 0x1 /usr/local/popcorn/x86_64/lib/libc.a(pthread_attr_get.o)
                0x000000000042a041                pthread_barrierattr_getpshared
 .text.pthread_condattr_getclock
                0x000000000042a04f        0xc 0x1 /usr/local/popcorn/x86_64/lib/libc.a(pthread_attr_get.o)
                0x000000000042a04f                pthread_condattr_getclock
 .text.pthread_condattr_getpshared
                0x000000000042a05b        0xa 0x1 /usr/local/popcorn/x86_64/lib/libc.a(pthread_attr_get.o)
                0x000000000042a05b                pthread_condattr_getpshared
 .text.pthread_mutexattr_getprotocol
                0x000000000042a065        0x9 0x1 /usr/local/popcorn/x86_64/lib/libc.a(pthread_attr_get.o)
                0x000000000042a065                pthread_mutexattr_getprotocol
 .text.pthread_mutexattr_getpshared
                0x000000000042a06e        0xd 0x1 /usr/local/popcorn/x86_64/lib/libc.a(pthread_attr_get.o)
                0x000000000042a06e                pthread_mutexattr_getpshared
 .text.pthread_mutexattr_getrobust
                0x000000000042a07b        0xd 0x1 /usr/local/popcorn/x86_64/lib/libc.a(pthread_attr_get.o)
                0x000000000042a07b                pthread_mutexattr_getrobust
 .text.pthread_mutexattr_gettype
                0x000000000042a088        0xa 0x1 /usr/local/popcorn/x86_64/lib/libc.a(pthread_attr_get.o)
                0x000000000042a088                pthread_mutexattr_gettype
 .text.pthread_rwlockattr_getpshared
                0x000000000042a092        0x7 0x1 /usr/local/popcorn/x86_64/lib/libc.a(pthread_attr_get.o)
                0x000000000042a092                pthread_rwlockattr_getpshared
 ** fill        0x000000000042a099        0x3
 .text          0x000000000042a09c        0x0 0x4 /usr/local/popcorn/x86_64/lib/libc.a(pthread_getattr_np.o)
 .text.pthread_getattr_np
                0x000000000042a09c       0xe2 0x1 /usr/local/popcorn/x86_64/lib/libc.a(pthread_getattr_np.o)
                0x000000000042a09c                pthread_getattr_np
 ** fill        0x000000000042a17e        0x2
 .text          0x000000000042a180        0x0 0x4 /usr/local/popcorn/x86_64/lib/libc.a(pthread_migrate.o)
 .text.pthread_set_migrate_args
                0x000000000042a180       0x11 0x1 /usr/local/popcorn/x86_64/lib/libc.a(pthread_migrate.o)
                0x000000000042a180                pthread_set_migrate_args
 .text.pthread_get_migrate_args
                0x000000000042a191       0x11 0x1 /usr/local/popcorn/x86_64/lib/libc.a(pthread_migrate.o)
                0x000000000042a191                pthread_get_migrate_args
 ** fill        0x000000000042a1a2        0x2
 .text          0x000000000042a1a4        0x0 0x4 /usr/local/popcorn/x86_64/lib/libc.a(pthread_self.o)
 .text.__pthread_self_internal
                0x000000000042a1a4        0xa 0x1 /usr/local/popcorn/x86_64/lib/libc.a(pthread_self.o)
                0x000000000042a1a4                pthread_self
                0x000000000042a1a4                thrd_current
 ** fill        0x000000000042a1ae        0x2
 .text          0x000000000042a1b0        0x0 0x4 /usr/local/popcorn/x86_64/lib/libc.a(close.o)
 .text.dummy    0x000000000042a1b0        0x3 0x1 /usr/local/popcorn/x86_64/lib/libc.a(close.o)
 .text.close    0x000000000042a1b3       0x3f 0x1 /usr/local/popcorn/x86_64/lib/libc.a(close.o)
                0x000000000042a1b3                close
 ** fill        0x000000000042a1f2        0x2
 .text          0x000000000042a1f4        0x0 0x4 /usr/local/popcorn/x86_64/lib/libc.a(getpid.o)
 .text.getpid   0x000000000042a1f4        0x8 0x1 /usr/local/popcorn/x86_64/lib/libc.a(getpid.o)
                0x000000000042a1f4                getpid
 .text          0x000000000042a1fc        0x0 0x4 /usr/local/popcorn/x86_64/lib/libc.a(lseek.o)
 .text.lseek    0x000000000042a1fc       0x15 0x1 /usr/local/popcorn/x86_64/lib/libc.a(lseek.o)
                0x000000000042a1fc                lseek
                0x000000000042a1fc                lseek64
 ** fill        0x000000000042a211        0x3
 .text          0x000000000042a214        0x0 0x4 /usr/local/popcorn/x86_64/lib/libc.a(read.o)
 .text.read     0x000000000042a214       0x2e 0x1 /usr/local/popcorn/x86_64/lib/libc.a(read.o)
                0x000000000042a214                read
 ** fill        0x000000000042a242        0x2
 .text          0x000000000042a244        0x0 0x4 /usr/local/popcorn/x86_64/lib/libc.a(abort.o)
 .text.abort    0x000000000042a244       0x27 0x1 /usr/local/popcorn/x86_64/lib/libc.a(abort.o)
                0x000000000042a244                abort
 ** fill        0x000000000042a26b        0x1
 .text          0x000000000042a26c        0x0 0x4 /usr/local/popcorn/x86_64/lib/libc.a(syscall.o)
 .text.__syscall
                0x000000000042a26c       0x1a 0x1 /usr/local/popcorn/x86_64/lib/libc.a(syscall.o)
                0x000000000042a26c                __syscall
 ** fill        0x000000000042a286        0x2
 .text          0x000000000042a288        0x0 0x4 /usr/local/popcorn/x86_64/lib/libc.a(block.o)
 .text.__block_all_sigs
                0x000000000042a288       0x1b 0x1 /usr/local/popcorn/x86_64/lib/libc.a(block.o)
                0x000000000042a288                __block_all_sigs
 .text.__block_app_sigs
                0x000000000042a2a3       0x1b 0x1 /usr/local/popcorn/x86_64/lib/libc.a(block.o)
                0x000000000042a2a3                __block_app_sigs
 .text.__restore_sigs
                0x000000000042a2be       0x1b 0x1 /usr/local/popcorn/x86_64/lib/libc.a(block.o)
                0x000000000042a2be                __restore_sigs
 ** fill        0x000000000042a2d9        0x3
 .text          0x000000000042a2dc        0x0 0x4 /usr/local/popcorn/x86_64/lib/libc.a(raise.o)
 .text.raise    0x000000000042a2dc       0x4d 0x1 /usr/local/popcorn/x86_64/lib/libc.a(raise.o)
                0x000000000042a2dc                raise
 ** fill        0x000000000042a329        0x3
 .text          0x000000000042a32c        0x0 0x4 /usr/local/popcorn/x86_64/lib/libc.a(fputc.o)
 .text.fputc    0x000000000042a32c       0x9c 0x1 /usr/local/popcorn/x86_64/lib/libc.a(fputc.o)
                0x000000000042a32c                fputc
 .text          0x000000000042a3c8        0x0 0x4 /usr/local/popcorn/x86_64/lib/libc.a(getdelim.o)
 .text.getdelim
                0x000000000042a3c8      0x25d 0x1 /usr/local/popcorn/x86_64/lib/libc.a(getdelim.o)
                0x000000000042a3c8                __getdelim
                0x000000000042a3c8                getdelim
 ** fill        0x000000000042a625        0x3
 .text          0x000000000042a628        0x0 0x4 /usr/local/popcorn/x86_64/lib/libc.a(__overflow.o)
 .text.__overflow
                0x000000000042a628       0x82 0x1 /usr/local/popcorn/x86_64/lib/libc.a(__overflow.o)
                0x000000000042a628                __overflow

.rodata         0x000000000042a6b0     0x4cf8
 ** merge constants
                0x000000000042a6b0       0xb0
 ** merge constants
                0x000000000042a760      0x168
 .rodata.dc__str____NAS_Par
                0x000000000042a8c8       0x39 0x1 dc_x86_64.o
                0x000000000042a8c8                dc__str____NAS_Par
 .rodata.dc__str_1__No_Paramt
                0x000000000042a901       0x2c 0x1 dc_x86_64.o
                0x000000000042a901                dc__str_1__No_Paramt
 .rodata.dc__str_2_Usage___pr
                0x000000000042a92d       0x2a 0x1 dc_x86_64.o
                0x000000000042a92d                dc__str_2_Usage_(long double *)
 .rodata.dc__str_3_________fi
                0x000000000042a957       0x1d 0x1 dc_x86_64.o
                0x000000000042a957                dc__str_3_______(float, int)
 .rodata.dc__str_4_Example__b
                0x000000000042a974       0x26 0x1 dc_x86_64.o
                0x000000000042a974                dc__str_4_Example(bool)
 .rodata.dc__str_5_The_last_a
                0x000000000042a99a       0x36 0x1 dc_x86_64.o
                0x000000000042a99a                dc__str_5_The_last_a
 .rodata.dc__str_6___s__errno
                0x000000000042a9d0       0x11 0x1 dc_x86_64.o
                0x000000000042a9d0                dc__str_6___s__errno
 .rodata.dc__str_7_main__mall
                0x000000000042a9e1       0x14 0x1 dc_x86_64.o
                0x000000000042a9e1                dc__str_7_main__mall
 .rodata.dc__str_8_main_Parse
                0x000000000042a9f5       0x19 0x1 dc_x86_64.o
                0x000000000042a9f5                dc__str_8_main_Parse
 .rodata.dc__str_9_main_Gener
                0x000000000042aa0e       0x18 0x1 dc_x86_64.o
                0x000000000042aa0e                dc__str_9_main_Gener
 .rodata.dc__str_10_Estimated_
                0x000000000042aa26       0x1e 0x1 dc_x86_64.o
                0x000000000042aa26                dc__str_10_Estimated_
 .rodata.dc__str_11_main_DC_fa
                0x000000000042aa44        0xf 0x1 dc_x86_64.o
                0x000000000042aa44                dc__str_11_main_DC_fa
 .rodata.dc__str_12_main_ParRu
                0x000000000042aa53       0x22 0x1 dc_x86_64.o
                0x000000000042aa53                dc__str_12_main_ParRu
 .rodata.dc__str_13_ParRun_New
                0x000000000042aa75       0x25 0x1 dc_x86_64.o
                0x000000000042aa75                dc__str_13_ParRun_New
 .rodata.dc__str_14_DC_NewAdcV
                0x000000000042aa9a       0x25 0x1 dc_x86_64.o
                0x000000000042aa9a                dc__str_14_DC_NewAdcV
 .rodata.dc__str_15_DC_Partiti
                0x000000000042aabf       0x18 0x1 dc_x86_64.o
                0x000000000042aabf                dc__str_15_DC_Partiti
 .rodata.dc__str_16_DC_Compute
                0x000000000042aad7       0x1f 0x1 dc_x86_64.o
                0x000000000042aad7                dc__str_16_DC_Compute
 .rodata.dc__str_17_ParRun_Clo
                0x000000000042aaf6       0x1f 0x1 dc_x86_64.o
                0x000000000042aaf6                dc__str_17_ParRun_Clo
 .rodata.dc__str_18______DC_Be
                0x000000000042ab15       0x1c 0x1 dc_x86_64.o
                0x000000000042ab15                dc__str_18______DC_Be
 .rodata.dc__str_19__Benchmark
                0x000000000042ab31       0x1c 0x1 dc_x86_64.o
                0x000000000042ab31                dc__str_19__Benchmark
 .rodata.dc__str_20__Input_Tup
                0x000000000042ab4d       0x22 0x1 dc_x86_64.o
                0x000000000042ab4d                dc__str_20__Input_Tup
 .rodata.dc__str_21__Number_of
                0x000000000042ab6f       0x22 0x1 dc_x86_64.o
                0x000000000042ab6f                dc__str_21__Number_of
 .rodata.dc__str_22__Number_of
                0x000000000042ab91       0x22 0x1 dc_x86_64.o
                0x000000000042ab91                dc__str_22__Number_of
 .rodata.dc__str_23__Tuples_Ge
                0x000000000042abb3       0x1c 0x1 dc_x86_64.o
                0x000000000042abb3                dc__str_23__Tuples_Ge
 .rodata.dc__str_24__Tuples_s_
                0x000000000042abcf       0x1c 0x1 dc_x86_64.o
                0x000000000042abcf                dc__str_24__Tuples_s_
 .rodata.dc__str_25__Checksum_
                0x000000000042abeb       0x1d 0x1 dc_x86_64.o
                0x000000000042abeb                dc__str_25__Checksum_
 .rodata.dc__str_26__Verificat
                0x000000000042ac08       0x16 0x1 dc_x86_64.o
                0x000000000042ac08                dc__str_26__Verificat
 .rodata.dc__str_27_DC_
                0x000000000042ac1e        0x3 0x1 dc_x86_64.o
                0x000000000042ac1e                dc__str_27_DC_
 .rodata.dc__str_28_Tuples_gen
                0x000000000042ac21       0x11 0x1 dc_x86_64.o
                0x000000000042ac21                dc__str_28_Tuples_gen
 .rodata.dc__str_29_3_3_1_
                0x000000000042ac32        0x6 0x1 dc_x86_64.o
                0x000000000042ac32                dc__str_29_3_3_1_
 .rodata.dc__str_30_03_Nov_201
                0x000000000042ac38        0xc 0x1 dc_x86_64.o
                0x000000000042ac38                dc__str_30_03_Nov_201
 .rodata.dc__str_31_gcc_
                0x000000000042ac44        0x4 0x1 dc_x86_64.o
                0x000000000042ac44                dc__str_31_gcc_
 .rodata.dc__str_32___CC__
                0x000000000042ac48        0x6 0x1 dc_x86_64.o
                0x000000000042ac48                dc__str_32___CC__
 .rodata.dc__str_33__lm_
                0x000000000042ac4e        0x4 0x1 dc_x86_64.o
                0x000000000042ac4e                dc__str_33__lm_
 .rodata.dc__str_34__I___commo
                0x000000000042ac52        0xc 0x1 dc_x86_64.o
                0x000000000042ac52                dc__str_34__I___commo
 .rodata.dc__str_35__g__Wall__
                0x000000000042ac5e       0x1d 0x1 dc_x86_64.o
                0x000000000042ac5e                dc__str_35__g__Wall__
 .rodata.dc__str_36__O3__mcmod
                0x000000000042ac7b       0x14 0x1 dc_x86_64.o
                0x000000000042ac7b                dc__str_36__O3__mcmod
 .rodata.ParseParFile
                0x000000000042ac90       0x38 0x8 adc_x86_64.o
 .rodata.adc__str_ADC_
                0x000000000042acc8        0x4 0x1 adc_x86_64.o
                0x000000000042acc8                adc__str_ADC_
 .rodata.adc__str_1_prime__
                0x000000000042accc        0x7 0x1 adc_x86_64.o
                0x000000000042accc                adc__str_1_prime__
 .rodata.adc__str_2___
                0x000000000042acd3        0x2 0x1 adc_x86_64.o
                0x000000000042acd3                adc__str_2___
 .rodata.adc__str_3__ld_
                0x000000000042acd5        0x4 0x1 adc_x86_64.o
                0x000000000042acd5                adc__str_3__ld_
 .rodata.adc__str_4__ld__ld_
                0x000000000042acd9        0x8 0x1 adc_x86_64.o
                0x000000000042acd9                adc__str_4__ld__ld_
 .rodata.adc__str_5___
                0x000000000042ace1        0x2 0x1 adc_x86_64.o
                0x000000000042ace1                adc__str_5___
 .rodata.adc__str_6_view_sz_
                0x000000000042ace3        0x8 0x1 adc_x86_64.o
                0x000000000042ace3                adc__str_6_view_sz_
 .rodata.adc__str_7__s__s__d_
                0x000000000042aceb        0x9 0x1 adc_x86_64.o
                0x000000000042aceb                adc__str_7__s__s__d_
 .rodata.adc__str_8_w__
                0x000000000042acf4        0x3 0x1 adc_x86_64.o
                0x000000000042acf4                adc__str_8_w__
 .rodata.adc__str_9_CalculateV
                0x000000000042acf7       0x29 0x1 adc_x86_64.o
                0x000000000042acf7                adc__str_9_CalculateV
 .rodata.adc__str_10_Selection_
                0x000000000042ad20        0xb 0x1 adc_x86_64.o
                0x000000000042ad20                adc__str_10_Selection_
 .rodata.adc__str_11___lld_
                0x000000000042ad2b        0x6 0x1 adc_x86_64.o
                0x000000000042ad2b                adc__str_11___lld_
 .rodata.adc__str_12__View_Size
                0x000000000042ad31       0x12 0x1 adc_x86_64.o
                0x000000000042ad31                adc__str_12__View_Size
 .rodata.adc__str_13__Total_in_
                0x000000000042ad43       0x2f 0x1 adc_x86_64.o
                0x000000000042ad43                adc__str_13__Total_in_
 .rodata.adc__str_14_View_sizes
                0x000000000042ad72       0x20 0x1 adc_x86_64.o
                0x000000000042ad72                adc__str_14_View_sizes
 .rodata.adc__str_15_r_
                0x000000000042ad92        0x2 0x1 adc_x86_64.o
                0x000000000042ad92                adc__str_15_r_
 .rodata.adc__str_16_ParseParFi
                0x000000000042ad94       0x23 0x1 adc_x86_64.o
                0x000000000042ad94                adc__str_16_ParseParFi
 .rodata.adc__str_17__d_
                0x000000000042adb7        0x3 0x1 adc_x86_64.o
                0x000000000042adb7                adc__str_17__d_
 .rodata.adc__str_18___
                0x000000000042adba        0x2 0x1 adc_x86_64.o
                0x000000000042adba                adc__str_18___
 .rodata.adc__str_19__lld_
                0x000000000042adbc        0x5 0x1 adc_x86_64.o
                0x000000000042adbc                adc__str_19__lld_
 .rodata.adc__str_20__s_
                0x000000000042adc1        0x3 0x1 adc_x86_64.o
                0x000000000042adc1                adc__str_20__s_
 .rodata.adc__str_21__c_
                0x000000000042adc4        0x3 0x1 adc_x86_64.o
                0x000000000042adc4                adc__str_21__c_
 .rodata.adc__str_22_w_
                0x000000000042adc7        0x2 0x1 adc_x86_64.o
                0x000000000042adc7                adc__str_22_w_
 .rodata.adc__str_23_WriteADCPa
                0x000000000042adc9       0x21 0x1 adc_x86_64.o
                0x000000000042adc9                adc__str_23_WriteADCPa
 .rodata.adc__str_24_attrNum__d
                0x000000000042adea        0xc 0x1 adc_x86_64.o
                0x000000000042adea                adc__str_24_attrNum(double)
 .rodata.adc__str_25_measuresNu
                0x000000000042adf6       0x10 0x1 adc_x86_64.o
                0x000000000042adf6                adc__str_25_measuresNu
 .rodata.adc__str_26_tuplesNum_
                0x000000000042ae06       0x10 0x1 adc_x86_64.o
                0x000000000042ae06                adc__str_26_tuplesNum_
 .rodata.adc__str_27_class__c__
                0x000000000042ae16        0xa 0x1 adc_x86_64.o
                0x000000000042ae16                adc__str_27_class__c__
 .rodata.adc__str_28_INVERSE_EN
                0x000000000042ae20       0x13 0x1 adc_x86_64.o
                0x000000000042ae20                adc__str_28_INVERSE_EN
 .rodata.adc__str_29_fileName__
                0x000000000042ae33        0xd 0x1 adc_x86_64.o
                0x000000000042ae33                adc__str_29_fileName__
 .rodata.adc__str_30___________
                0x000000000042ae40       0x25 0x1 adc_x86_64.o
                0x000000000042ae40                adc__str_30___________
 .rodata.adc__str_31__id___d__
                0x000000000042ae65        0x9 0x1 adc_x86_64.o
                0x000000000042ae65                adc__str_31__id___d__
 .rodata.adc__str_32__attribute
                0x000000000042ae6e       0x11 0x1 adc_x86_64.o
                0x000000000042ae6e                adc__str_32__attribute
 .rodata.adc__str_33__measures_
                0x000000000042ae7f       0x11 0x1 adc_x86_64.o
                0x000000000042ae7f                adc__str_33__measures_
 .rodata.adc__str_34__tuples___
                0x000000000042ae90       0x13 0x1 adc_x86_64.o
                0x000000000042ae90                adc__str_34__tuples___
 .rodata.adc__str_35__class___c
                0x000000000042aea3        0xc 0x1 adc_x86_64.o
                0x000000000042aea3                adc__str_35__class_(char)
 .rodata.adc__str_36__filename_
                0x000000000042aeaf       0x14 0x1 adc_x86_64.o
                0x000000000042aeaf                adc__str_36__filename_
 .rodata.adc__str_37___________
                0x000000000042aec3       0x25 0x1 adc_x86_64.o
                0x000000000042aec3                adc__str_37___________
 .rodata.adc_c_GetNextTuple_maxdim
                0x000000000042aee8        0x4 0x4 adc_x86_64.o
 .rodata.adc__str_38_GetNextTup
                0x000000000042aeec       0x2e 0x1 adc_x86_64.o
                0x000000000042aeec                adc__str_38_GetNextTup
 .rodata.adc__str_39_GetNextTup
                0x000000000042af1a       0x2c 0x1 adc_x86_64.o
                0x000000000042af1a                adc__str_39_GetNextTup
 .rodata.adc__str_40_Prime__Gen
                0x000000000042af46       0x18 0x1 adc_x86_64.o
                0x000000000042af46                adc__str_40_Prime__Gen
 .rodata.adc__str_41___ld___ld_
                0x000000000042af5e       0x11 0x1 adc_x86_64.o
                0x000000000042af5e                adc__str_41___ld___ld_
 .rodata.adc__str_42__s_dat__d_
                0x000000000042af6f        0xa 0x1 adc_x86_64.o
                0x000000000042af6f                adc__str_42__s_dat__d_
 .rodata.adc__str_43_wb__
                0x000000000042af79        0x4 0x1 adc_x86_64.o
                0x000000000042af79                adc__str_43_wb__
 .rodata.adc__str_44_GenerateAD
                0x000000000042af7d       0x22 0x1 adc_x86_64.o
                0x000000000042af7d                adc__str_44_GenerateAD
 .rodata.adc__str_45__GenerateA
                0x000000000042af9f       0x48 0x1 adc_x86_64.o
                0x000000000042af9f                adc__str_45__GenerateA
 .rodata.adc__str_46_Binary_ADC
                0x000000000042afe7       0x14 0x1 adc_x86_64.o
                0x000000000042afe7                adc__str_46_Binary_ADC
 .rodata.adc__str_47_have_been_
                0x000000000042affb       0x16 0x1 adc_x86_64.o
                0x000000000042affb                adc__str_47_have_been_
 .rodata.adc__str_48_attrNum_
                0x000000000042b011        0x8 0x1 adc_x86_64.o
                0x000000000042b011                adc__str_48_attrNum_
 .rodata.adc__str_49_measuresNu
                0x000000000042b019        0xc 0x1 adc_x86_64.o
                0x000000000042b019                adc__str_49_measuresNu
 .rodata.adc__str_50_tuplesNum_
                0x000000000042b025        0xa 0x1 adc_x86_64.o
                0x000000000042b025                adc__str_50_tuplesNum_
 .rodata.adc__str_51_INVERSE_EN
                0x000000000042b02f        0xf 0x1 adc_x86_64.o
                0x000000000042b02f                adc__str_51_INVERSE_EN
 .rodata.adc__str_52_fileName_
                0x000000000042b03e        0x9 0x1 adc_x86_64.o
                0x000000000042b03e                adc__str_52_fileName_
 .rodata.adc__str_53_class_
                0x000000000042b047        0x6 0x1 adc_x86_64.o
                0x000000000042b047                adc__str_53_class_
 .rodata.extbuild__str__ReadWhole
                0x000000000042b04d       0x32 0x1 extbuild_x86_64.o
                0x000000000042b04d                extbuild__str__ReadWhole
 .rodata.extbuild__str_1_ComputeMem
                0x000000000042b07f       0x2f 0x1 extbuild_x86_64.o
                0x000000000042b07f                extbuild__str_1_ComputeMem
 .rodata.extbuild__str_2_SharedSort
                0x000000000042b0ae       0x2f 0x1 extbuild_x86_64.o
                0x000000000042b0ae                extbuild__str_2_SharedSort
 .rodata.extbuild__str_3_Too_many_c
                0x000000000042b0dd       0x1f 0x1 extbuild_x86_64.o
                0x000000000042b0dd                extbuild__str_3_Too_many_c
 .rodata.extbuild__str_4_SharedSort
                0x000000000042b0fc       0x2b 0x1 extbuild_x86_64.o
                0x000000000042b0fc                extbuild__str_4_SharedSort
 .rodata.extbuild__str_5_SharedSort
                0x000000000042b127       0x2c 0x1 extbuild_x86_64.o
                0x000000000042b127                extbuild__str_5_SharedSort
 .rodata.extbuild__str_6_SharedSort
                0x000000000042b153       0x2b 0x1 extbuild_x86_64.o
                0x000000000042b153                extbuild__str_6_SharedSort
 .rodata.extbuild__str_7_PrefixedAg
                0x000000000042b17e       0x2d 0x1 extbuild_x86_64.o
                0x000000000042b17e                extbuild__str_7_PrefixedAg
 .rodata.extbuild__str_8_PrefixedAg
                0x000000000042b1ab       0x2c 0x1 extbuild_x86_64.o
                0x000000000042b1ab                extbuild__str_8_PrefixedAg
 .rodata.extbuild__str_9___Write_er
                0x000000000042b1d7       0x22 0x1 extbuild_x86_64.o
                0x000000000042b1d7                extbuild__str_9___Write_er
 .rodata.extbuild__str_10_RunFormati
                0x000000000042b1f9       0x2d 0x1 extbuild_x86_64.o
                0x000000000042b1f9                extbuild__str_10_RunFormati
 .rodata.extbuild__str_11_RunFormati
                0x000000000042b226       0x38 0x1 extbuild_x86_64.o
                0x000000000042b226                extbuild__str_11_RunFormati
 .rodata.extbuild__str_12_RunFormati
                0x000000000042b25e       0x39 0x1 extbuild_x86_64.o
                0x000000000042b25e                extbuild__str_12_RunFormati
 .rodata.extbuild__str_13_SeekAndRea
                0x000000000042b297       0x25 0x1 extbuild_x86_64.o
                0x000000000042b297                extbuild__str_13_SeekAndRea
 .rodata.extbuild__str_14_MultiWayMe
                0x000000000042b2bc       0x3b 0x1 extbuild_x86_64.o
                0x000000000042b2bc                extbuild__str_14_MultiWayMe
 .rodata.extbuild__str_15_AdcFileOpe
                0x000000000042b2f7       0x31 0x1 extbuild_x86_64.o
                0x000000000042b2f7                extbuild__str_15_AdcFileOpe
 .rodata.extbuild__str_16__s__s__d_
                0x000000000042b328        0x9 0x1 extbuild_x86_64.o
                0x000000000042b328                extbuild__str_16__s__s__d_
 .rodata.extbuild__str_17___d_
                0x000000000042b331        0x4 0x1 extbuild_x86_64.o
                0x000000000042b331                extbuild__str_17___d_
 .rodata.extbuild__str_18_logf_
                0x000000000042b335        0x5 0x1 extbuild_x86_64.o
                0x000000000042b335                extbuild__str_18_logf_
 .rodata.extbuild__str_19_w_
                0x000000000042b33a        0x2 0x1 extbuild_x86_64.o
                0x000000000042b33a                extbuild__str_19_w_
 .rodata.extbuild__str_20_dat_
                0x000000000042b33c        0x4 0x1 extbuild_x86_64.o
                0x000000000042b33c                extbuild__str_20_dat_
 .rodata.extbuild__str_21_rb_
                0x000000000042b340        0x3 0x1 extbuild_x86_64.o
                0x000000000042b340                extbuild__str_21_rb_
 .rodata.extbuild__str_22_view_dat_
                0x000000000042b343        0x9 0x1 extbuild_x86_64.o
                0x000000000042b343                extbuild__str_22_view_dat_
 .rodata.extbuild__str_23_wb__
                0x000000000042b34c        0x4 0x1 extbuild_x86_64.o
                0x000000000042b34c                extbuild__str_23_wb__
 .rodata.extbuild__str_24_chunks_dat
                0x000000000042b350        0xb 0x1 extbuild_x86_64.o
                0x000000000042b350                extbuild__str_24_chunks_dat
 .rodata.extbuild__str_25_groupby_da
                0x000000000042b35b        0xc 0x1 extbuild_x86_64.o
                0x000000000042b35b                extbuild__str_25_groupby_da
 .rodata.extbuild__str_26_view_sz_
                0x000000000042b367        0x8 0x1 extbuild_x86_64.o
                0x000000000042b367                extbuild__str_26_view_sz_
 .rodata.extbuild__str_27_r_
                0x000000000042b36f        0x2 0x1 extbuild_x86_64.o
                0x000000000042b36f                extbuild__str_27_r_
 .rodata.extbuild__str_28_viewsz_dat
                0x000000000042b371        0xb 0x1 extbuild_x86_64.o
                0x000000000042b371                extbuild__str_28_viewsz_dat
 .rodata.extbuild__str_29_NewAdcView
                0x000000000042b37c       0x30 0x1 extbuild_x86_64.o
                0x000000000042b37c                extbuild__str_29_NewAdcView
 .rodata.extbuild__str_30_NewAdcView
                0x000000000042b3ac       0x34 0x1 extbuild_x86_64.o
                0x000000000042b3ac                extbuild__str_30_NewAdcView
 .rodata.extbuild__str_31_NewAdcView
                0x000000000042b3e0       0x35 0x1 extbuild_x86_64.o
                0x000000000042b3e0                extbuild__str_31_NewAdcView
 .rodata.extbuild__str_32__NewAdcVie
                0x000000000042b415       0x29 0x1 extbuild_x86_64.o
                0x000000000042b415                extbuild__str_32__NewAdcVie
 .rodata.extbuild__str_33___Not_enou
                0x000000000042b43e       0x38 0x1 extbuild_x86_64.o
                0x000000000042b43e                extbuild__str_33___Not_enou
 .rodata.extbuild__str_34___Not_enou
                0x000000000042b476       0x45 0x1 extbuild_x86_64.o
                0x000000000042b476                extbuild__str_34___Not_enou
 .rodata.extbuild__str_35__Meaning_o
                0x000000000042b4bb       0x30 0x1 extbuild_x86_64.o
                0x000000000042b4bb                extbuild__str_35__Meaning_o
 .rodata.extbuild__str_36_Row_Number
                0x000000000042b4eb       0x44 0x1 extbuild_x86_64.o
                0x000000000042b4eb                extbuild__str_36_Row_Number
 .rodata.extbuild__str_37_____memory
                0x000000000042b52f       0x18 0x1 extbuild_x86_64.o
                0x000000000042b52f                extbuild__str_37_____memory
 .rodata.extbuild__str_38_____treeNo
                0x000000000042b547       0x19 0x1 extbuild_x86_64.o
                0x000000000042b547                extbuild__str_38_____treeNo
 .rodata.extbuild__str_39__treeMemor
                0x000000000042b560       0x19 0x1 extbuild_x86_64.o
                0x000000000042b560                extbuild__str_39__treeMemor
 .rodata.extbuild__str_40_____nNodes
                0x000000000042b579       0x18 0x1 extbuild_x86_64.o
                0x000000000042b579                extbuild__str_40_____nNodes
 .rodata.extbuild__str_41_freeNodeCo
                0x000000000042b591       0x18 0x1 extbuild_x86_64.o
                0x000000000042b591                extbuild__str_41_freeNodeCo
 .rodata.extbuild__str_42__nViewRows
                0x000000000042b5a9       0x13 0x1 extbuild_x86_64.o
                0x000000000042b5a9                extbuild__str_42__nViewRows
 .rodata.extbuild__str_43__s_
                0x000000000042b5bc        0x3 0x1 extbuild_x86_64.o
                0x000000000042b5bc                extbuild__str_43__s_
 .rodata.extbuild__str_44_Selection_
                0x000000000042b5bf        0xb 0x1 extbuild_x86_64.o
                0x000000000042b5bf                extbuild__str_44_Selection_
 .rodata.extbuild__str_45_View_
                0x000000000042b5ca        0x5 0x1 extbuild_x86_64.o
                0x000000000042b5ca                extbuild__str_45_View_
 .rodata.extbuild__str_46_Size__
                0x000000000042b5cf        0x6 0x1 extbuild_x86_64.o
                0x000000000042b5cf                extbuild__str_46_Size__
 .rodata.extbuild__str_47_A_view_siz
                0x000000000042b5d5       0x2a 0x1 extbuild_x86_64.o
                0x000000000042b5d5                extbuild__str_47_A_view_siz
 .rodata.extbuild__str_48___Meaning_
                0x000000000042b5ff       0x31 0x1 extbuild_x86_64.o
                0x000000000042b5ff                extbuild__str_48___Meaning_
 .rodata.extbuild__str_49_Verificati
                0x000000000042b630       0x14 0x1 extbuild_x86_64.o
                0x000000000042b630                extbuild__str_49_Verificati
 .rodata.extbuild__str_50_Verificati
                0x000000000042b644       0x14 0x1 extbuild_x86_64.o
                0x000000000042b644                extbuild__str_50_Verificati
 .rodata.extbuild__str_51_ReadWholeI
                0x000000000042b658       0x1c 0x1 extbuild_x86_64.o
                0x000000000042b658                extbuild__str_51_ReadWholeI
 .rodata.extbuild__str_52_ComputeMem
                0x000000000042b674       0x21 0x1 extbuild_x86_64.o
                0x000000000042b674                extbuild__str_52_ComputeMem
 .rodata.extbuild__str_53__7d__
                0x000000000042b695        0x5 0x1 extbuild_x86_64.o
                0x000000000042b695                extbuild__str_53__7d__
 .rodata.extbuild__str_54______15d__
                0x000000000042b69a        0xc 0x1 extbuild_x86_64.o
                0x000000000042b69a                extbuild__str_54______15d__
 .rodata.extbuild__str_55___20lld_
                0x000000000042b6a6        0x8 0x1 extbuild_x86_64.o
                0x000000000042b6a6                extbuild__str_55___20lld_
 .rodata.extbuild__str_56_____5d_
                0x000000000042b6ae        0x7 0x1 extbuild_x86_64.o
                0x000000000042b6ae                extbuild__str_56_____5d_
 .rodata.jobcntl__str____s_
                0x000000000042b6b5        0x5 0x1 jobcntl_x86_64.o
                0x000000000042b6b5                jobcntl__str____s_
 .rodata.jobcntl__str_1_1_
                0x000000000042b6ba        0x2 0x1 jobcntl_x86_64.o
                0x000000000042b6ba                jobcntl__str_1_1_
 .rodata.jobcntl__str_2_0_
                0x000000000042b6bc        0x2 0x1 jobcntl_x86_64.o
                0x000000000042b6bc                jobcntl__str_2_0_
 .rodata.jobcntl__str_3___s__
                0x000000000042b6be        0x5 0x1 jobcntl_x86_64.o
                0x000000000042b6be                jobcntl__str_3___s__
 .rodata.jobcntl__str_4___d_
                0x000000000042b6c3        0x4 0x1 jobcntl_x86_64.o
                0x000000000042b6c3                jobcntl__str_4___d_
 .rodata.jobcntl__str_5__Partition
                0x000000000042b6c7       0x2e 0x1 jobcntl_x86_64.o
                0x000000000042b6c7                jobcntl__str_5__Partition
 .rodata.jobcntl__str_6__s_
                0x000000000042b6f5        0x3 0x1 jobcntl_x86_64.o
                0x000000000042b6f5                jobcntl__str_6__s_
 .rodata.jobcntl__str_7_Selection_
                0x000000000042b6f8        0xb 0x1 jobcntl_x86_64.o
                0x000000000042b6f8                jobcntl__str_7_Selection_
 .rodata.jobcntl__str_8_View_
                0x000000000042b703        0x5 0x1 jobcntl_x86_64.o
                0x000000000042b703                jobcntl__str_8_View_
 .rodata.jobcntl__str_9_Size__
                0x000000000042b708        0x6 0x1 jobcntl_x86_64.o
                0x000000000042b708                jobcntl__str_9_Size__
 .rodata.jobcntl__str_10_MultiFileP
                0x000000000042b70e       0x20 0x1 jobcntl_x86_64.o
                0x000000000042b70e                jobcntl__str_10_MultiFileP
 .rodata.jobcntl__str_11_MultiFileP
                0x000000000042b72e       0x20 0x1 jobcntl_x86_64.o
                0x000000000042b72e                jobcntl__str_11_MultiFileP
 .rodata.rbt__str___Write_er
                0x000000000042b74e       0x22 0x1 rbt_x86_64.o
                0x000000000042b74e                rbt__str___Write_er
 .rodata.print_results__str_____s_Benc
                0x000000000042b770       0x1c 0x1 print_results_x86_64.o
                0x000000000042b770                print_results__str_____s_Benc
 .rodata.print_results__str_1__Class____
                0x000000000042b78c       0x25 0x1 print_results_x86_64.o
                0x000000000042b78c                print_results__str_1__Class____
 .rodata.print_results__str_2__15_0lf_
                0x000000000042b7b1        0x8 0x1 print_results_x86_64.o
                0x000000000042b7b1                print_results__str_2__15_0lf_
 .rodata.print_results__str_3__Size_____
                0x000000000042b7b9       0x22 0x1 print_results_x86_64.o
                0x000000000042b7b9                print_results__str_3__Size_____
 .rodata.print_results__str_4__Size_____
                0x000000000042b7db       0x25 0x1 print_results_x86_64.o
                0x000000000042b7db                print_results__str_4__Size_____
 .rodata.print_results__str_5__Size_____
                0x000000000042b800       0x2a 0x1 print_results_x86_64.o
                0x000000000042b800                print_results__str_5__Size_____
 .rodata.print_results__str_6__Iteration
                0x000000000042b82a       0x25 0x1 print_results_x86_64.o
                0x000000000042b82a                print_results__str_6__Iteration
 .rodata.print_results__str_7__Time_in_s
                0x000000000042b84f       0x28 0x1 print_results_x86_64.o
                0x000000000042b84f                print_results__str_7__Time_in_s
 .rodata.print_results__str_8__Mop_s_tot
                0x000000000042b877       0x25 0x1 print_results_x86_64.o
                0x000000000042b877                print_results__str_8__Mop_s_tot
 .rodata.print_results__str_9__Operation
                0x000000000042b89c       0x19 0x1 print_results_x86_64.o
                0x000000000042b89c                print_results__str_9__Operation
 .rodata.print_results__str_10__Verificat
                0x000000000042b8b5       0x25 0x1 print_results_x86_64.o
                0x000000000042b8b5                print_results__str_10__Verificat
 .rodata.print_results__str_11_SUCCESSFUL
                0x000000000042b8da        0xb 0x1 print_results_x86_64.o
                0x000000000042b8da                print_results__str_11_SUCCESSFUL
 .rodata.print_results__str_12_UNSUCCESSF
                0x000000000042b8e5        0xd 0x1 print_results_x86_64.o
                0x000000000042b8e5                print_results__str_12_UNSUCCESSF
 .rodata.print_results__str_13__Version__
                0x000000000042b8f2       0x25 0x1 print_results_x86_64.o
                0x000000000042b8f2                print_results__str_13__Version__
 .rodata.print_results__str_14__Compile_d
                0x000000000042b917       0x25 0x1 print_results_x86_64.o
                0x000000000042b917                print_results__str_14__Compile_d
 .rodata.print_results__str_15___Compile_
                0x000000000042b93c       0x2a 0x1 print_results_x86_64.o
                0x000000000042b93c                print_results__str_15___Compile_
 .rodata.print_results__str_16_____CLINK_
                0x000000000042b966       0x17 0x1 print_results_x86_64.o
                0x000000000042b966                print_results__str_16_____CLINK_
 .rodata.print_results__str_17_____C_LIB_
                0x000000000042b97d       0x17 0x1 print_results_x86_64.o
                0x000000000042b97d                print_results__str_17_____C_LIB_
 .rodata.print_results__str_18_____C_INC_
                0x000000000042b994       0x17 0x1 print_results_x86_64.o
                0x000000000042b994                print_results__str_18_____C_INC_
 .rodata.print_results__str_19_____CFLAGS
                0x000000000042b9ab       0x17 0x1 print_results_x86_64.o
                0x000000000042b9ab                print_results__str_19_____CFLAGS
 .rodata.print_results__str_20_____CLINKF
                0x000000000042b9c2       0x17 0x1 print_results_x86_64.o
                0x000000000042b9c2                print_results__str_20_____CLINKF
 .rodata.print_results__str_21_____RAND__
                0x000000000042b9d9       0x17 0x1 print_results_x86_64.o
                0x000000000042b9d9                print_results__str_21_____RAND__
 .rodata.print_results__str_22___________
                0x000000000042b9f0       0xc3 0x1 print_results_x86_64.o
                0x000000000042b9f0                print_results__str_22___________
 .rodata.c_print_results__str_____s_Benc
                0x000000000042bab3       0x1b 0x1 c_print_results_x86_64.o
                0x000000000042bab3                c_print_results__str_____s_Benc
 .rodata.c_print_results__str_1__Class____
                0x000000000042bace       0x2e 0x1 c_print_results_x86_64.o
                0x000000000042bace                c_print_results__str_1__Class____
 .rodata.c_print_results__str_2__Size_____
                0x000000000042bafc       0x26 0x1 c_print_results_x86_64.o
                0x000000000042bafc                c_print_results__str_2__Size_____
 .rodata.c_print_results__str_3__Size_____
                0x000000000042bb22       0x2c 0x1 c_print_results_x86_64.o
                0x000000000042bb22                c_print_results__str_3__Size_____
 .rodata.c_print_results__str_4__Iteration
                0x000000000042bb4e       0x25 0x1 c_print_results_x86_64.o
                0x000000000042bb4e                c_print_results__str_4__Iteration
 .rodata.c_print_results__str_5__Time_in_s
                0x000000000042bb73       0x27 0x1 c_print_results_x86_64.o
                0x000000000042bb73                c_print_results__str_5__Time_in_s
 .rodata.c_print_results__str_6__Mop_s_tot
                0x000000000042bb9a       0x27 0x1 c_print_results_x86_64.o
                0x000000000042bb9a                c_print_results__str_6__Mop_s_tot
 .rodata.c_print_results__str_7__Operation
                0x000000000042bbc1       0x19 0x1 c_print_results_x86_64.o
                0x000000000042bbc1                c_print_results__str_7__Operation
 .rodata.c_print_results__str_8__Verificat
                0x000000000042bbda       0x2d 0x1 c_print_results_x86_64.o
                0x000000000042bbda                c_print_results__str_8__Verificat
 .rodata.c_print_results__str_9__Verificat
                0x000000000042bc07       0x2d 0x1 c_print_results_x86_64.o
                0x000000000042bc07                c_print_results__str_9__Verificat
 .rodata.c_print_results__str_10__Verificat
                0x000000000042bc34       0x2d 0x1 c_print_results_x86_64.o
                0x000000000042bc34                c_print_results__str_10__Verificat
 .rodata.c_print_results__str_11__Version__
                0x000000000042bc61       0x25 0x1 c_print_results_x86_64.o
                0x000000000042bc61                c_print_results__str_11__Version__
 .rodata.c_print_results__str_12__Compile_d
                0x000000000042bc86       0x25 0x1 c_print_results_x86_64.o
                0x000000000042bc86                c_print_results__str_12__Compile_d
 .rodata.c_print_results__str_13___Compile_
                0x000000000042bcab       0x14 0x1 c_print_results_x86_64.o
                0x000000000042bcab                c_print_results__str_13___Compile_
 .rodata.c_print_results__str_14_____CC____
                0x000000000042bcbf       0x17 0x1 c_print_results_x86_64.o
                0x000000000042bcbf                c_print_results__str_14_____CC____
 .rodata.c_print_results__str_15_____CLINK_
                0x000000000042bcd6       0x17 0x1 c_print_results_x86_64.o
                0x000000000042bcd6                c_print_results__str_15_____CLINK_
 .rodata.c_print_results__str_16_____C_LIB_
                0x000000000042bced       0x17 0x1 c_print_results_x86_64.o
                0x000000000042bced                c_print_results__str_16_____C_LIB_
 .rodata.c_print_results__str_17_____C_INC_
                0x000000000042bd04       0x17 0x1 c_print_results_x86_64.o
                0x000000000042bd04                c_print_results__str_17_____C_INC_
 .rodata.c_print_results__str_18_____CFLAGS
                0x000000000042bd1b       0x17 0x1 c_print_results_x86_64.o
                0x000000000042bd1b                c_print_results__str_18_____CFLAGS
 .rodata.c_print_results__str_19_____CLINKF
                0x000000000042bd32       0x17 0x1 c_print_results_x86_64.o
                0x000000000042bd32                c_print_results__str_19_____CLINKF
 .rodata.c_print_results__str_20___________
                0x000000000042bd49       0x29 0x1 c_print_results_x86_64.o
                0x000000000042bd49                c_print_results__str_20___________
 .rodata.c_print_results__str_21__Please_se
                0x000000000042bd72       0x27 0x1 c_print_results_x86_64.o
                0x000000000042bd72                c_print_results__str_21__Please_se
 .rodata.c_print_results__str_22__Center_fo
                0x000000000042bd99       0x22 0x1 c_print_results_x86_64.o
                0x000000000042bd99                c_print_results__str_22__Center_fo
 .rodata.c_print_results__str_23__cmp_aces_
                0x000000000042bdbb       0x15 0x1 c_print_results_x86_64.o
                0x000000000042bdbb                c_print_results__str_23__cmp_aces_
 .rodata.c_print_results__str_24__http___ac
                0x000000000042bdd0       0x18 0x1 c_print_results_x86_64.o
                0x000000000042bdd0                c_print_results__str_24__http___ac
 .rodata.c_print_results__str_25___________
                0x000000000042bde8       0x28 0x1 c_print_results_x86_64.o
                0x000000000042bde8                c_print_results__str_25___________
 .rodata.src_env___libc_start_main__str_
                0x000000000042be10        0x1 0x1 /usr/local/popcorn/x86_64/lib/libc.a(__libc_start_main.o)
                0x000000000042be10                src_env___libc_start_main__str_
 .rodata.src_env___libc_start_main___init_libc_pfd_
                0x000000000042be20       0x18 0x10 /usr/local/popcorn/x86_64/lib/libc.a(__libc_start_main.o)
                0x000000000042be20                src_env___libc_start_main___init_libc_pfd_
 .rodata.src_env___libc_start_main__str_1__dev_null_
                0x000000000042be38        0xa 0x1 /usr/local/popcorn/x86_64/lib/libc.a(__libc_start_main.o)
                0x000000000042be38                src_env___libc_start_main__str_1__dev_null_
 .rodata.src_malloc_malloc_c_bin_tab
                0x000000000042be50       0x3c 0x10 /usr/local/popcorn/x86_64/lib/libc.a(malloc.o)
 .rodata.src_malloc_popcorn_malloc_c_bin_tab
                0x000000000042be90       0x3c 0x10 /usr/local/popcorn/x86_64/lib/libc.a(popcorn_malloc.o)
 .rodata.src_math_pow_c_bp
                0x000000000042bed0       0x10 0x10 /usr/local/popcorn/x86_64/lib/libc.a(pow.o)
 .rodata.src_math_pow_c_dp_l
                0x000000000042bee0       0x10 0x10 /usr/local/popcorn/x86_64/lib/libc.a(pow.o)
 .rodata.src_math_pow_c_dp_h
                0x000000000042bef0       0x10 0x10 /usr/local/popcorn/x86_64/lib/libc.a(pow.o)
 .rodata.src_stdio_fopen__str_rwa_
                0x000000000042bf00        0x4 0x1 /usr/local/popcorn/x86_64/lib/libc.a(fopen.o)
                0x000000000042bf00                src_stdio_fopen__str_rwa_
 .rodata.stderr
                0x000000000042bf08        0x8 0x8 /usr/local/popcorn/x86_64/lib/libc.a(stderr.o)
                0x000000000042bf08                stderr
 .rodata.stdout
                0x000000000042bf10        0x8 0x8 /usr/local/popcorn/x86_64/lib/libc.a(stdout.o)
                0x000000000042bf10                stdout
 ** merge constants
                0x000000000042bf18       0x28
 .rodata.printf_core
                0x000000000042bf40      0x170 0x8 /usr/local/popcorn/x86_64/lib/libc.a(vfprintf.o)
 .rodata.pop_arg
                0x000000000042c0b0       0x90 0x8 /usr/local/popcorn/x86_64/lib/libc.a(vfprintf.o)
 .rodata.src_stdio_vfprintf_c_states
                0x000000000042c140      0x1d0 0x10 /usr/local/popcorn/x86_64/lib/libc.a(vfprintf.o)
 .rodata.src_stdio_vfprintf__str______0X0x_
                0x000000000042c310        0xa 0x1 /usr/local/popcorn/x86_64/lib/libc.a(vfprintf.o)
                0x000000000042c310                src_stdio_vfprintf__str______0X0x_
 .rodata.src_stdio_vfprintf__str_1__null__
                0x000000000042c31a        0x7 0x1 /usr/local/popcorn/x86_64/lib/libc.a(vfprintf.o)
                0x000000000042c31a                src_stdio_vfprintf__str_1__null__
 .rodata.src_stdio_vfprintf_c_xdigits
                0x000000000042c330       0x10 0x10 /usr/local/popcorn/x86_64/lib/libc.a(vfprintf.o)
 .rodata.src_stdio_vfprintf__str_2__0X_0X_0X_
                0x000000000042c340       0x13 0x1 /usr/local/popcorn/x86_64/lib/libc.a(vfprintf.o)
                0x000000000042c340                src_stdio_vfprintf__str_2__0X_0X_0X_
 .rodata.src_stdio_vfprintf__str_3_inf_
                0x000000000042c353        0x4 0x1 /usr/local/popcorn/x86_64/lib/libc.a(vfprintf.o)
                0x000000000042c353                src_stdio_vfprintf__str_3_inf_
 .rodata.src_stdio_vfprintf__str_4_INF_
                0x000000000042c357        0x4 0x1 /usr/local/popcorn/x86_64/lib/libc.a(vfprintf.o)
                0x000000000042c357                src_stdio_vfprintf__str_4_INF_
 .rodata.src_stdio_vfprintf__str_5_nan_
                0x000000000042c35b        0x4 0x1 /usr/local/popcorn/x86_64/lib/libc.a(vfprintf.o)
                0x000000000042c35b                src_stdio_vfprintf__str_5_nan_
 .rodata.src_stdio_vfprintf__str_6_NAN_
                0x000000000042c35f        0x4 0x1 /usr/local/popcorn/x86_64/lib/libc.a(vfprintf.o)
                0x000000000042c35f                src_stdio_vfprintf__str_6_NAN_
 .rodata.src_stdio_vfprintf__str_7___
                0x000000000042c363        0x2 0x1 /usr/local/popcorn/x86_64/lib/libc.a(vfprintf.o)
                0x000000000042c363                src_stdio_vfprintf__str_7___
 .rodata.vfscanf
                0x000000000042c368      0x338 0x8 /usr/local/popcorn/x86_64/lib/libc.a(vfscanf.o)
 .rodata.src_stdlib_qsort_qsort_p_
                0x000000000042c6a0       0x10 0x10 /usr/local/popcorn/x86_64/lib/libc.a(qsort.o)
                0x000000000042c6a0                src_stdlib_qsort_qsort_p_
 .rodata.src_errno_strerror_c_errid
                0x000000000042c6b0       0x58 0x10 /usr/local/popcorn/x86_64/lib/libc.a(strerror.o)
 .rodata.src_errno_strerror_c_errmsg
                0x000000000042c710      0x70c 0x10 /usr/local/popcorn/x86_64/lib/libc.a(strerror.o)
 .rodata.src_internal_floatscan__str_infinity_
                0x000000000042ce1c        0x9 0x1 /usr/local/popcorn/x86_64/lib/libc.a(floatscan.o)
                0x000000000042ce1c                src_internal_floatscan__str_infinity_
 .rodata.src_internal_floatscan__str_1_nan_
                0x000000000042ce25        0x4 0x1 /usr/local/popcorn/x86_64/lib/libc.a(floatscan.o)
                0x000000000042ce25                src_internal_floatscan__str_1_nan_
 .rodata.src_internal_floatscan_c_decfloat_th
                0x000000000042ce2c        0xc 0x4 /usr/local/popcorn/x86_64/lib/libc.a(floatscan.o)
 .rodata.src_internal_floatscan_c_decfloat_p10s
                0x000000000042ce40       0x20 0x10 /usr/local/popcorn/x86_64/lib/libc.a(floatscan.o)
 .rodata.src_internal_intscan_c_table
                0x000000000042ce60      0x101 0x10 /usr/local/popcorn/x86_64/lib/libc.a(intscan.o)
 .rodata.src_internal_intscan__str__________
                0x000000000042cf61        0x9 0x1 /usr/local/popcorn/x86_64/lib/libc.a(intscan.o)
                0x000000000042cf61                src_internal_intscan__str__________
 .rodata.src_stdio___fdopen__str_rwa_
                0x000000000042cf6a        0x4 0x1 /usr/local/popcorn/x86_64/lib/libc.a(__fdopen.o)
                0x000000000042cf6a                src_stdio___fdopen__str_rwa_
 .rodata.__fsmu8
                0x000000000042cf70       0xcc 0x10 /usr/local/popcorn/x86_64/lib/libc.a(internal.o)
                0x000000000042cf70                __fsmu8
 .rodata.src_migrate__str_Destinatio
                0x000000000042d03c       0x24 0x1 /usr/local/popcorn/x86_64/lib/libmigrate.a(migrate.o)
                0x000000000042d03c                src_migrate__str_Destinatio
 .rodata.src_migrate__str_1_0_____Unsu
                0x000000000042d060       0x21 0x1 /usr/local/popcorn/x86_64/lib/libmigrate.a(migrate.o)
                0x000000000042d060                src_migrate__str_1_0_____Unsu
 .rodata.src_migrate__str_2_src_migrat
                0x000000000042d081        0xe 0x1 /usr/local/popcorn/x86_64/lib/libmigrate.a(migrate.o)
                0x000000000042d081                src_migrate__str_2_src_migrat
 .rodata.src_migrate___func_____migrate_shim_internal___migrate_
                0x000000000042d08f       0x18 0x1 /usr/local/popcorn/x86_64/lib/libmigrate.a(migrate.o)
                0x000000000042d08f                src_migrate___func_____migrate_shim_internal___migrate_
 .rodata.src_migrate__str_3_Could_not_
                0x000000000042d0a7       0x1a 0x1 /usr/local/popcorn/x86_64/lib/libmigrate.a(migrate.o)
                0x000000000042d0a7                src_migrate__str_3_Could_not_
 .rodata.src_migrate__str_4_Could_not_
                0x000000000042d0c1       0x1a 0x1 /usr/local/popcorn/x86_64/lib/libmigrate.a(migrate.o)
                0x000000000042d0c1                src_migrate__str_4_Could_not_
 .rodata.src_migrate___func___get_thread_pointer_get_thread
                0x000000000042d0db       0x13 0x1 /usr/local/popcorn/x86_64/lib/libmigrate.a(migrate.o)
                0x000000000042d0db                src_migrate___func___get_thread_pointer_get_thread
 .rodata.src_mapping__str_POPCORN_TH
                0x000000000042d0ee       0x18 0x1 /usr/local/popcorn/x86_64/lib/libmigrate.a(mapping.o)
                0x000000000042d0ee                src_mapping__str_POPCORN_TH
 .rodata.src_mapping__str_1_thread_sch
                0x000000000042d106       0x14 0x1 /usr/local/popcorn/x86_64/lib/libmigrate.a(mapping.o)
                0x000000000042d106                src_mapping__str_1_thread_sch
 .rodata.src_mapping__str_2_r_
                0x000000000042d11a        0x2 0x1 /usr/local/popcorn/x86_64/lib/libmigrate.a(mapping.o)
                0x000000000042d11a                src_mapping__str_2_r_
 .rodata.src_mapping__str_3__lu__lu_
                0x000000000042d11c        0x8 0x1 /usr/local/popcorn/x86_64/lib/libmigrate.a(mapping.o)
                0x000000000042d11c                src_mapping__str_3__lu__lu_
 .rodata.src_mapping__str_4__d_
                0x000000000042d124        0x3 0x1 /usr/local/popcorn/x86_64/lib/libmigrate.a(mapping.o)
                0x000000000042d124                src_mapping__str_4__d_
 .rodata.src_userspace__str_ST_AARCH64
                0x000000000042d127        0xf 0x1 /usr/local/popcorn/x86_64/lib/libstack-transform.a(userspace.o)
                0x000000000042d127                src_userspace__str_ST_AARCH64
 .rodata.src_userspace__str_1__s_aarch64
                0x000000000042d136        0xb 0x1 /usr/local/popcorn/x86_64/lib/libstack-transform.a(userspace.o)
                0x000000000042d136                src_userspace__str_1__s_aarch64
 .rodata.src_userspace__str_2_ST_POWERPC
                0x000000000042d141       0x11 0x1 /usr/local/popcorn/x86_64/lib/libstack-transform.a(userspace.o)
                0x000000000042d141                src_userspace__str_2_ST_POWERPC
 .rodata.src_userspace__str_3__s_powerpc
                0x000000000042d152        0xd 0x1 /usr/local/popcorn/x86_64/lib/libstack-transform.a(userspace.o)
                0x000000000042d152                src_userspace__str_3__s_powerpc
 .rodata.src_userspace__str_4_ST_X86_64_
                0x000000000042d15f        0xe 0x1 /usr/local/popcorn/x86_64/lib/libstack-transform.a(userspace.o)
                0x000000000042d15f                src_userspace__str_4_ST_X86_64_
 .rodata.src_userspace__str_5__s_x86_64_
                0x000000000042d16d        0xa 0x1 /usr/local/popcorn/x86_64/lib/libstack-transform.a(userspace.o)
                0x000000000042d16d                src_userspace__str_5__s_x86_64_
 .rodata.src_userspace__str_6__proc__d_m
                0x000000000042d177        0xe 0x1 /usr/local/popcorn/x86_64/lib/libstack-transform.a(userspace.o)
                0x000000000042d177                src_userspace__str_6__proc__d_m
 .rodata.src_userspace__str_7_r_
                0x000000000042d185        0x2 0x1 /usr/local/popcorn/x86_64/lib/libstack-transform.a(userspace.o)
                0x000000000042d185                src_userspace__str_7_r_
 .rodata.src_userspace__str_8__lx__lx__s
                0x000000000042d187       0x19 0x1 /usr/local/popcorn/x86_64/lib/libstack-transform.a(userspace.o)
                0x000000000042d187                src_userspace__str_8__lx__lx(short)
 .rodata.src_userspace__str_9__stack__
                0x000000000042d1a0        0x8 0x1 /usr/local/popcorn/x86_64/lib/libstack-transform.a(userspace.o)
                0x000000000042d1a0                src_userspace__str_9__stack__
 .rodata.src_userspace_switch_table_10_
                0x000000000042d1b0       0x18 0x10 /usr/local/popcorn/x86_64/lib/libstack-transform.a(userspace.o)
                0x000000000042d1b0                src_userspace_switch_table_10_
 .rodata.src_init__str__stack_tra
                0x000000000042d1c8       0x1f 0x1 /usr/local/popcorn/x86_64/lib/libstack-transform.a(init.o)
                0x000000000042d1c8                src_init__str__stack_tra
 .rodata.src_init__str_1__stack_tra
                0x000000000042d1e7       0x18 0x1 /usr/local/popcorn/x86_64/lib/libstack-transform.a(init.o)
                0x000000000042d1e7                src_init__str_1__stack_tra
 .rodata.src_init__str_2__stack_tra
                0x000000000042d1ff       0x14 0x1 /usr/local/popcorn/x86_64/lib/libstack-transform.a(init.o)
                0x000000000042d1ff                src_init__str_2__stack_tra
 .rodata.src_init__str_3__stack_tra
                0x000000000042d213       0x16 0x1 /usr/local/popcorn/x86_64/lib/libstack-transform.a(init.o)
                0x000000000042d213                src_init__str_3__stack_tra
 .rodata.src_init__str_4__stack_tra
                0x000000000042d229       0x16 0x1 /usr/local/popcorn/x86_64/lib/libstack-transform.a(init.o)
                0x000000000042d229                src_init__str_4__stack_tra
 .rodata.src_init__str_5__stack_tra
                0x000000000042d23f       0x1c 0x1 /usr/local/popcorn/x86_64/lib/libstack-transform.a(init.o)
                0x000000000042d23f                src_init__str_5__stack_tra
 .rodata.src_rewrite__str__src_rewri
                0x000000000042d25b       0x42 0x1 /usr/local/popcorn/x86_64/lib/libstack-transform.a(rewrite.o)
                0x000000000042d25b                src_rewrite__str__src_rewri
 .rodata.src_rewrite__str_1__src_rewri
                0x000000000042d29d       0x68 0x1 /usr/local/popcorn/x86_64/lib/libstack-transform.a(rewrite.o)
                0x000000000042d29d                src_rewrite__str_1__src_rewri
 .rodata.src_rewrite__str_2__src_rewri
                0x000000000042d305       0x54 0x1 /usr/local/popcorn/x86_64/lib/libstack-transform.a(rewrite.o)
                0x000000000042d305                src_rewrite__str_2__src_rewri
 .rodata.src_rewrite__str_3__src_rewri
                0x000000000042d359       0x61 0x1 /usr/local/popcorn/x86_64/lib/libstack-transform.a(rewrite.o)
                0x000000000042d359                src_rewrite__str_3__src_rewri
 .rodata.src_util__str_aarch64_
                0x000000000042d3ba        0x8 0x1 /usr/local/popcorn/x86_64/lib/libstack-transform.a(util.o)
                0x000000000042d3ba                src_util__str_aarch64_
 .rodata.src_util__str_1_powerpc64_
                0x000000000042d3c2        0xa 0x1 /usr/local/popcorn/x86_64/lib/libstack-transform.a(util.o)
                0x000000000042d3c2                src_util__str_1_powerpc64_
 .rodata.src_util__str_2_x86_64_
                0x000000000042d3cc        0x7 0x1 /usr/local/popcorn/x86_64/lib/libstack-transform.a(util.o)
                0x000000000042d3cc                src_util__str_2_x86_64_
 .rodata.src_util__str_3_unknown_un
                0x000000000042d3d3       0x21 0x1 /usr/local/popcorn/x86_64/lib/libstack-transform.a(util.o)
                0x000000000042d3d3                src_util__str_3_unknown_un
 .rodata.src_arch_aarch64_properties_c_callee_saved_aarch64
                0x000000000042d400       0x28 0x10 /usr/local/popcorn/x86_64/lib/libstack-transform.a(properties.o)
 .rodata.src_arch_aarch64_properties_c_callee_saved_size_aarch64
                0x000000000042d430       0x28 0x10 /usr/local/popcorn/x86_64/lib/libstack-transform.a(properties.o)
 .rodata.properties_aarch64
                0x000000000042d458       0x38 0x8 /usr/local/popcorn/x86_64/lib/libstack-transform.a(properties.o)
                0x000000000042d458                properties_aarch64
 .rodata.src_arch_aarch64_properties__str__src_arch_
                0x000000000042d490       0x51 0x1 /usr/local/popcorn/x86_64/lib/libstack-transform.a(properties.o)
                0x000000000042d490                src_arch_aarch64_properties__str__src_arch_
 .rodata.reg_aarch64
                0x000000000042d4e8      0x300 0x8 /usr/local/popcorn/x86_64/lib/libstack-transform.a(regs.o)
 .rodata.regs_aarch64
                0x000000000042d7e8       0xa8 0x8 /usr/local/popcorn/x86_64/lib/libstack-transform.a(regs.o)
                0x000000000042d7e8                regs_aarch64
 .rodata.src_arch_aarch64_regs__str__src_arch_
                0x000000000042d890       0x4c 0x1 /usr/local/popcorn/x86_64/lib/libstack-transform.a(regs.o)
                0x000000000042d890                src_arch_aarch64_regs__str__src_arch_
 .rodata.src_arch_aarch64_regs__str_1__src_arch_
                0x000000000042d8dc       0x4c 0x1 /usr/local/popcorn/x86_64/lib/libstack-transform.a(regs.o)
                0x000000000042d8dc                src_arch_aarch64_regs__str_1__src_arch_
 .rodata.is_callee_saved_powerpc64
                0x000000000042d928      0x208 0x8 /usr/local/popcorn/x86_64/lib/libstack-transform.a(properties.o)
 .rodata.callee_reg_size_powerpc64
                0x000000000042db30      0x210 0x8 /usr/local/popcorn/x86_64/lib/libstack-transform.a(properties.o)
 .rodata.src_arch_powerpc64_properties_c_callee_saved_powerpc64
                0x000000000042dd40       0x4e 0x10 /usr/local/popcorn/x86_64/lib/libstack-transform.a(properties.o)
 .rodata.src_arch_powerpc64_properties_c_callee_saved_size_powerpc64
                0x000000000042dd90       0x4c 0x10 /usr/local/popcorn/x86_64/lib/libstack-transform.a(properties.o)
 .rodata.properties_powerpc64
                0x000000000042dde0       0x38 0x8 /usr/local/popcorn/x86_64/lib/libstack-transform.a(properties.o)
                0x000000000042dde0                properties_powerpc64
 .rodata.src_arch_powerpc64_properties__str__src_arch_
                0x000000000042de18       0x56 0x1 /usr/local/popcorn/x86_64/lib/libstack-transform.a(properties.o)
                0x000000000042de18                src_arch_powerpc64_properties__str__src_arch_
 .rodata.reg_powerpc64
                0x000000000042de70      0x218 0x8 /usr/local/popcorn/x86_64/lib/libstack-transform.a(regs.o)
 .rodata.regs_powerpc64
                0x000000000042e088       0xa8 0x8 /usr/local/popcorn/x86_64/lib/libstack-transform.a(regs.o)
                0x000000000042e088                regs_powerpc64
 .rodata.src_arch_powerpc64_regs__str__src_arch_
                0x000000000042e130       0x50 0x1 /usr/local/popcorn/x86_64/lib/libstack-transform.a(regs.o)
                0x000000000042e130                src_arch_powerpc64_regs__str__src_arch_
 .rodata.src_arch_powerpc64_regs__str_1__src_arch_
                0x000000000042e180       0x50 0x1 /usr/local/popcorn/x86_64/lib/libstack-transform.a(regs.o)
                0x000000000042e180                src_arch_powerpc64_regs__str_1__src_arch_
 .rodata.src_arch_x86_64_properties_c_callee_saved_x86_64
                0x000000000042e1d0        0xe 0x2 /usr/local/popcorn/x86_64/lib/libstack-transform.a(properties.o)
 .rodata.src_arch_x86_64_properties_c_callee_saved_size_x86_64
                0x000000000042e1de        0xe 0x2 /usr/local/popcorn/x86_64/lib/libstack-transform.a(properties.o)
 .rodata.properties_x86_64
                0x000000000042e1f0       0x38 0x8 /usr/local/popcorn/x86_64/lib/libstack-transform.a(properties.o)
                0x000000000042e1f0                properties_x86_64
 .rodata.src_arch_x86_64_properties__str__src_arch_
                0x000000000042e228       0x4f 0x1 /usr/local/popcorn/x86_64/lib/libstack-transform.a(properties.o)
                0x000000000042e228                src_arch_x86_64_properties__str__src_arch_
 .rodata.reg_x86_64
                0x000000000042e278      0x108 0x8 /usr/local/popcorn/x86_64/lib/libstack-transform.a(regs.o)
 .rodata.regs_x86_64
                0x000000000042e380       0xa8 0x8 /usr/local/popcorn/x86_64/lib/libstack-transform.a(regs.o)
                0x000000000042e380                regs_x86_64
 .rodata.src_arch_x86_64_regs__str__src_arch_
                0x000000000042e428       0x4b 0x1 /usr/local/popcorn/x86_64/lib/libstack-transform.a(regs.o)
                0x000000000042e428                src_arch_x86_64_regs__str__src_arch_
 .rodata.src_arch_x86_64_regs__str_1__src_arch_
                0x000000000042e473       0x4b 0x1 /usr/local/popcorn/x86_64/lib/libstack-transform.a(regs.o)
                0x000000000042e473                src_arch_x86_64_regs__str_1__src_arch_
 .rodata.src_arch_x86_64_regs__str_2__src_arch_
                0x000000000042e4be       0x4a 0x1 /usr/local/popcorn/x86_64/lib/libstack-transform.a(regs.o)
                0x000000000042e4be                src_arch_x86_64_regs__str_2__src_arch_
 .rodata.src_arch_x86_64_regs__str_3__src_arch_
                0x000000000042e508       0x4a 0x1 /usr/local/popcorn/x86_64/lib/libstack-transform.a(regs.o)
                0x000000000042e508                src_arch_x86_64_regs__str_3__src_arch_
 .rodata.src_arch_x86_64_regs_switch_table_
                0x000000000042e560       0x42 0x10 /usr/local/popcorn/x86_64/lib/libstack-transform.a(regs.o)
                0x000000000042e560                src_arch_x86_64_regs_switch_table_
 .rodata.put_val_arch
                0x000000000042e5a8       0xb0 0x8 /usr/local/popcorn/x86_64/lib/libstack-transform.a(data.o)
 .rodata.points_to_stack
                0x000000000042e658       0x28 0x8 /usr/local/popcorn/x86_64/lib/libstack-transform.a(data.o)
 .rodata.src_data__str__src_data_
                0x000000000042e680       0x50 0x1 /usr/local/popcorn/x86_64/lib/libstack-transform.a(data.o)
                0x000000000042e680                src_data__str__src_data_
 .rodata.src_data__str_1__src_data_
                0x000000000042e6d0       0x3d 0x1 /usr/local/popcorn/x86_64/lib/libstack-transform.a(data.o)
                0x000000000042e6d0                src_data__str_1__src_data_
 .rodata.src_data__str_2__src_data_
                0x000000000042e70d       0x30 0x1 /usr/local/popcorn/x86_64/lib/libstack-transform.a(data.o)
                0x000000000042e70d                src_data__str_2__src_data_
 .rodata.src_data__str_3__src_data_
                0x000000000042e73d       0x49 0x1 /usr/local/popcorn/x86_64/lib/libstack-transform.a(data.o)
                0x000000000042e73d                src_data__str_3__src_data_
 .rodata.src_data__str_4__src_data_
                0x000000000042e786       0x3f 0x1 /usr/local/popcorn/x86_64/lib/libstack-transform.a(data.o)
                0x000000000042e786                src_data__str_4__src_data_
 .rodata.src_data__str_5__src_data_
                0x000000000042e7c5       0x3d 0x1 /usr/local/popcorn/x86_64/lib/libstack-transform.a(data.o)
                0x000000000042e7c5                src_data__str_5__src_data_
 .rodata.src_data__str_6__src_data_
                0x000000000042e802       0x3f 0x1 /usr/local/popcorn/x86_64/lib/libstack-transform.a(data.o)
                0x000000000042e802                src_data__str_6__src_data_
 .rodata.src_data__str_7__src_data_
                0x000000000042e841       0x37 0x1 /usr/local/popcorn/x86_64/lib/libstack-transform.a(data.o)
                0x000000000042e841                src_data__str_7__src_data_
 .rodata.src_data__str_8__src_data_
                0x000000000042e878       0x37 0x1 /usr/local/popcorn/x86_64/lib/libstack-transform.a(data.o)
                0x000000000042e878                src_data__str_8__src_data_
 .rodata.src_data__str_9__src_data_
                0x000000000042e8af       0x3f 0x1 /usr/local/popcorn/x86_64/lib/libstack-transform.a(data.o)
                0x000000000042e8af                src_data__str_9__src_data_
 .rodata.src_data__str_10__src_data_
                0x000000000042e8ee       0x3f 0x1 /usr/local/popcorn/x86_64/lib/libstack-transform.a(data.o)
                0x000000000042e8ee                src_data__str_10__src_data_
 .rodata.elf_begin
                0x000000000042e930       0x40 0x8 /usr/local/popcorn/x86_64/lib/libelf.a(begin.o)
 .rodata.begin_c__elf_init
                0x000000000042e970       0xe0 0x8 /usr/local/popcorn/x86_64/lib/libelf.a(begin.o)
 .rodata.begin_c_fmag
                0x000000000042ea50        0x3 0x1 /usr/local/popcorn/x86_64/lib/libelf.a(begin.o)
 .rodata.begin__str__ELF_
                0x000000000042ea53        0x5 0x1 /usr/local/popcorn/x86_64/lib/libelf.a(begin.o)
                0x000000000042ea53                begin__str__ELF_
 .rodata.begin__str_1___arch___
                0x000000000042ea58        0x9 0x1 /usr/local/popcorn/x86_64/lib/libelf.a(begin.o)
                0x000000000042ea58                begin__str_1___arch___
 .rodata.version__str_LIBELF_SAN
                0x000000000042ea61       0x15 0x1 /usr/local/popcorn/x86_64/lib/libelf.a(version.o)
                0x000000000042ea61                version__str_LIBELF_SAN
 .rodata.32_xlatetof_c_xlate32_11
                0x000000000042ea80      0x220 0x10 /usr/local/popcorn/x86_64/lib/libelf.a(32.xlatetof.o)
 .rodata._elf_scn_type
                0x000000000042eca0       0x88 0x8 /usr/local/popcorn/x86_64/lib/libelf.a(cook.o)
 .rodata._elf_cook
                0x000000000042ed28      0x110 0x8 /usr/local/popcorn/x86_64/lib/libelf.a(cook.o)
 .rodata._elf_scn_init
                0x000000000042ee38       0xa0 0x8 /usr/local/popcorn/x86_64/lib/libelf.a(cook.o)
                0x000000000042ee38                _elf_scn_init
 .rodata._elf_data_init
                0x000000000042eed8       0x58 0x8 /usr/local/popcorn/x86_64/lib/libelf.a(cook.o)
                0x000000000042eed8                _elf_data_init
 .rodata.64_xlatetof_c_xlate64_11
                0x000000000042ef30      0x220 0x10 /usr/local/popcorn/x86_64/lib/libelf.a(64.xlatetof.o)
 .rodata._elf_fmsize
                0x000000000042f150      0x220 0x10 /usr/local/popcorn/x86_64/lib/libelf.a(32.fsize.o)
                0x000000000042f150                _elf_fmsize
 .rodata.src_exit_assert__str_Assertion_
                0x000000000042f370       0x23 0x1 /usr/local/popcorn/x86_64/lib/libc.a(assert.o)
                0x000000000042f370                src_exit_assert__str_Assertion_
 .rodata.src_signal_block_c_all_mask
                0x000000000042f398        0x8 0x8 /usr/local/popcorn/x86_64/lib/libc.a(block.o)
 .rodata.src_signal_block_c_app_mask
                0x000000000042f3a0        0x8 0x8 /usr/local/popcorn/x86_64/lib/libc.a(block.o)

.llvm_stackmaps
                0x000000000042f3a8    0x12f58
 .llvm_stackmaps
                0x000000000042f3a8     0x1768 0x8 dc_x86_64.o
 .llvm_stackmaps
                0x0000000000430b10     0x4700 0x8 adc_x86_64.o
 .llvm_stackmaps
                0x0000000000435210     0x7180 0x8 extbuild_x86_64.o
 .llvm_stackmaps
                0x000000000043c390     0x2bc8 0x8 jobcntl_x86_64.o
 .llvm_stackmaps
                0x000000000043ef58      0xc90 0x8 rbt_x86_64.o
 .llvm_stackmaps
                0x000000000043fbe8      0x288 0x8 c_timers_x86_64.o
 .llvm_stackmaps
                0x000000000043fe70      0xf38 0x8 print_results_x86_64.o
 .llvm_stackmaps
                0x0000000000440da8      0x110 0x8 randdp_x86_64.o
 .llvm_stackmaps
                0x0000000000440eb8      0xcc8 0x8 c_print_results_x86_64.o
 .llvm_stackmaps
                0x0000000000441b80       0xa8 0x8 wtime_x86_64.o
 .llvm_stackmaps
                0x0000000000441c28       0x48 0x8 /usr/local/popcorn/x86_64/lib/libc.a(__libc_start_main.o)
 .llvm_stackmaps
                0x0000000000441c70      0x418 0x8 /usr/local/popcorn/x86_64/lib/libmigrate.a(migrate.o)
 .llvm_stackmaps
                0x0000000000442088      0x278 0x8 /usr/local/popcorn/x86_64/lib/libmigrate.a(mapping.o)

.eh_frame       0x0000000000442300     0x2f10
 ** eh_frame    0x0000000000442300     0x2f10

.tbss           0x0000000000446fd0    0xde0b0
 .tbss.src_userspace_c_bounds
                0x0000000000446fd0       0x10 0x8 /usr/local/popcorn/x86_64/lib/libstack-transform.a(userspace.o)
 .tbss.src_rewrite_c_src_ctx
                0x0000000000446fe0     0xb050 0x8 /usr/local/popcorn/x86_64/lib/libstack-transform.a(rewrite.o)
 .tbss.src_rewrite_c_src_regs
                0x0000000000452030    0x62000 0x10 /usr/local/popcorn/x86_64/lib/libstack-transform.a(rewrite.o)
 .tbss.src_rewrite_c_src_callee
                0x00000000004b4030     0x2000 0x10 /usr/local/popcorn/x86_64/lib/libstack-transform.a(rewrite.o)
 .tbss.src_rewrite_c_dest_ctx
                0x00000000004b6030     0xb050 0x8 /usr/local/popcorn/x86_64/lib/libstack-transform.a(rewrite.o)
 .tbss.src_rewrite_c_dest_regs
                0x00000000004c1080    0x62000 0x10 /usr/local/popcorn/x86_64/lib/libstack-transform.a(rewrite.o)
 .tbss.src_rewrite_c_dest_callee
                0x0000000000523080     0x2000 0x10 /usr/local/popcorn/x86_64/lib/libstack-transform.a(rewrite.o)

.init_array     0x0000000000446fd0       0x28
 .init_array    0x0000000000446fd0        0x8 0x8 /usr/local/popcorn/x86_64/lib/libc.a(malloc.o)
 .init_array    0x0000000000446fd8        0x8 0x8 /usr/local/popcorn/x86_64/lib/libc.a(popcorn_malloc.o)
 .init_array    0x0000000000446fe0        0x8 0x8 /usr/local/popcorn/x86_64/lib/libmigrate.a(migrate.o)
 .init_array    0x0000000000446fe8        0x8 0x8 /usr/local/popcorn/x86_64/lib/libmigrate.a(mapping.o)
 .init_array    0x0000000000446ff0        0x8 0x8 /usr/local/popcorn/x86_64/lib/libstack-transform.a(init.o)

.fini_array     0x0000000000446ff8        0x8
 .fini_array    0x0000000000446ff8        0x8 0x8 /usr/local/popcorn/x86_64/lib/libmigrate.a(mapping.o)

.data           0x0000000000447000      0x628
 .data          0x0000000000447000        0x0 0x4 dc_x86_64.o
 .data.input_tuples
                0x0000000000447000        0x8 0x8 dc_x86_64.o
                0x0000000000447000                input_tuples
 .data.attrnum  0x0000000000447008        0x8 0x8 dc_x86_64.o
                0x0000000000447008                attrnum
 .data.checksumS
                0x0000000000447010        0x8 0x8 dc_x86_64.o
                0x0000000000447010                checksumS
 .data.checksumWlo
                0x0000000000447018        0x8 0x8 dc_x86_64.o
                0x0000000000447018                checksumWlo
 .data.checksumWhi
                0x0000000000447020        0x8 0x8 dc_x86_64.o
                0x0000000000447020                checksumWhi
 .data.checksumAlo
                0x0000000000447028        0x8 0x8 dc_x86_64.o
                0x0000000000447028                checksumAlo
 .data.checksumAhi
                0x0000000000447030        0x8 0x8 dc_x86_64.o
                0x0000000000447030                checksumAhi
 .data.checksumBlo
                0x0000000000447038        0x8 0x8 dc_x86_64.o
                0x0000000000447038                checksumBlo
 .data.checksumBhi
                0x0000000000447040        0x8 0x8 dc_x86_64.o
                0x0000000000447040                checksumBhi
 .data          0x0000000000447048        0x0 0x4 adc_x86_64.o
 .data.adcprime
                0x0000000000447050       0xa0 0x10 adc_x86_64.o
                0x0000000000447050                adcprime
 .data.LARGE_NUM
                0x00000000004470f0        0x8 0x8 adc_x86_64.o
                0x00000000004470f0                LARGE_NUM
 .data.maxprmfctr
                0x00000000004470f8        0x8 0x8 adc_x86_64.o
                0x00000000004470f8                maxprmfctr
 .data.adcexp   0x0000000000447100       0xa0 0x10 adc_x86_64.o
                0x0000000000447100                adcexp
 .data.adcexpS  0x00000000004471a0       0x28 0x10 adc_x86_64.o
                0x00000000004471a0                adcexpS
 .data.adcexpW  0x00000000004471d0       0x50 0x10 adc_x86_64.o
                0x00000000004471d0                adcexpW
 .data.adcexpA  0x0000000000447220       0x78 0x10 adc_x86_64.o
                0x0000000000447220                adcexpA
 .data.adcexpB  0x00000000004472a0       0xa0 0x10 adc_x86_64.o
                0x00000000004472a0                adcexpB
 .data.UpPrimeLim
                0x0000000000447340        0x8 0x8 adc_x86_64.o
                0x0000000000447340                UpPrimeLim
 .data.adc_c_adcKeyword
                0x0000000000447350       0x38 0x10 adc_x86_64.o
 .data.adcgen   0x0000000000447390       0xa0 0x10 adc_x86_64.o
                0x0000000000447390                adcgen
 .data.adc_c_GetNextTuple_measbound
                0x0000000000447430        0x4 0x4 adc_x86_64.o
 .data          0x0000000000447434        0x0 0x4 extbuild_x86_64.o
 .data.extbuild_c_measbound
                0x0000000000447434        0x4 0x4 extbuild_x86_64.o
 .data          0x0000000000447438        0x0 0x4 jobcntl_x86_64.o
 .data          0x0000000000447438        0x0 0x4 rbt_x86_64.o
 .data.rbt_c_measbound
                0x0000000000447438        0x4 0x4 rbt_x86_64.o
 .data          0x000000000044743c        0x0 0x4 c_timers_x86_64.o
 .data          0x000000000044743c        0x0 0x4 print_results_x86_64.o
 .data          0x000000000044743c        0x0 0x4 randdp_x86_64.o
 .data          0x000000000044743c        0x0 0x4 c_print_results_x86_64.o
 .data          0x000000000044743c        0x0 0x4 wtime_x86_64.o
 .data.wtime_c_wtime__sec
                0x000000000044743c        0x4 0x4 wtime_x86_64.o
 .data          0x0000000000447440        0x0 0x4 /usr/local/popcorn/x86_64/lib/crt1.o
 .data          0x0000000000447440        0x0 0x4 /usr/local/popcorn/x86_64/lib/libc.a(isdigit.o)
 .data          0x0000000000447440        0x0 0x4 /usr/local/popcorn/x86_64/lib/libc.a(__libc_start_main.o)
 .data          0x0000000000447440        0x0 0x4 /usr/local/popcorn/x86_64/lib/libc.a(__errno_location.o)
 .data          0x0000000000447440        0x0 0x4 /usr/local/popcorn/x86_64/lib/libc.a(exit.o)
 .data          0x0000000000447440        0x0 0x4 /usr/local/popcorn/x86_64/lib/libc.a(libc.o)
 .data          0x0000000000447440        0x0 0x4 /usr/local/popcorn/x86_64/lib/libc.a(calloc.o)
 .data          0x0000000000447440        0x0 0x4 /usr/local/popcorn/x86_64/lib/libc.a(lite_malloc.o)
 .data          0x0000000000447440        0x0 0x4 /usr/local/popcorn/x86_64/lib/libc.a(malloc.o)
 .data          0x0000000000447440        0x0 0x4 /usr/local/popcorn/x86_64/lib/libc.a(popcorn_malloc.o)
 .data          0x0000000000447440        0x0 0x4 /usr/local/popcorn/x86_64/lib/libc.a(pow.o)
 .data          0x0000000000447440        0x0 0x4 /usr/local/popcorn/x86_64/lib/libc.a(scalbn.o)
 .data          0x0000000000447440        0x0 0x4 /usr/local/popcorn/x86_64/lib/libc.a(fabs.o)
 .data          0x0000000000447440        0x0 0x4 /usr/local/popcorn/x86_64/lib/libc.a(sqrt.o)
 .data          0x0000000000447440        0x0 0x4 /usr/local/popcorn/x86_64/lib/libc.a(madvise.o)
 .data          0x0000000000447440        0x0 0x4 /usr/local/popcorn/x86_64/lib/libc.a(mmap.o)
 .data          0x0000000000447440        0x0 0x4 /usr/local/popcorn/x86_64/lib/libc.a(mremap.o)
 .data          0x0000000000447440        0x0 0x4 /usr/local/popcorn/x86_64/lib/libc.a(munmap.o)
 .data          0x0000000000447440        0x0 0x4 /usr/local/popcorn/x86_64/lib/libc.a(fclose.o)
 .data          0x0000000000447440        0x0 0x4 /usr/local/popcorn/x86_64/lib/libc.a(fflush.o)
 .data          0x0000000000447440        0x0 0x4 /usr/local/popcorn/x86_64/lib/libc.a(fgets.o)
 .data          0x0000000000447440        0x0 0x4 /usr/local/popcorn/x86_64/lib/libc.a(fopen.o)
 .data          0x0000000000447440        0x0 0x4 /usr/local/popcorn/x86_64/lib/libc.a(fprintf.o)
 .data          0x0000000000447440        0x0 0x4 /usr/local/popcorn/x86_64/lib/libc.a(fread.o)
 .data          0x0000000000447440        0x0 0x4 /usr/local/popcorn/x86_64/lib/libc.a(fscanf.o)
 .data          0x0000000000447440        0x0 0x4 /usr/local/popcorn/x86_64/lib/libc.a(fseek.o)
 .data          0x0000000000447440        0x0 0x4 /usr/local/popcorn/x86_64/lib/libc.a(ftell.o)
 .data          0x0000000000447440        0x0 0x4 /usr/local/popcorn/x86_64/lib/libc.a(fwrite.o)
 .data          0x0000000000447440        0x0 0x4 /usr/local/popcorn/x86_64/lib/libc.a(ofl.o)
 .data          0x0000000000447440        0x0 0x4 /usr/local/popcorn/x86_64/lib/libc.a(printf.o)
 .data          0x0000000000447440        0x0 0x4 /usr/local/popcorn/x86_64/lib/libc.a(sprintf.o)
 .data          0x0000000000447440        0x0 0x4 /usr/local/popcorn/x86_64/lib/libc.a(sscanf.o)
 .data          0x0000000000447440        0x0 0x4 /usr/local/popcorn/x86_64/lib/libc.a(stderr.o)
 .data.src_stdio_stderr_c_f
                0x0000000000447440       0xe8 0x8 /usr/local/popcorn/x86_64/lib/libc.a(stderr.o)
 .data.__stderr_used
                0x0000000000447528        0x8 0x8 /usr/local/popcorn/x86_64/lib/libc.a(stderr.o)
                0x0000000000447528                __stderr_used
 .data          0x0000000000447530        0x0 0x4 /usr/local/popcorn/x86_64/lib/libc.a(stdout.o)
 .data.src_stdio_stdout_c_f
                0x0000000000447530       0xe8 0x8 /usr/local/popcorn/x86_64/lib/libc.a(stdout.o)
 .data.__stdout_used
                0x0000000000447618        0x8 0x8 /usr/local/popcorn/x86_64/lib/libc.a(stdout.o)
                0x0000000000447618                __stdout_used
 .data          0x0000000000447620        0x0 0x4 /usr/local/popcorn/x86_64/lib/libc.a(vfprintf.o)
 .data          0x0000000000447620        0x0 0x4 /usr/local/popcorn/x86_64/lib/libc.a(vfscanf.o)
 .data          0x0000000000447620        0x0 0x4 /usr/local/popcorn/x86_64/lib/libc.a(vsprintf.o)
 .data          0x0000000000447620        0x0 0x4 /usr/local/popcorn/x86_64/lib/libc.a(vsscanf.o)
 .data          0x0000000000447620        0x0 0x4 /usr/local/popcorn/x86_64/lib/libc.a(atoi.o)
 .data          0x0000000000447620        0x0 0x4 /usr/local/popcorn/x86_64/lib/libc.a(qsort.o)
 .data          0x0000000000447620        0x0 0x4 /usr/local/popcorn/x86_64/lib/libc.a(memchr.o)
 .data          0x0000000000447620        0x0 0x4 /usr/local/popcorn/x86_64/lib/libc.a(strcat.o)
 .data          0x0000000000447620        0x0 0x4 /usr/local/popcorn/x86_64/lib/libc.a(strchr.o)
 .data          0x0000000000447620        0x0 0x4 /usr/local/popcorn/x86_64/lib/libc.a(strchrnul.o)
 .data          0x0000000000447620        0x0 0x4 /usr/local/popcorn/x86_64/lib/libc.a(strcmp.o)
 .data          0x0000000000447620        0x0 0x4 /usr/local/popcorn/x86_64/lib/libc.a(strcpy.o)
 .data          0x0000000000447620        0x0 0x4 /usr/local/popcorn/x86_64/lib/libc.a(strlen.o)
 .data          0x0000000000447620        0x0 0x4 /usr/local/popcorn/x86_64/lib/libc.a(strnlen.o)
 .data          0x0000000000447620        0x0 0x4 /usr/local/popcorn/x86_64/lib/libc.a(strstr.o)
 .data          0x0000000000447620        0x0 0x4 /usr/local/popcorn/x86_64/lib/libc.a(memcpy.o)
 .data          0x0000000000447620        0x0 0x4 /usr/local/popcorn/x86_64/lib/libc.a(memset.o)
 .data          0x0000000000447620        0x0 0x4 /usr/local/popcorn/x86_64/lib/libc.a(__lock.o)
 .data          0x0000000000447620        0x0 0x4 /usr/local/popcorn/x86_64/lib/libc.a(__wait.o)
 .data          0x0000000000447620        0x0 0x4 /usr/local/popcorn/x86_64/lib/libc.a(gettimeofday.o)
 .data          0x0000000000447620        0x0 0x4 /usr/local/popcorn/x86_64/lib/libc.a(unlink.o)
 .data          0x0000000000447620        0x0 0x4 /usr/local/popcorn/x86_64/lib/libc.a(__environ.o)
 .data          0x0000000000447620        0x0 0x4 /usr/local/popcorn/x86_64/lib/libc.a(__init_tls.o)
 .data          0x0000000000447620        0x0 0x4 /usr/local/popcorn/x86_64/lib/libc.a(platform.o)
 .data          0x0000000000447620        0x0 0x4 /usr/local/popcorn/x86_64/lib/libc.a(strerror.o)
 .data          0x0000000000447620        0x0 0x4 /usr/local/popcorn/x86_64/lib/libc.a(_Exit.o)
 .data          0x0000000000447620        0x0 0x4 /usr/local/popcorn/x86_64/lib/libc.a(floatscan.o)
 .data          0x0000000000447620        0x0 0x4 /usr/local/popcorn/x86_64/lib/libc.a(intscan.o)
 .data          0x0000000000447620        0x0 0x4 /usr/local/popcorn/x86_64/lib/libc.a(shgetc.o)
 .data          0x0000000000447620        0x0 0x4 /usr/local/popcorn/x86_64/lib/libc.a(syscall_ret.o)
 .data          0x0000000000447620        0x0 0x4 /usr/local/popcorn/x86_64/lib/libc.a(__lctrans.o)
 .data          0x0000000000447620        0x0 0x4 /usr/local/popcorn/x86_64/lib/libc.a(expand_heap.o)
 .data          0x0000000000447620        0x0 0x4 /usr/local/popcorn/x86_64/lib/libc.a(__fpclassifyl.o)
 .data          0x0000000000447620        0x0 0x4 /usr/local/popcorn/x86_64/lib/libc.a(__signbitl.o)
 .data          0x0000000000447620        0x0 0x4 /usr/local/popcorn/x86_64/lib/libc.a(copysignl.o)
 .data          0x0000000000447620        0x0 0x4 /usr/local/popcorn/x86_64/lib/libc.a(frexpl.o)
 .data          0x0000000000447620        0x0 0x4 /usr/local/popcorn/x86_64/lib/libc.a(scalbnl.o)
 .data          0x0000000000447620        0x0 0x4 /usr/local/popcorn/x86_64/lib/libc.a(fmodl.o)
 .data          0x0000000000447620        0x0 0x4 /usr/local/popcorn/x86_64/lib/libc.a(mbrtowc.o)
 .data          0x0000000000447620        0x0 0x4 /usr/local/popcorn/x86_64/lib/libc.a(mbsinit.o)
 .data          0x0000000000447620        0x0 0x4 /usr/local/popcorn/x86_64/lib/libc.a(wctomb.o)
 .data          0x0000000000447620        0x0 0x4 /usr/local/popcorn/x86_64/lib/libc.a(__fdopen.o)
 .data          0x0000000000447620        0x0 0x4 /usr/local/popcorn/x86_64/lib/libc.a(__fmodeflags.o)
 .data          0x0000000000447620        0x0 0x4 /usr/local/popcorn/x86_64/lib/libc.a(__lockfile.o)
 .data          0x0000000000447620        0x0 0x4 /usr/local/popcorn/x86_64/lib/libc.a(__stdio_close.o)
 .data          0x0000000000447620        0x0 0x4 /usr/local/popcorn/x86_64/lib/libc.a(__stdio_read.o)
 .data          0x0000000000447620        0x0 0x4 /usr/local/popcorn/x86_64/lib/libc.a(__stdio_seek.o)
 .data          0x0000000000447620        0x0 0x4 /usr/local/popcorn/x86_64/lib/libc.a(__stdio_write.o)
 .data          0x0000000000447620        0x0 0x4 /usr/local/popcorn/x86_64/lib/libc.a(__stdout_write.o)
 .data          0x0000000000447620        0x0 0x4 /usr/local/popcorn/x86_64/lib/libc.a(__string_read.o)
 .data          0x0000000000447620        0x0 0x4 /usr/local/popcorn/x86_64/lib/libc.a(__toread.o)
 .data          0x0000000000447620        0x0 0x4 /usr/local/popcorn/x86_64/lib/libc.a(__towrite.o)
 .data          0x0000000000447620        0x0 0x4 /usr/local/popcorn/x86_64/lib/libc.a(__uflow.o)
 .data          0x0000000000447620        0x0 0x4 /usr/local/popcorn/x86_64/lib/libc.a(ofl_add.o)
 .data          0x0000000000447620        0x0 0x4 /usr/local/popcorn/x86_64/lib/libc.a(vsnprintf.o)
 .data          0x0000000000447620        0x0 0x4 /usr/local/popcorn/x86_64/lib/libc.a(memcmp.o)
 .data          0x0000000000447620        0x0 0x4 /usr/local/popcorn/x86_64/lib/libc.a(stpcpy.o)
 .data          0x0000000000447620        0x0 0x4 /usr/local/popcorn/x86_64/lib/libc.a(__set_thread_area.o)
 .data          0x0000000000447620        0x0 0x4 /usr/local/popcorn/x86_64/lib/libc.a(clock_gettime.o)
 .data          0x0000000000447620        0x0 0x4 /usr/local/popcorn/x86_64/lib/libc.a(internal.o)
 .data          0x0000000000447620        0x0 0x4 /usr/local/popcorn/x86_64/lib/libc.a(wcrtomb.o)
 .data          0x0000000000447620        0x0 0x4 /usr/local/popcorn/x86_64/lib/libc.a(__stdio_exit.o)
 .data          0x0000000000447620        0x0 0x4 /usr/local/popcorn/x86_64/lib/libmigrate.a(migrate.o)
 .data.src_migrate_c_origin_nid
                0x0000000000447620        0x4 0x4 /usr/local/popcorn/x86_64/lib/libmigrate.a(migrate.o)
 .data          0x0000000000447624        0x0 0x1 /usr/local/popcorn/x86_64/lib/libmigrate.a(migrate_aarch64.o)
 .data          0x0000000000447624        0x0 0x1 /usr/local/popcorn/x86_64/lib/libmigrate.a(migrate_powerpc64.o)
 .data          0x0000000000447624        0x0 0x1 /usr/local/popcorn/x86_64/lib/libmigrate.a(migrate_x86_64.o)
 .data          0x0000000000447624        0x0 0x4 /usr/local/popcorn/x86_64/lib/libmigrate.a(mapping.o)
 .data          0x0000000000447624        0x0 0x4 /usr/local/popcorn/x86_64/lib/libstack-transform.a(userspace.o)
 .data          0x0000000000447624        0x0 0x4 /usr/local/popcorn/x86_64/lib/libstack-transform.a(init.o)
 .data          0x0000000000447624        0x0 0x4 /usr/local/popcorn/x86_64/lib/libstack-transform.a(rewrite.o)
 .data          0x0000000000447624        0x0 0x4 /usr/local/popcorn/x86_64/lib/libstack-transform.a(unwind.o)
 .data          0x0000000000447624        0x0 0x4 /usr/local/popcorn/x86_64/lib/libstack-transform.a(util.o)
 .data          0x0000000000447624        0x0 0x4 /usr/local/popcorn/x86_64/lib/libstack-transform.a(properties.o)
 .data          0x0000000000447624        0x0 0x4 /usr/local/popcorn/x86_64/lib/libstack-transform.a(regs.o)
 .data          0x0000000000447624        0x0 0x4 /usr/local/popcorn/x86_64/lib/libstack-transform.a(properties.o)
 .data          0x0000000000447624        0x0 0x4 /usr/local/popcorn/x86_64/lib/libstack-transform.a(regs.o)
 .data          0x0000000000447624        0x0 0x4 /usr/local/popcorn/x86_64/lib/libstack-transform.a(properties.o)
 .data          0x0000000000447624        0x0 0x4 /usr/local/popcorn/x86_64/lib/libstack-transform.a(regs.o)
 .data          0x0000000000447624        0x0 0x4 /usr/local/popcorn/x86_64/lib/libstack-transform.a(data.o)
 .data          0x0000000000447624        0x0 0x4 /usr/local/popcorn/x86_64/lib/libelf.a(begin.o)
 .data          0x0000000000447624        0x0 0x4 /usr/local/popcorn/x86_64/lib/libelf.a(end.o)
 .data          0x0000000000447624        0x0 0x4 /usr/local/popcorn/x86_64/lib/libelf.a(getdata.o)
 .data          0x0000000000447624        0x0 0x4 /usr/local/popcorn/x86_64/lib/libelf.a(getident.o)
 .data          0x0000000000447624        0x0 0x4 /usr/local/popcorn/x86_64/lib/libelf.a(nextscn.o)
 .data          0x0000000000447624        0x0 0x4 /usr/local/popcorn/x86_64/lib/libelf.a(strptr.o)
 .data          0x0000000000447624        0x0 0x4 /usr/local/popcorn/x86_64/lib/libelf.a(version.o)
 .data          0x0000000000447624        0x0 0x4 /usr/local/popcorn/x86_64/lib/libelf.a(32.getehdr.o)
 .data          0x0000000000447624        0x0 0x4 /usr/local/popcorn/x86_64/lib/libelf.a(32.xlatetof.o)
 .data          0x0000000000447624        0x0 0x4 /usr/local/popcorn/x86_64/lib/libelf.a(cook.o)
 .data          0x0000000000447624        0x0 0x4 /usr/local/popcorn/x86_64/lib/libelf.a(data.o)
 .data._elf_sanity_checks
                0x0000000000447624        0x4 0x4 /usr/local/popcorn/x86_64/lib/libelf.a(data.o)
                0x0000000000447624                _elf_sanity_checks
 .data          0x0000000000447628        0x0 0x4 /usr/local/popcorn/x86_64/lib/libelf.a(input.o)
 .data          0x0000000000447628        0x0 0x4 /usr/local/popcorn/x86_64/lib/libelf.a(x.elfext.o)
 .data          0x0000000000447628        0x0 0x4 /usr/local/popcorn/x86_64/lib/libelf.a(64.xlatetof.o)
 .data          0x0000000000447628        0x0 0x4 /usr/local/popcorn/x86_64/lib/libelf.a(gelfshdr.o)
 .data          0x0000000000447628        0x0 0x4 /usr/local/popcorn/x86_64/lib/libelf.a(swap64.o)
 .data          0x0000000000447628        0x0 0x4 /usr/local/popcorn/x86_64/lib/libelf.a(verdef_32_tof.o)
 .data          0x0000000000447628        0x0 0x4 /usr/local/popcorn/x86_64/lib/libelf.a(verdef_32_tom.o)
 .data          0x0000000000447628        0x0 0x4 /usr/local/popcorn/x86_64/lib/libelf.a(verdef_64_tof.o)
 .data          0x0000000000447628        0x0 0x4 /usr/local/popcorn/x86_64/lib/libelf.a(verdef_64_tom.o)
 .data          0x0000000000447628        0x0 0x4 /usr/local/popcorn/x86_64/lib/libelf.a(getscn.o)
 .data          0x0000000000447628        0x0 0x4 /usr/local/popcorn/x86_64/lib/libelf.a(newscn.o)
 .data          0x0000000000447628        0x0 0x4 /usr/local/popcorn/x86_64/lib/libelf.a(32.fsize.o)
 .data          0x0000000000447628        0x0 0x4 /usr/local/popcorn/x86_64/lib/libc.a(arch_crash.o)
 .data          0x0000000000447628        0x0 0x4 /usr/local/popcorn/x86_64/lib/libc.a(getenv.o)
 .data          0x0000000000447628        0x0 0x4 /usr/local/popcorn/x86_64/lib/libc.a(assert.o)
 .data          0x0000000000447628        0x0 0x4 /usr/local/popcorn/x86_64/lib/libc.a(open.o)
 .data          0x0000000000447628        0x0 0x4 /usr/local/popcorn/x86_64/lib/libc.a(getrlimit.o)
 .data          0x0000000000447628        0x0 0x4 /usr/local/popcorn/x86_64/lib/libc.a(getc.o)
 .data          0x0000000000447628        0x0 0x4 /usr/local/popcorn/x86_64/lib/libc.a(getline.o)
 .data          0x0000000000447628        0x0 0x4 /usr/local/popcorn/x86_64/lib/libc.a(perror.o)
 .data          0x0000000000447628        0x0 0x4 /usr/local/popcorn/x86_64/lib/libc.a(snprintf.o)
 .data          0x0000000000447628        0x0 0x4 /usr/local/popcorn/x86_64/lib/libc.a(bsearch.o)
 .data          0x0000000000447628        0x0 0x4 /usr/local/popcorn/x86_64/lib/libc.a(strtol.o)
 .data          0x0000000000447628        0x0 0x4 /usr/local/popcorn/x86_64/lib/libc.a(strncmp.o)
 .data          0x0000000000447628        0x0 0x4 /usr/local/popcorn/x86_64/lib/libc.a(memmove.o)
 .data          0x0000000000447628        0x0 0x4 /usr/local/popcorn/x86_64/lib/libc.a(__syscall_cp.o)
 .data          0x0000000000447628        0x0 0x4 /usr/local/popcorn/x86_64/lib/libc.a(pthread_attr_get.o)
 .data          0x0000000000447628        0x0 0x4 /usr/local/popcorn/x86_64/lib/libc.a(pthread_getattr_np.o)
 .data          0x0000000000447628        0x0 0x4 /usr/local/popcorn/x86_64/lib/libc.a(pthread_migrate.o)
 .data          0x0000000000447628        0x0 0x4 /usr/local/popcorn/x86_64/lib/libc.a(pthread_self.o)
 .data          0x0000000000447628        0x0 0x4 /usr/local/popcorn/x86_64/lib/libc.a(close.o)
 .data          0x0000000000447628        0x0 0x4 /usr/local/popcorn/x86_64/lib/libc.a(getpid.o)
 .data          0x0000000000447628        0x0 0x4 /usr/local/popcorn/x86_64/lib/libc.a(lseek.o)
 .data          0x0000000000447628        0x0 0x4 /usr/local/popcorn/x86_64/lib/libc.a(read.o)
 .data          0x0000000000447628        0x0 0x4 /usr/local/popcorn/x86_64/lib/libc.a(abort.o)
 .data          0x0000000000447628        0x0 0x4 /usr/local/popcorn/x86_64/lib/libc.a(syscall.o)
 .data          0x0000000000447628        0x0 0x4 /usr/local/popcorn/x86_64/lib/libc.a(block.o)
 .data          0x0000000000447628        0x0 0x4 /usr/local/popcorn/x86_64/lib/libc.a(raise.o)
 .data          0x0000000000447628        0x0 0x4 /usr/local/popcorn/x86_64/lib/libc.a(fputc.o)
 .data          0x0000000000447628        0x0 0x4 /usr/local/popcorn/x86_64/lib/libc.a(getdelim.o)
 .data          0x0000000000447628        0x0 0x4 /usr/local/popcorn/x86_64/lib/libc.a(__overflow.o)

.bss            0x0000000000448000    0x23080
 .bss           0x0000000000448000        0x0 0x4 dc_x86_64.o
 .bss           0x0000000000448000        0x0 0x4 adc_x86_64.o
 .bss.adc_c_GetNextTuple_tuplenum
                0x0000000000448000        0x4 0x4 adc_x86_64.o
 .bss.adc_c_GetNextTuple_seed
                0x0000000000448010       0xa0 0x10 adc_x86_64.o
 .bss           0x00000000004480b0        0x0 0x4 extbuild_x86_64.o
 .bss           0x00000000004480b0        0x0 0x4 jobcntl_x86_64.o
 .bss           0x00000000004480b0        0x0 0x4 rbt_x86_64.o
 .bss           0x00000000004480b0        0x0 0x4 c_timers_x86_64.o
 .bss.c_timers_c_elapsed
                0x00000000004480b0      0x200 0x10 c_timers_x86_64.o
 .bss.c_timers_c_start
                0x00000000004482b0      0x200 0x10 c_timers_x86_64.o
 .bss           0x00000000004484b0        0x0 0x4 print_results_x86_64.o
 .bss           0x00000000004484b0        0x0 0x4 randdp_x86_64.o
 .bss           0x00000000004484b0        0x0 0x4 c_print_results_x86_64.o
 .bss           0x00000000004484b0        0x0 0x4 wtime_x86_64.o
 .bss           0x00000000004484b0        0x0 0x4 /usr/local/popcorn/x86_64/lib/crt1.o
 .bss           0x00000000004484b0        0x0 0x4 /usr/local/popcorn/x86_64/lib/libc.a(isdigit.o)
 .bss           0x00000000004484b0        0x0 0x4 /usr/local/popcorn/x86_64/lib/libc.a(__libc_start_main.o)
 .bss.__popcorn_stack_base
                0x00000000004484b0        0x8 0x8 /usr/local/popcorn/x86_64/lib/libc.a(__libc_start_main.o)
                0x00000000004484b0                __popcorn_stack_base
 .bss           0x00000000004484b8        0x0 0x4 /usr/local/popcorn/x86_64/lib/libc.a(__errno_location.o)
 .bss           0x00000000004484b8        0x0 0x4 /usr/local/popcorn/x86_64/lib/libc.a(exit.o)
 .bss           0x00000000004484b8        0x0 0x4 /usr/local/popcorn/x86_64/lib/libc.a(libc.o)
 .bss.__progname
                0x00000000004484b8        0x8 0x8 /usr/local/popcorn/x86_64/lib/libc.a(libc.o)
                0x00000000004484b8                __progname
                0x00000000004484b8                program_invocation_short_name
 .bss.__progname_full
                0x00000000004484c0        0x8 0x8 /usr/local/popcorn/x86_64/lib/libc.a(libc.o)
                0x00000000004484c0                __progname_full
                0x00000000004484c0                program_invocation_name
 .bss           0x00000000004484c8        0x0 0x4 /usr/local/popcorn/x86_64/lib/libc.a(calloc.o)
 .bss           0x00000000004484c8        0x0 0x4 /usr/local/popcorn/x86_64/lib/libc.a(lite_malloc.o)
 .bss.src_malloc_lite_malloc_c___simple_malloc_cur
                0x00000000004484c8        0x8 0x8 /usr/local/popcorn/x86_64/lib/libc.a(lite_malloc.o)
 .bss.src_malloc_lite_malloc_c___simple_malloc_end
                0x00000000004484d0        0x8 0x8 /usr/local/popcorn/x86_64/lib/libc.a(lite_malloc.o)
 .bss.src_malloc_lite_malloc_c___simple_malloc_lock
                0x00000000004484d8        0x8 0x4 /usr/local/popcorn/x86_64/lib/libc.a(lite_malloc.o)
 .bss           0x00000000004484e0        0x0 0x4 /usr/local/popcorn/x86_64/lib/libc.a(malloc.o)
 .bss.src_malloc_malloc_c_mal
                0x0000000000449000     0x1000 0x1000 /usr/local/popcorn/x86_64/lib/libc.a(malloc.o)
 .bss.src_malloc_malloc_c_expand_heap_heap_lock
                0x000000000044a000        0x8 0x4 /usr/local/popcorn/x86_64/lib/libc.a(malloc.o)
 .bss.src_malloc_malloc_c_expand_heap_end
                0x000000000044a008        0x8 0x8 /usr/local/popcorn/x86_64/lib/libc.a(malloc.o)
 .bss           0x000000000044a010        0x0 0x4 /usr/local/popcorn/x86_64/lib/libc.a(popcorn_malloc.o)
 .bss.src_malloc_popcorn_malloc_c_expand_heap_heap_lock
                0x000000000044a010      0x100 0x10 /usr/local/popcorn/x86_64/lib/libc.a(popcorn_malloc.o)
 .bss.src_malloc_popcorn_malloc_c_expand_heap_end
                0x000000000044a110      0x100 0x10 /usr/local/popcorn/x86_64/lib/libc.a(popcorn_malloc.o)
 .bss           0x000000000044a210        0x0 0x4 /usr/local/popcorn/x86_64/lib/libc.a(pow.o)
 .bss           0x000000000044a210        0x0 0x4 /usr/local/popcorn/x86_64/lib/libc.a(scalbn.o)
 .bss           0x000000000044a210        0x0 0x4 /usr/local/popcorn/x86_64/lib/libc.a(fabs.o)
 .bss           0x000000000044a210        0x0 0x4 /usr/local/popcorn/x86_64/lib/libc.a(sqrt.o)
 .bss           0x000000000044a210        0x0 0x4 /usr/local/popcorn/x86_64/lib/libc.a(madvise.o)
 .bss           0x000000000044a210        0x0 0x4 /usr/local/popcorn/x86_64/lib/libc.a(mmap.o)
 .bss           0x000000000044a210        0x0 0x4 /usr/local/popcorn/x86_64/lib/libc.a(mremap.o)
 .bss           0x000000000044a210        0x0 0x4 /usr/local/popcorn/x86_64/lib/libc.a(munmap.o)
 .bss           0x000000000044a210        0x0 0x4 /usr/local/popcorn/x86_64/lib/libc.a(fclose.o)
 .bss           0x000000000044a210        0x0 0x4 /usr/local/popcorn/x86_64/lib/libc.a(fflush.o)
 .bss.src_stdio_fflush_c_dummy
                0x000000000044a210        0x8 0x8 /usr/local/popcorn/x86_64/lib/libc.a(fflush.o)
 .bss           0x000000000044a218        0x0 0x4 /usr/local/popcorn/x86_64/lib/libc.a(fgets.o)
 .bss           0x000000000044a218        0x0 0x4 /usr/local/popcorn/x86_64/lib/libc.a(fopen.o)
 .bss           0x000000000044a218        0x0 0x4 /usr/local/popcorn/x86_64/lib/libc.a(fprintf.o)
 .bss           0x000000000044a218        0x0 0x4 /usr/local/popcorn/x86_64/lib/libc.a(fread.o)
 .bss           0x000000000044a218        0x0 0x4 /usr/local/popcorn/x86_64/lib/libc.a(fscanf.o)
 .bss           0x000000000044a218        0x0 0x4 /usr/local/popcorn/x86_64/lib/libc.a(fseek.o)
 .bss           0x000000000044a218        0x0 0x4 /usr/local/popcorn/x86_64/lib/libc.a(ftell.o)
 .bss           0x000000000044a218        0x0 0x4 /usr/local/popcorn/x86_64/lib/libc.a(fwrite.o)
 .bss           0x000000000044a218        0x0 0x4 /usr/local/popcorn/x86_64/lib/libc.a(ofl.o)
 .bss.src_stdio_ofl_c_ofl_lock
                0x000000000044a218        0x8 0x4 /usr/local/popcorn/x86_64/lib/libc.a(ofl.o)
 .bss.src_stdio_ofl_c_ofl_head
                0x000000000044a220        0x8 0x8 /usr/local/popcorn/x86_64/lib/libc.a(ofl.o)
 .bss           0x000000000044a228        0x0 0x4 /usr/local/popcorn/x86_64/lib/libc.a(printf.o)
 .bss           0x000000000044a228        0x0 0x4 /usr/local/popcorn/x86_64/lib/libc.a(sprintf.o)
 .bss           0x000000000044a228        0x0 0x4 /usr/local/popcorn/x86_64/lib/libc.a(sscanf.o)
 .bss           0x000000000044a228        0x0 0x4 /usr/local/popcorn/x86_64/lib/libc.a(stderr.o)
 .bss.src_stdio_stderr_c_buf
                0x000000000044a228        0x8 0x1 /usr/local/popcorn/x86_64/lib/libc.a(stderr.o)
 .bss           0x000000000044a230        0x0 0x4 /usr/local/popcorn/x86_64/lib/libc.a(stdout.o)
 .bss.src_stdio_stdout_c_buf
                0x000000000044a230      0x408 0x10 /usr/local/popcorn/x86_64/lib/libc.a(stdout.o)
 .bss           0x000000000044a638        0x0 0x4 /usr/local/popcorn/x86_64/lib/libc.a(vfprintf.o)
 .bss           0x000000000044a638        0x0 0x4 /usr/local/popcorn/x86_64/lib/libc.a(vfscanf.o)
 .bss           0x000000000044a638        0x0 0x4 /usr/local/popcorn/x86_64/lib/libc.a(vsprintf.o)
 .bss           0x000000000044a638        0x0 0x4 /usr/local/popcorn/x86_64/lib/libc.a(vsscanf.o)
 .bss           0x000000000044a638        0x0 0x4 /usr/local/popcorn/x86_64/lib/libc.a(atoi.o)
 .bss           0x000000000044a638        0x0 0x4 /usr/local/popcorn/x86_64/lib/libc.a(qsort.o)
 .bss           0x000000000044a638        0x0 0x4 /usr/local/popcorn/x86_64/lib/libc.a(memchr.o)
 .bss           0x000000000044a638        0x0 0x4 /usr/local/popcorn/x86_64/lib/libc.a(strcat.o)
 .bss           0x000000000044a638        0x0 0x4 /usr/local/popcorn/x86_64/lib/libc.a(strchr.o)
 .bss           0x000000000044a638        0x0 0x4 /usr/local/popcorn/x86_64/lib/libc.a(strchrnul.o)
 .bss           0x000000000044a638        0x0 0x4 /usr/local/popcorn/x86_64/lib/libc.a(strcmp.o)
 .bss           0x000000000044a638        0x0 0x4 /usr/local/popcorn/x86_64/lib/libc.a(strcpy.o)
 .bss           0x000000000044a638        0x0 0x4 /usr/local/popcorn/x86_64/lib/libc.a(strlen.o)
 .bss           0x000000000044a638        0x0 0x4 /usr/local/popcorn/x86_64/lib/libc.a(strnlen.o)
 .bss           0x000000000044a638        0x0 0x4 /usr/local/popcorn/x86_64/lib/libc.a(strstr.o)
 .bss           0x000000000044a638        0x0 0x4 /usr/local/popcorn/x86_64/lib/libc.a(memcpy.o)
 .bss           0x000000000044a638        0x0 0x4 /usr/local/popcorn/x86_64/lib/libc.a(memset.o)
 .bss           0x000000000044a638        0x0 0x4 /usr/local/popcorn/x86_64/lib/libc.a(__lock.o)
 .bss           0x000000000044a638        0x0 0x4 /usr/local/popcorn/x86_64/lib/libc.a(__wait.o)
 .bss           0x000000000044a638        0x0 0x4 /usr/local/popcorn/x86_64/lib/libc.a(gettimeofday.o)
 .bss           0x000000000044a638        0x0 0x4 /usr/local/popcorn/x86_64/lib/libc.a(unlink.o)
 .bss           0x000000000044a638        0x0 0x4 /usr/local/popcorn/x86_64/lib/libc.a(__environ.o)
 .bss.__environ
                0x000000000044a638        0x8 0x8 /usr/local/popcorn/x86_64/lib/libc.a(__environ.o)
                0x000000000044a638                ___environ
                0x000000000044a638                __environ
                0x000000000044a638                _environ
                0x000000000044a638                environ
 .bss           0x000000000044a640        0x0 0x4 /usr/local/popcorn/x86_64/lib/libc.a(__init_tls.o)
 .bss.src_env___init_tls_c_main_tls
                0x000000000044a640       0x30 0x8 /usr/local/popcorn/x86_64/lib/libc.a(__init_tls.o)
 .bss.src_env___init_tls_c_builtin_tls
                0x000000000044a670      0x1a8 0x10 /usr/local/popcorn/x86_64/lib/libc.a(__init_tls.o)
 .bss           0x000000000044a818        0x0 0x4 /usr/local/popcorn/x86_64/lib/libc.a(platform.o)
 .bss           0x000000000044a818        0x0 0x4 /usr/local/popcorn/x86_64/lib/libc.a(strerror.o)
 .bss           0x000000000044a818        0x0 0x4 /usr/local/popcorn/x86_64/lib/libc.a(_Exit.o)
 .bss           0x000000000044a818        0x0 0x4 /usr/local/popcorn/x86_64/lib/libc.a(floatscan.o)
 .bss           0x000000000044a818        0x0 0x4 /usr/local/popcorn/x86_64/lib/libc.a(intscan.o)
 .bss           0x000000000044a818        0x0 0x4 /usr/local/popcorn/x86_64/lib/libc.a(shgetc.o)
 .bss           0x000000000044a818        0x0 0x4 /usr/local/popcorn/x86_64/lib/libc.a(syscall_ret.o)
 .bss           0x000000000044a818        0x0 0x4 /usr/local/popcorn/x86_64/lib/libc.a(__lctrans.o)
 .bss           0x000000000044a818        0x0 0x4 /usr/local/popcorn/x86_64/lib/libc.a(expand_heap.o)
 .bss.src_malloc_expand_heap_c___expand_heap_brk
                0x000000000044a818        0x8 0x8 /usr/local/popcorn/x86_64/lib/libc.a(expand_heap.o)
 .bss.src_malloc_expand_heap_c___expand_heap_mmap_step
                0x000000000044a820        0x4 0x4 /usr/local/popcorn/x86_64/lib/libc.a(expand_heap.o)
 .bss.src_malloc_expand_heap_c___expand_heap_node_node_arenas
                0x000000000044a830      0x100 0x10 /usr/local/popcorn/x86_64/lib/libc.a(expand_heap.o)
 .bss.src_malloc_expand_heap_c___expand_heap_node_node_sizes
                0x000000000044a930      0x100 0x10 /usr/local/popcorn/x86_64/lib/libc.a(expand_heap.o)
 .bss.src_malloc_expand_heap_c_arena_start
                0x000000000044aa30        0x8 0x8 /usr/local/popcorn/x86_64/lib/libc.a(expand_heap.o)
 .bss.src_malloc_expand_heap_c_set_arena_start_lock
                0x000000000044aa38        0x8 0x4 /usr/local/popcorn/x86_64/lib/libc.a(expand_heap.o)
 .bss           0x000000000044aa40        0x0 0x4 /usr/local/popcorn/x86_64/lib/libc.a(__fpclassifyl.o)
 .bss           0x000000000044aa40        0x0 0x4 /usr/local/popcorn/x86_64/lib/libc.a(__signbitl.o)
 .bss           0x000000000044aa40        0x0 0x4 /usr/local/popcorn/x86_64/lib/libc.a(copysignl.o)
 .bss           0x000000000044aa40        0x0 0x4 /usr/local/popcorn/x86_64/lib/libc.a(frexpl.o)
 .bss           0x000000000044aa40        0x0 0x4 /usr/local/popcorn/x86_64/lib/libc.a(scalbnl.o)
 .bss           0x000000000044aa40        0x0 0x4 /usr/local/popcorn/x86_64/lib/libc.a(fmodl.o)
 .bss           0x000000000044aa40        0x0 0x4 /usr/local/popcorn/x86_64/lib/libc.a(mbrtowc.o)
 .bss.src_multibyte_mbrtowc_c_mbrtowc_internal_state
                0x000000000044aa40        0x4 0x4 /usr/local/popcorn/x86_64/lib/libc.a(mbrtowc.o)
 .bss           0x000000000044aa44        0x0 0x4 /usr/local/popcorn/x86_64/lib/libc.a(mbsinit.o)
 .bss           0x000000000044aa44        0x0 0x4 /usr/local/popcorn/x86_64/lib/libc.a(wctomb.o)
 .bss           0x000000000044aa44        0x0 0x4 /usr/local/popcorn/x86_64/lib/libc.a(__fdopen.o)
 .bss           0x000000000044aa44        0x0 0x4 /usr/local/popcorn/x86_64/lib/libc.a(__fmodeflags.o)
 .bss           0x000000000044aa44        0x0 0x4 /usr/local/popcorn/x86_64/lib/libc.a(__lockfile.o)
 .bss           0x000000000044aa44        0x0 0x4 /usr/local/popcorn/x86_64/lib/libc.a(__stdio_close.o)
 .bss           0x000000000044aa44        0x0 0x4 /usr/local/popcorn/x86_64/lib/libc.a(__stdio_read.o)
 .bss           0x000000000044aa44        0x0 0x4 /usr/local/popcorn/x86_64/lib/libc.a(__stdio_seek.o)
 .bss           0x000000000044aa44        0x0 0x4 /usr/local/popcorn/x86_64/lib/libc.a(__stdio_write.o)
 .bss           0x000000000044aa44        0x0 0x4 /usr/local/popcorn/x86_64/lib/libc.a(__stdout_write.o)
 .bss           0x000000000044aa44        0x0 0x4 /usr/local/popcorn/x86_64/lib/libc.a(__string_read.o)
 .bss           0x000000000044aa44        0x0 0x4 /usr/local/popcorn/x86_64/lib/libc.a(__toread.o)
 .bss           0x000000000044aa44        0x0 0x4 /usr/local/popcorn/x86_64/lib/libc.a(__towrite.o)
 .bss           0x000000000044aa44        0x0 0x4 /usr/local/popcorn/x86_64/lib/libc.a(__uflow.o)
 .bss           0x000000000044aa44        0x0 0x4 /usr/local/popcorn/x86_64/lib/libc.a(ofl_add.o)
 .bss           0x000000000044aa44        0x0 0x4 /usr/local/popcorn/x86_64/lib/libc.a(vsnprintf.o)
 .bss           0x000000000044aa44        0x0 0x4 /usr/local/popcorn/x86_64/lib/libc.a(memcmp.o)
 .bss           0x000000000044aa44        0x0 0x4 /usr/local/popcorn/x86_64/lib/libc.a(stpcpy.o)
 .bss           0x000000000044aa44        0x0 0x4 /usr/local/popcorn/x86_64/lib/libc.a(__set_thread_area.o)
 .bss           0x000000000044aa44        0x0 0x4 /usr/local/popcorn/x86_64/lib/libc.a(clock_gettime.o)
 .bss           0x000000000044aa44        0x0 0x4 /usr/local/popcorn/x86_64/lib/libc.a(internal.o)
 .bss           0x000000000044aa44        0x0 0x4 /usr/local/popcorn/x86_64/lib/libc.a(wcrtomb.o)
 .bss           0x000000000044aa44        0x0 0x4 /usr/local/popcorn/x86_64/lib/libc.a(__stdio_exit.o)
 .bss.src_stdio___stdio_exit_c_dummy_file
                0x000000000044aa48        0x8 0x8 /usr/local/popcorn/x86_64/lib/libc.a(__stdio_exit.o)
                0x000000000044aa48                __stdin_used
 .bss           0x000000000044aa50        0x0 0x4 /usr/local/popcorn/x86_64/lib/libmigrate.a(migrate.o)
 .bss.src_migrate_c_ni
                0x000000000044aa50      0x180 0x10 /usr/local/popcorn/x86_64/lib/libmigrate.a(migrate.o)
 .bss           0x000000000044abd0        0x0 0x1 /usr/local/popcorn/x86_64/lib/libmigrate.a(migrate_aarch64.o)
 .bss           0x000000000044abd0        0x0 0x1 /usr/local/popcorn/x86_64/lib/libmigrate.a(migrate_powerpc64.o)
 .bss           0x000000000044abd0        0x0 0x1 /usr/local/popcorn/x86_64/lib/libmigrate.a(migrate_x86_64.o)
 .bss           0x000000000044abd0        0x0 0x4 /usr/local/popcorn/x86_64/lib/libmigrate.a(mapping.o)
 .bss.src_mapping_c_default_node
                0x000000000044abd0        0x4 0x4 /usr/local/popcorn/x86_64/lib/libmigrate.a(mapping.o)
 .bss.src_mapping_c_mappings
                0x000000000044abd8        0x8 0x8 /usr/local/popcorn/x86_64/lib/libmigrate.a(mapping.o)
 .bss.src_mapping_c_num_mappings
                0x000000000044abe0        0x8 0x8 /usr/local/popcorn/x86_64/lib/libmigrate.a(mapping.o)
 .bss           0x000000000044abe8        0x0 0x4 /usr/local/popcorn/x86_64/lib/libstack-transform.a(userspace.o)
 .bss.aarch64_fn
                0x000000000044abe8        0x8 0x8 /usr/local/popcorn/x86_64/lib/libstack-transform.a(userspace.o)
                0x000000000044abe8                aarch64_fn
 .bss.powerpc64_fn
                0x000000000044abf0        0x8 0x8 /usr/local/popcorn/x86_64/lib/libstack-transform.a(userspace.o)
                0x000000000044abf0                powerpc64_fn
 .bss.x86_64_fn
                0x000000000044abf8        0x8 0x8 /usr/local/popcorn/x86_64/lib/libstack-transform.a(userspace.o)
                0x000000000044abf8                x86_64_fn
 .bss.src_userspace_c_aarch64_handle
                0x000000000044ac00        0x8 0x8 /usr/local/popcorn/x86_64/lib/libstack-transform.a(userspace.o)
 .bss.src_userspace_c_alloc_aarch64_fn
                0x000000000044ac08        0x1 0x1 /usr/local/popcorn/x86_64/lib/libstack-transform.a(userspace.o)
 .bss.src_userspace_c_powerpc64_handle
                0x000000000044ac10        0x8 0x8 /usr/local/popcorn/x86_64/lib/libstack-transform.a(userspace.o)
 .bss.src_userspace_c_alloc_powerpc64_fn
                0x000000000044ac18        0x1 0x1 /usr/local/popcorn/x86_64/lib/libstack-transform.a(userspace.o)
 .bss.src_userspace_c_x86_64_handle
                0x000000000044ac20        0x8 0x8 /usr/local/popcorn/x86_64/lib/libstack-transform.a(userspace.o)
 .bss.src_userspace_c_alloc_x86_64_fn
                0x000000000044ac28        0x1 0x1 /usr/local/popcorn/x86_64/lib/libstack-transform.a(userspace.o)
 .bss           0x000000000044ac2c        0x0 0x4 /usr/local/popcorn/x86_64/lib/libstack-transform.a(init.o)
 .bss           0x000000000044ac2c        0x0 0x4 /usr/local/popcorn/x86_64/lib/libstack-transform.a(rewrite.o)
 .bss           0x000000000044ac2c        0x0 0x4 /usr/local/popcorn/x86_64/lib/libstack-transform.a(unwind.o)
 .bss           0x000000000044ac2c        0x0 0x4 /usr/local/popcorn/x86_64/lib/libstack-transform.a(util.o)
 .bss           0x000000000044ac2c        0x0 0x4 /usr/local/popcorn/x86_64/lib/libstack-transform.a(properties.o)
 .bss           0x000000000044ac2c        0x0 0x4 /usr/local/popcorn/x86_64/lib/libstack-transform.a(regs.o)
 .bss           0x000000000044ac2c        0x0 0x4 /usr/local/popcorn/x86_64/lib/libstack-transform.a(properties.o)
 .bss           0x000000000044ac2c        0x0 0x4 /usr/local/popcorn/x86_64/lib/libstack-transform.a(regs.o)
 .bss           0x000000000044ac2c        0x0 0x4 /usr/local/popcorn/x86_64/lib/libstack-transform.a(properties.o)
 .bss           0x000000000044ac2c        0x0 0x4 /usr/local/popcorn/x86_64/lib/libstack-transform.a(regs.o)
 .bss           0x000000000044ac2c        0x0 0x4 /usr/local/popcorn/x86_64/lib/libstack-transform.a(data.o)
 .bss           0x000000000044ac2c        0x0 0x4 /usr/local/popcorn/x86_64/lib/libelf.a(begin.o)
 .bss           0x000000000044ac2c        0x0 0x4 /usr/local/popcorn/x86_64/lib/libelf.a(end.o)
 .bss           0x000000000044ac2c        0x0 0x4 /usr/local/popcorn/x86_64/lib/libelf.a(getdata.o)
 .bss           0x000000000044ac2c        0x0 0x4 /usr/local/popcorn/x86_64/lib/libelf.a(getident.o)
 .bss           0x000000000044ac2c        0x0 0x4 /usr/local/popcorn/x86_64/lib/libelf.a(nextscn.o)
 .bss           0x000000000044ac2c        0x0 0x4 /usr/local/popcorn/x86_64/lib/libelf.a(strptr.o)
 .bss           0x000000000044ac2c        0x0 0x4 /usr/local/popcorn/x86_64/lib/libelf.a(version.o)
 .bss           0x000000000044ac2c        0x0 0x4 /usr/local/popcorn/x86_64/lib/libelf.a(32.getehdr.o)
 .bss           0x000000000044ac2c        0x0 0x4 /usr/local/popcorn/x86_64/lib/libelf.a(32.xlatetof.o)
 .bss           0x000000000044ac2c        0x0 0x4 /usr/local/popcorn/x86_64/lib/libelf.a(cook.o)
 .bss           0x000000000044ac2c        0x0 0x4 /usr/local/popcorn/x86_64/lib/libelf.a(data.o)
 .bss._elf_version
                0x000000000044ac2c        0x4 0x4 /usr/local/popcorn/x86_64/lib/libelf.a(data.o)
                0x000000000044ac2c                _elf_version
 .bss._elf_errno
                0x000000000044ac30        0x4 0x4 /usr/local/popcorn/x86_64/lib/libelf.a(data.o)
                0x000000000044ac30                _elf_errno
 .bss._elf_fill
                0x000000000044ac34        0x4 0x4 /usr/local/popcorn/x86_64/lib/libelf.a(data.o)
                0x000000000044ac34                _elf_fill
 .bss           0x000000000044ac38        0x0 0x4 /usr/local/popcorn/x86_64/lib/libelf.a(input.o)
 .bss           0x000000000044ac38        0x0 0x4 /usr/local/popcorn/x86_64/lib/libelf.a(x.elfext.o)
 .bss           0x000000000044ac38        0x0 0x4 /usr/local/popcorn/x86_64/lib/libelf.a(64.xlatetof.o)
 .bss           0x000000000044ac38        0x0 0x4 /usr/local/popcorn/x86_64/lib/libelf.a(gelfshdr.o)
 .bss           0x000000000044ac38        0x0 0x4 /usr/local/popcorn/x86_64/lib/libelf.a(swap64.o)
 .bss           0x000000000044ac38        0x0 0x4 /usr/local/popcorn/x86_64/lib/libelf.a(verdef_32_tof.o)
 .bss           0x000000000044ac38        0x0 0x4 /usr/local/popcorn/x86_64/lib/libelf.a(verdef_32_tom.o)
 .bss           0x000000000044ac38        0x0 0x4 /usr/local/popcorn/x86_64/lib/libelf.a(verdef_64_tof.o)
 .bss           0x000000000044ac38        0x0 0x4 /usr/local/popcorn/x86_64/lib/libelf.a(verdef_64_tom.o)
 .bss           0x000000000044ac38        0x0 0x4 /usr/local/popcorn/x86_64/lib/libelf.a(getscn.o)
 .bss           0x000000000044ac38        0x0 0x4 /usr/local/popcorn/x86_64/lib/libelf.a(newscn.o)
 .bss           0x000000000044ac38        0x0 0x4 /usr/local/popcorn/x86_64/lib/libelf.a(32.fsize.o)
 .bss           0x000000000044ac38        0x0 0x4 /usr/local/popcorn/x86_64/lib/libc.a(arch_crash.o)
 .bss           0x000000000044ac38        0x0 0x4 /usr/local/popcorn/x86_64/lib/libc.a(getenv.o)
 .bss           0x000000000044ac38        0x0 0x4 /usr/local/popcorn/x86_64/lib/libc.a(assert.o)
 .bss           0x000000000044ac38        0x0 0x4 /usr/local/popcorn/x86_64/lib/libc.a(open.o)
 .bss           0x000000000044ac38        0x0 0x4 /usr/local/popcorn/x86_64/lib/libc.a(getrlimit.o)
 .bss           0x000000000044ac38        0x0 0x4 /usr/local/popcorn/x86_64/lib/libc.a(getc.o)
 .bss           0x000000000044ac38        0x0 0x4 /usr/local/popcorn/x86_64/lib/libc.a(getline.o)
 .bss           0x000000000044ac38        0x0 0x4 /usr/local/popcorn/x86_64/lib/libc.a(perror.o)
 .bss           0x000000000044ac38        0x0 0x4 /usr/local/popcorn/x86_64/lib/libc.a(snprintf.o)
 .bss           0x000000000044ac38        0x0 0x4 /usr/local/popcorn/x86_64/lib/libc.a(bsearch.o)
 .bss           0x000000000044ac38        0x0 0x4 /usr/local/popcorn/x86_64/lib/libc.a(strtol.o)
 .bss           0x000000000044ac38        0x0 0x4 /usr/local/popcorn/x86_64/lib/libc.a(strncmp.o)
 .bss           0x000000000044ac38        0x0 0x4 /usr/local/popcorn/x86_64/lib/libc.a(memmove.o)
 .bss           0x000000000044ac38        0x0 0x4 /usr/local/popcorn/x86_64/lib/libc.a(__syscall_cp.o)
 .bss           0x000000000044ac38        0x0 0x4 /usr/local/popcorn/x86_64/lib/libc.a(pthread_attr_get.o)
 .bss           0x000000000044ac38        0x0 0x4 /usr/local/popcorn/x86_64/lib/libc.a(pthread_getattr_np.o)
 .bss           0x000000000044ac38        0x0 0x4 /usr/local/popcorn/x86_64/lib/libc.a(pthread_migrate.o)
 .bss           0x000000000044ac38        0x0 0x4 /usr/local/popcorn/x86_64/lib/libc.a(pthread_self.o)
 .bss           0x000000000044ac38        0x0 0x4 /usr/local/popcorn/x86_64/lib/libc.a(close.o)
 .bss           0x000000000044ac38        0x0 0x4 /usr/local/popcorn/x86_64/lib/libc.a(getpid.o)
 .bss           0x000000000044ac38        0x0 0x4 /usr/local/popcorn/x86_64/lib/libc.a(lseek.o)
 .bss           0x000000000044ac38        0x0 0x4 /usr/local/popcorn/x86_64/lib/libc.a(read.o)
 .bss           0x000000000044ac38        0x0 0x4 /usr/local/popcorn/x86_64/lib/libc.a(abort.o)
 .bss           0x000000000044ac38        0x0 0x4 /usr/local/popcorn/x86_64/lib/libc.a(syscall.o)
 .bss           0x000000000044ac38        0x0 0x4 /usr/local/popcorn/x86_64/lib/libc.a(block.o)
 .bss           0x000000000044ac38        0x0 0x4 /usr/local/popcorn/x86_64/lib/libc.a(raise.o)
 .bss           0x000000000044ac38        0x0 0x4 /usr/local/popcorn/x86_64/lib/libc.a(fputc.o)
 .bss           0x000000000044ac38        0x0 0x4 /usr/local/popcorn/x86_64/lib/libc.a(getdelim.o)
 .bss           0x000000000044ac38        0x0 0x4 /usr/local/popcorn/x86_64/lib/libc.a(__overflow.o)
 ** common      0x000000000044b000    0x20080

.debug_str      0x0000000000000000     0x4d34
 ** merge strings
                0x0000000000000000     0x4d34

.debug_loc      0x0000000000000000    0x100c2
 .debug_loc     0x0000000000000000        0x0 0x1 dc_x86_64.o
 .debug_loc     0x0000000000000000        0x0 0x1 adc_x86_64.o
 .debug_loc     0x0000000000000000        0x0 0x1 extbuild_x86_64.o
 .debug_loc     0x0000000000000000        0x0 0x1 jobcntl_x86_64.o
 .debug_loc     0x0000000000000000        0x0 0x1 rbt_x86_64.o
 .debug_loc     0x0000000000000000        0x0 0x1 c_timers_x86_64.o
 .debug_loc     0x0000000000000000        0x0 0x1 print_results_x86_64.o
 .debug_loc     0x0000000000000000        0x0 0x1 randdp_x86_64.o
 .debug_loc     0x0000000000000000        0x0 0x1 c_print_results_x86_64.o
 .debug_loc     0x0000000000000000        0x0 0x1 wtime_x86_64.o
 .debug_loc     0x0000000000000000       0x23 0x1 /usr/local/popcorn/x86_64/lib/crt1.o
 .debug_loc     0x0000000000000023       0x6f 0x1 /usr/local/popcorn/x86_64/lib/libc.a(isdigit.o)
 .debug_loc     0x0000000000000092      0x251 0x1 /usr/local/popcorn/x86_64/lib/libc.a(__libc_start_main.o)
 .debug_loc     0x00000000000002e3       0x23 0x1 /usr/local/popcorn/x86_64/lib/libc.a(__errno_location.o)
 .debug_loc     0x0000000000000306       0x72 0x1 /usr/local/popcorn/x86_64/lib/libc.a(exit.o)
 .debug_loc     0x0000000000000378        0x0 0x1 /usr/local/popcorn/x86_64/lib/libc.a(libc.o)
 .debug_loc     0x0000000000000378        0x0 0x1 /usr/local/popcorn/x86_64/lib/libc.a(calloc.o)
 .debug_loc     0x0000000000000378        0x0 0x1 /usr/local/popcorn/x86_64/lib/libc.a(lite_malloc.o)
 .debug_loc     0x0000000000000378        0x0 0x1 /usr/local/popcorn/x86_64/lib/libc.a(malloc.o)
 .debug_loc     0x0000000000000378        0x0 0x1 /usr/local/popcorn/x86_64/lib/libc.a(popcorn_malloc.o)
 .debug_loc     0x0000000000000378     0x12fa 0x1 /usr/local/popcorn/x86_64/lib/libc.a(pow.o)
 .debug_loc     0x0000000000001672      0x148 0x1 /usr/local/popcorn/x86_64/lib/libc.a(scalbn.o)
 .debug_loc     0x00000000000017ba       0x25 0x1 /usr/local/popcorn/x86_64/lib/libc.a(madvise.o)
 .debug_loc     0x00000000000017df      0x263 0x1 /usr/local/popcorn/x86_64/lib/libc.a(mmap.o)
 .debug_loc     0x0000000000001a42      0x14d 0x1 /usr/local/popcorn/x86_64/lib/libc.a(mremap.o)
 .debug_loc     0x0000000000001b8f       0x92 0x1 /usr/local/popcorn/x86_64/lib/libc.a(munmap.o)
 .debug_loc     0x0000000000001c21       0xb8 0x1 /usr/local/popcorn/x86_64/lib/libc.a(fclose.o)
 .debug_loc     0x0000000000001cd9       0xcb 0x1 /usr/local/popcorn/x86_64/lib/libc.a(fflush.o)
 .debug_loc     0x0000000000001da4      0x392 0x1 /usr/local/popcorn/x86_64/lib/libc.a(fgets.o)
 .debug_loc     0x0000000000002136      0x165 0x1 /usr/local/popcorn/x86_64/lib/libc.a(fopen.o)
 .debug_loc     0x000000000000229b        0x0 0x1 /usr/local/popcorn/x86_64/lib/libc.a(fprintf.o)
 .debug_loc     0x000000000000229b      0x2bf 0x1 /usr/local/popcorn/x86_64/lib/libc.a(fread.o)
 .debug_loc     0x000000000000255a        0x0 0x1 /usr/local/popcorn/x86_64/lib/libc.a(fscanf.o)
 .debug_loc     0x000000000000255a      0x1ac 0x1 /usr/local/popcorn/x86_64/lib/libc.a(fseek.o)
 .debug_loc     0x0000000000002706       0xb2 0x1 /usr/local/popcorn/x86_64/lib/libc.a(ftell.o)
 .debug_loc     0x00000000000027b8      0x231 0x1 /usr/local/popcorn/x86_64/lib/libc.a(fwrite.o)
 .debug_loc     0x00000000000029e9        0x0 0x1 /usr/local/popcorn/x86_64/lib/libc.a(ofl.o)
 .debug_loc     0x00000000000029e9       0x49 0x1 /usr/local/popcorn/x86_64/lib/libc.a(printf.o)
 .debug_loc     0x0000000000002a32        0x0 0x1 /usr/local/popcorn/x86_64/lib/libc.a(sprintf.o)
 .debug_loc     0x0000000000002a32        0x0 0x1 /usr/local/popcorn/x86_64/lib/libc.a(sscanf.o)
 .debug_loc     0x0000000000002a32        0x0 0x1 /usr/local/popcorn/x86_64/lib/libc.a(stderr.o)
 .debug_loc     0x0000000000002a32        0x0 0x1 /usr/local/popcorn/x86_64/lib/libc.a(stdout.o)
 .debug_loc     0x0000000000002a32     0x44dc 0x1 /usr/local/popcorn/x86_64/lib/libc.a(vfprintf.o)
 .debug_loc     0x0000000000006f0e      0xf84 0x1 /usr/local/popcorn/x86_64/lib/libc.a(vfscanf.o)
 .debug_loc     0x0000000000007e92       0x92 0x1 /usr/local/popcorn/x86_64/lib/libc.a(vsprintf.o)
 .debug_loc     0x0000000000007f24       0xec 0x1 /usr/local/popcorn/x86_64/lib/libc.a(vsscanf.o)
 .debug_loc     0x0000000000008010       0xfa 0x1 /usr/local/popcorn/x86_64/lib/libc.a(atoi.o)
 .debug_loc     0x000000000000810a      0xf9b 0x1 /usr/local/popcorn/x86_64/lib/libc.a(qsort.o)
 .debug_loc     0x00000000000090a5        0x0 0x1 /usr/local/popcorn/x86_64/lib/libc.a(memchr.o)
 .debug_loc     0x00000000000090a5        0x0 0x1 /usr/local/popcorn/x86_64/lib/libc.a(strcat.o)
 .debug_loc     0x00000000000090a5        0x0 0x1 /usr/local/popcorn/x86_64/lib/libc.a(strchr.o)
 .debug_loc     0x00000000000090a5        0x0 0x1 /usr/local/popcorn/x86_64/lib/libc.a(strchrnul.o)
 .debug_loc     0x00000000000090a5        0x0 0x1 /usr/local/popcorn/x86_64/lib/libc.a(strcmp.o)
 .debug_loc     0x00000000000090a5        0x0 0x1 /usr/local/popcorn/x86_64/lib/libc.a(strcpy.o)
 .debug_loc     0x00000000000090a5        0x0 0x1 /usr/local/popcorn/x86_64/lib/libc.a(strlen.o)
 .debug_loc     0x00000000000090a5        0x0 0x1 /usr/local/popcorn/x86_64/lib/libc.a(strnlen.o)
 .debug_loc     0x00000000000090a5        0x0 0x1 /usr/local/popcorn/x86_64/lib/libc.a(strstr.o)
 .debug_loc     0x00000000000090a5       0xbd 0x1 /usr/local/popcorn/x86_64/lib/libc.a(__lock.o)
 .debug_loc     0x0000000000009162      0x165 0x1 /usr/local/popcorn/x86_64/lib/libc.a(__wait.o)
 .debug_loc     0x00000000000092c7       0x90 0x1 /usr/local/popcorn/x86_64/lib/libc.a(gettimeofday.o)
 .debug_loc     0x0000000000009357        0x0 0x1 /usr/local/popcorn/x86_64/lib/libc.a(unlink.o)
 .debug_loc     0x0000000000009357        0x0 0x1 /usr/local/popcorn/x86_64/lib/libc.a(__environ.o)
 .debug_loc     0x0000000000009357      0x2b4 0x1 /usr/local/popcorn/x86_64/lib/libc.a(__init_tls.o)
 .debug_loc     0x000000000000960b       0xd7 0x1 /usr/local/popcorn/x86_64/lib/libc.a(platform.o)
 .debug_loc     0x00000000000096e2       0x5d 0x1 /usr/local/popcorn/x86_64/lib/libc.a(strerror.o)
 .debug_loc     0x000000000000973f       0x25 0x1 /usr/local/popcorn/x86_64/lib/libc.a(_Exit.o)
 .debug_loc     0x0000000000009764        0x0 0x1 /usr/local/popcorn/x86_64/lib/libc.a(floatscan.o)
 .debug_loc     0x0000000000009764        0x0 0x1 /usr/local/popcorn/x86_64/lib/libc.a(intscan.o)
 .debug_loc     0x0000000000009764        0x0 0x1 /usr/local/popcorn/x86_64/lib/libc.a(shgetc.o)
 .debug_loc     0x0000000000009764        0x0 0x1 /usr/local/popcorn/x86_64/lib/libc.a(syscall_ret.o)
 .debug_loc     0x0000000000009764       0x59 0x1 /usr/local/popcorn/x86_64/lib/libc.a(__lctrans.o)
 .debug_loc     0x00000000000097bd        0x0 0x1 /usr/local/popcorn/x86_64/lib/libc.a(expand_heap.o)
 .debug_loc     0x00000000000097bd       0x3a 0x1 /usr/local/popcorn/x86_64/lib/libc.a(__fpclassifyl.o)
 .debug_loc     0x00000000000097f7        0x0 0x1 /usr/local/popcorn/x86_64/lib/libc.a(__signbitl.o)
 .debug_loc     0x00000000000097f7        0x0 0x1 /usr/local/popcorn/x86_64/lib/libc.a(copysignl.o)
 .debug_loc     0x00000000000097f7       0xa6 0x1 /usr/local/popcorn/x86_64/lib/libc.a(frexpl.o)
 .debug_loc     0x000000000000989d       0xa3 0x1 /usr/local/popcorn/x86_64/lib/libc.a(scalbnl.o)
 .debug_loc     0x0000000000009940      0x219 0x1 /usr/local/popcorn/x86_64/lib/libc.a(mbrtowc.o)
 .debug_loc     0x0000000000009b59        0x0 0x1 /usr/local/popcorn/x86_64/lib/libc.a(mbsinit.o)
 .debug_loc     0x0000000000009b59        0x0 0x1 /usr/local/popcorn/x86_64/lib/libc.a(wctomb.o)
 .debug_loc     0x0000000000009b59      0x18d 0x1 /usr/local/popcorn/x86_64/lib/libc.a(__fdopen.o)
 .debug_loc     0x0000000000009ce6       0xaf 0x1 /usr/local/popcorn/x86_64/lib/libc.a(__fmodeflags.o)
 .debug_loc     0x0000000000009d95      0x162 0x1 /usr/local/popcorn/x86_64/lib/libc.a(__lockfile.o)
 .debug_loc     0x0000000000009ef7       0x80 0x1 /usr/local/popcorn/x86_64/lib/libc.a(__stdio_close.o)
 .debug_loc     0x0000000000009f77      0x147 0x1 /usr/local/popcorn/x86_64/lib/libc.a(__stdio_read.o)
 .debug_loc     0x000000000000a0be       0x48 0x1 /usr/local/popcorn/x86_64/lib/libc.a(__stdio_seek.o)
 .debug_loc     0x000000000000a106      0x1ca 0x1 /usr/local/popcorn/x86_64/lib/libc.a(__stdio_write.o)
 .debug_loc     0x000000000000a2d0       0xc5 0x1 /usr/local/popcorn/x86_64/lib/libc.a(__stdout_write.o)
 .debug_loc     0x000000000000a395      0x144 0x1 /usr/local/popcorn/x86_64/lib/libc.a(__string_read.o)
 .debug_loc     0x000000000000a4d9       0x36 0x1 /usr/local/popcorn/x86_64/lib/libc.a(__toread.o)
 .debug_loc     0x000000000000a50f        0x0 0x1 /usr/local/popcorn/x86_64/lib/libc.a(__towrite.o)
 .debug_loc     0x000000000000a50f       0x5a 0x1 /usr/local/popcorn/x86_64/lib/libc.a(__uflow.o)
 .debug_loc     0x000000000000a569       0x59 0x1 /usr/local/popcorn/x86_64/lib/libc.a(ofl_add.o)
 .debug_loc     0x000000000000a5c2      0x230 0x1 /usr/local/popcorn/x86_64/lib/libc.a(vsnprintf.o)
 .debug_loc     0x000000000000a7f2        0x0 0x1 /usr/local/popcorn/x86_64/lib/libc.a(memcmp.o)
 .debug_loc     0x000000000000a7f2        0x0 0x1 /usr/local/popcorn/x86_64/lib/libc.a(stpcpy.o)
 .debug_loc     0x000000000000a7f2      0x134 0x1 /usr/local/popcorn/x86_64/lib/libc.a(clock_gettime.o)
 .debug_loc     0x000000000000a926        0x0 0x1 /usr/local/popcorn/x86_64/lib/libc.a(internal.o)
 .debug_loc     0x000000000000a926       0x72 0x1 /usr/local/popcorn/x86_64/lib/libc.a(wcrtomb.o)
 .debug_loc     0x000000000000a998       0x36 0x1 /usr/local/popcorn/x86_64/lib/libc.a(__stdio_exit.o)
 .debug_loc     0x000000000000a9ce      0x4a3 0x1 /usr/local/popcorn/x86_64/lib/libmigrate.a(migrate.o)
 .debug_loc     0x000000000000ae71      0x261 0x1 /usr/local/popcorn/x86_64/lib/libmigrate.a(mapping.o)
 .debug_loc     0x000000000000b0d2      0x52c 0x1 /usr/local/popcorn/x86_64/lib/libstack-transform.a(userspace.o)
 .debug_loc     0x000000000000b5fe       0xb2 0x1 /usr/local/popcorn/x86_64/lib/libstack-transform.a(init.o)
 .debug_loc     0x000000000000b6b0      0x827 0x1 /usr/local/popcorn/x86_64/lib/libstack-transform.a(rewrite.o)
 .debug_loc     0x000000000000bed7      0x7c5 0x1 /usr/local/popcorn/x86_64/lib/libstack-transform.a(unwind.o)
 .debug_loc     0x000000000000c69c      0x71b 0x1 /usr/local/popcorn/x86_64/lib/libstack-transform.a(util.o)
 .debug_loc     0x000000000000cdb7       0x74 0x1 /usr/local/popcorn/x86_64/lib/libstack-transform.a(properties.o)
 .debug_loc     0x000000000000ce2b      0x6c5 0x1 /usr/local/popcorn/x86_64/lib/libstack-transform.a(regs.o)
 .debug_loc     0x000000000000d4f0       0xbd 0x1 /usr/local/popcorn/x86_64/lib/libstack-transform.a(properties.o)
 .debug_loc     0x000000000000d5ad      0x6db 0x1 /usr/local/popcorn/x86_64/lib/libstack-transform.a(regs.o)
 .debug_loc     0x000000000000dc88       0x74 0x1 /usr/local/popcorn/x86_64/lib/libstack-transform.a(properties.o)
 .debug_loc     0x000000000000dcfc      0x4b7 0x1 /usr/local/popcorn/x86_64/lib/libstack-transform.a(regs.o)
 .debug_loc     0x000000000000e1b3      0xc96 0x1 /usr/local/popcorn/x86_64/lib/libstack-transform.a(data.o)
 .debug_loc     0x000000000000ee49       0xd8 0x1 /usr/local/popcorn/x86_64/lib/libc.a(arch_crash.o)
 .debug_loc     0x000000000000ef21       0x7c 0x1 /usr/local/popcorn/x86_64/lib/libc.a(getenv.o)
 .debug_loc     0x000000000000ef9d       0xdc 0x1 /usr/local/popcorn/x86_64/lib/libc.a(assert.o)
 .debug_loc     0x000000000000f079       0x95 0x1 /usr/local/popcorn/x86_64/lib/libc.a(open.o)
 .debug_loc     0x000000000000f10e       0xc6 0x1 /usr/local/popcorn/x86_64/lib/libc.a(getrlimit.o)
 .debug_loc     0x000000000000f1d4       0x49 0x1 /usr/local/popcorn/x86_64/lib/libc.a(getc.o)
 .debug_loc     0x000000000000f21d       0x49 0x1 /usr/local/popcorn/x86_64/lib/libc.a(getline.o)
 .debug_loc     0x000000000000f266       0xa1 0x1 /usr/local/popcorn/x86_64/lib/libc.a(perror.o)
 .debug_loc     0x000000000000f307        0x0 0x1 /usr/local/popcorn/x86_64/lib/libc.a(snprintf.o)
 .debug_loc     0x000000000000f307      0x191 0x1 /usr/local/popcorn/x86_64/lib/libc.a(bsearch.o)
 .debug_loc     0x000000000000f498      0x181 0x1 /usr/local/popcorn/x86_64/lib/libc.a(strtol.o)
 .debug_loc     0x000000000000f619        0x0 0x1 /usr/local/popcorn/x86_64/lib/libc.a(strncmp.o)
 .debug_loc     0x000000000000f619       0x24 0x1 /usr/local/popcorn/x86_64/lib/libc.a(__syscall_cp.o)
 .debug_loc     0x000000000000f63d        0x0 0x1 /usr/local/popcorn/x86_64/lib/libc.a(pthread_attr_get.o)
 .debug_loc     0x000000000000f63d       0xf1 0x1 /usr/local/popcorn/x86_64/lib/libc.a(pthread_getattr_np.o)
 .debug_loc     0x000000000000f72e       0x23 0x1 /usr/local/popcorn/x86_64/lib/libc.a(pthread_migrate.o)
 .debug_loc     0x000000000000f751        0x0 0x1 /usr/local/popcorn/x86_64/lib/libc.a(pthread_self.o)
 .debug_loc     0x000000000000f751       0x74 0x1 /usr/local/popcorn/x86_64/lib/libc.a(close.o)
 .debug_loc     0x000000000000f7c5        0x0 0x1 /usr/local/popcorn/x86_64/lib/libc.a(getpid.o)
 .debug_loc     0x000000000000f7c5       0x4a 0x1 /usr/local/popcorn/x86_64/lib/libc.a(lseek.o)
 .debug_loc     0x000000000000f80f       0xb7 0x1 /usr/local/popcorn/x86_64/lib/libc.a(read.o)
 .debug_loc     0x000000000000f8c6        0x0 0x1 /usr/local/popcorn/x86_64/lib/libc.a(abort.o)
 .debug_loc     0x000000000000f8c6       0xdb 0x1 /usr/local/popcorn/x86_64/lib/libc.a(block.o)
 .debug_loc     0x000000000000f9a1       0xa5 0x1 /usr/local/popcorn/x86_64/lib/libc.a(raise.o)
 .debug_loc     0x000000000000fa46       0x83 0x1 /usr/local/popcorn/x86_64/lib/libc.a(fputc.o)
 .debug_loc     0x000000000000fac9      0x513 0x1 /usr/local/popcorn/x86_64/lib/libc.a(getdelim.o)
 .debug_loc     0x000000000000ffdc       0xe6 0x1 /usr/local/popcorn/x86_64/lib/libc.a(__overflow.o)

.debug_abbrev   0x0000000000000000     0x8783
 .debug_abbrev  0x0000000000000000      0x132 0x1 dc_x86_64.o
 .debug_abbrev  0x0000000000000132      0x193 0x1 adc_x86_64.o
 .debug_abbrev  0x00000000000002c5      0x15a 0x1 extbuild_x86_64.o
 .debug_abbrev  0x000000000000041f      0x15c 0x1 jobcntl_x86_64.o
 .debug_abbrev  0x000000000000057b      0x125 0x1 rbt_x86_64.o
 .debug_abbrev  0x00000000000006a0       0xa8 0x1 c_timers_x86_64.o
 .debug_abbrev  0x0000000000000748       0x95 0x1 print_results_x86_64.o
 .debug_abbrev  0x00000000000007dd       0x77 0x1 randdp_x86_64.o
 .debug_abbrev  0x0000000000000854       0x62 0x1 c_print_results_x86_64.o
 .debug_abbrev  0x00000000000008b6       0x96 0x1 wtime_x86_64.o
 .debug_abbrev  0x000000000000094c       0x67 0x1 /usr/local/popcorn/x86_64/lib/crt1.o
 .debug_abbrev  0x00000000000009b3      0x10a 0x1 /usr/local/popcorn/x86_64/lib/libc.a(isdigit.o)
 .debug_abbrev  0x0000000000000abd      0x1c0 0x1 /usr/local/popcorn/x86_64/lib/libc.a(__libc_start_main.o)
 .debug_abbrev  0x0000000000000c7d      0x12d 0x1 /usr/local/popcorn/x86_64/lib/libc.a(__errno_location.o)
 .debug_abbrev  0x0000000000000daa       0xa9 0x1 /usr/local/popcorn/x86_64/lib/libc.a(exit.o)
 .debug_abbrev  0x0000000000000e53       0x93 0x1 /usr/local/popcorn/x86_64/lib/libc.a(libc.o)
 .debug_abbrev  0x0000000000000ee6       0x57 0x1 /usr/local/popcorn/x86_64/lib/libc.a(calloc.o)
 .debug_abbrev  0x0000000000000f3d       0xa5 0x1 /usr/local/popcorn/x86_64/lib/libc.a(lite_malloc.o)
 .debug_abbrev  0x0000000000000fe2      0x17d 0x1 /usr/local/popcorn/x86_64/lib/libc.a(malloc.o)
 .debug_abbrev  0x000000000000115f      0x197 0x1 /usr/local/popcorn/x86_64/lib/libc.a(popcorn_malloc.o)
 .debug_abbrev  0x00000000000012f6      0x108 0x1 /usr/local/popcorn/x86_64/lib/libc.a(pow.o)
 .debug_abbrev  0x00000000000013fe       0x93 0x1 /usr/local/popcorn/x86_64/lib/libc.a(scalbn.o)
 .debug_abbrev  0x0000000000001491       0x28 0x1 /usr/local/popcorn/x86_64/lib/libc.a(fabs.o)
 .debug_abbrev  0x00000000000014b9       0x28 0x1 /usr/local/popcorn/x86_64/lib/libc.a(sqrt.o)
 .debug_abbrev  0x00000000000014e1       0xbe 0x1 /usr/local/popcorn/x86_64/lib/libc.a(madvise.o)
 .debug_abbrev  0x000000000000159f       0xd7 0x1 /usr/local/popcorn/x86_64/lib/libc.a(mmap.o)
 .debug_abbrev  0x0000000000001676      0x113 0x1 /usr/local/popcorn/x86_64/lib/libc.a(mremap.o)
 .debug_abbrev  0x0000000000001789       0xc8 0x1 /usr/local/popcorn/x86_64/lib/libc.a(munmap.o)
 .debug_abbrev  0x0000000000001851      0x11f 0x1 /usr/local/popcorn/x86_64/lib/libc.a(fclose.o)
 .debug_abbrev  0x0000000000001970       0xf9 0x1 /usr/local/popcorn/x86_64/lib/libc.a(fflush.o)
 .debug_abbrev  0x0000000000001a69       0xe8 0x1 /usr/local/popcorn/x86_64/lib/libc.a(fgets.o)
 .debug_abbrev  0x0000000000001b51      0x149 0x1 /usr/local/popcorn/x86_64/lib/libc.a(fopen.o)
 .debug_abbrev  0x0000000000001c9a       0xd6 0x1 /usr/local/popcorn/x86_64/lib/libc.a(fprintf.o)
 .debug_abbrev  0x0000000000001d70       0xe8 0x1 /usr/local/popcorn/x86_64/lib/libc.a(fread.o)
 .debug_abbrev  0x0000000000001e58       0xd6 0x1 /usr/local/popcorn/x86_64/lib/libc.a(fscanf.o)
 .debug_abbrev  0x0000000000001f2e       0xfd 0x1 /usr/local/popcorn/x86_64/lib/libc.a(fseek.o)
 .debug_abbrev  0x000000000000202b       0xfd 0x1 /usr/local/popcorn/x86_64/lib/libc.a(ftell.o)
 .debug_abbrev  0x0000000000002128      0x112 0x1 /usr/local/popcorn/x86_64/lib/libc.a(fwrite.o)
 .debug_abbrev  0x000000000000223a       0xed 0x1 /usr/local/popcorn/x86_64/lib/libc.a(ofl.o)
 .debug_abbrev  0x0000000000002327       0xc0 0x1 /usr/local/popcorn/x86_64/lib/libc.a(printf.o)
 .debug_abbrev  0x00000000000023e7       0xc0 0x1 /usr/local/popcorn/x86_64/lib/libc.a(sprintf.o)
 .debug_abbrev  0x00000000000024a7       0xc0 0x1 /usr/local/popcorn/x86_64/lib/libc.a(sscanf.o)
 .debug_abbrev  0x0000000000002567       0xc2 0x1 /usr/local/popcorn/x86_64/lib/libc.a(stderr.o)
 .debug_abbrev  0x0000000000002629       0xcb 0x1 /usr/local/popcorn/x86_64/lib/libc.a(stdout.o)
 .debug_abbrev  0x00000000000026f4      0x2be 0x1 /usr/local/popcorn/x86_64/lib/libc.a(vfprintf.o)
 .debug_abbrev  0x00000000000029b2      0x1e4 0x1 /usr/local/popcorn/x86_64/lib/libc.a(vfscanf.o)
 .debug_abbrev  0x0000000000002b96       0x94 0x1 /usr/local/popcorn/x86_64/lib/libc.a(vsprintf.o)
 .debug_abbrev  0x0000000000002c2a      0x12f 0x1 /usr/local/popcorn/x86_64/lib/libc.a(vsscanf.o)
 .debug_abbrev  0x0000000000002d59       0x9b 0x1 /usr/local/popcorn/x86_64/lib/libc.a(atoi.o)
 .debug_abbrev  0x0000000000002df4      0x1a6 0x1 /usr/local/popcorn/x86_64/lib/libc.a(qsort.o)
 .debug_abbrev  0x0000000000002f9a       0x82 0x1 /usr/local/popcorn/x86_64/lib/libc.a(memchr.o)
 .debug_abbrev  0x000000000000301c       0x5a 0x1 /usr/local/popcorn/x86_64/lib/libc.a(strcat.o)
 .debug_abbrev  0x0000000000003076       0x62 0x1 /usr/local/popcorn/x86_64/lib/libc.a(strchr.o)
 .debug_abbrev  0x00000000000030d8       0x74 0x1 /usr/local/popcorn/x86_64/lib/libc.a(strchrnul.o)
 .debug_abbrev  0x000000000000314c       0x53 0x1 /usr/local/popcorn/x86_64/lib/libc.a(strcmp.o)
 .debug_abbrev  0x000000000000319f       0x5a 0x1 /usr/local/popcorn/x86_64/lib/libc.a(strcpy.o)
 .debug_abbrev  0x00000000000031f9       0x74 0x1 /usr/local/popcorn/x86_64/lib/libc.a(strlen.o)
 .debug_abbrev  0x000000000000326d       0x6f 0x1 /usr/local/popcorn/x86_64/lib/libc.a(strnlen.o)
 .debug_abbrev  0x00000000000032dc       0xb6 0x1 /usr/local/popcorn/x86_64/lib/libc.a(strstr.o)
 .debug_abbrev  0x0000000000003392       0x28 0x1 /usr/local/popcorn/x86_64/lib/libc.a(memcpy.o)
 .debug_abbrev  0x00000000000033ba       0x28 0x1 /usr/local/popcorn/x86_64/lib/libc.a(memset.o)
 .debug_abbrev  0x00000000000033e2       0xee 0x1 /usr/local/popcorn/x86_64/lib/libc.a(__lock.o)
 .debug_abbrev  0x00000000000034d0      0x120 0x1 /usr/local/popcorn/x86_64/lib/libc.a(__wait.o)
 .debug_abbrev  0x00000000000035f0       0x99 0x1 /usr/local/popcorn/x86_64/lib/libc.a(gettimeofday.o)
 .debug_abbrev  0x0000000000003689       0xab 0x1 /usr/local/popcorn/x86_64/lib/libc.a(unlink.o)
 .debug_abbrev  0x0000000000003734       0x36 0x1 /usr/local/popcorn/x86_64/lib/libc.a(__environ.o)
 .debug_abbrev  0x000000000000376a      0x1cd 0x1 /usr/local/popcorn/x86_64/lib/libc.a(__init_tls.o)
 .debug_abbrev  0x0000000000003937      0x118 0x1 /usr/local/popcorn/x86_64/lib/libc.a(platform.o)
 .debug_abbrev  0x0000000000003a4f      0x17d 0x1 /usr/local/popcorn/x86_64/lib/libc.a(strerror.o)
 .debug_abbrev  0x0000000000003bcc       0x92 0x1 /usr/local/popcorn/x86_64/lib/libc.a(_Exit.o)
 .debug_abbrev  0x0000000000003c5e      0x141 0x1 /usr/local/popcorn/x86_64/lib/libc.a(floatscan.o)
 .debug_abbrev  0x0000000000003d9f      0x10e 0x1 /usr/local/popcorn/x86_64/lib/libc.a(intscan.o)
 .debug_abbrev  0x0000000000003ead       0xed 0x1 /usr/local/popcorn/x86_64/lib/libc.a(shgetc.o)
 .debug_abbrev  0x0000000000003f9a       0x45 0x1 /usr/local/popcorn/x86_64/lib/libc.a(syscall_ret.o)
 .debug_abbrev  0x0000000000003fdf      0x162 0x1 /usr/local/popcorn/x86_64/lib/libc.a(__lctrans.o)
 .debug_abbrev  0x0000000000004141       0xe3 0x1 /usr/local/popcorn/x86_64/lib/libc.a(expand_heap.o)
 .debug_abbrev  0x0000000000004224       0xad 0x1 /usr/local/popcorn/x86_64/lib/libc.a(__fpclassifyl.o)
 .debug_abbrev  0x00000000000042d1       0x91 0x1 /usr/local/popcorn/x86_64/lib/libc.a(__signbitl.o)
 .debug_abbrev  0x0000000000004362       0x91 0x1 /usr/local/popcorn/x86_64/lib/libc.a(copysignl.o)
 .debug_abbrev  0x00000000000043f3       0xa5 0x1 /usr/local/popcorn/x86_64/lib/libc.a(frexpl.o)
 .debug_abbrev  0x0000000000004498       0xa0 0x1 /usr/local/popcorn/x86_64/lib/libc.a(scalbnl.o)
 .debug_abbrev  0x0000000000004538       0x28 0x1 /usr/local/popcorn/x86_64/lib/libc.a(fmodl.o)
 .debug_abbrev  0x0000000000004560      0x179 0x1 /usr/local/popcorn/x86_64/lib/libc.a(mbrtowc.o)
 .debug_abbrev  0x00000000000046d9       0x85 0x1 /usr/local/popcorn/x86_64/lib/libc.a(mbsinit.o)
 .debug_abbrev  0x000000000000475e       0x62 0x1 /usr/local/popcorn/x86_64/lib/libc.a(wctomb.o)
 .debug_abbrev  0x00000000000047c0      0x14b 0x1 /usr/local/popcorn/x86_64/lib/libc.a(__fdopen.o)
 .debug_abbrev  0x000000000000490b       0x6b 0x1 /usr/local/popcorn/x86_64/lib/libc.a(__fmodeflags.o)
 .debug_abbrev  0x0000000000004976      0x1c1 0x1 /usr/local/popcorn/x86_64/lib/libc.a(__lockfile.o)
 .debug_abbrev  0x0000000000004b37      0x13c 0x1 /usr/local/popcorn/x86_64/lib/libc.a(__stdio_close.o)
 .debug_abbrev  0x0000000000004c73      0x15b 0x1 /usr/local/popcorn/x86_64/lib/libc.a(__stdio_read.o)
 .debug_abbrev  0x0000000000004dce      0x130 0x1 /usr/local/popcorn/x86_64/lib/libc.a(__stdio_seek.o)
 .debug_abbrev  0x0000000000004efe      0x168 0x1 /usr/local/popcorn/x86_64/lib/libc.a(__stdio_write.o)
 .debug_abbrev  0x0000000000005066      0x121 0x1 /usr/local/popcorn/x86_64/lib/libc.a(__stdout_write.o)
 .debug_abbrev  0x0000000000005187       0xe1 0x1 /usr/local/popcorn/x86_64/lib/libc.a(__string_read.o)
 .debug_abbrev  0x0000000000005268       0xeb 0x1 /usr/local/popcorn/x86_64/lib/libc.a(__toread.o)
 .debug_abbrev  0x0000000000005353       0xeb 0x1 /usr/local/popcorn/x86_64/lib/libc.a(__towrite.o)
 .debug_abbrev  0x000000000000543e       0xe1 0x1 /usr/local/popcorn/x86_64/lib/libc.a(__uflow.o)
 .debug_abbrev  0x000000000000551f       0xe1 0x1 /usr/local/popcorn/x86_64/lib/libc.a(ofl_add.o)
 .debug_abbrev  0x0000000000005600      0x13c 0x1 /usr/local/popcorn/x86_64/lib/libc.a(vsnprintf.o)
 .debug_abbrev  0x000000000000573c       0x74 0x1 /usr/local/popcorn/x86_64/lib/libc.a(memcmp.o)
 .debug_abbrev  0x00000000000057b0       0x80 0x1 /usr/local/popcorn/x86_64/lib/libc.a(stpcpy.o)
 .debug_abbrev  0x0000000000005830       0x28 0x1 /usr/local/popcorn/x86_64/lib/libc.a(__set_thread_area.o)
 .debug_abbrev  0x0000000000005858       0xee 0x1 /usr/local/popcorn/x86_64/lib/libc.a(clock_gettime.o)
 .debug_abbrev  0x0000000000005946       0x5e 0x1 /usr/local/popcorn/x86_64/lib/libc.a(internal.o)
 .debug_abbrev  0x00000000000059a4      0x16a 0x1 /usr/local/popcorn/x86_64/lib/libc.a(wcrtomb.o)
 .debug_abbrev  0x0000000000005b0e      0x105 0x1 /usr/local/popcorn/x86_64/lib/libc.a(__stdio_exit.o)
 .debug_abbrev  0x0000000000005c13      0x200 0x1 /usr/local/popcorn/x86_64/lib/libmigrate.a(migrate.o)
 .debug_abbrev  0x0000000000005e13      0x129 0x1 /usr/local/popcorn/x86_64/lib/libmigrate.a(mapping.o)
 .debug_abbrev  0x0000000000005f3c      0x25c 0x1 /usr/local/popcorn/x86_64/lib/libstack-transform.a(userspace.o)
 .debug_abbrev  0x0000000000006198      0x172 0x1 /usr/local/popcorn/x86_64/lib/libstack-transform.a(init.o)
 .debug_abbrev  0x000000000000630a      0x29c 0x1 /usr/local/popcorn/x86_64/lib/libstack-transform.a(rewrite.o)
 .debug_abbrev  0x00000000000065a6      0x205 0x1 /usr/local/popcorn/x86_64/lib/libstack-transform.a(unwind.o)
 .debug_abbrev  0x00000000000067ab      0x1a0 0x1 /usr/local/popcorn/x86_64/lib/libstack-transform.a(util.o)
 .debug_abbrev  0x000000000000694b       0xe2 0x1 /usr/local/popcorn/x86_64/lib/libstack-transform.a(properties.o)
 .debug_abbrev  0x0000000000006a2d      0x12a 0x1 /usr/local/popcorn/x86_64/lib/libstack-transform.a(regs.o)
 .debug_abbrev  0x0000000000006b57       0xf1 0x1 /usr/local/popcorn/x86_64/lib/libstack-transform.a(properties.o)
 .debug_abbrev  0x0000000000006c48      0x12a 0x1 /usr/local/popcorn/x86_64/lib/libstack-transform.a(regs.o)
 .debug_abbrev  0x0000000000006d72       0xe2 0x1 /usr/local/popcorn/x86_64/lib/libstack-transform.a(properties.o)
 .debug_abbrev  0x0000000000006e54      0x12a 0x1 /usr/local/popcorn/x86_64/lib/libstack-transform.a(regs.o)
 .debug_abbrev  0x0000000000006f7e      0x267 0x1 /usr/local/popcorn/x86_64/lib/libstack-transform.a(data.o)
 .debug_abbrev  0x00000000000071e5       0xb1 0x1 /usr/local/popcorn/x86_64/lib/libc.a(arch_crash.o)
 .debug_abbrev  0x0000000000007296       0x81 0x1 /usr/local/popcorn/x86_64/lib/libc.a(getenv.o)
 .debug_abbrev  0x0000000000007317       0x5a 0x1 /usr/local/popcorn/x86_64/lib/libc.a(assert.o)
 .debug_abbrev  0x0000000000007371      0x12f 0x1 /usr/local/popcorn/x86_64/lib/libc.a(open.o)
 .debug_abbrev  0x00000000000074a0      0x106 0x1 /usr/local/popcorn/x86_64/lib/libc.a(getrlimit.o)
 .debug_abbrev  0x00000000000075a6       0xdf 0x1 /usr/local/popcorn/x86_64/lib/libc.a(getc.o)
 .debug_abbrev  0x0000000000007685       0x8e 0x1 /usr/local/popcorn/x86_64/lib/libc.a(getline.o)
 .debug_abbrev  0x0000000000007713       0xdf 0x1 /usr/local/popcorn/x86_64/lib/libc.a(perror.o)
 .debug_abbrev  0x00000000000077f2       0xc0 0x1 /usr/local/popcorn/x86_64/lib/libc.a(snprintf.o)
 .debug_abbrev  0x00000000000078b2       0x8b 0x1 /usr/local/popcorn/x86_64/lib/libc.a(bsearch.o)
 .debug_abbrev  0x000000000000793d      0x166 0x1 /usr/local/popcorn/x86_64/lib/libc.a(strtol.o)
 .debug_abbrev  0x0000000000007aa3       0x74 0x1 /usr/local/popcorn/x86_64/lib/libc.a(strncmp.o)
 .debug_abbrev  0x0000000000007b17       0x28 0x1 /usr/local/popcorn/x86_64/lib/libc.a(memmove.o)
 .debug_abbrev  0x0000000000007b3f       0x85 0x1 /usr/local/popcorn/x86_64/lib/libc.a(__syscall_cp.o)
 .debug_abbrev  0x0000000000007bc4       0xfd 0x1 /usr/local/popcorn/x86_64/lib/libc.a(pthread_attr_get.o)
 .debug_abbrev  0x0000000000007cc1      0x128 0x1 /usr/local/popcorn/x86_64/lib/libc.a(pthread_getattr_np.o)
 .debug_abbrev  0x0000000000007de9      0x15e 0x1 /usr/local/popcorn/x86_64/lib/libc.a(pthread_migrate.o)
 .debug_abbrev  0x0000000000007f47      0x129 0x1 /usr/local/popcorn/x86_64/lib/libc.a(pthread_self.o)
 .debug_abbrev  0x0000000000008070       0x78 0x1 /usr/local/popcorn/x86_64/lib/libc.a(close.o)
 .debug_abbrev  0x00000000000080e8       0x9b 0x1 /usr/local/popcorn/x86_64/lib/libc.a(getpid.o)
 .debug_abbrev  0x0000000000008183       0xb9 0x1 /usr/local/popcorn/x86_64/lib/libc.a(lseek.o)
 .debug_abbrev  0x000000000000823c       0x60 0x1 /usr/local/popcorn/x86_64/lib/libc.a(read.o)
 .debug_abbrev  0x000000000000829c       0x51 0x1 /usr/local/popcorn/x86_64/lib/libc.a(abort.o)
 .debug_abbrev  0x00000000000082ed       0x28 0x1 /usr/local/popcorn/x86_64/lib/libc.a(syscall.o)
 .debug_abbrev  0x0000000000008315       0xda 0x1 /usr/local/popcorn/x86_64/lib/libc.a(block.o)
 .debug_abbrev  0x00000000000083ef       0xf0 0x1 /usr/local/popcorn/x86_64/lib/libc.a(raise.o)
 .debug_abbrev  0x00000000000084df       0xd2 0x1 /usr/local/popcorn/x86_64/lib/libc.a(fputc.o)
 .debug_abbrev  0x00000000000085b1       0xf1 0x1 /usr/local/popcorn/x86_64/lib/libc.a(getdelim.o)
 .debug_abbrev  0x00000000000086a2       0xe1 0x1 /usr/local/popcorn/x86_64/lib/libc.a(__overflow.o)

.debug_info     0x0000000000000000    0x1f2e8
 .debug_info    0x0000000000000000      0x8ef 0x1 dc_x86_64.o
 .debug_info    0x00000000000008ef      0xbb3 0x1 adc_x86_64.o
 .debug_info    0x00000000000014a2     0x113b 0x1 extbuild_x86_64.o
 .debug_info    0x00000000000025dd     0x145c 0x1 jobcntl_x86_64.o
 .debug_info    0x0000000000003a39      0x901 0x1 rbt_x86_64.o
 .debug_info    0x000000000000433a      0x14e 0x1 c_timers_x86_64.o
 .debug_info    0x0000000000004488      0x1c0 0x1 print_results_x86_64.o
 .debug_info    0x0000000000004648      0x265 0x1 randdp_x86_64.o
 .debug_info    0x00000000000048ad      0x188 0x1 c_print_results_x86_64.o
 .debug_info    0x0000000000004a35       0xc7 0x1 wtime_x86_64.o
 .debug_info    0x0000000000004afc       0x91 0x1 /usr/local/popcorn/x86_64/lib/crt1.o
 .debug_info    0x0000000000004b8d      0x10e 0x1 /usr/local/popcorn/x86_64/lib/libc.a(isdigit.o)
 .debug_info    0x0000000000004c9b      0x30b 0x1 /usr/local/popcorn/x86_64/lib/libc.a(__libc_start_main.o)
 .debug_info    0x0000000000004fa6      0x3a7 0x1 /usr/local/popcorn/x86_64/lib/libc.a(__errno_location.o)
 .debug_info    0x000000000000534d       0xb0 0x1 /usr/local/popcorn/x86_64/lib/libc.a(exit.o)
 .debug_info    0x00000000000053fd      0x1d7 0x1 /usr/local/popcorn/x86_64/lib/libc.a(libc.o)
 .debug_info    0x00000000000055d4       0xf5 0x1 /usr/local/popcorn/x86_64/lib/libc.a(calloc.o)
 .debug_info    0x00000000000056c9      0x12f 0x1 /usr/local/popcorn/x86_64/lib/libc.a(lite_malloc.o)
 .debug_info    0x00000000000057f8      0x96f 0x1 /usr/local/popcorn/x86_64/lib/libc.a(malloc.o)
 .debug_info    0x0000000000006167      0xadd 0x1 /usr/local/popcorn/x86_64/lib/libc.a(popcorn_malloc.o)
 .debug_info    0x0000000000006c44      0x7df 0x1 /usr/local/popcorn/x86_64/lib/libc.a(pow.o)
 .debug_info    0x0000000000007423       0xc7 0x1 /usr/local/popcorn/x86_64/lib/libc.a(scalbn.o)
 .debug_info    0x00000000000074ea       0xa5 0x1 /usr/local/popcorn/x86_64/lib/libc.a(fabs.o)
 .debug_info    0x000000000000758f       0xa5 0x1 /usr/local/popcorn/x86_64/lib/libc.a(sqrt.o)
 .debug_info    0x0000000000007634       0xf4 0x1 /usr/local/popcorn/x86_64/lib/libc.a(madvise.o)
 .debug_info    0x0000000000007728      0x195 0x1 /usr/local/popcorn/x86_64/lib/libc.a(mmap.o)
 .debug_info    0x00000000000078bd      0x1d9 0x1 /usr/local/popcorn/x86_64/lib/libc.a(mremap.o)
 .debug_info    0x0000000000007a96       0xf3 0x1 /usr/local/popcorn/x86_64/lib/libc.a(munmap.o)
 .debug_info    0x0000000000007b89      0x36f 0x1 /usr/local/popcorn/x86_64/lib/libc.a(fclose.o)
 .debug_info    0x0000000000007ef8      0x364 0x1 /usr/local/popcorn/x86_64/lib/libc.a(fflush.o)
 .debug_info    0x000000000000825c      0x374 0x1 /usr/local/popcorn/x86_64/lib/libc.a(fgets.o)
 .debug_info    0x00000000000085d0      0x450 0x1 /usr/local/popcorn/x86_64/lib/libc.a(fopen.o)
 .debug_info    0x0000000000008a20      0x12b 0x1 /usr/local/popcorn/x86_64/lib/libc.a(fprintf.o)
 .debug_info    0x0000000000008b4b      0x383 0x1 /usr/local/popcorn/x86_64/lib/libc.a(fread.o)
 .debug_info    0x0000000000008ece      0x12b 0x1 /usr/local/popcorn/x86_64/lib/libc.a(fscanf.o)
 .debug_info    0x0000000000008ff9      0x3c3 0x1 /usr/local/popcorn/x86_64/lib/libc.a(fseek.o)
 .debug_info    0x00000000000093bc      0x385 0x1 /usr/local/popcorn/x86_64/lib/libc.a(ftell.o)
 .debug_info    0x0000000000009741      0x3dc 0x1 /usr/local/popcorn/x86_64/lib/libc.a(fwrite.o)
 .debug_info    0x0000000000009b1d      0x341 0x1 /usr/local/popcorn/x86_64/lib/libc.a(ofl.o)
 .debug_info    0x0000000000009e5e      0x105 0x1 /usr/local/popcorn/x86_64/lib/libc.a(printf.o)
 .debug_info    0x0000000000009f63      0x11a 0x1 /usr/local/popcorn/x86_64/lib/libc.a(sprintf.o)
 .debug_info    0x000000000000a07d      0x110 0x1 /usr/local/popcorn/x86_64/lib/libc.a(sscanf.o)
 .debug_info    0x000000000000a18d      0x336 0x1 /usr/local/popcorn/x86_64/lib/libc.a(stderr.o)
 .debug_info    0x000000000000a4c3      0x337 0x1 /usr/local/popcorn/x86_64/lib/libc.a(stdout.o)
 .debug_info    0x000000000000a7fa     0x111f 0x1 /usr/local/popcorn/x86_64/lib/libc.a(vfprintf.o)
 .debug_info    0x000000000000b919      0x6bc 0x1 /usr/local/popcorn/x86_64/lib/libc.a(vfscanf.o)
 .debug_info    0x000000000000bfd5       0xdc 0x1 /usr/local/popcorn/x86_64/lib/libc.a(vsprintf.o)
 .debug_info    0x000000000000c0b1      0x3bb 0x1 /usr/local/popcorn/x86_64/lib/libc.a(vsscanf.o)
 .debug_info    0x000000000000c46c       0xbc 0x1 /usr/local/popcorn/x86_64/lib/libc.a(atoi.o)
 .debug_info    0x000000000000c528      0x61b 0x1 /usr/local/popcorn/x86_64/lib/libc.a(qsort.o)
 .debug_info    0x000000000000cb43       0xed 0x1 /usr/local/popcorn/x86_64/lib/libc.a(memchr.o)
 .debug_info    0x000000000000cc30       0x81 0x1 /usr/local/popcorn/x86_64/lib/libc.a(strcat.o)
 .debug_info    0x000000000000ccb1       0x98 0x1 /usr/local/popcorn/x86_64/lib/libc.a(strchr.o)
 .debug_info    0x000000000000cd49       0xc9 0x1 /usr/local/popcorn/x86_64/lib/libc.a(strchrnul.o)
 .debug_info    0x000000000000ce12       0x85 0x1 /usr/local/popcorn/x86_64/lib/libc.a(strcmp.o)
 .debug_info    0x000000000000ce97       0x81 0x1 /usr/local/popcorn/x86_64/lib/libc.a(strcpy.o)
 .debug_info    0x000000000000cf18       0xad 0x1 /usr/local/popcorn/x86_64/lib/libc.a(strlen.o)
 .debug_info    0x000000000000cfc5       0x92 0x1 /usr/local/popcorn/x86_64/lib/libc.a(strnlen.o)
 .debug_info    0x000000000000d057      0x2e6 0x1 /usr/local/popcorn/x86_64/lib/libc.a(strstr.o)
 .debug_info    0x000000000000d33d       0xc9 0x1 /usr/local/popcorn/x86_64/lib/libc.a(memcpy.o)
 .debug_info    0x000000000000d406       0xa9 0x1 /usr/local/popcorn/x86_64/lib/libc.a(memset.o)
 .debug_info    0x000000000000d4af      0x1e9 0x1 /usr/local/popcorn/x86_64/lib/libc.a(__lock.o)
 .debug_info    0x000000000000d698      0x1d5 0x1 /usr/local/popcorn/x86_64/lib/libc.a(__wait.o)
 .debug_info    0x000000000000d86d       0xee 0x1 /usr/local/popcorn/x86_64/lib/libc.a(gettimeofday.o)
 .debug_info    0x000000000000d95b       0xc8 0x1 /usr/local/popcorn/x86_64/lib/libc.a(unlink.o)
 .debug_info    0x000000000000da23       0x45 0x1 /usr/local/popcorn/x86_64/lib/libc.a(__environ.o)
 .debug_info    0x000000000000da68      0x763 0x1 /usr/local/popcorn/x86_64/lib/libc.a(__init_tls.o)
 .debug_info    0x000000000000e1cb      0x252 0x1 /usr/local/popcorn/x86_64/lib/libc.a(platform.o)
 .debug_info    0x000000000000e41d      0x498 0x1 /usr/local/popcorn/x86_64/lib/libc.a(strerror.o)
 .debug_info    0x000000000000e8b5       0xc7 0x1 /usr/local/popcorn/x86_64/lib/libc.a(_Exit.o)
 .debug_info    0x000000000000e97c      0x861 0x1 /usr/local/popcorn/x86_64/lib/libc.a(floatscan.o)
 .debug_info    0x000000000000f1dd      0x3de 0x1 /usr/local/popcorn/x86_64/lib/libc.a(intscan.o)
 .debug_info    0x000000000000f5bb      0x340 0x1 /usr/local/popcorn/x86_64/lib/libc.a(shgetc.o)
 .debug_info    0x000000000000f8fb       0x61 0x1 /usr/local/popcorn/x86_64/lib/libc.a(syscall_ret.o)
 .debug_info    0x000000000000f95c      0x469 0x1 /usr/local/popcorn/x86_64/lib/libc.a(__lctrans.o)
 .debug_info    0x000000000000fdc5      0x3bd 0x1 /usr/local/popcorn/x86_64/lib/libc.a(expand_heap.o)
 .debug_info    0x0000000000010182       0xed 0x1 /usr/local/popcorn/x86_64/lib/libc.a(__fpclassifyl.o)
 .debug_info    0x000000000001026f       0xd3 0x1 /usr/local/popcorn/x86_64/lib/libc.a(__signbitl.o)
 .debug_info    0x0000000000010342       0xea 0x1 /usr/local/popcorn/x86_64/lib/libc.a(copysignl.o)
 .debug_info    0x000000000001042c       0xf2 0x1 /usr/local/popcorn/x86_64/lib/libc.a(frexpl.o)
 .debug_info    0x000000000001051e       0xe6 0x1 /usr/local/popcorn/x86_64/lib/libc.a(scalbnl.o)
 .debug_info    0x0000000000010604       0xa7 0x1 /usr/local/popcorn/x86_64/lib/libc.a(fmodl.o)
 .debug_info    0x00000000000106ab      0x4f8 0x1 /usr/local/popcorn/x86_64/lib/libc.a(mbrtowc.o)
 .debug_info    0x0000000000010ba3       0x9f 0x1 /usr/local/popcorn/x86_64/lib/libc.a(mbsinit.o)
 .debug_info    0x0000000000010c42       0x7f 0x1 /usr/local/popcorn/x86_64/lib/libc.a(wctomb.o)
 .debug_info    0x0000000000010cc1      0x4d7 0x1 /usr/local/popcorn/x86_64/lib/libc.a(__fdopen.o)
 .debug_info    0x0000000000011198       0x7b 0x1 /usr/local/popcorn/x86_64/lib/libc.a(__fmodeflags.o)
 .debug_info    0x0000000000011213      0x783 0x1 /usr/local/popcorn/x86_64/lib/libc.a(__lockfile.o)
 .debug_info    0x0000000000011996      0x37b 0x1 /usr/local/popcorn/x86_64/lib/libc.a(__stdio_close.o)
 .debug_info    0x0000000000011d11      0x3e4 0x1 /usr/local/popcorn/x86_64/lib/libc.a(__stdio_read.o)
 .debug_info    0x00000000000120f5      0x38d 0x1 /usr/local/popcorn/x86_64/lib/libc.a(__stdio_seek.o)
 .debug_info    0x0000000000012482      0x405 0x1 /usr/local/popcorn/x86_64/lib/libc.a(__stdio_write.o)
 .debug_info    0x0000000000012887      0x3d9 0x1 /usr/local/popcorn/x86_64/lib/libc.a(__stdout_write.o)
 .debug_info    0x0000000000012c60      0x34c 0x1 /usr/local/popcorn/x86_64/lib/libc.a(__string_read.o)
 .debug_info    0x0000000000012fac      0x316 0x1 /usr/local/popcorn/x86_64/lib/libc.a(__toread.o)
 .debug_info    0x00000000000132c2      0x314 0x1 /usr/local/popcorn/x86_64/lib/libc.a(__towrite.o)
 .debug_info    0x00000000000135d6      0x310 0x1 /usr/local/popcorn/x86_64/lib/libc.a(__uflow.o)
 .debug_info    0x00000000000138e6      0x315 0x1 /usr/local/popcorn/x86_64/lib/libc.a(ofl_add.o)
 .debug_info    0x0000000000013bfb      0x45a 0x1 /usr/local/popcorn/x86_64/lib/libc.a(vsnprintf.o)
 .debug_info    0x0000000000014055       0xbb 0x1 /usr/local/popcorn/x86_64/lib/libc.a(memcmp.o)
 .debug_info    0x0000000000014110       0xd0 0x1 /usr/local/popcorn/x86_64/lib/libc.a(stpcpy.o)
 .debug_info    0x00000000000141e0       0xbe 0x1 /usr/local/popcorn/x86_64/lib/libc.a(__set_thread_area.o)
 .debug_info    0x000000000001429e      0x165 0x1 /usr/local/popcorn/x86_64/lib/libc.a(clock_gettime.o)
 .debug_info    0x0000000000014403       0x5e 0x1 /usr/local/popcorn/x86_64/lib/libc.a(internal.o)
 .debug_info    0x0000000000014461      0x462 0x1 /usr/local/popcorn/x86_64/lib/libc.a(wcrtomb.o)
 .debug_info    0x00000000000148c3      0x338 0x1 /usr/local/popcorn/x86_64/lib/libc.a(__stdio_exit.o)
 .debug_info    0x0000000000014bfb      0x408 0x1 /usr/local/popcorn/x86_64/lib/libmigrate.a(migrate.o)
 .debug_info    0x0000000000015003      0x2a6 0x1 /usr/local/popcorn/x86_64/lib/libmigrate.a(mapping.o)
 .debug_info    0x00000000000152a9      0xce3 0x1 /usr/local/popcorn/x86_64/lib/libstack-transform.a(userspace.o)
 .debug_info    0x0000000000015f8c      0x868 0x1 /usr/local/popcorn/x86_64/lib/libstack-transform.a(init.o)
 .debug_info    0x00000000000167f4      0xeb9 0x1 /usr/local/popcorn/x86_64/lib/libstack-transform.a(rewrite.o)
 .debug_info    0x00000000000176ad      0xd3c 0x1 /usr/local/popcorn/x86_64/lib/libstack-transform.a(unwind.o)
 .debug_info    0x00000000000183e9      0xc2a 0x1 /usr/local/popcorn/x86_64/lib/libstack-transform.a(util.o)
 .debug_info    0x0000000000019013      0x1f1 0x1 /usr/local/popcorn/x86_64/lib/libstack-transform.a(properties.o)
 .debug_info    0x0000000000019204      0x61c 0x1 /usr/local/popcorn/x86_64/lib/libstack-transform.a(regs.o)
 .debug_info    0x0000000000019820      0x20c 0x1 /usr/local/popcorn/x86_64/lib/libstack-transform.a(properties.o)
 .debug_info    0x0000000000019a2c      0x613 0x1 /usr/local/popcorn/x86_64/lib/libstack-transform.a(regs.o)
 .debug_info    0x000000000001a03f      0x1f1 0x1 /usr/local/popcorn/x86_64/lib/libstack-transform.a(properties.o)
 .debug_info    0x000000000001a230      0x74c 0x1 /usr/local/popcorn/x86_64/lib/libstack-transform.a(regs.o)
 .debug_info    0x000000000001a97c      0xf03 0x1 /usr/local/popcorn/x86_64/lib/libstack-transform.a(data.o)
 .debug_info    0x000000000001b87f      0x1c4 0x1 /usr/local/popcorn/x86_64/lib/libc.a(arch_crash.o)
 .debug_info    0x000000000001ba43       0xad 0x1 /usr/local/popcorn/x86_64/lib/libc.a(getenv.o)
 .debug_info    0x000000000001baf0       0x95 0x1 /usr/local/popcorn/x86_64/lib/libc.a(assert.o)
 .debug_info    0x000000000001bb85      0x1b3 0x1 /usr/local/popcorn/x86_64/lib/libc.a(open.o)
 .debug_info    0x000000000001bd38      0x1c7 0x1 /usr/local/popcorn/x86_64/lib/libc.a(getrlimit.o)
 .debug_info    0x000000000001beff      0x30c 0x1 /usr/local/popcorn/x86_64/lib/libc.a(getc.o)
 .debug_info    0x000000000001c20b       0xcd 0x1 /usr/local/popcorn/x86_64/lib/libc.a(getline.o)
 .debug_info    0x000000000001c2d8      0x334 0x1 /usr/local/popcorn/x86_64/lib/libc.a(perror.o)
 .debug_info    0x000000000001c60c      0x139 0x1 /usr/local/popcorn/x86_64/lib/libc.a(snprintf.o)
 .debug_info    0x000000000001c745       0xef 0x1 /usr/local/popcorn/x86_64/lib/libc.a(bsearch.o)
 .debug_info    0x000000000001c834      0x5ba 0x1 /usr/local/popcorn/x86_64/lib/libc.a(strtol.o)
 .debug_info    0x000000000001cdee       0xc7 0x1 /usr/local/popcorn/x86_64/lib/libc.a(strncmp.o)
 .debug_info    0x000000000001ceb5       0xab 0x1 /usr/local/popcorn/x86_64/lib/libc.a(memmove.o)
 .debug_info    0x000000000001cf60      0x12a 0x1 /usr/local/popcorn/x86_64/lib/libc.a(__syscall_cp.o)
 .debug_info    0x000000000001d08a      0x599 0x1 /usr/local/popcorn/x86_64/lib/libc.a(pthread_attr_get.o)
 .debug_info    0x000000000001d623      0x431 0x1 /usr/local/popcorn/x86_64/lib/libc.a(pthread_getattr_np.o)
 .debug_info    0x000000000001da54      0x3e0 0x1 /usr/local/popcorn/x86_64/lib/libc.a(pthread_migrate.o)
 .debug_info    0x000000000001de34      0x3ac 0x1 /usr/local/popcorn/x86_64/lib/libc.a(pthread_self.o)
 .debug_info    0x000000000001e1e0       0x9a 0x1 /usr/local/popcorn/x86_64/lib/libc.a(close.o)
 .debug_info    0x000000000001e27a       0xaa 0x1 /usr/local/popcorn/x86_64/lib/libc.a(getpid.o)
 .debug_info    0x000000000001e324       0xf5 0x1 /usr/local/popcorn/x86_64/lib/libc.a(lseek.o)
 .debug_info    0x000000000001e419       0x9e 0x1 /usr/local/popcorn/x86_64/lib/libc.a(read.o)
 .debug_info    0x000000000001e4b7       0x5c 0x1 /usr/local/popcorn/x86_64/lib/libc.a(abort.o)
 .debug_info    0x000000000001e513       0xac 0x1 /usr/local/popcorn/x86_64/lib/libc.a(syscall.o)
 .debug_info    0x000000000001e5bf      0x1c9 0x1 /usr/local/popcorn/x86_64/lib/libc.a(block.o)
 .debug_info    0x000000000001e788      0x168 0x1 /usr/local/popcorn/x86_64/lib/libc.a(raise.o)
 .debug_info    0x000000000001e8f0      0x310 0x1 /usr/local/popcorn/x86_64/lib/libc.a(fputc.o)
 .debug_info    0x000000000001ec00      0x3c9 0x1 /usr/local/popcorn/x86_64/lib/libc.a(getdelim.o)
 .debug_info    0x000000000001efc9      0x31f 0x1 /usr/local/popcorn/x86_64/lib/libc.a(__overflow.o)

.debug_ranges   0x0000000000000000     0x30f0
 .debug_ranges  0x0000000000000000       0x40 0x1 dc_x86_64.o
 .debug_ranges  0x0000000000000040      0x110 0x1 adc_x86_64.o
 .debug_ranges  0x0000000000000150      0x120 0x1 extbuild_x86_64.o
 .debug_ranges  0x0000000000000270      0x1d0 0x1 jobcntl_x86_64.o
 .debug_ranges  0x0000000000000440       0xa0 0x1 rbt_x86_64.o
 .debug_ranges  0x00000000000004e0       0x60 0x1 c_timers_x86_64.o
 .debug_ranges  0x0000000000000540        0x0 0x1 print_results_x86_64.o
 .debug_ranges  0x0000000000000540       0x30 0x1 randdp_x86_64.o
 .debug_ranges  0x0000000000000570        0x0 0x1 c_print_results_x86_64.o
 .debug_ranges  0x0000000000000570        0x0 0x1 wtime_x86_64.o
 .debug_ranges  0x0000000000000570        0x0 0x1 /usr/local/popcorn/x86_64/lib/crt1.o
 .debug_ranges  0x0000000000000570       0x30 0x1 /usr/local/popcorn/x86_64/lib/libc.a(isdigit.o)
 .debug_ranges  0x00000000000005a0       0x60 0x1 /usr/local/popcorn/x86_64/lib/libc.a(__libc_start_main.o)
 .debug_ranges  0x0000000000000600        0x0 0x1 /usr/local/popcorn/x86_64/lib/libc.a(__errno_location.o)
 .debug_ranges  0x0000000000000600       0x40 0x1 /usr/local/popcorn/x86_64/lib/libc.a(exit.o)
 .debug_ranges  0x0000000000000640        0x0 0x1 /usr/local/popcorn/x86_64/lib/libc.a(libc.o)
 .debug_ranges  0x0000000000000640       0x40 0x1 /usr/local/popcorn/x86_64/lib/libc.a(calloc.o)
 .debug_ranges  0x0000000000000680        0x0 0x1 /usr/local/popcorn/x86_64/lib/libc.a(lite_malloc.o)
 .debug_ranges  0x0000000000000680      0x1c0 0x1 /usr/local/popcorn/x86_64/lib/libc.a(malloc.o)
 .debug_ranges  0x0000000000000840      0x1e0 0x1 /usr/local/popcorn/x86_64/lib/libc.a(popcorn_malloc.o)
 .debug_ranges  0x0000000000000a20       0x30 0x1 /usr/local/popcorn/x86_64/lib/libc.a(pow.o)
 .debug_ranges  0x0000000000000a50        0x0 0x1 /usr/local/popcorn/x86_64/lib/libc.a(scalbn.o)
 .debug_ranges  0x0000000000000a50        0x0 0x1 /usr/local/popcorn/x86_64/lib/libc.a(madvise.o)
 .debug_ranges  0x0000000000000a50       0x30 0x1 /usr/local/popcorn/x86_64/lib/libc.a(mmap.o)
 .debug_ranges  0x0000000000000a80       0x30 0x1 /usr/local/popcorn/x86_64/lib/libc.a(mremap.o)
 .debug_ranges  0x0000000000000ab0       0x30 0x1 /usr/local/popcorn/x86_64/lib/libc.a(munmap.o)
 .debug_ranges  0x0000000000000ae0       0x30 0x1 /usr/local/popcorn/x86_64/lib/libc.a(fclose.o)
 .debug_ranges  0x0000000000000b10        0x0 0x1 /usr/local/popcorn/x86_64/lib/libc.a(fflush.o)
 .debug_ranges  0x0000000000000b10        0x0 0x1 /usr/local/popcorn/x86_64/lib/libc.a(fgets.o)
 .debug_ranges  0x0000000000000b10        0x0 0x1 /usr/local/popcorn/x86_64/lib/libc.a(fopen.o)
 .debug_ranges  0x0000000000000b10        0x0 0x1 /usr/local/popcorn/x86_64/lib/libc.a(fprintf.o)
 .debug_ranges  0x0000000000000b10        0x0 0x1 /usr/local/popcorn/x86_64/lib/libc.a(fread.o)
 .debug_ranges  0x0000000000000b10        0x0 0x1 /usr/local/popcorn/x86_64/lib/libc.a(fscanf.o)
 .debug_ranges  0x0000000000000b10       0x40 0x1 /usr/local/popcorn/x86_64/lib/libc.a(fseek.o)
 .debug_ranges  0x0000000000000b50       0x40 0x1 /usr/local/popcorn/x86_64/lib/libc.a(ftell.o)
 .debug_ranges  0x0000000000000b90       0x30 0x1 /usr/local/popcorn/x86_64/lib/libc.a(fwrite.o)
 .debug_ranges  0x0000000000000bc0       0x30 0x1 /usr/local/popcorn/x86_64/lib/libc.a(ofl.o)
 .debug_ranges  0x0000000000000bf0        0x0 0x1 /usr/local/popcorn/x86_64/lib/libc.a(printf.o)
 .debug_ranges  0x0000000000000bf0        0x0 0x1 /usr/local/popcorn/x86_64/lib/libc.a(sprintf.o)
 .debug_ranges  0x0000000000000bf0        0x0 0x1 /usr/local/popcorn/x86_64/lib/libc.a(sscanf.o)
 .debug_ranges  0x0000000000000bf0        0x0 0x1 /usr/local/popcorn/x86_64/lib/libc.a(stderr.o)
 .debug_ranges  0x0000000000000bf0        0x0 0x1 /usr/local/popcorn/x86_64/lib/libc.a(stdout.o)
 .debug_ranges  0x0000000000000bf0      0xb90 0x1 /usr/local/popcorn/x86_64/lib/libc.a(vfprintf.o)
 .debug_ranges  0x0000000000001780       0x90 0x1 /usr/local/popcorn/x86_64/lib/libc.a(vfscanf.o)
 .debug_ranges  0x0000000000001810        0x0 0x1 /usr/local/popcorn/x86_64/lib/libc.a(vsprintf.o)
 .debug_ranges  0x0000000000001810       0x30 0x1 /usr/local/popcorn/x86_64/lib/libc.a(vsscanf.o)
 .debug_ranges  0x0000000000001840        0x0 0x1 /usr/local/popcorn/x86_64/lib/libc.a(atoi.o)
 .debug_ranges  0x0000000000001840      0x1e0 0x1 /usr/local/popcorn/x86_64/lib/libc.a(qsort.o)
 .debug_ranges  0x0000000000001a20        0x0 0x1 /usr/local/popcorn/x86_64/lib/libc.a(memchr.o)
 .debug_ranges  0x0000000000001a20        0x0 0x1 /usr/local/popcorn/x86_64/lib/libc.a(strcat.o)
 .debug_ranges  0x0000000000001a20        0x0 0x1 /usr/local/popcorn/x86_64/lib/libc.a(strchr.o)
 .debug_ranges  0x0000000000001a20        0x0 0x1 /usr/local/popcorn/x86_64/lib/libc.a(strchrnul.o)
 .debug_ranges  0x0000000000001a20        0x0 0x1 /usr/local/popcorn/x86_64/lib/libc.a(strcmp.o)
 .debug_ranges  0x0000000000001a20        0x0 0x1 /usr/local/popcorn/x86_64/lib/libc.a(strcpy.o)
 .debug_ranges  0x0000000000001a20        0x0 0x1 /usr/local/popcorn/x86_64/lib/libc.a(strlen.o)
 .debug_ranges  0x0000000000001a20        0x0 0x1 /usr/local/popcorn/x86_64/lib/libc.a(strnlen.o)
 .debug_ranges  0x0000000000001a20       0x60 0x1 /usr/local/popcorn/x86_64/lib/libc.a(strstr.o)
 .debug_ranges  0x0000000000001a80       0x70 0x1 /usr/local/popcorn/x86_64/lib/libc.a(__lock.o)
 .debug_ranges  0x0000000000001af0       0x30 0x1 /usr/local/popcorn/x86_64/lib/libc.a(__wait.o)
 .debug_ranges  0x0000000000001b20        0x0 0x1 /usr/local/popcorn/x86_64/lib/libc.a(gettimeofday.o)
 .debug_ranges  0x0000000000001b20        0x0 0x1 /usr/local/popcorn/x86_64/lib/libc.a(unlink.o)
 .debug_ranges  0x0000000000001b20        0x0 0x1 /usr/local/popcorn/x86_64/lib/libc.a(__environ.o)
 .debug_ranges  0x0000000000001b20       0x40 0x1 /usr/local/popcorn/x86_64/lib/libc.a(__init_tls.o)
 .debug_ranges  0x0000000000001b60       0x40 0x1 /usr/local/popcorn/x86_64/lib/libc.a(platform.o)
 .debug_ranges  0x0000000000001ba0       0x30 0x1 /usr/local/popcorn/x86_64/lib/libc.a(strerror.o)
 .debug_ranges  0x0000000000001bd0        0x0 0x1 /usr/local/popcorn/x86_64/lib/libc.a(_Exit.o)
 .debug_ranges  0x0000000000001bd0       0x60 0x1 /usr/local/popcorn/x86_64/lib/libc.a(floatscan.o)
 .debug_ranges  0x0000000000001c30       0x30 0x1 /usr/local/popcorn/x86_64/lib/libc.a(intscan.o)
 .debug_ranges  0x0000000000001c60       0x30 0x1 /usr/local/popcorn/x86_64/lib/libc.a(shgetc.o)
 .debug_ranges  0x0000000000001c90        0x0 0x1 /usr/local/popcorn/x86_64/lib/libc.a(syscall_ret.o)
 .debug_ranges  0x0000000000001c90       0x40 0x1 /usr/local/popcorn/x86_64/lib/libc.a(__lctrans.o)
 .debug_ranges  0x0000000000001cd0       0xb0 0x1 /usr/local/popcorn/x86_64/lib/libc.a(expand_heap.o)
 .debug_ranges  0x0000000000001d80        0x0 0x1 /usr/local/popcorn/x86_64/lib/libc.a(__fpclassifyl.o)
 .debug_ranges  0x0000000000001d80        0x0 0x1 /usr/local/popcorn/x86_64/lib/libc.a(__signbitl.o)
 .debug_ranges  0x0000000000001d80        0x0 0x1 /usr/local/popcorn/x86_64/lib/libc.a(copysignl.o)
 .debug_ranges  0x0000000000001d80        0x0 0x1 /usr/local/popcorn/x86_64/lib/libc.a(frexpl.o)
 .debug_ranges  0x0000000000001d80        0x0 0x1 /usr/local/popcorn/x86_64/lib/libc.a(scalbnl.o)
 .debug_ranges  0x0000000000001d80        0x0 0x1 /usr/local/popcorn/x86_64/lib/libc.a(mbrtowc.o)
 .debug_ranges  0x0000000000001d80        0x0 0x1 /usr/local/popcorn/x86_64/lib/libc.a(mbsinit.o)
 .debug_ranges  0x0000000000001d80        0x0 0x1 /usr/local/popcorn/x86_64/lib/libc.a(wctomb.o)
 .debug_ranges  0x0000000000001d80        0x0 0x1 /usr/local/popcorn/x86_64/lib/libc.a(__fdopen.o)
 .debug_ranges  0x0000000000001d80        0x0 0x1 /usr/local/popcorn/x86_64/lib/libc.a(__fmodeflags.o)
 .debug_ranges  0x0000000000001d80       0x60 0x1 /usr/local/popcorn/x86_64/lib/libc.a(__lockfile.o)
 .debug_ranges  0x0000000000001de0       0x30 0x1 /usr/local/popcorn/x86_64/lib/libc.a(__stdio_close.o)
 .debug_ranges  0x0000000000001e10        0x0 0x1 /usr/local/popcorn/x86_64/lib/libc.a(__stdio_read.o)
 .debug_ranges  0x0000000000001e10        0x0 0x1 /usr/local/popcorn/x86_64/lib/libc.a(__stdio_seek.o)
 .debug_ranges  0x0000000000001e10       0x30 0x1 /usr/local/popcorn/x86_64/lib/libc.a(__stdio_write.o)
 .debug_ranges  0x0000000000001e40        0x0 0x1 /usr/local/popcorn/x86_64/lib/libc.a(__stdout_write.o)
 .debug_ranges  0x0000000000001e40        0x0 0x1 /usr/local/popcorn/x86_64/lib/libc.a(__string_read.o)
 .debug_ranges  0x0000000000001e40       0x30 0x1 /usr/local/popcorn/x86_64/lib/libc.a(__toread.o)
 .debug_ranges  0x0000000000001e70       0x30 0x1 /usr/local/popcorn/x86_64/lib/libc.a(__towrite.o)
 .debug_ranges  0x0000000000001ea0        0x0 0x1 /usr/local/popcorn/x86_64/lib/libc.a(__uflow.o)
 .debug_ranges  0x0000000000001ea0        0x0 0x1 /usr/local/popcorn/x86_64/lib/libc.a(ofl_add.o)
 .debug_ranges  0x0000000000001ea0       0x30 0x1 /usr/local/popcorn/x86_64/lib/libc.a(vsnprintf.o)
 .debug_ranges  0x0000000000001ed0        0x0 0x1 /usr/local/popcorn/x86_64/lib/libc.a(memcmp.o)
 .debug_ranges  0x0000000000001ed0        0x0 0x1 /usr/local/popcorn/x86_64/lib/libc.a(stpcpy.o)
 .debug_ranges  0x0000000000001ed0        0x0 0x1 /usr/local/popcorn/x86_64/lib/libc.a(clock_gettime.o)
 .debug_ranges  0x0000000000001ed0        0x0 0x1 /usr/local/popcorn/x86_64/lib/libc.a(internal.o)
 .debug_ranges  0x0000000000001ed0        0x0 0x1 /usr/local/popcorn/x86_64/lib/libc.a(wcrtomb.o)
 .debug_ranges  0x0000000000001ed0       0x30 0x1 /usr/local/popcorn/x86_64/lib/libc.a(__stdio_exit.o)
 .debug_ranges  0x0000000000001f00      0x140 0x1 /usr/local/popcorn/x86_64/lib/libmigrate.a(migrate.o)
 .debug_ranges  0x0000000000002040       0x70 0x1 /usr/local/popcorn/x86_64/lib/libmigrate.a(mapping.o)
 .debug_ranges  0x00000000000020b0       0xe0 0x1 /usr/local/popcorn/x86_64/lib/libstack-transform.a(userspace.o)
 .debug_ranges  0x0000000000002190       0x50 0x1 /usr/local/popcorn/x86_64/lib/libstack-transform.a(init.o)
 .debug_ranges  0x00000000000021e0      0x1b0 0x1 /usr/local/popcorn/x86_64/lib/libstack-transform.a(rewrite.o)
 .debug_ranges  0x0000000000002390      0x190 0x1 /usr/local/popcorn/x86_64/lib/libstack-transform.a(unwind.o)
 .debug_ranges  0x0000000000002520      0x100 0x1 /usr/local/popcorn/x86_64/lib/libstack-transform.a(util.o)
 .debug_ranges  0x0000000000002620       0x40 0x1 /usr/local/popcorn/x86_64/lib/libstack-transform.a(properties.o)
 .debug_ranges  0x0000000000002660      0x120 0x1 /usr/local/popcorn/x86_64/lib/libstack-transform.a(regs.o)
 .debug_ranges  0x0000000000002780       0x40 0x1 /usr/local/popcorn/x86_64/lib/libstack-transform.a(properties.o)
 .debug_ranges  0x00000000000027c0      0x120 0x1 /usr/local/popcorn/x86_64/lib/libstack-transform.a(regs.o)
 .debug_ranges  0x00000000000028e0       0x40 0x1 /usr/local/popcorn/x86_64/lib/libstack-transform.a(properties.o)
 .debug_ranges  0x0000000000002920      0x120 0x1 /usr/local/popcorn/x86_64/lib/libstack-transform.a(regs.o)
 .debug_ranges  0x0000000000002a40      0x400 0x1 /usr/local/popcorn/x86_64/lib/libstack-transform.a(data.o)
 .debug_ranges  0x0000000000002e40       0x50 0x1 /usr/local/popcorn/x86_64/lib/libc.a(arch_crash.o)
 .debug_ranges  0x0000000000002e90        0x0 0x1 /usr/local/popcorn/x86_64/lib/libc.a(getenv.o)
 .debug_ranges  0x0000000000002e90        0x0 0x1 /usr/local/popcorn/x86_64/lib/libc.a(assert.o)
 .debug_ranges  0x0000000000002e90        0x0 0x1 /usr/local/popcorn/x86_64/lib/libc.a(open.o)
 .debug_ranges  0x0000000000002e90        0x0 0x1 /usr/local/popcorn/x86_64/lib/libc.a(getrlimit.o)
 .debug_ranges  0x0000000000002e90        0x0 0x1 /usr/local/popcorn/x86_64/lib/libc.a(getc.o)
 .debug_ranges  0x0000000000002e90        0x0 0x1 /usr/local/popcorn/x86_64/lib/libc.a(getline.o)
 .debug_ranges  0x0000000000002e90        0x0 0x1 /usr/local/popcorn/x86_64/lib/libc.a(perror.o)
 .debug_ranges  0x0000000000002e90        0x0 0x1 /usr/local/popcorn/x86_64/lib/libc.a(snprintf.o)
 .debug_ranges  0x0000000000002e90        0x0 0x1 /usr/local/popcorn/x86_64/lib/libc.a(bsearch.o)
 .debug_ranges  0x0000000000002e90       0x80 0x1 /usr/local/popcorn/x86_64/lib/libc.a(strtol.o)
 .debug_ranges  0x0000000000002f10        0x0 0x1 /usr/local/popcorn/x86_64/lib/libc.a(strncmp.o)
 .debug_ranges  0x0000000000002f10       0x30 0x1 /usr/local/popcorn/x86_64/lib/libc.a(__syscall_cp.o)
 .debug_ranges  0x0000000000002f40      0x110 0x1 /usr/local/popcorn/x86_64/lib/libc.a(pthread_attr_get.o)
 .debug_ranges  0x0000000000003050        0x0 0x1 /usr/local/popcorn/x86_64/lib/libc.a(pthread_getattr_np.o)
 .debug_ranges  0x0000000000003050       0x30 0x1 /usr/local/popcorn/x86_64/lib/libc.a(pthread_migrate.o)
 .debug_ranges  0x0000000000003080        0x0 0x1 /usr/local/popcorn/x86_64/lib/libc.a(pthread_self.o)
 .debug_ranges  0x0000000000003080       0x30 0x1 /usr/local/popcorn/x86_64/lib/libc.a(close.o)
 .debug_ranges  0x00000000000030b0        0x0 0x1 /usr/local/popcorn/x86_64/lib/libc.a(getpid.o)
 .debug_ranges  0x00000000000030b0        0x0 0x1 /usr/local/popcorn/x86_64/lib/libc.a(lseek.o)
 .debug_ranges  0x00000000000030b0        0x0 0x1 /usr/local/popcorn/x86_64/lib/libc.a(read.o)
 .debug_ranges  0x00000000000030b0        0x0 0x1 /usr/local/popcorn/x86_64/lib/libc.a(abort.o)
 .debug_ranges  0x00000000000030b0       0x40 0x1 /usr/local/popcorn/x86_64/lib/libc.a(block.o)
 .debug_ranges  0x00000000000030f0        0x0 0x1 /usr/local/popcorn/x86_64/lib/libc.a(raise.o)
 .debug_ranges  0x00000000000030f0        0x0 0x1 /usr/local/popcorn/x86_64/lib/libc.a(fputc.o)
 .debug_ranges  0x00000000000030f0        0x0 0x1 /usr/local/popcorn/x86_64/lib/libc.a(getdelim.o)
 .debug_ranges  0x00000000000030f0        0x0 0x1 /usr/local/popcorn/x86_64/lib/libc.a(__overflow.o)

.debug_pubnames
                0x0000000000000000     0x3526
 .debug_pubnames
                0x0000000000000000       0xb8 0x1 dc_x86_64.o
 .debug_pubnames
                0x00000000000000b8      0x1e5 0x1 adc_x86_64.o
 .debug_pubnames
                0x000000000000029d      0x17c 0x1 extbuild_x86_64.o
 .debug_pubnames
                0x0000000000000419      0x1fa 0x1 jobcntl_x86_64.o
 .debug_pubnames
                0x0000000000000613       0xc5 0x1 rbt_x86_64.o
 .debug_pubnames
                0x00000000000006d8       0x77 0x1 c_timers_x86_64.o
 .debug_pubnames
                0x000000000000074f       0x24 0x1 print_results_x86_64.o
 .debug_pubnames
                0x0000000000000773       0x28 0x1 randdp_x86_64.o
 .debug_pubnames
                0x000000000000079b       0x26 0x1 c_print_results_x86_64.o
 .debug_pubnames
                0x00000000000007c1       0x25 0x1 wtime_x86_64.o
 .debug_pubnames
                0x00000000000007e6       0x1f 0x1 /usr/local/popcorn/x86_64/lib/crt1.o
 .debug_pubnames
                0x0000000000000805       0x2e 0x1 /usr/local/popcorn/x86_64/lib/libc.a(isdigit.o)
 .debug_pubnames
                0x0000000000000833       0xa4 0x1 /usr/local/popcorn/x86_64/lib/libc.a(__libc_start_main.o)
 .debug_pubnames
                0x00000000000008d7       0x3a 0x1 /usr/local/popcorn/x86_64/lib/libc.a(__errno_location.o)
 .debug_pubnames
                0x0000000000000911       0x38 0x1 /usr/local/popcorn/x86_64/lib/libc.a(exit.o)
 .debug_pubnames
                0x0000000000000949       0x5a 0x1 /usr/local/popcorn/x86_64/lib/libc.a(libc.o)
 .debug_pubnames
                0x00000000000009a3       0x47 0x1 /usr/local/popcorn/x86_64/lib/libc.a(calloc.o)
 .debug_pubnames
                0x00000000000009ea       0x3f 0x1 /usr/local/popcorn/x86_64/lib/libc.a(lite_malloc.o)
 .debug_pubnames
                0x0000000000000a29      0x197 0x1 /usr/local/popcorn/x86_64/lib/libc.a(malloc.o)
 .debug_pubnames
                0x0000000000000bc0      0x1e6 0x1 /usr/local/popcorn/x86_64/lib/libc.a(popcorn_malloc.o)
 .debug_pubnames
                0x0000000000000da6       0xfb 0x1 /usr/local/popcorn/x86_64/lib/libc.a(pow.o)
 .debug_pubnames
                0x0000000000000ea1       0x1d 0x1 /usr/local/popcorn/x86_64/lib/libc.a(scalbn.o)
 .debug_pubnames
                0x0000000000000ebe       0x2f 0x1 /usr/local/popcorn/x86_64/lib/libc.a(madvise.o)
 .debug_pubnames
                0x0000000000000eed       0x36 0x1 /usr/local/popcorn/x86_64/lib/libc.a(mmap.o)
 .debug_pubnames
                0x0000000000000f23       0x38 0x1 /usr/local/popcorn/x86_64/lib/libc.a(mremap.o)
 .debug_pubnames
                0x0000000000000f5b       0x38 0x1 /usr/local/popcorn/x86_64/lib/libc.a(munmap.o)
 .debug_pubnames
                0x0000000000000f93       0x27 0x1 /usr/local/popcorn/x86_64/lib/libc.a(fclose.o)
 .debug_pubnames
                0x0000000000000fba       0x27 0x1 /usr/local/popcorn/x86_64/lib/libc.a(fflush.o)
 .debug_pubnames
                0x0000000000000fe1       0x1c 0x1 /usr/local/popcorn/x86_64/lib/libc.a(fgets.o)
 .debug_pubnames
                0x0000000000000ffd       0x3a 0x1 /usr/local/popcorn/x86_64/lib/libc.a(fopen.o)
 .debug_pubnames
                0x0000000000001037       0x1e 0x1 /usr/local/popcorn/x86_64/lib/libc.a(fprintf.o)
 .debug_pubnames
                0x0000000000001055       0x1c 0x1 /usr/local/popcorn/x86_64/lib/libc.a(fread.o)
 .debug_pubnames
                0x0000000000001071       0x1d 0x1 /usr/local/popcorn/x86_64/lib/libc.a(fscanf.o)
 .debug_pubnames
                0x000000000000108e       0x3f 0x1 /usr/local/popcorn/x86_64/lib/libc.a(fseek.o)
 .debug_pubnames
                0x00000000000010cd       0x3f 0x1 /usr/local/popcorn/x86_64/lib/libc.a(ftell.o)
 .debug_pubnames
                0x000000000000110c       0x2b 0x1 /usr/local/popcorn/x86_64/lib/libc.a(fwrite.o)
 .debug_pubnames
                0x0000000000001137       0x4c 0x1 /usr/local/popcorn/x86_64/lib/libc.a(ofl.o)
 .debug_pubnames
                0x0000000000001183       0x1d 0x1 /usr/local/popcorn/x86_64/lib/libc.a(printf.o)
 .debug_pubnames
                0x00000000000011a0       0x1e 0x1 /usr/local/popcorn/x86_64/lib/libc.a(sprintf.o)
 .debug_pubnames
                0x00000000000011be       0x1d 0x1 /usr/local/popcorn/x86_64/lib/libc.a(sscanf.o)
 .debug_pubnames
                0x00000000000011db       0x3d 0x1 /usr/local/popcorn/x86_64/lib/libc.a(stderr.o)
 .debug_pubnames
                0x0000000000001218       0x3d 0x1 /usr/local/popcorn/x86_64/lib/libc.a(stdout.o)
 .debug_pubnames
                0x0000000000001255       0xb9 0x1 /usr/local/popcorn/x86_64/lib/libc.a(vfprintf.o)
 .debug_pubnames
                0x000000000000130e       0x44 0x1 /usr/local/popcorn/x86_64/lib/libc.a(vfscanf.o)
 .debug_pubnames
                0x0000000000001352       0x1f 0x1 /usr/local/popcorn/x86_64/lib/libc.a(vsprintf.o)
 .debug_pubnames
                0x0000000000001371       0x2a 0x1 /usr/local/popcorn/x86_64/lib/libc.a(vsscanf.o)
 .debug_pubnames
                0x000000000000139b       0x29 0x1 /usr/local/popcorn/x86_64/lib/libc.a(atoi.o)
 .debug_pubnames
                0x00000000000013c4       0x7c 0x1 /usr/local/popcorn/x86_64/lib/libc.a(qsort.o)
 .debug_pubnames
                0x0000000000001440       0x1d 0x1 /usr/local/popcorn/x86_64/lib/libc.a(memchr.o)
 .debug_pubnames
                0x000000000000145d       0x1d 0x1 /usr/local/popcorn/x86_64/lib/libc.a(strcat.o)
 .debug_pubnames
                0x000000000000147a       0x1d 0x1 /usr/local/popcorn/x86_64/lib/libc.a(strchr.o)
 .debug_pubnames
                0x0000000000001497       0x22 0x1 /usr/local/popcorn/x86_64/lib/libc.a(strchrnul.o)
 .debug_pubnames
                0x00000000000014b9       0x1d 0x1 /usr/local/popcorn/x86_64/lib/libc.a(strcmp.o)
 .debug_pubnames
                0x00000000000014d6       0x1d 0x1 /usr/local/popcorn/x86_64/lib/libc.a(strcpy.o)
 .debug_pubnames
                0x00000000000014f3       0x1d 0x1 /usr/local/popcorn/x86_64/lib/libc.a(strlen.o)
 .debug_pubnames
                0x0000000000001510       0x1e 0x1 /usr/local/popcorn/x86_64/lib/libc.a(strnlen.o)
 .debug_pubnames
                0x000000000000152e       0x6b 0x1 /usr/local/popcorn/x86_64/lib/libc.a(strstr.o)
 .debug_pubnames
                0x0000000000001599       0x5b 0x1 /usr/local/popcorn/x86_64/lib/libc.a(__lock.o)
 .debug_pubnames
                0x00000000000015f4       0x4b 0x1 /usr/local/popcorn/x86_64/lib/libc.a(__wait.o)
 .debug_pubnames
                0x000000000000163f       0x23 0x1 /usr/local/popcorn/x86_64/lib/libc.a(gettimeofday.o)
 .debug_pubnames
                0x0000000000001662       0x2c 0x1 /usr/local/popcorn/x86_64/lib/libc.a(unlink.o)
 .debug_pubnames
                0x000000000000168e       0x20 0x1 /usr/local/popcorn/x86_64/lib/libc.a(__environ.o)
 .debug_pubnames
                0x00000000000016ae       0x8a 0x1 /usr/local/popcorn/x86_64/lib/libc.a(__init_tls.o)
 .debug_pubnames
                0x0000000000001738       0x75 0x1 /usr/local/popcorn/x86_64/lib/libc.a(platform.o)
 .debug_pubnames
                0x00000000000017ad       0x58 0x1 /usr/local/popcorn/x86_64/lib/libc.a(strerror.o)
 .debug_pubnames
                0x0000000000001805       0x2b 0x1 /usr/local/popcorn/x86_64/lib/libc.a(_Exit.o)
 .debug_pubnames
                0x0000000000001830       0x66 0x1 /usr/local/popcorn/x86_64/lib/libc.a(floatscan.o)
 .debug_pubnames
                0x0000000000001896       0x38 0x1 /usr/local/popcorn/x86_64/lib/libc.a(intscan.o)
 .debug_pubnames
                0x00000000000018ce       0x2b 0x1 /usr/local/popcorn/x86_64/lib/libc.a(shgetc.o)
 .debug_pubnames
                0x00000000000018f9       0x24 0x1 /usr/local/popcorn/x86_64/lib/libc.a(syscall_ret.o)
 .debug_pubnames
                0x000000000000191d       0x4f 0x1 /usr/local/popcorn/x86_64/lib/libc.a(__lctrans.o)
 .debug_pubnames
                0x000000000000196c      0x109 0x1 /usr/local/popcorn/x86_64/lib/libc.a(expand_heap.o)
 .debug_pubnames
                0x0000000000001a75       0x24 0x1 /usr/local/popcorn/x86_64/lib/libc.a(__fpclassifyl.o)
 .debug_pubnames
                0x0000000000001a99       0x21 0x1 /usr/local/popcorn/x86_64/lib/libc.a(__signbitl.o)
 .debug_pubnames
                0x0000000000001aba       0x20 0x1 /usr/local/popcorn/x86_64/lib/libc.a(copysignl.o)
 .debug_pubnames
                0x0000000000001ada       0x1d 0x1 /usr/local/popcorn/x86_64/lib/libc.a(frexpl.o)
 .debug_pubnames
                0x0000000000001af7       0x1e 0x1 /usr/local/popcorn/x86_64/lib/libc.a(scalbnl.o)
 .debug_pubnames
                0x0000000000001b15       0x44 0x1 /usr/local/popcorn/x86_64/lib/libc.a(mbrtowc.o)
 .debug_pubnames
                0x0000000000001b59       0x1e 0x1 /usr/local/popcorn/x86_64/lib/libc.a(mbsinit.o)
 .debug_pubnames
                0x0000000000001b77       0x1d 0x1 /usr/local/popcorn/x86_64/lib/libc.a(wctomb.o)
 .debug_pubnames
                0x0000000000001b94       0x3d 0x1 /usr/local/popcorn/x86_64/lib/libc.a(__fdopen.o)
 .debug_pubnames
                0x0000000000001bd1       0x23 0x1 /usr/local/popcorn/x86_64/lib/libc.a(__fmodeflags.o)
 .debug_pubnames
                0x0000000000001bf4       0x75 0x1 /usr/local/popcorn/x86_64/lib/libc.a(__lockfile.o)
 .debug_pubnames
                0x0000000000001c69       0x3d 0x1 /usr/local/popcorn/x86_64/lib/libc.a(__stdio_close.o)
 .debug_pubnames
                0x0000000000001ca6       0x32 0x1 /usr/local/popcorn/x86_64/lib/libc.a(__stdio_read.o)
 .debug_pubnames
                0x0000000000001cd8       0x32 0x1 /usr/local/popcorn/x86_64/lib/libc.a(__stdio_seek.o)
 .debug_pubnames
                0x0000000000001d0a       0x33 0x1 /usr/local/popcorn/x86_64/lib/libc.a(__stdio_write.o)
 .debug_pubnames
                0x0000000000001d3d       0x34 0x1 /usr/local/popcorn/x86_64/lib/libc.a(__stdout_write.o)
 .debug_pubnames
                0x0000000000001d71       0x24 0x1 /usr/local/popcorn/x86_64/lib/libc.a(__string_read.o)
 .debug_pubnames
                0x0000000000001d95       0x3d 0x1 /usr/local/popcorn/x86_64/lib/libc.a(__toread.o)
 .debug_pubnames
                0x0000000000001dd2       0x3f 0x1 /usr/local/popcorn/x86_64/lib/libc.a(__towrite.o)
 .debug_pubnames
                0x0000000000001e11       0x1e 0x1 /usr/local/popcorn/x86_64/lib/libc.a(__uflow.o)
 .debug_pubnames
                0x0000000000001e2f       0x20 0x1 /usr/local/popcorn/x86_64/lib/libc.a(ofl_add.o)
 .debug_pubnames
                0x0000000000001e4f       0x2d 0x1 /usr/local/popcorn/x86_64/lib/libc.a(vsnprintf.o)
 .debug_pubnames
                0x0000000000001e7c       0x1d 0x1 /usr/local/popcorn/x86_64/lib/libc.a(memcmp.o)
 .debug_pubnames
                0x0000000000001e99       0x1f 0x1 /usr/local/popcorn/x86_64/lib/libc.a(stpcpy.o)
 .debug_pubnames
                0x0000000000001eb8       0x35 0x1 /usr/local/popcorn/x86_64/lib/libc.a(clock_gettime.o)
 .debug_pubnames
                0x0000000000001eed       0x1e 0x1 /usr/local/popcorn/x86_64/lib/libc.a(internal.o)
 .debug_pubnames
                0x0000000000001f0b       0x31 0x1 /usr/local/popcorn/x86_64/lib/libc.a(wcrtomb.o)
 .debug_pubnames
                0x0000000000001f3c       0x41 0x1 /usr/local/popcorn/x86_64/lib/libc.a(__stdio_exit.o)
 .debug_pubnames
                0x0000000000001f7d       0xf9 0x1 /usr/local/popcorn/x86_64/lib/libmigrate.a(migrate.o)
 .debug_pubnames
                0x0000000000002076       0xb4 0x1 /usr/local/popcorn/x86_64/lib/libmigrate.a(mapping.o)
 .debug_pubnames
                0x000000000000212a      0x179 0x1 /usr/local/popcorn/x86_64/lib/libstack-transform.a(userspace.o)
 .debug_pubnames
                0x00000000000022a3       0x49 0x1 /usr/local/popcorn/x86_64/lib/libstack-transform.a(init.o)
 .debug_pubnames
                0x00000000000022ec      0x183 0x1 /usr/local/popcorn/x86_64/lib/libstack-transform.a(rewrite.o)
 .debug_pubnames
                0x000000000000246f      0x129 0x1 /usr/local/popcorn/x86_64/lib/libstack-transform.a(unwind.o)
 .debug_pubnames
                0x0000000000002598       0xda 0x1 /usr/local/popcorn/x86_64/lib/libstack-transform.a(util.o)
 .debug_pubnames
                0x0000000000002672       0xad 0x1 /usr/local/popcorn/x86_64/lib/libstack-transform.a(properties.o)
 .debug_pubnames
                0x000000000000271f      0x189 0x1 /usr/local/popcorn/x86_64/lib/libstack-transform.a(regs.o)
 .debug_pubnames
                0x00000000000028a8       0xb9 0x1 /usr/local/popcorn/x86_64/lib/libstack-transform.a(properties.o)
 .debug_pubnames
                0x0000000000002961      0x1ad 0x1 /usr/local/popcorn/x86_64/lib/libstack-transform.a(regs.o)
 .debug_pubnames
                0x0000000000002b0e       0xa7 0x1 /usr/local/popcorn/x86_64/lib/libstack-transform.a(properties.o)
 .debug_pubnames
                0x0000000000002bb5      0x177 0x1 /usr/local/popcorn/x86_64/lib/libstack-transform.a(regs.o)
 .debug_pubnames
                0x0000000000002d2c      0x113 0x1 /usr/local/popcorn/x86_64/lib/libstack-transform.a(data.o)
 .debug_pubnames
                0x0000000000002e3f       0x5b 0x1 /usr/local/popcorn/x86_64/lib/libc.a(arch_crash.o)
 .debug_pubnames
                0x0000000000002e9a       0x1d 0x1 /usr/local/popcorn/x86_64/lib/libc.a(getenv.o)
 .debug_pubnames
                0x0000000000002eb7       0x24 0x1 /usr/local/popcorn/x86_64/lib/libc.a(assert.o)
 .debug_pubnames
                0x0000000000002edb       0x2a 0x1 /usr/local/popcorn/x86_64/lib/libc.a(open.o)
 .debug_pubnames
                0x0000000000002f05       0x3e 0x1 /usr/local/popcorn/x86_64/lib/libc.a(getrlimit.o)
 .debug_pubnames
                0x0000000000002f43       0x1b 0x1 /usr/local/popcorn/x86_64/lib/libc.a(getc.o)
 .debug_pubnames
                0x0000000000002f5e       0x1e 0x1 /usr/local/popcorn/x86_64/lib/libc.a(getline.o)
 .debug_pubnames
                0x0000000000002f7c       0x1d 0x1 /usr/local/popcorn/x86_64/lib/libc.a(perror.o)
 .debug_pubnames
                0x0000000000002f99       0x1f 0x1 /usr/local/popcorn/x86_64/lib/libc.a(snprintf.o)
 .debug_pubnames
                0x0000000000002fb8       0x1e 0x1 /usr/local/popcorn/x86_64/lib/libc.a(bsearch.o)
 .debug_pubnames
                0x0000000000002fd6       0x69 0x1 /usr/local/popcorn/x86_64/lib/libc.a(strtol.o)
 .debug_pubnames
                0x000000000000303f       0x1e 0x1 /usr/local/popcorn/x86_64/lib/libc.a(strncmp.o)
 .debug_pubnames
                0x000000000000305d       0x2c 0x1 /usr/local/popcorn/x86_64/lib/libc.a(__syscall_cp.o)
 .debug_pubnames
                0x0000000000003089      0x206 0x1 /usr/local/popcorn/x86_64/lib/libc.a(pthread_attr_get.o)
 .debug_pubnames
                0x000000000000328f       0x29 0x1 /usr/local/popcorn/x86_64/lib/libc.a(pthread_getattr_np.o)
 .debug_pubnames
                0x00000000000032b8       0x5f 0x1 /usr/local/popcorn/x86_64/lib/libc.a(pthread_migrate.o)
 .debug_pubnames
                0x0000000000003317       0x41 0x1 /usr/local/popcorn/x86_64/lib/libc.a(pthread_self.o)
 .debug_pubnames
                0x0000000000003358       0x26 0x1 /usr/local/popcorn/x86_64/lib/libc.a(close.o)
 .debug_pubnames
                0x000000000000337e       0x2c 0x1 /usr/local/popcorn/x86_64/lib/libc.a(getpid.o)
 .debug_pubnames
                0x00000000000033aa       0x2b 0x1 /usr/local/popcorn/x86_64/lib/libc.a(lseek.o)
 .debug_pubnames
                0x00000000000033d5       0x1b 0x1 /usr/local/popcorn/x86_64/lib/libc.a(read.o)
 .debug_pubnames
                0x00000000000033f0       0x28 0x1 /usr/local/popcorn/x86_64/lib/libc.a(abort.o)
 .debug_pubnames
                0x0000000000003418       0x78 0x1 /usr/local/popcorn/x86_64/lib/libc.a(block.o)
 .debug_pubnames
                0x0000000000003490       0x3a 0x1 /usr/local/popcorn/x86_64/lib/libc.a(raise.o)
 .debug_pubnames
                0x00000000000034ca       0x1c 0x1 /usr/local/popcorn/x86_64/lib/libc.a(fputc.o)
 .debug_pubnames
                0x00000000000034e6       0x1f 0x1 /usr/local/popcorn/x86_64/lib/libc.a(getdelim.o)
 .debug_pubnames
                0x0000000000003505       0x21 0x1 /usr/local/popcorn/x86_64/lib/libc.a(__overflow.o)

.debug_pubtypes
                0x0000000000000000     0x559e
 .debug_pubtypes
                0x0000000000000000      0x148 0x1 dc_x86_64.o
 .debug_pubtypes
                0x0000000000000148       0xa7 0x1 adc_x86_64.o
 .debug_pubtypes
                0x00000000000001ef      0x133 0x1 extbuild_x86_64.o
 .debug_pubtypes
                0x0000000000000322      0x153 0x1 jobcntl_x86_64.o
 .debug_pubtypes
                0x0000000000000475      0x114 0x1 rbt_x86_64.o
 .debug_pubtypes
                0x0000000000000589       0x25 0x1 c_timers_x86_64.o
 .debug_pubtypes
                0x00000000000005ae       0x3a 0x1 print_results_x86_64.o
 .debug_pubtypes
                0x00000000000005e8       0x25 0x1 randdp_x86_64.o
 .debug_pubtypes
                0x000000000000060d       0x3b 0x1 c_print_results_x86_64.o
 .debug_pubtypes
                0x0000000000000648       0x59 0x1 wtime_x86_64.o
 .debug_pubtypes
                0x00000000000006a1       0x30 0x1 /usr/local/popcorn/x86_64/lib/crt1.o
 .debug_pubtypes
                0x00000000000006d1       0x4c 0x1 /usr/local/popcorn/x86_64/lib/libc.a(isdigit.o)
 .debug_pubtypes
                0x000000000000071d       0x74 0x1 /usr/local/popcorn/x86_64/lib/libc.a(__libc_start_main.o)
 .debug_pubtypes
                0x0000000000000791       0xb5 0x1 /usr/local/popcorn/x86_64/lib/libc.a(__errno_location.o)
 .debug_pubtypes
                0x0000000000000846       0x3e 0x1 /usr/local/popcorn/x86_64/lib/libc.a(exit.o)
 .debug_pubtypes
                0x0000000000000884       0x72 0x1 /usr/local/popcorn/x86_64/lib/libc.a(libc.o)
 .debug_pubtypes
                0x00000000000008f6       0x3b 0x1 /usr/local/popcorn/x86_64/lib/libc.a(calloc.o)
 .debug_pubtypes
                0x0000000000000931       0x52 0x1 /usr/local/popcorn/x86_64/lib/libc.a(lite_malloc.o)
 .debug_pubtypes
                0x0000000000000983       0x90 0x1 /usr/local/popcorn/x86_64/lib/libc.a(malloc.o)
 .debug_pubtypes
                0x0000000000000a13       0x90 0x1 /usr/local/popcorn/x86_64/lib/libc.a(popcorn_malloc.o)
 .debug_pubtypes
                0x0000000000000aa3       0x72 0x1 /usr/local/popcorn/x86_64/lib/libc.a(pow.o)
 .debug_pubtypes
                0x0000000000000b15       0x55 0x1 /usr/local/popcorn/x86_64/lib/libc.a(scalbn.o)
 .debug_pubtypes
                0x0000000000000b6a       0x48 0x1 /usr/local/popcorn/x86_64/lib/libc.a(madvise.o)
 .debug_pubtypes
                0x0000000000000bb2       0x52 0x1 /usr/local/popcorn/x86_64/lib/libc.a(mmap.o)
 .debug_pubtypes
                0x0000000000000c04       0x8d 0x1 /usr/local/popcorn/x86_64/lib/libc.a(mremap.o)
 .debug_pubtypes
                0x0000000000000c91       0x48 0x1 /usr/local/popcorn/x86_64/lib/libc.a(munmap.o)
 .debug_pubtypes
                0x0000000000000cd9       0xc2 0x1 /usr/local/popcorn/x86_64/lib/libc.a(fclose.o)
 .debug_pubtypes
                0x0000000000000d9b       0xc2 0x1 /usr/local/popcorn/x86_64/lib/libc.a(fflush.o)
 .debug_pubtypes
                0x0000000000000e5d       0xc2 0x1 /usr/local/popcorn/x86_64/lib/libc.a(fgets.o)
 .debug_pubtypes
                0x0000000000000f1f       0xc2 0x1 /usr/local/popcorn/x86_64/lib/libc.a(fopen.o)
 .debug_pubtypes
                0x0000000000000fe1       0x71 0x1 /usr/local/popcorn/x86_64/lib/libc.a(fprintf.o)
 .debug_pubtypes
                0x0000000000001052       0xc2 0x1 /usr/local/popcorn/x86_64/lib/libc.a(fread.o)
 .debug_pubtypes
                0x0000000000001114       0x71 0x1 /usr/local/popcorn/x86_64/lib/libc.a(fscanf.o)
 .debug_pubtypes
                0x0000000000001185       0xc2 0x1 /usr/local/popcorn/x86_64/lib/libc.a(fseek.o)
 .debug_pubtypes
                0x0000000000001247       0xc2 0x1 /usr/local/popcorn/x86_64/lib/libc.a(ftell.o)
 .debug_pubtypes
                0x0000000000001309       0xc2 0x1 /usr/local/popcorn/x86_64/lib/libc.a(fwrite.o)
 .debug_pubtypes
                0x00000000000013cb       0xc2 0x1 /usr/local/popcorn/x86_64/lib/libc.a(ofl.o)
 .debug_pubtypes
                0x000000000000148d       0x68 0x1 /usr/local/popcorn/x86_64/lib/libc.a(printf.o)
 .debug_pubtypes
                0x00000000000014f5       0x68 0x1 /usr/local/popcorn/x86_64/lib/libc.a(sprintf.o)
 .debug_pubtypes
                0x000000000000155d       0x68 0x1 /usr/local/popcorn/x86_64/lib/libc.a(sscanf.o)
 .debug_pubtypes
                0x00000000000015c5       0xc2 0x1 /usr/local/popcorn/x86_64/lib/libc.a(stderr.o)
 .debug_pubtypes
                0x0000000000001687       0xc2 0x1 /usr/local/popcorn/x86_64/lib/libc.a(stdout.o)
 .debug_pubtypes
                0x0000000000001749      0x1a5 0x1 /usr/local/popcorn/x86_64/lib/libc.a(vfprintf.o)
 .debug_pubtypes
                0x00000000000018ee      0x180 0x1 /usr/local/popcorn/x86_64/lib/libc.a(vfscanf.o)
 .debug_pubtypes
                0x0000000000001a6e       0x46 0x1 /usr/local/popcorn/x86_64/lib/libc.a(vsprintf.o)
 .debug_pubtypes
                0x0000000000001ab4       0xd4 0x1 /usr/local/popcorn/x86_64/lib/libc.a(vsscanf.o)
 .debug_pubtypes
                0x0000000000001b88       0x34 0x1 /usr/local/popcorn/x86_64/lib/libc.a(atoi.o)
 .debug_pubtypes
                0x0000000000001bbc       0x6e 0x1 /usr/local/popcorn/x86_64/lib/libc.a(qsort.o)
 .debug_pubtypes
                0x0000000000001c2a       0x5b 0x1 /usr/local/popcorn/x86_64/lib/libc.a(memchr.o)
 .debug_pubtypes
                0x0000000000001c85       0x1b 0x1 /usr/local/popcorn/x86_64/lib/libc.a(strcat.o)
 .debug_pubtypes
                0x0000000000001ca0       0x35 0x1 /usr/local/popcorn/x86_64/lib/libc.a(strchr.o)
 .debug_pubtypes
                0x0000000000001cd5       0x64 0x1 /usr/local/popcorn/x86_64/lib/libc.a(strchrnul.o)
 .debug_pubtypes
                0x0000000000001d39       0x35 0x1 /usr/local/popcorn/x86_64/lib/libc.a(strcmp.o)
 .debug_pubtypes
                0x0000000000001d6e       0x1b 0x1 /usr/local/popcorn/x86_64/lib/libc.a(strcpy.o)
 .debug_pubtypes
                0x0000000000001d89       0x4a 0x1 /usr/local/popcorn/x86_64/lib/libc.a(strlen.o)
 .debug_pubtypes
                0x0000000000001dd3       0x3c 0x1 /usr/local/popcorn/x86_64/lib/libc.a(strnlen.o)
 .debug_pubtypes
                0x0000000000001e0f       0x8c 0x1 /usr/local/popcorn/x86_64/lib/libc.a(strstr.o)
 .debug_pubtypes
                0x0000000000001e9b       0x3d 0x1 /usr/local/popcorn/x86_64/lib/libc.a(__lock.o)
 .debug_pubtypes
                0x0000000000001ed8       0x3d 0x1 /usr/local/popcorn/x86_64/lib/libc.a(__wait.o)
 .debug_pubtypes
                0x0000000000001f15       0x5b 0x1 /usr/local/popcorn/x86_64/lib/libc.a(gettimeofday.o)
 .debug_pubtypes
                0x0000000000001f70       0x46 0x1 /usr/local/popcorn/x86_64/lib/libc.a(unlink.o)
 .debug_pubtypes
                0x0000000000001fb6       0x1b 0x1 /usr/local/popcorn/x86_64/lib/libc.a(__environ.o)
 .debug_pubtypes
                0x0000000000001fd1      0x161 0x1 /usr/local/popcorn/x86_64/lib/libc.a(__init_tls.o)
 .debug_pubtypes
                0x0000000000002132       0x89 0x1 /usr/local/popcorn/x86_64/lib/libc.a(platform.o)
 .debug_pubtypes
                0x00000000000021bb       0xc6 0x1 /usr/local/popcorn/x86_64/lib/libc.a(strerror.o)
 .debug_pubtypes
                0x0000000000002281       0x3d 0x1 /usr/local/popcorn/x86_64/lib/libc.a(_Exit.o)
 .debug_pubtypes
                0x00000000000022be       0xfe 0x1 /usr/local/popcorn/x86_64/lib/libc.a(floatscan.o)
 .debug_pubtypes
                0x00000000000023bc       0xdd 0x1 /usr/local/popcorn/x86_64/lib/libc.a(intscan.o)
 .debug_pubtypes
                0x0000000000002499       0xc2 0x1 /usr/local/popcorn/x86_64/lib/libc.a(shgetc.o)
 .debug_pubtypes
                0x000000000000255b       0x35 0x1 /usr/local/popcorn/x86_64/lib/libc.a(syscall_ret.o)
 .debug_pubtypes
                0x0000000000002590       0xc6 0x1 /usr/local/popcorn/x86_64/lib/libc.a(__lctrans.o)
 .debug_pubtypes
                0x0000000000002656       0x67 0x1 /usr/local/popcorn/x86_64/lib/libc.a(expand_heap.o)
 .debug_pubtypes
                0x00000000000026bd       0x79 0x1 /usr/local/popcorn/x86_64/lib/libc.a(__fpclassifyl.o)
 .debug_pubtypes
                0x0000000000002736       0x79 0x1 /usr/local/popcorn/x86_64/lib/libc.a(__signbitl.o)
 .debug_pubtypes
                0x00000000000027af       0x71 0x1 /usr/local/popcorn/x86_64/lib/libc.a(copysignl.o)
 .debug_pubtypes
                0x0000000000002820       0x79 0x1 /usr/local/popcorn/x86_64/lib/libc.a(frexpl.o)
 .debug_pubtypes
                0x0000000000002899       0x79 0x1 /usr/local/popcorn/x86_64/lib/libc.a(scalbnl.o)
 .debug_pubtypes
                0x0000000000002912      0x11d 0x1 /usr/local/popcorn/x86_64/lib/libc.a(mbrtowc.o)
 .debug_pubtypes
                0x0000000000002a2f       0x49 0x1 /usr/local/popcorn/x86_64/lib/libc.a(mbsinit.o)
 .debug_pubtypes
                0x0000000000002a78       0x2f 0x1 /usr/local/popcorn/x86_64/lib/libc.a(wctomb.o)
 .debug_pubtypes
                0x0000000000002aa7       0xe1 0x1 /usr/local/popcorn/x86_64/lib/libc.a(__fdopen.o)
 .debug_pubtypes
                0x0000000000002b88       0x23 0x1 /usr/local/popcorn/x86_64/lib/libc.a(__fmodeflags.o)
 .debug_pubtypes
                0x0000000000002bab      0x100 0x1 /usr/local/popcorn/x86_64/lib/libc.a(__lockfile.o)
 .debug_pubtypes
                0x0000000000002cab       0xc2 0x1 /usr/local/popcorn/x86_64/lib/libc.a(__stdio_close.o)
 .debug_pubtypes
                0x0000000000002d6d       0xd8 0x1 /usr/local/popcorn/x86_64/lib/libc.a(__stdio_read.o)
 .debug_pubtypes
                0x0000000000002e45       0xc2 0x1 /usr/local/popcorn/x86_64/lib/libc.a(__stdio_seek.o)
 .debug_pubtypes
                0x0000000000002f07       0xd8 0x1 /usr/local/popcorn/x86_64/lib/libc.a(__stdio_write.o)
 .debug_pubtypes
                0x0000000000002fdf       0xe1 0x1 /usr/local/popcorn/x86_64/lib/libc.a(__stdout_write.o)
 .debug_pubtypes
                0x00000000000030c0       0xc2 0x1 /usr/local/popcorn/x86_64/lib/libc.a(__string_read.o)
 .debug_pubtypes
                0x0000000000003182       0xc2 0x1 /usr/local/popcorn/x86_64/lib/libc.a(__toread.o)
 .debug_pubtypes
                0x0000000000003244       0xc2 0x1 /usr/local/popcorn/x86_64/lib/libc.a(__towrite.o)
 .debug_pubtypes
                0x0000000000003306       0xc2 0x1 /usr/local/popcorn/x86_64/lib/libc.a(__uflow.o)
 .debug_pubtypes
                0x00000000000033c8       0xc2 0x1 /usr/local/popcorn/x86_64/lib/libc.a(ofl_add.o)
 .debug_pubtypes
                0x000000000000348a       0xdf 0x1 /usr/local/popcorn/x86_64/lib/libc.a(vsnprintf.o)
 .debug_pubtypes
                0x0000000000003569       0x4d 0x1 /usr/local/popcorn/x86_64/lib/libc.a(memcmp.o)
 .debug_pubtypes
                0x00000000000035b6       0x4a 0x1 /usr/local/popcorn/x86_64/lib/libc.a(stpcpy.o)
 .debug_pubtypes
                0x0000000000003600       0x63 0x1 /usr/local/popcorn/x86_64/lib/libc.a(clock_gettime.o)
 .debug_pubtypes
                0x0000000000003663       0x30 0x1 /usr/local/popcorn/x86_64/lib/libc.a(internal.o)
 .debug_pubtypes
                0x0000000000003693      0x101 0x1 /usr/local/popcorn/x86_64/lib/libc.a(wcrtomb.o)
 .debug_pubtypes
                0x0000000000003794       0xc2 0x1 /usr/local/popcorn/x86_64/lib/libc.a(__stdio_exit.o)
 .debug_pubtypes
                0x0000000000003856       0x87 0x1 /usr/local/popcorn/x86_64/lib/libmigrate.a(migrate.o)
 .debug_pubtypes
                0x00000000000038dd       0x67 0x1 /usr/local/popcorn/x86_64/lib/libmigrate.a(mapping.o)
 .debug_pubtypes
                0x0000000000003944      0x1ec 0x1 /usr/local/popcorn/x86_64/lib/libstack-transform.a(userspace.o)
 .debug_pubtypes
                0x0000000000003b30      0x1cf 0x1 /usr/local/popcorn/x86_64/lib/libstack-transform.a(init.o)
 .debug_pubtypes
                0x0000000000003cff      0x1ec 0x1 /usr/local/popcorn/x86_64/lib/libstack-transform.a(rewrite.o)
 .debug_pubtypes
                0x0000000000003eeb      0x1ec 0x1 /usr/local/popcorn/x86_64/lib/libstack-transform.a(unwind.o)
 .debug_pubtypes
                0x00000000000040d7      0x20e 0x1 /usr/local/popcorn/x86_64/lib/libstack-transform.a(util.o)
 .debug_pubtypes
                0x00000000000042e5       0x8f 0x1 /usr/local/popcorn/x86_64/lib/libstack-transform.a(properties.o)
 .debug_pubtypes
                0x0000000000004374       0xa0 0x1 /usr/local/popcorn/x86_64/lib/libstack-transform.a(regs.o)
 .debug_pubtypes
                0x0000000000004414       0x8f 0x1 /usr/local/popcorn/x86_64/lib/libstack-transform.a(properties.o)
 .debug_pubtypes
                0x00000000000044a3       0x8c 0x1 /usr/local/popcorn/x86_64/lib/libstack-transform.a(regs.o)
 .debug_pubtypes
                0x000000000000452f       0x8f 0x1 /usr/local/popcorn/x86_64/lib/libstack-transform.a(properties.o)
 .debug_pubtypes
                0x00000000000045be       0xcd 0x1 /usr/local/popcorn/x86_64/lib/libstack-transform.a(regs.o)
 .debug_pubtypes
                0x000000000000468b      0x20c 0x1 /usr/local/popcorn/x86_64/lib/libstack-transform.a(data.o)
 .debug_pubtypes
                0x0000000000004897       0x29 0x1 /usr/local/popcorn/x86_64/lib/libc.a(arch_crash.o)
 .debug_pubtypes
                0x00000000000048c0       0x3c 0x1 /usr/local/popcorn/x86_64/lib/libc.a(getenv.o)
 .debug_pubtypes
                0x00000000000048fc       0x23 0x1 /usr/local/popcorn/x86_64/lib/libc.a(assert.o)
 .debug_pubtypes
                0x000000000000491f       0x96 0x1 /usr/local/popcorn/x86_64/lib/libc.a(open.o)
 .debug_pubtypes
                0x00000000000049b5       0x6e 0x1 /usr/local/popcorn/x86_64/lib/libc.a(getrlimit.o)
 .debug_pubtypes
                0x0000000000004a23       0xc2 0x1 /usr/local/popcorn/x86_64/lib/libc.a(getc.o)
 .debug_pubtypes
                0x0000000000004ae5       0x5e 0x1 /usr/local/popcorn/x86_64/lib/libc.a(getline.o)
 .debug_pubtypes
                0x0000000000004b43       0xc2 0x1 /usr/local/popcorn/x86_64/lib/libc.a(perror.o)
 .debug_pubtypes
                0x0000000000004c05       0x89 0x1 /usr/local/popcorn/x86_64/lib/libc.a(snprintf.o)
 .debug_pubtypes
                0x0000000000004c8e       0x44 0x1 /usr/local/popcorn/x86_64/lib/libc.a(bsearch.o)
 .debug_pubtypes
                0x0000000000004cd2      0x10a 0x1 /usr/local/popcorn/x86_64/lib/libc.a(strtol.o)
 .debug_pubtypes
                0x0000000000004ddc       0x56 0x1 /usr/local/popcorn/x86_64/lib/libc.a(strncmp.o)
 .debug_pubtypes
                0x0000000000004e32       0x31 0x1 /usr/local/popcorn/x86_64/lib/libc.a(__syscall_cp.o)
 .debug_pubtypes
                0x0000000000004e63      0x104 0x1 /usr/local/popcorn/x86_64/lib/libc.a(pthread_attr_get.o)
 .debug_pubtypes
                0x0000000000004f67       0xd6 0x1 /usr/local/popcorn/x86_64/lib/libc.a(pthread_getattr_np.o)
 .debug_pubtypes
                0x000000000000503d       0xb5 0x1 /usr/local/popcorn/x86_64/lib/libc.a(pthread_migrate.o)
 .debug_pubtypes
                0x00000000000050f2       0xc3 0x1 /usr/local/popcorn/x86_64/lib/libc.a(pthread_self.o)
 .debug_pubtypes
                0x00000000000051b5       0x27 0x1 /usr/local/popcorn/x86_64/lib/libc.a(close.o)
 .debug_pubtypes
                0x00000000000051dc       0x47 0x1 /usr/local/popcorn/x86_64/lib/libc.a(getpid.o)
 .debug_pubtypes
                0x0000000000005223       0x47 0x1 /usr/local/popcorn/x86_64/lib/libc.a(lseek.o)
 .debug_pubtypes
                0x000000000000526a       0x54 0x1 /usr/local/popcorn/x86_64/lib/libc.a(read.o)
 .debug_pubtypes
                0x00000000000052be       0x35 0x1 /usr/local/popcorn/x86_64/lib/libc.a(block.o)
 .debug_pubtypes
                0x00000000000052f3       0x59 0x1 /usr/local/popcorn/x86_64/lib/libc.a(raise.o)
 .debug_pubtypes
                0x000000000000534c       0xc2 0x1 /usr/local/popcorn/x86_64/lib/libc.a(fputc.o)
 .debug_pubtypes
                0x000000000000540e       0xce 0x1 /usr/local/popcorn/x86_64/lib/libc.a(getdelim.o)
 .debug_pubtypes
                0x00000000000054dc       0xc2 0x1 /usr/local/popcorn/x86_64/lib/libc.a(__overflow.o)

.comment        0x0000000000000000       0x35
 ** merge strings
                0x0000000000000000       0x35

.stack_transform.unwind
                0x0000000000000000      0x700
 .stack_transform.unwind
                0x0000000000000000       0x34 0x4 dc_x86_64.o
 .stack_transform.unwind
                0x0000000000000034      0x130 0x4 adc_x86_64.o
 .stack_transform.unwind
                0x0000000000000164      0x198 0x4 extbuild_x86_64.o
 .stack_transform.unwind
                0x00000000000002fc      0x1f4 0x4 jobcntl_x86_64.o
 .stack_transform.unwind
                0x00000000000004f0       0xbc 0x4 rbt_x86_64.o
 .stack_transform.unwind
                0x00000000000005ac       0x38 0x4 c_timers_x86_64.o
 .stack_transform.unwind
                0x00000000000005e4       0x1c 0x4 print_results_x86_64.o
 .stack_transform.unwind
                0x0000000000000600       0x20 0x4 randdp_x86_64.o
 .stack_transform.unwind
                0x0000000000000620       0x1c 0x4 c_print_results_x86_64.o
 .stack_transform.unwind
                0x000000000000063c        0xc 0x4 wtime_x86_64.o
 .stack_transform.unwind
                0x0000000000000648       0x18 0x4 /usr/local/popcorn/x86_64/lib/libc.a(__libc_start_main.o)
 .stack_transform.unwind
                0x0000000000000660       0x70 0x4 /usr/local/popcorn/x86_64/lib/libmigrate.a(migrate.o)
 .stack_transform.unwind
                0x00000000000006d0       0x30 0x4 /usr/local/popcorn/x86_64/lib/libmigrate.a(mapping.o)

.stack_transform.unwind_arange
                0x0000000000000000      0x5e0
 .stack_transform.unwind_arange
                0x0000000000000000       0x30 0x8 dc_x86_64.o
 .stack_transform.unwind_arange
                0x0000000000000030      0x100 0x8 adc_x86_64.o
 .stack_transform.unwind_arange
                0x0000000000000130      0x110 0x8 extbuild_x86_64.o
 .stack_transform.unwind_arange
                0x0000000000000240      0x1c0 0x8 jobcntl_x86_64.o
 .stack_transform.unwind_arange
                0x0000000000000400       0x90 0x8 rbt_x86_64.o
 .stack_transform.unwind_arange
                0x0000000000000490       0x50 0x8 c_timers_x86_64.o
 .stack_transform.unwind_arange
                0x00000000000004e0       0x10 0x8 print_results_x86_64.o
 .stack_transform.unwind_arange
                0x00000000000004f0       0x20 0x8 randdp_x86_64.o
 .stack_transform.unwind_arange
                0x0000000000000510       0x10 0x8 c_print_results_x86_64.o
 .stack_transform.unwind_arange
                0x0000000000000520       0x10 0x8 wtime_x86_64.o
 .stack_transform.unwind_arange
                0x0000000000000530       0x10 0x8 /usr/local/popcorn/x86_64/lib/libc.a(__libc_start_main.o)
 .stack_transform.unwind_arange
                0x0000000000000540       0x70 0x8 /usr/local/popcorn/x86_64/lib/libmigrate.a(migrate.o)
 .stack_transform.unwind_arange
                0x00000000000005b0       0x30 0x8 /usr/local/popcorn/x86_64/lib/libmigrate.a(mapping.o)

.debug_line     0x0000000000000000    0x15adf
 .debug_line    0x0000000000000000      0x597 0x1 dc_x86_64.o
 .debug_line    0x0000000000000597     0x1517 0x1 adc_x86_64.o
 .debug_line    0x0000000000001aae     0x1e8e 0x1 extbuild_x86_64.o
 .debug_line    0x000000000000393c     0x16e2 0x1 jobcntl_x86_64.o
 .debug_line    0x000000000000501e      0xafb 0x1 rbt_x86_64.o
 .debug_line    0x0000000000005b19       0xe0 0x1 c_timers_x86_64.o
 .debug_line    0x0000000000005bf9      0x15f 0x1 print_results_x86_64.o
 .debug_line    0x0000000000005d58      0x228 0x1 randdp_x86_64.o
 .debug_line    0x0000000000005f80      0x117 0x1 c_print_results_x86_64.o
 .debug_line    0x0000000000006097       0xab 0x1 wtime_x86_64.o
 .debug_line    0x0000000000006142       0x48 0x1 /usr/local/popcorn/x86_64/lib/crt1.o
 .debug_line    0x000000000000618a       0xa7 0x1 /usr/local/popcorn/x86_64/lib/libc.a(isdigit.o)
 .debug_line    0x0000000000006231      0x245 0x1 /usr/local/popcorn/x86_64/lib/libc.a(__libc_start_main.o)
 .debug_line    0x0000000000006476       0xde 0x1 /usr/local/popcorn/x86_64/lib/libc.a(__errno_location.o)
 .debug_line    0x0000000000006554       0xb1 0x1 /usr/local/popcorn/x86_64/lib/libc.a(exit.o)
 .debug_line    0x0000000000006605       0x6c 0x1 /usr/local/popcorn/x86_64/lib/libc.a(libc.o)
 .debug_line    0x0000000000006671      0x117 0x1 /usr/local/popcorn/x86_64/lib/libc.a(calloc.o)
 .debug_line    0x0000000000006788      0x158 0x1 /usr/local/popcorn/x86_64/lib/libc.a(lite_malloc.o)
 .debug_line    0x00000000000068e0      0xf91 0x1 /usr/local/popcorn/x86_64/lib/libc.a(malloc.o)
 .debug_line    0x0000000000007871     0x1198 0x1 /usr/local/popcorn/x86_64/lib/libc.a(popcorn_malloc.o)
 .debug_line    0x0000000000008a09      0x45c 0x1 /usr/local/popcorn/x86_64/lib/libc.a(pow.o)
 .debug_line    0x0000000000008e65       0xa4 0x1 /usr/local/popcorn/x86_64/lib/libc.a(scalbn.o)
 .debug_line    0x0000000000008f09       0x3d 0x1 /usr/local/popcorn/x86_64/lib/libc.a(fabs.o)
 .debug_line    0x0000000000008f46       0x39 0x1 /usr/local/popcorn/x86_64/lib/libc.a(sqrt.o)
 .debug_line    0x0000000000008f7f       0x95 0x1 /usr/local/popcorn/x86_64/lib/libc.a(madvise.o)
 .debug_line    0x0000000000009014       0xe7 0x1 /usr/local/popcorn/x86_64/lib/libc.a(mmap.o)
 .debug_line    0x00000000000090fb       0xe1 0x1 /usr/local/popcorn/x86_64/lib/libc.a(mremap.o)
 .debug_line    0x00000000000091dc       0xa7 0x1 /usr/local/popcorn/x86_64/lib/libc.a(munmap.o)
 .debug_line    0x0000000000009283      0x10c 0x1 /usr/local/popcorn/x86_64/lib/libc.a(fclose.o)
 .debug_line    0x000000000000938f      0x12e 0x1 /usr/local/popcorn/x86_64/lib/libc.a(fflush.o)
 .debug_line    0x00000000000094bd      0x158 0x1 /usr/local/popcorn/x86_64/lib/libc.a(fgets.o)
 .debug_line    0x0000000000009615       0xf4 0x1 /usr/local/popcorn/x86_64/lib/libc.a(fopen.o)
 .debug_line    0x0000000000009709       0x72 0x1 /usr/local/popcorn/x86_64/lib/libc.a(fprintf.o)
 .debug_line    0x000000000000977b      0x121 0x1 /usr/local/popcorn/x86_64/lib/libc.a(fread.o)
 .debug_line    0x000000000000989c       0x71 0x1 /usr/local/popcorn/x86_64/lib/libc.a(fscanf.o)
 .debug_line    0x000000000000990d      0x113 0x1 /usr/local/popcorn/x86_64/lib/libc.a(fseek.o)
 .debug_line    0x0000000000009a20       0xfc 0x1 /usr/local/popcorn/x86_64/lib/libc.a(ftell.o)
 .debug_line    0x0000000000009b1c      0x138 0x1 /usr/local/popcorn/x86_64/lib/libc.a(fwrite.o)
 .debug_line    0x0000000000009c54       0xa9 0x1 /usr/local/popcorn/x86_64/lib/libc.a(ofl.o)
 .debug_line    0x0000000000009cfd       0x76 0x1 /usr/local/popcorn/x86_64/lib/libc.a(printf.o)
 .debug_line    0x0000000000009d73       0x72 0x1 /usr/local/popcorn/x86_64/lib/libc.a(sprintf.o)
 .debug_line    0x0000000000009de5       0x71 0x1 /usr/local/popcorn/x86_64/lib/libc.a(sscanf.o)
 .debug_line    0x0000000000009e56       0x7b 0x1 /usr/local/popcorn/x86_64/lib/libc.a(stderr.o)
 .debug_line    0x0000000000009ed1       0x7b 0x1 /usr/local/popcorn/x86_64/lib/libc.a(stdout.o)
 .debug_line    0x0000000000009f4c     0x13f2 0x1 /usr/local/popcorn/x86_64/lib/libc.a(vfprintf.o)
 .debug_line    0x000000000000b33e      0x663 0x1 /usr/local/popcorn/x86_64/lib/libc.a(vfscanf.o)
 .debug_line    0x000000000000b9a1       0x4a 0x1 /usr/local/popcorn/x86_64/lib/libc.a(vsprintf.o)
 .debug_line    0x000000000000b9eb       0xb6 0x1 /usr/local/popcorn/x86_64/lib/libc.a(vsscanf.o)
 .debug_line    0x000000000000baa1       0xc7 0x1 /usr/local/popcorn/x86_64/lib/libc.a(atoi.o)
 .debug_line    0x000000000000bb68      0x40e 0x1 /usr/local/popcorn/x86_64/lib/libc.a(qsort.o)
 .debug_line    0x000000000000bf76      0x197 0x1 /usr/local/popcorn/x86_64/lib/libc.a(memchr.o)
 .debug_line    0x000000000000c10d       0x61 0x1 /usr/local/popcorn/x86_64/lib/libc.a(strcat.o)
 .debug_line    0x000000000000c16e       0x86 0x1 /usr/local/popcorn/x86_64/lib/libc.a(strchr.o)
 .debug_line    0x000000000000c1f4      0x188 0x1 /usr/local/popcorn/x86_64/lib/libc.a(strchrnul.o)
 .debug_line    0x000000000000c37c       0xa3 0x1 /usr/local/popcorn/x86_64/lib/libc.a(strcmp.o)
 .debug_line    0x000000000000c41f       0x58 0x1 /usr/local/popcorn/x86_64/lib/libc.a(strcpy.o)
 .debug_line    0x000000000000c477      0x126 0x1 /usr/local/popcorn/x86_64/lib/libc.a(strlen.o)
 .debug_line    0x000000000000c59d       0xa2 0x1 /usr/local/popcorn/x86_64/lib/libc.a(strnlen.o)
 .debug_line    0x000000000000c63f      0x7e2 0x1 /usr/local/popcorn/x86_64/lib/libc.a(strstr.o)
 .debug_line    0x000000000000ce21       0x4e 0x1 /usr/local/popcorn/x86_64/lib/libc.a(memcpy.o)
 .debug_line    0x000000000000ce6f       0x72 0x1 /usr/local/popcorn/x86_64/lib/libc.a(memset.o)
 .debug_line    0x000000000000cee1      0x114 0x1 /usr/local/popcorn/x86_64/lib/libc.a(__lock.o)
 .debug_line    0x000000000000cff5       0xfb 0x1 /usr/local/popcorn/x86_64/lib/libc.a(__wait.o)
 .debug_line    0x000000000000d0f0       0x86 0x1 /usr/local/popcorn/x86_64/lib/libc.a(gettimeofday.o)
 .debug_line    0x000000000000d176       0x72 0x1 /usr/local/popcorn/x86_64/lib/libc.a(unlink.o)
 .debug_line    0x000000000000d1e8       0x34 0x1 /usr/local/popcorn/x86_64/lib/libc.a(__environ.o)
 .debug_line    0x000000000000d21c      0x258 0x1 /usr/local/popcorn/x86_64/lib/libc.a(__init_tls.o)
 .debug_line    0x000000000000d474      0x102 0x1 /usr/local/popcorn/x86_64/lib/libc.a(platform.o)
 .debug_line    0x000000000000d576      0x136 0x1 /usr/local/popcorn/x86_64/lib/libc.a(strerror.o)
 .debug_line    0x000000000000d6ac       0x71 0x1 /usr/local/popcorn/x86_64/lib/libc.a(_Exit.o)
 .debug_line    0x000000000000d71d     0x15d3 0x1 /usr/local/popcorn/x86_64/lib/libc.a(floatscan.o)
 .debug_line    0x000000000000ecf0      0x60d 0x1 /usr/local/popcorn/x86_64/lib/libc.a(intscan.o)
 .debug_line    0x000000000000f2fd      0x203 0x1 /usr/local/popcorn/x86_64/lib/libc.a(shgetc.o)
 .debug_line    0x000000000000f500       0x6e 0x1 /usr/local/popcorn/x86_64/lib/libc.a(syscall_ret.o)
 .debug_line    0x000000000000f56e      0x11b 0x1 /usr/local/popcorn/x86_64/lib/libc.a(__lctrans.o)
 .debug_line    0x000000000000f689      0x582 0x1 /usr/local/popcorn/x86_64/lib/libc.a(expand_heap.o)
 .debug_line    0x000000000000fc0b       0xae 0x1 /usr/local/popcorn/x86_64/lib/libc.a(__fpclassifyl.o)
 .debug_line    0x000000000000fcb9       0x87 0x1 /usr/local/popcorn/x86_64/lib/libc.a(__signbitl.o)
 .debug_line    0x000000000000fd40       0x93 0x1 /usr/local/popcorn/x86_64/lib/libc.a(copysignl.o)
 .debug_line    0x000000000000fdd3       0xa5 0x1 /usr/local/popcorn/x86_64/lib/libc.a(frexpl.o)
 .debug_line    0x000000000000fe78       0xbb 0x1 /usr/local/popcorn/x86_64/lib/libc.a(scalbnl.o)
 .debug_line    0x000000000000ff33       0x40 0x1 /usr/local/popcorn/x86_64/lib/libc.a(fmodl.o)
 .debug_line    0x000000000000ff73      0x194 0x1 /usr/local/popcorn/x86_64/lib/libc.a(mbrtowc.o)
 .debug_line    0x0000000000010107       0x7e 0x1 /usr/local/popcorn/x86_64/lib/libc.a(mbsinit.o)
 .debug_line    0x0000000000010185       0x71 0x1 /usr/local/popcorn/x86_64/lib/libc.a(wctomb.o)
 .debug_line    0x00000000000101f6      0x18b 0x1 /usr/local/popcorn/x86_64/lib/libc.a(__fdopen.o)
 .debug_line    0x0000000000010381       0xb7 0x1 /usr/local/popcorn/x86_64/lib/libc.a(__fmodeflags.o)
 .debug_line    0x0000000000010438      0x175 0x1 /usr/local/popcorn/x86_64/lib/libc.a(__lockfile.o)
 .debug_line    0x00000000000105ad       0xd8 0x1 /usr/local/popcorn/x86_64/lib/libc.a(__stdio_close.o)
 .debug_line    0x0000000000010685      0x121 0x1 /usr/local/popcorn/x86_64/lib/libc.a(__stdio_read.o)
 .debug_line    0x00000000000107a6       0xc4 0x1 /usr/local/popcorn/x86_64/lib/libc.a(__stdio_seek.o)
 .debug_line    0x000000000001086a      0x142 0x1 /usr/local/popcorn/x86_64/lib/libc.a(__stdio_write.o)
 .debug_line    0x00000000000109ac      0x107 0x1 /usr/local/popcorn/x86_64/lib/libc.a(__stdout_write.o)
 .debug_line    0x0000000000010ab3       0xc8 0x1 /usr/local/popcorn/x86_64/lib/libc.a(__string_read.o)
 .debug_line    0x0000000000010b7b       0xe4 0x1 /usr/local/popcorn/x86_64/lib/libc.a(__toread.o)
 .debug_line    0x0000000000010c5f       0xdd 0x1 /usr/local/popcorn/x86_64/lib/libc.a(__towrite.o)
 .debug_line    0x0000000000010d3c       0xaa 0x1 /usr/local/popcorn/x86_64/lib/libc.a(__uflow.o)
 .debug_line    0x0000000000010de6       0xa8 0x1 /usr/local/popcorn/x86_64/lib/libc.a(ofl_add.o)
 .debug_line    0x0000000000010e8e      0x136 0x1 /usr/local/popcorn/x86_64/lib/libc.a(vsnprintf.o)
 .debug_line    0x0000000000010fc4       0xe9 0x1 /usr/local/popcorn/x86_64/lib/libc.a(memcmp.o)
 .debug_line    0x00000000000110ad      0x152 0x1 /usr/local/popcorn/x86_64/lib/libc.a(stpcpy.o)
 .debug_line    0x00000000000111ff       0x49 0x1 /usr/local/popcorn/x86_64/lib/libc.a(__set_thread_area.o)
 .debug_line    0x0000000000011248       0xc1 0x1 /usr/local/popcorn/x86_64/lib/libc.a(clock_gettime.o)
 .debug_line    0x0000000000011309       0x58 0x1 /usr/local/popcorn/x86_64/lib/libc.a(internal.o)
 .debug_line    0x0000000000011361      0x181 0x1 /usr/local/popcorn/x86_64/lib/libc.a(wcrtomb.o)
 .debug_line    0x00000000000114e2       0xf5 0x1 /usr/local/popcorn/x86_64/lib/libc.a(__stdio_exit.o)
 .debug_line    0x00000000000115d7      0x36a 0x1 /usr/local/popcorn/x86_64/lib/libmigrate.a(migrate.o)
 .debug_line    0x0000000000011941      0x34a 0x1 /usr/local/popcorn/x86_64/lib/libmigrate.a(mapping.o)
 .debug_line    0x0000000000011c8b      0x439 0x1 /usr/local/popcorn/x86_64/lib/libstack-transform.a(userspace.o)
 .debug_line    0x00000000000120c4      0x2d1 0x1 /usr/local/popcorn/x86_64/lib/libstack-transform.a(init.o)
 .debug_line    0x0000000000012395      0x6e8 0x1 /usr/local/popcorn/x86_64/lib/libstack-transform.a(rewrite.o)
 .debug_line    0x0000000000012a7d      0x44e 0x1 /usr/local/popcorn/x86_64/lib/libstack-transform.a(unwind.o)
 .debug_line    0x0000000000012ecb      0x3b7 0x1 /usr/local/popcorn/x86_64/lib/libstack-transform.a(util.o)
 .debug_line    0x0000000000013282       0xeb 0x1 /usr/local/popcorn/x86_64/lib/libstack-transform.a(properties.o)
 .debug_line    0x000000000001336d      0x2e6 0x1 /usr/local/popcorn/x86_64/lib/libstack-transform.a(regs.o)
 .debug_line    0x0000000000013653       0xf6 0x1 /usr/local/popcorn/x86_64/lib/libstack-transform.a(properties.o)
 .debug_line    0x0000000000013749      0x2f3 0x1 /usr/local/popcorn/x86_64/lib/libstack-transform.a(regs.o)
 .debug_line    0x0000000000013a3c       0xe4 0x1 /usr/local/popcorn/x86_64/lib/libstack-transform.a(properties.o)
 .debug_line    0x0000000000013b20      0x2c0 0x1 /usr/local/popcorn/x86_64/lib/libstack-transform.a(regs.o)
 .debug_line    0x0000000000013de0      0x6c6 0x1 /usr/local/popcorn/x86_64/lib/libstack-transform.a(data.o)
 .debug_line    0x00000000000144a6       0x9b 0x1 /usr/local/popcorn/x86_64/lib/libc.a(arch_crash.o)
 .debug_line    0x0000000000014541       0x9b 0x1 /usr/local/popcorn/x86_64/lib/libc.a(getenv.o)
 .debug_line    0x00000000000145dc       0x4e 0x1 /usr/local/popcorn/x86_64/lib/libc.a(assert.o)
 .debug_line    0x000000000001462a       0xc1 0x1 /usr/local/popcorn/x86_64/lib/libc.a(open.o)
 .debug_line    0x00000000000146eb       0xfe 0x1 /usr/local/popcorn/x86_64/lib/libc.a(getrlimit.o)
 .debug_line    0x00000000000147e9       0xbe 0x1 /usr/local/popcorn/x86_64/lib/libc.a(getc.o)
 .debug_line    0x00000000000148a7       0x68 0x1 /usr/local/popcorn/x86_64/lib/libc.a(getline.o)
 .debug_line    0x000000000001490f       0xd2 0x1 /usr/local/popcorn/x86_64/lib/libc.a(perror.o)
 .debug_line    0x00000000000149e1       0x73 0x1 /usr/local/popcorn/x86_64/lib/libc.a(snprintf.o)
 .debug_line    0x0000000000014a54       0x92 0x1 /usr/local/popcorn/x86_64/lib/libc.a(bsearch.o)
 .debug_line    0x0000000000014ae6      0x169 0x1 /usr/local/popcorn/x86_64/lib/libc.a(strtol.o)
 .debug_line    0x0000000000014c4f      0x10b 0x1 /usr/local/popcorn/x86_64/lib/libc.a(strncmp.o)
 .debug_line    0x0000000000014d5a       0x47 0x1 /usr/local/popcorn/x86_64/lib/libc.a(memmove.o)
 .debug_line    0x0000000000014da1       0x88 0x1 /usr/local/popcorn/x86_64/lib/libc.a(__syscall_cp.o)
 .debug_line    0x0000000000014e29      0x27d 0x1 /usr/local/popcorn/x86_64/lib/libc.a(pthread_attr_get.o)
 .debug_line    0x00000000000150a6      0x119 0x1 /usr/local/popcorn/x86_64/lib/libc.a(pthread_getattr_np.o)
 .debug_line    0x00000000000151bf      0x103 0x1 /usr/local/popcorn/x86_64/lib/libc.a(pthread_migrate.o)
 .debug_line    0x00000000000152c2       0xd5 0x1 /usr/local/popcorn/x86_64/lib/libc.a(pthread_self.o)
 .debug_line    0x0000000000015397       0x6d 0x1 /usr/local/popcorn/x86_64/lib/libc.a(close.o)
 .debug_line    0x0000000000015404       0x8d 0x1 /usr/local/popcorn/x86_64/lib/libc.a(getpid.o)
 .debug_line    0x0000000000015491       0x95 0x1 /usr/local/popcorn/x86_64/lib/libc.a(lseek.o)
 .debug_line    0x0000000000015526       0x66 0x1 /usr/local/popcorn/x86_64/lib/libc.a(read.o)
 .debug_line    0x000000000001558c       0x73 0x1 /usr/local/popcorn/x86_64/lib/libc.a(abort.o)
 .debug_line    0x00000000000155ff       0x43 0x1 /usr/local/popcorn/x86_64/lib/libc.a(syscall.o)
 .debug_line    0x0000000000015642       0xb0 0x1 /usr/local/popcorn/x86_64/lib/libc.a(block.o)
 .debug_line    0x00000000000156f2       0xa2 0x1 /usr/local/popcorn/x86_64/lib/libc.a(raise.o)
 .debug_line    0x0000000000015794       0xc9 0x1 /usr/local/popcorn/x86_64/lib/libc.a(fputc.o)
 .debug_line    0x000000000001585d      0x1ab 0x1 /usr/local/popcorn/x86_64/lib/libc.a(getdelim.o)
 .debug_line    0x0000000000015a08       0xd7 0x1 /usr/local/popcorn/x86_64/lib/libc.a(__overflow.o)

.debug_frame    0x0000000000000000     0x2c28
 .debug_frame   0x0000000000000000       0x38 0x8 /usr/local/popcorn/x86_64/lib/crt1.o
 .debug_frame   0x0000000000000038       0x48 0x8 /usr/local/popcorn/x86_64/lib/libc.a(isdigit.o)
 .debug_frame   0x0000000000000080       0xd0 0x8 /usr/local/popcorn/x86_64/lib/libc.a(__libc_start_main.o)
 .debug_frame   0x0000000000000150       0x30 0x8 /usr/local/popcorn/x86_64/lib/libc.a(__errno_location.o)
 .debug_frame   0x0000000000000180       0x78 0x8 /usr/local/popcorn/x86_64/lib/libc.a(exit.o)
 .debug_frame   0x00000000000001f8       0x78 0x8 /usr/local/popcorn/x86_64/lib/libc.a(calloc.o)
 .debug_frame   0x0000000000000270       0x38 0x8 /usr/local/popcorn/x86_64/lib/libc.a(lite_malloc.o)
 .debug_frame   0x00000000000002a8      0x378 0x8 /usr/local/popcorn/x86_64/lib/libc.a(malloc.o)
 .debug_frame   0x0000000000000620      0x3b8 0x8 /usr/local/popcorn/x86_64/lib/libc.a(popcorn_malloc.o)
 .debug_frame   0x00000000000009d8       0x58 0x8 /usr/local/popcorn/x86_64/lib/libc.a(pow.o)
 .debug_frame   0x0000000000000a30       0x30 0x8 /usr/local/popcorn/x86_64/lib/libc.a(scalbn.o)
 .debug_frame   0x0000000000000a60       0x30 0x8 /usr/local/popcorn/x86_64/lib/libc.a(madvise.o)
 .debug_frame   0x0000000000000a90       0x70 0x8 /usr/local/popcorn/x86_64/lib/libc.a(mmap.o)
 .debug_frame   0x0000000000000b00       0x68 0x8 /usr/local/popcorn/x86_64/lib/libc.a(mremap.o)
 .debug_frame   0x0000000000000b68       0x58 0x8 /usr/local/popcorn/x86_64/lib/libc.a(munmap.o)
 .debug_frame   0x0000000000000bc0       0x68 0x8 /usr/local/popcorn/x86_64/lib/libc.a(fclose.o)
 .debug_frame   0x0000000000000c28       0x48 0x8 /usr/local/popcorn/x86_64/lib/libc.a(fflush.o)
 .debug_frame   0x0000000000000c70       0x58 0x8 /usr/local/popcorn/x86_64/lib/libc.a(fgets.o)
 .debug_frame   0x0000000000000cc8       0x40 0x8 /usr/local/popcorn/x86_64/lib/libc.a(fopen.o)
 .debug_frame   0x0000000000000d08       0x38 0x8 /usr/local/popcorn/x86_64/lib/libc.a(fprintf.o)
 .debug_frame   0x0000000000000d40       0x58 0x8 /usr/local/popcorn/x86_64/lib/libc.a(fread.o)
 .debug_frame   0x0000000000000d98       0x38 0x8 /usr/local/popcorn/x86_64/lib/libc.a(fscanf.o)
 .debug_frame   0x0000000000000dd0       0x90 0x8 /usr/local/popcorn/x86_64/lib/libc.a(fseek.o)
 .debug_frame   0x0000000000000e60       0x78 0x8 /usr/local/popcorn/x86_64/lib/libc.a(ftell.o)
 .debug_frame   0x0000000000000ed8       0x90 0x8 /usr/local/popcorn/x86_64/lib/libc.a(fwrite.o)
 .debug_frame   0x0000000000000f68       0x50 0x8 /usr/local/popcorn/x86_64/lib/libc.a(ofl.o)
 .debug_frame   0x0000000000000fb8       0x38 0x8 /usr/local/popcorn/x86_64/lib/libc.a(printf.o)
 .debug_frame   0x0000000000000ff0       0x38 0x8 /usr/local/popcorn/x86_64/lib/libc.a(sprintf.o)
 .debug_frame   0x0000000000001028       0x38 0x8 /usr/local/popcorn/x86_64/lib/libc.a(sscanf.o)
 .debug_frame   0x0000000000001060      0x108 0x8 /usr/local/popcorn/x86_64/lib/libc.a(vfprintf.o)
 .debug_frame   0x0000000000001168       0x58 0x8 /usr/local/popcorn/x86_64/lib/libc.a(vfscanf.o)
 .debug_frame   0x00000000000011c0       0x30 0x8 /usr/local/popcorn/x86_64/lib/libc.a(vsprintf.o)
 .debug_frame   0x00000000000011f0       0x60 0x8 /usr/local/popcorn/x86_64/lib/libc.a(vsscanf.o)
 .debug_frame   0x0000000000001250       0x30 0x8 /usr/local/popcorn/x86_64/lib/libc.a(atoi.o)
 .debug_frame   0x0000000000001280      0x118 0x8 /usr/local/popcorn/x86_64/lib/libc.a(qsort.o)
 .debug_frame   0x0000000000001398       0x38 0x8 /usr/local/popcorn/x86_64/lib/libc.a(memchr.o)
 .debug_frame   0x00000000000013d0       0x38 0x8 /usr/local/popcorn/x86_64/lib/libc.a(strcat.o)
 .debug_frame   0x0000000000001408       0x38 0x8 /usr/local/popcorn/x86_64/lib/libc.a(strchr.o)
 .debug_frame   0x0000000000001440       0x38 0x8 /usr/local/popcorn/x86_64/lib/libc.a(strchrnul.o)
 .debug_frame   0x0000000000001478       0x38 0x8 /usr/local/popcorn/x86_64/lib/libc.a(strcmp.o)
 .debug_frame   0x00000000000014b0       0x38 0x8 /usr/local/popcorn/x86_64/lib/libc.a(strcpy.o)
 .debug_frame   0x00000000000014e8       0x38 0x8 /usr/local/popcorn/x86_64/lib/libc.a(strlen.o)
 .debug_frame   0x0000000000001520       0x38 0x8 /usr/local/popcorn/x86_64/lib/libc.a(strnlen.o)
 .debug_frame   0x0000000000001558       0xb8 0x8 /usr/local/popcorn/x86_64/lib/libc.a(strstr.o)
 .debug_frame   0x0000000000001610       0x58 0x8 /usr/local/popcorn/x86_64/lib/libc.a(__lock.o)
 .debug_frame   0x0000000000001668       0x38 0x8 /usr/local/popcorn/x86_64/lib/libc.a(__wait.o)
 .debug_frame   0x00000000000016a0       0x38 0x8 /usr/local/popcorn/x86_64/lib/libc.a(gettimeofday.o)
 .debug_frame   0x00000000000016d8       0x30 0x8 /usr/local/popcorn/x86_64/lib/libc.a(unlink.o)
 .debug_frame   0x0000000000001708       0x90 0x8 /usr/local/popcorn/x86_64/lib/libc.a(__init_tls.o)
 .debug_frame   0x0000000000001798       0x78 0x8 /usr/local/popcorn/x86_64/lib/libc.a(platform.o)
 .debug_frame   0x0000000000001810       0x48 0x8 /usr/local/popcorn/x86_64/lib/libc.a(strerror.o)
 .debug_frame   0x0000000000001858       0x30 0x8 /usr/local/popcorn/x86_64/lib/libc.a(_Exit.o)
 .debug_frame   0x0000000000001888       0xb8 0x8 /usr/local/popcorn/x86_64/lib/libc.a(floatscan.o)
 .debug_frame   0x0000000000001940       0x58 0x8 /usr/local/popcorn/x86_64/lib/libc.a(intscan.o)
 .debug_frame   0x0000000000001998       0x58 0x8 /usr/local/popcorn/x86_64/lib/libc.a(shgetc.o)
 .debug_frame   0x00000000000019f0       0x38 0x8 /usr/local/popcorn/x86_64/lib/libc.a(syscall_ret.o)
 .debug_frame   0x0000000000001a28       0x60 0x8 /usr/local/popcorn/x86_64/lib/libc.a(__lctrans.o)
 .debug_frame   0x0000000000001a88      0x158 0x8 /usr/local/popcorn/x86_64/lib/libc.a(expand_heap.o)
 .debug_frame   0x0000000000001be0       0x30 0x8 /usr/local/popcorn/x86_64/lib/libc.a(__fpclassifyl.o)
 .debug_frame   0x0000000000001c10       0x30 0x8 /usr/local/popcorn/x86_64/lib/libc.a(__signbitl.o)
 .debug_frame   0x0000000000001c40       0x30 0x8 /usr/local/popcorn/x86_64/lib/libc.a(copysignl.o)
 .debug_frame   0x0000000000001c70       0x38 0x8 /usr/local/popcorn/x86_64/lib/libc.a(frexpl.o)
 .debug_frame   0x0000000000001ca8       0x30 0x8 /usr/local/popcorn/x86_64/lib/libc.a(scalbnl.o)
 .debug_frame   0x0000000000001cd8       0x40 0x8 /usr/local/popcorn/x86_64/lib/libc.a(mbrtowc.o)
 .debug_frame   0x0000000000001d18       0x30 0x8 /usr/local/popcorn/x86_64/lib/libc.a(mbsinit.o)
 .debug_frame   0x0000000000001d48       0x38 0x8 /usr/local/popcorn/x86_64/lib/libc.a(wctomb.o)
 .debug_frame   0x0000000000001d80       0x48 0x8 /usr/local/popcorn/x86_64/lib/libc.a(__fdopen.o)
 .debug_frame   0x0000000000001dc8       0x40 0x8 /usr/local/popcorn/x86_64/lib/libc.a(__fmodeflags.o)
 .debug_frame   0x0000000000001e08       0x60 0x8 /usr/local/popcorn/x86_64/lib/libc.a(__lockfile.o)
 .debug_frame   0x0000000000001e68       0x50 0x8 /usr/local/popcorn/x86_64/lib/libc.a(__stdio_close.o)
 .debug_frame   0x0000000000001eb8       0x48 0x8 /usr/local/popcorn/x86_64/lib/libc.a(__stdio_read.o)
 .debug_frame   0x0000000000001f00       0x30 0x8 /usr/local/popcorn/x86_64/lib/libc.a(__stdio_seek.o)
 .debug_frame   0x0000000000001f30       0x58 0x8 /usr/local/popcorn/x86_64/lib/libc.a(__stdio_write.o)
 .debug_frame   0x0000000000001f88       0x38 0x8 /usr/local/popcorn/x86_64/lib/libc.a(__stdout_write.o)
 .debug_frame   0x0000000000001fc0       0x58 0x8 /usr/local/popcorn/x86_64/lib/libc.a(__string_read.o)
 .debug_frame   0x0000000000002018       0x58 0x8 /usr/local/popcorn/x86_64/lib/libc.a(__toread.o)
 .debug_frame   0x0000000000002070       0x48 0x8 /usr/local/popcorn/x86_64/lib/libc.a(__towrite.o)
 .debug_frame   0x00000000000020b8       0x40 0x8 /usr/local/popcorn/x86_64/lib/libc.a(__uflow.o)
 .debug_frame   0x00000000000020f8       0x38 0x8 /usr/local/popcorn/x86_64/lib/libc.a(ofl_add.o)
 .debug_frame   0x0000000000002130       0x90 0x8 /usr/local/popcorn/x86_64/lib/libc.a(vsnprintf.o)
 .debug_frame   0x00000000000021c0       0x38 0x8 /usr/local/popcorn/x86_64/lib/libc.a(memcmp.o)
 .debug_frame   0x00000000000021f8       0x38 0x8 /usr/local/popcorn/x86_64/lib/libc.a(stpcpy.o)
 .debug_frame   0x0000000000002230       0x38 0x8 /usr/local/popcorn/x86_64/lib/libc.a(clock_gettime.o)
 .debug_frame   0x0000000000002268       0x38 0x8 /usr/local/popcorn/x86_64/lib/libc.a(wcrtomb.o)
 .debug_frame   0x00000000000022a0       0x58 0x8 /usr/local/popcorn/x86_64/lib/libc.a(__stdio_exit.o)
 .debug_frame   0x00000000000022f8       0x88 0x8 /usr/local/popcorn/x86_64/lib/libc.a(arch_crash.o)
 .debug_frame   0x0000000000002380       0x48 0x8 /usr/local/popcorn/x86_64/lib/libc.a(getenv.o)
 .debug_frame   0x00000000000023c8       0x38 0x8 /usr/local/popcorn/x86_64/lib/libc.a(assert.o)
 .debug_frame   0x0000000000002400       0x40 0x8 /usr/local/popcorn/x86_64/lib/libc.a(open.o)
 .debug_frame   0x0000000000002440       0x48 0x8 /usr/local/popcorn/x86_64/lib/libc.a(getrlimit.o)
 .debug_frame   0x0000000000002488       0x40 0x8 /usr/local/popcorn/x86_64/lib/libc.a(getc.o)
 .debug_frame   0x00000000000024c8       0x30 0x8 /usr/local/popcorn/x86_64/lib/libc.a(getline.o)
 .debug_frame   0x00000000000024f8       0x48 0x8 /usr/local/popcorn/x86_64/lib/libc.a(perror.o)
 .debug_frame   0x0000000000002540       0x38 0x8 /usr/local/popcorn/x86_64/lib/libc.a(snprintf.o)
 .debug_frame   0x0000000000002578       0x58 0x8 /usr/local/popcorn/x86_64/lib/libc.a(bsearch.o)
 .debug_frame   0x00000000000025d0       0xe0 0x8 /usr/local/popcorn/x86_64/lib/libc.a(strtol.o)
 .debug_frame   0x00000000000026b0       0x38 0x8 /usr/local/popcorn/x86_64/lib/libc.a(strncmp.o)
 .debug_frame   0x00000000000026e8       0x50 0x8 /usr/local/popcorn/x86_64/lib/libc.a(__syscall_cp.o)
 .debug_frame   0x0000000000002738      0x198 0x8 /usr/local/popcorn/x86_64/lib/libc.a(pthread_attr_get.o)
 .debug_frame   0x00000000000028d0       0x48 0x8 /usr/local/popcorn/x86_64/lib/libc.a(pthread_getattr_np.o)
 .debug_frame   0x0000000000002918       0x48 0x8 /usr/local/popcorn/x86_64/lib/libc.a(pthread_migrate.o)
 .debug_frame   0x0000000000002960       0x30 0x8 /usr/local/popcorn/x86_64/lib/libc.a(pthread_self.o)
 .debug_frame   0x0000000000002990       0x50 0x8 /usr/local/popcorn/x86_64/lib/libc.a(close.o)
 .debug_frame   0x00000000000029e0       0x30 0x8 /usr/local/popcorn/x86_64/lib/libc.a(getpid.o)
 .debug_frame   0x0000000000002a10       0x30 0x8 /usr/local/popcorn/x86_64/lib/libc.a(lseek.o)
 .debug_frame   0x0000000000002a40       0x38 0x8 /usr/local/popcorn/x86_64/lib/libc.a(read.o)
 .debug_frame   0x0000000000002a78       0x38 0x8 /usr/local/popcorn/x86_64/lib/libc.a(abort.o)
 .debug_frame   0x0000000000002ab0       0x60 0x8 /usr/local/popcorn/x86_64/lib/libc.a(block.o)
 .debug_frame   0x0000000000002b10       0x40 0x8 /usr/local/popcorn/x86_64/lib/libc.a(raise.o)
 .debug_frame   0x0000000000002b50       0x40 0x8 /usr/local/popcorn/x86_64/lib/libc.a(fputc.o)
 .debug_frame   0x0000000000002b90       0x58 0x8 /usr/local/popcorn/x86_64/lib/libc.a(getdelim.o)
 .debug_frame   0x0000000000002be8       0x40 0x8 /usr/local/popcorn/x86_64/lib/libc.a(__overflow.o)

.debug_aranges  0x0000000000000000      0x180
 .debug_aranges
                0x0000000000000000       0x30 0x1 /usr/local/popcorn/x86_64/lib/libc.a(fabs.o)
 .debug_aranges
                0x0000000000000030       0x30 0x1 /usr/local/popcorn/x86_64/lib/libc.a(sqrt.o)
 .debug_aranges
                0x0000000000000060       0x30 0x1 /usr/local/popcorn/x86_64/lib/libc.a(memcpy.o)
 .debug_aranges
                0x0000000000000090       0x30 0x1 /usr/local/popcorn/x86_64/lib/libc.a(memset.o)
 .debug_aranges
                0x00000000000000c0       0x30 0x1 /usr/local/popcorn/x86_64/lib/libc.a(fmodl.o)
 .debug_aranges
                0x00000000000000f0       0x30 0x1 /usr/local/popcorn/x86_64/lib/libc.a(__set_thread_area.o)
 .debug_aranges
                0x0000000000000120       0x30 0x1 /usr/local/popcorn/x86_64/lib/libc.a(memmove.o)
 .debug_aranges
                0x0000000000000150       0x30 0x1 /usr/local/popcorn/x86_64/lib/libc.a(syscall.o)

.note.gnu.gold-version
                0x0000000000000000       0x1c
 ** note header
                0x0000000000000000       0x10
 ** fill        0x0000000000000010        0x9
 ** zero fill   0x0000000000000019        0x3

.symtab         0x0000000000000000     0x7e18
 ** symtab      0x0000000000000000     0x7e18

.strtab         0x0000000000000000     0x562c
 ** string table
                0x0000000000000000     0x562c

.shstrtab       0x0000000000000000      0x15c
 ** string table
                0x0000000000000000      0x15c
