Archive member included to satisfy reference by file (symbol)

/usr/local/popcorn/aarch64/lib/libc.a(__libc_start_main.o)
                              /usr/local/popcorn/aarch64/lib/crt1.o (__libc_start_main)
/usr/local/popcorn/aarch64/lib/libc.a(exit.o)
                              /usr/local/popcorn/aarch64/lib/libc.a(__libc_start_main.o) (exit)
/usr/local/popcorn/aarch64/lib/libc.a(libc.o)
                              /usr/local/popcorn/aarch64/lib/libc.a(__libc_start_main.o) (__hwcap)
/usr/local/popcorn/aarch64/lib/libc.a(sqrt.o)
                              error_aarch64.o (sqrt)
/usr/local/popcorn/aarch64/lib/libc.a(pow.o)
                              print_results_aarch64.o (pow)
/usr/local/popcorn/aarch64/lib/libc.a(scalbn.o)
                              /usr/local/popcorn/aarch64/lib/libc.a(pow.o) (scalbn)
/usr/local/popcorn/aarch64/lib/libc.a(fclose.o)
                              sp_aarch64.o (fclose)
/usr/local/popcorn/aarch64/lib/libc.a(fflush.o)
                              /usr/local/popcorn/aarch64/lib/libc.a(fclose.o) (fflush)
/usr/local/popcorn/aarch64/lib/libc.a(fgetc.o)
                              sp_aarch64.o (fgetc)
/usr/local/popcorn/aarch64/lib/libc.a(fopen.o)
                              sp_aarch64.o (fopen)
/usr/local/popcorn/aarch64/lib/libc.a(fscanf.o)
                              sp_aarch64.o (fscanf)
/usr/local/popcorn/aarch64/lib/libc.a(ofl.o)
                              /usr/local/popcorn/aarch64/lib/libc.a(fclose.o) (__ofl_lock)
/usr/local/popcorn/aarch64/lib/libc.a(printf.o)
                              c_print_results_aarch64.o (printf)
/usr/local/popcorn/aarch64/lib/libc.a(sprintf.o)
                              print_results_aarch64.o (sprintf)
/usr/local/popcorn/aarch64/lib/libc.a(stdout.o)
                              /usr/local/popcorn/aarch64/lib/libc.a(printf.o) (stdout)
/usr/local/popcorn/aarch64/lib/libc.a(vfprintf.o)
                              /usr/local/popcorn/aarch64/lib/libc.a(printf.o) (vfprintf)
/usr/local/popcorn/aarch64/lib/libc.a(vfscanf.o)
                              /usr/local/popcorn/aarch64/lib/libc.a(fscanf.o) (vfscanf)
/usr/local/popcorn/aarch64/lib/libc.a(vsprintf.o)
                              /usr/local/popcorn/aarch64/lib/libc.a(sprintf.o) (vsprintf)
/usr/local/popcorn/aarch64/lib/libc.a(memset.o)
                              /usr/local/popcorn/aarch64/lib/libc.a(__libc_start_main.o) (memset)
/usr/local/popcorn/aarch64/lib/libc.a(strchr.o)
                              /usr/local/popcorn/aarch64/lib/libc.a(fopen.o) (strchr)
/usr/local/popcorn/aarch64/lib/libc.a(strchrnul.o)
                              /usr/local/popcorn/aarch64/lib/libc.a(strchr.o) (__strchrnul)
/usr/local/popcorn/aarch64/lib/libc.a(strlen.o)
                              /usr/local/popcorn/aarch64/lib/libc.a(strchrnul.o) (strlen)
/usr/local/popcorn/aarch64/lib/libc.a(strnlen.o)
                              /usr/local/popcorn/aarch64/lib/libc.a(vfprintf.o) (strnlen)
/usr/local/popcorn/aarch64/lib/libc.a(__lock.o)
                              /usr/local/popcorn/aarch64/lib/libc.a(ofl.o) (__lock)
/usr/local/popcorn/aarch64/lib/libc.a(__wait.o)
                              /usr/local/popcorn/aarch64/lib/libc.a(__lock.o) (__wait)
/usr/local/popcorn/aarch64/lib/libc.a(gettimeofday.o)
                              wtime_aarch64.o (gettimeofday)
/usr/local/popcorn/aarch64/lib/libc.a(__environ.o)
                              /usr/local/popcorn/aarch64/lib/libc.a(__libc_start_main.o) (__environ)
/usr/local/popcorn/aarch64/lib/libc.a(__init_tls.o)
                              /usr/local/popcorn/aarch64/lib/libc.a(__libc_start_main.o) (__init_tls)
/usr/local/popcorn/aarch64/lib/libc.a(__errno_location.o)
                              /usr/local/popcorn/aarch64/lib/libc.a(fopen.o) (__errno_location)
/usr/local/popcorn/aarch64/lib/libc.a(strerror.o)
                              /usr/local/popcorn/aarch64/lib/libc.a(vfprintf.o) (strerror)
/usr/local/popcorn/aarch64/lib/libc.a(_Exit.o)
                              /usr/local/popcorn/aarch64/lib/libc.a(exit.o) (_Exit)
/usr/local/popcorn/aarch64/lib/libc.a(floatscan.o)
                              /usr/local/popcorn/aarch64/lib/libc.a(vfscanf.o) (__floatscan)
/usr/local/popcorn/aarch64/lib/libc.a(intscan.o)
                              /usr/local/popcorn/aarch64/lib/libc.a(vfscanf.o) (__intscan)
/usr/local/popcorn/aarch64/lib/libc.a(shgetc.o)
                              /usr/local/popcorn/aarch64/lib/libc.a(vfscanf.o) (__shgetc)
/usr/local/popcorn/aarch64/lib/libc.a(syscall_ret.o)
                              /usr/local/popcorn/aarch64/lib/libc.a(fopen.o) (__syscall_ret)
/usr/local/popcorn/aarch64/lib/libc.a(__lctrans.o)
                              /usr/local/popcorn/aarch64/lib/libc.a(strerror.o) (__lctrans)
/usr/local/popcorn/aarch64/lib/libc.a(lite_malloc.o)
                              /usr/local/popcorn/aarch64/lib/libc.a(vfscanf.o) (malloc)
/usr/local/popcorn/aarch64/lib/libc.a(malloc.o)
                              /usr/local/popcorn/aarch64/lib/libc.a(fclose.o) (free)
/usr/local/popcorn/aarch64/lib/libc.a(popcorn_malloc.o)
                              /usr/local/popcorn/aarch64/lib/libc.a(malloc.o) (popcorn_free)
/usr/local/popcorn/aarch64/lib/libc.a(__fpclassifyl.o)
                              /usr/local/popcorn/aarch64/lib/libc.a(vfprintf.o) (__fpclassifyl)
/usr/local/popcorn/aarch64/lib/libc.a(__signbitl.o)
                              /usr/local/popcorn/aarch64/lib/libc.a(vfprintf.o) (__signbitl)
/usr/local/popcorn/aarch64/lib/libc.a(fabs.o)
                              /usr/local/popcorn/aarch64/lib/libc.a(pow.o) (fabs)
/usr/local/popcorn/aarch64/lib/libc.a(copysignl.o)
                              /usr/local/popcorn/aarch64/lib/libc.a(floatscan.o) (copysignl)
/usr/local/popcorn/aarch64/lib/libc.a(fmodl.o)
                              /usr/local/popcorn/aarch64/lib/libc.a(floatscan.o) (fmodl)
/usr/local/popcorn/aarch64/lib/libc.a(frexpl.o)
                              /usr/local/popcorn/aarch64/lib/libc.a(vfprintf.o) (frexpl)
/usr/local/popcorn/aarch64/lib/libc.a(scalbnl.o)
                              /usr/local/popcorn/aarch64/lib/libc.a(floatscan.o) (scalbnl)
/usr/local/popcorn/aarch64/lib/libc.a(madvise.o)
                              /usr/local/popcorn/aarch64/lib/libc.a(malloc.o) (__madvise)
/usr/local/popcorn/aarch64/lib/libc.a(mmap.o)
                              /usr/local/popcorn/aarch64/lib/libc.a(malloc.o) (__mmap)
/usr/local/popcorn/aarch64/lib/libc.a(mremap.o)
                              /usr/local/popcorn/aarch64/lib/libc.a(malloc.o) (__mremap)
/usr/local/popcorn/aarch64/lib/libc.a(munmap.o)
                              /usr/local/popcorn/aarch64/lib/libc.a(malloc.o) (__munmap)
/usr/local/popcorn/aarch64/lib/libc.a(mbrtowc.o)
                              /usr/local/popcorn/aarch64/lib/libc.a(vfscanf.o) (mbrtowc)
/usr/local/popcorn/aarch64/lib/libc.a(mbsinit.o)
                              /usr/local/popcorn/aarch64/lib/libc.a(vfscanf.o) (mbsinit)
/usr/local/popcorn/aarch64/lib/libc.a(wctomb.o)
                              /usr/local/popcorn/aarch64/lib/libc.a(vfprintf.o) (wctomb)
/usr/local/popcorn/aarch64/lib/libc.a(__fdopen.o)
                              /usr/local/popcorn/aarch64/lib/libc.a(fopen.o) (__fdopen)
/usr/local/popcorn/aarch64/lib/libc.a(__fmodeflags.o)
                              /usr/local/popcorn/aarch64/lib/libc.a(fopen.o) (__fmodeflags)
/usr/local/popcorn/aarch64/lib/libc.a(__lockfile.o)
                              /usr/local/popcorn/aarch64/lib/libc.a(fclose.o) (__lockfile)
/usr/local/popcorn/aarch64/lib/libc.a(__stdio_close.o)
                              /usr/local/popcorn/aarch64/lib/libc.a(stdout.o) (__stdio_close)
/usr/local/popcorn/aarch64/lib/libc.a(__stdio_read.o)
                              /usr/local/popcorn/aarch64/lib/libc.a(__fdopen.o) (__stdio_read)
/usr/local/popcorn/aarch64/lib/libc.a(__stdio_seek.o)
                              /usr/local/popcorn/aarch64/lib/libc.a(stdout.o) (__stdio_seek)
/usr/local/popcorn/aarch64/lib/libc.a(__stdio_write.o)
                              /usr/local/popcorn/aarch64/lib/libc.a(__fdopen.o) (__stdio_write)
/usr/local/popcorn/aarch64/lib/libc.a(__stdout_write.o)
                              /usr/local/popcorn/aarch64/lib/libc.a(stdout.o) (__stdout_write)
/usr/local/popcorn/aarch64/lib/libc.a(__uflow.o)
                              /usr/local/popcorn/aarch64/lib/libc.a(fgetc.o) (__uflow)
/usr/local/popcorn/aarch64/lib/libc.a(fwrite.o)
                              /usr/local/popcorn/aarch64/lib/libc.a(vfprintf.o) (__fwritex)
/usr/local/popcorn/aarch64/lib/libc.a(ofl_add.o)
                              /usr/local/popcorn/aarch64/lib/libc.a(__fdopen.o) (__ofl_add)
/usr/local/popcorn/aarch64/lib/libc.a(vsnprintf.o)
                              /usr/local/popcorn/aarch64/lib/libc.a(vsprintf.o) (vsnprintf)
/usr/local/popcorn/aarch64/lib/libc.a(memchr.o)
                              /usr/local/popcorn/aarch64/lib/libc.a(strnlen.o) (memchr)
/usr/local/popcorn/aarch64/lib/libc.a(memcpy.o)
                              /usr/local/popcorn/aarch64/lib/libc.a(__init_tls.o) (memcpy)
/usr/local/popcorn/aarch64/lib/libc.a(__set_thread_area.o)
                              /usr/local/popcorn/aarch64/lib/libc.a(__init_tls.o) (__set_thread_area)
/usr/local/popcorn/aarch64/lib/libc.a(clock_gettime.o)
                              /usr/local/popcorn/aarch64/lib/libc.a(gettimeofday.o) (clock_gettime)
/usr/local/popcorn/aarch64/lib/libc.a(platform.o)
                              /usr/local/popcorn/aarch64/lib/libc.a(popcorn_malloc.o) (popcorn_getnid)
/usr/local/popcorn/aarch64/lib/libc.a(expand_heap.o)
                              /usr/local/popcorn/aarch64/lib/libc.a(lite_malloc.o) (__expand_heap)
/usr/local/popcorn/aarch64/lib/libc.a(internal.o)
                              /usr/local/popcorn/aarch64/lib/libc.a(mbrtowc.o) (__fsmu8)
/usr/local/popcorn/aarch64/lib/libc.a(wcrtomb.o)
                              /usr/local/popcorn/aarch64/lib/libc.a(wctomb.o) (wcrtomb)
/usr/local/popcorn/aarch64/lib/libc.a(__toread.o)
                              /usr/local/popcorn/aarch64/lib/libc.a(__uflow.o) (__toread)
/usr/local/popcorn/aarch64/lib/libc.a(__towrite.o)
                              /usr/local/popcorn/aarch64/lib/libc.a(fwrite.o) (__towrite)
/usr/local/popcorn/aarch64/lib/libc.a(__stdio_exit.o)
                              /usr/local/popcorn/aarch64/lib/libc.a(__toread.o) (__stdio_exit_needed)
/usr/local/popcorn/aarch64/lib/libmigrate.a(migrate.o)
                              add_aarch64.o (check_migrate)
/usr/local/popcorn/aarch64/lib/libmigrate.a(migrate_powerpc64.o)
                              /usr/local/popcorn/aarch64/lib/libmigrate.a(migrate.o) (__migrate_fixup_powerpc64)
/usr/local/popcorn/aarch64/lib/libmigrate.a(migrate_aarch64.o)
                              /usr/local/popcorn/aarch64/lib/libmigrate.a(migrate.o) (__migrate_fixup_aarch64)
/usr/local/popcorn/aarch64/lib/libmigrate.a(migrate_x86_64.o)
                              /usr/local/popcorn/aarch64/lib/libmigrate.a(migrate.o) (__migrate_fixup_x86_64)
/usr/local/popcorn/aarch64/lib/libmigrate.a(migrate_riscv64.o)
                              /usr/local/popcorn/aarch64/lib/libmigrate.a(migrate.o) (__migrate_fixup_riscv64)
/usr/local/popcorn/aarch64/lib/libmigrate.a(mapping.o)
                              /usr/local/popcorn/aarch64/lib/libmigrate.a(migrate.o) (get_node_mapping)
/usr/local/popcorn/aarch64/lib/libstack-transform.a(userspace.o)
                              /usr/local/popcorn/aarch64/lib/libmigrate.a(migrate.o) (st_userspace_rewrite)
/usr/local/popcorn/aarch64/lib/libstack-transform.a(init.o)
                              /usr/local/popcorn/aarch64/lib/libstack-transform.a(userspace.o) (st_destroy)
/usr/local/popcorn/aarch64/lib/libstack-transform.a(rewrite.o)
                              /usr/local/popcorn/aarch64/lib/libstack-transform.a(userspace.o) (st_rewrite_stack)
/usr/local/popcorn/aarch64/lib/libstack-transform.a(unwind.o)
                              /usr/local/popcorn/aarch64/lib/libstack-transform.a(rewrite.o) (bootstrap_first_frame)
/usr/local/popcorn/aarch64/lib/libstack-transform.a(util.o)
                              /usr/local/popcorn/aarch64/lib/libstack-transform.a(rewrite.o) (get_function_address)
/usr/local/popcorn/aarch64/lib/libstack-transform.a(properties.o)
                              /usr/local/popcorn/aarch64/lib/libstack-transform.a(util.o) (properties_aarch64)
/usr/local/popcorn/aarch64/lib/libstack-transform.a(regs.o)
                              /usr/local/popcorn/aarch64/lib/libstack-transform.a(util.o) (regs_aarch64)
/usr/local/popcorn/aarch64/lib/libstack-transform.a(properties.o)
                              /usr/local/popcorn/aarch64/lib/libstack-transform.a(util.o) (properties_powerpc64)
/usr/local/popcorn/aarch64/lib/libstack-transform.a(regs.o)
                              /usr/local/popcorn/aarch64/lib/libstack-transform.a(util.o) (regs_powerpc64)
/usr/local/popcorn/aarch64/lib/libstack-transform.a(properties.o)
                              /usr/local/popcorn/aarch64/lib/libstack-transform.a(util.o) (properties_riscv64)
/usr/local/popcorn/aarch64/lib/libstack-transform.a(regs.o)
                              /usr/local/popcorn/aarch64/lib/libstack-transform.a(util.o) (regs_riscv64)
/usr/local/popcorn/aarch64/lib/libstack-transform.a(properties.o)
                              /usr/local/popcorn/aarch64/lib/libstack-transform.a(util.o) (properties_x86_64)
/usr/local/popcorn/aarch64/lib/libstack-transform.a(regs.o)
                              /usr/local/popcorn/aarch64/lib/libstack-transform.a(util.o) (regs_x86_64)
/usr/local/popcorn/aarch64/lib/libstack-transform.a(data.o)
                              /usr/local/popcorn/aarch64/lib/libstack-transform.a(rewrite.o) (get_savedfbp_loc)
/usr/local/popcorn/aarch64/lib/libelf.a(begin.o)
                              /usr/local/popcorn/aarch64/lib/libstack-transform.a(init.o) (elf_begin)
/usr/local/popcorn/aarch64/lib/libelf.a(end.o)
                              /usr/local/popcorn/aarch64/lib/libstack-transform.a(init.o) (elf_end)
/usr/local/popcorn/aarch64/lib/libelf.a(getdata.o)
                              /usr/local/popcorn/aarch64/lib/libstack-transform.a(util.o) (elf_getdata)
/usr/local/popcorn/aarch64/lib/libelf.a(getident.o)
                              /usr/local/popcorn/aarch64/lib/libstack-transform.a(init.o) (elf_getident)
/usr/local/popcorn/aarch64/lib/libelf.a(nextscn.o)
                              /usr/local/popcorn/aarch64/lib/libstack-transform.a(util.o) (elf_nextscn)
/usr/local/popcorn/aarch64/lib/libelf.a(strptr.o)
                              /usr/local/popcorn/aarch64/lib/libstack-transform.a(util.o) (elf_strptr)
/usr/local/popcorn/aarch64/lib/libelf.a(version.o)
                              /usr/local/popcorn/aarch64/lib/libstack-transform.a(userspace.o) (elf_version)
/usr/local/popcorn/aarch64/lib/libelf.a(32.getehdr.o)
                              /usr/local/popcorn/aarch64/lib/libstack-transform.a(init.o) (elf64_getehdr)
/usr/local/popcorn/aarch64/lib/libelf.a(32.xlatetof.o)
                              /usr/local/popcorn/aarch64/lib/libelf.a(getdata.o) (_elf32_xltsize)
/usr/local/popcorn/aarch64/lib/libelf.a(cook.o)
                              /usr/local/popcorn/aarch64/lib/libelf.a(getident.o) (_elf_cook)
/usr/local/popcorn/aarch64/lib/libelf.a(data.o)
                              /usr/local/popcorn/aarch64/lib/libelf.a(begin.o) (_elf_errno)
/usr/local/popcorn/aarch64/lib/libelf.a(input.o)
                              /usr/local/popcorn/aarch64/lib/libelf.a(begin.o) (_elf_mmap)
/usr/local/popcorn/aarch64/lib/libelf.a(x.elfext.o)
                              /usr/local/popcorn/aarch64/lib/libstack-transform.a(util.o) (elf_getshdrstrndx)
/usr/local/popcorn/aarch64/lib/libelf.a(64.xlatetof.o)
                              /usr/local/popcorn/aarch64/lib/libelf.a(getdata.o) (_elf64_xltsize)
/usr/local/popcorn/aarch64/lib/libelf.a(gelfshdr.o)
                              /usr/local/popcorn/aarch64/lib/libstack-transform.a(util.o) (gelf_getshdr)
/usr/local/popcorn/aarch64/lib/libelf.a(swap64.o)
                              /usr/local/popcorn/aarch64/lib/libelf.a(64.xlatetof.o) (_elf_load_i64L)
/usr/local/popcorn/aarch64/lib/libelf.a(verdef_32_tof.o)
                              /usr/local/popcorn/aarch64/lib/libelf.a(32.xlatetof.o) (_elf_verdef_32L11_tof)
/usr/local/popcorn/aarch64/lib/libelf.a(verdef_32_tom.o)
                              /usr/local/popcorn/aarch64/lib/libelf.a(32.xlatetof.o) (_elf_verdef_32L11_tom)
/usr/local/popcorn/aarch64/lib/libelf.a(verdef_64_tof.o)
                              /usr/local/popcorn/aarch64/lib/libelf.a(64.xlatetof.o) (_elf_verdef_64L11_tof)
/usr/local/popcorn/aarch64/lib/libelf.a(verdef_64_tom.o)
                              /usr/local/popcorn/aarch64/lib/libelf.a(64.xlatetof.o) (_elf_verdef_64L11_tom)
/usr/local/popcorn/aarch64/lib/libelf.a(getscn.o)
                              /usr/local/popcorn/aarch64/lib/libelf.a(strptr.o) (elf_getscn)
/usr/local/popcorn/aarch64/lib/libelf.a(newscn.o)
                              /usr/local/popcorn/aarch64/lib/libelf.a(x.elfext.o) (_elf_first_scn)
/usr/local/popcorn/aarch64/lib/libelf.a(32.fsize.o)
                              /usr/local/popcorn/aarch64/lib/libelf.a(cook.o) (_elf_fmsize)
/usr/local/popcorn/aarch64/lib/libc.a(arch_crash.o)
                              /usr/local/popcorn/aarch64/lib/libmigrate.a(migrate_aarch64.o) (crash_aarch64)
/usr/local/popcorn/aarch64/lib/libc.a(getenv.o)
                              /usr/local/popcorn/aarch64/lib/libmigrate.a(mapping.o) (getenv)
/usr/local/popcorn/aarch64/lib/libc.a(assert.o)
                              /usr/local/popcorn/aarch64/lib/libmigrate.a(migrate.o) (__assert_fail)
/usr/local/popcorn/aarch64/lib/libc.a(open.o)
                              /usr/local/popcorn/aarch64/lib/libstack-transform.a(init.o) (open)
/usr/local/popcorn/aarch64/lib/libc.a(calloc.o)
                              /usr/local/popcorn/aarch64/lib/libmigrate.a(mapping.o) (calloc)
/usr/local/popcorn/aarch64/lib/libc.a(getrlimit.o)
                              /usr/local/popcorn/aarch64/lib/libstack-transform.a(userspace.o) (getrlimit)
/usr/local/popcorn/aarch64/lib/libc.a(fprintf.o)
                              /usr/local/popcorn/aarch64/lib/libmigrate.a(migrate.o) (fprintf)
/usr/local/popcorn/aarch64/lib/libc.a(fseek.o)
                              /usr/local/popcorn/aarch64/lib/libmigrate.a(mapping.o) (fseek)
/usr/local/popcorn/aarch64/lib/libc.a(getc.o)
                              /usr/local/popcorn/aarch64/lib/libmigrate.a(mapping.o) (getc)
/usr/local/popcorn/aarch64/lib/libc.a(getline.o)
                              /usr/local/popcorn/aarch64/lib/libstack-transform.a(userspace.o) (getline)
/usr/local/popcorn/aarch64/lib/libc.a(perror.o)
                              /usr/local/popcorn/aarch64/lib/libmigrate.a(migrate.o) (perror)
/usr/local/popcorn/aarch64/lib/libc.a(snprintf.o)
                              /usr/local/popcorn/aarch64/lib/libstack-transform.a(userspace.o) (snprintf)
/usr/local/popcorn/aarch64/lib/libc.a(sscanf.o)
                              /usr/local/popcorn/aarch64/lib/libstack-transform.a(userspace.o) (sscanf)
/usr/local/popcorn/aarch64/lib/libc.a(stderr.o)
                              /usr/local/popcorn/aarch64/lib/libmigrate.a(migrate.o) (stderr)
/usr/local/popcorn/aarch64/lib/libc.a(vsscanf.o)
                              /usr/local/popcorn/aarch64/lib/libc.a(sscanf.o) (vsscanf)
/usr/local/popcorn/aarch64/lib/libc.a(bsearch.o)
                              /usr/local/popcorn/aarch64/lib/libmigrate.a(mapping.o) (bsearch)
/usr/local/popcorn/aarch64/lib/libc.a(qsort.o)
                              /usr/local/popcorn/aarch64/lib/libmigrate.a(mapping.o) (qsort)
/usr/local/popcorn/aarch64/lib/libc.a(strtol.o)
                              /usr/local/popcorn/aarch64/lib/libelf.a(version.o) (strtol)
/usr/local/popcorn/aarch64/lib/libc.a(strcmp.o)
                              /usr/local/popcorn/aarch64/lib/libstack-transform.a(util.o) (strcmp)
/usr/local/popcorn/aarch64/lib/libc.a(strncmp.o)
                              /usr/local/popcorn/aarch64/lib/libc.a(getenv.o) (strncmp)
/usr/local/popcorn/aarch64/lib/libc.a(__syscall_cp.o)
                              /usr/local/popcorn/aarch64/lib/libc.a(open.o) (__syscall_cp)
/usr/local/popcorn/aarch64/lib/libc.a(pthread_attr_get.o)
                              /usr/local/popcorn/aarch64/lib/libstack-transform.a(userspace.o) (pthread_attr_getstack)
/usr/local/popcorn/aarch64/lib/libc.a(pthread_getattr_np.o)
                              /usr/local/popcorn/aarch64/lib/libstack-transform.a(userspace.o) (pthread_getattr_np)
/usr/local/popcorn/aarch64/lib/libc.a(pthread_migrate.o)
                              /usr/local/popcorn/aarch64/lib/libmigrate.a(migrate.o) (pthread_get_migrate_args)
/usr/local/popcorn/aarch64/lib/libc.a(pthread_self.o)
                              /usr/local/popcorn/aarch64/lib/libstack-transform.a(userspace.o) (pthread_self)
/usr/local/popcorn/aarch64/lib/libc.a(close.o)
                              /usr/local/popcorn/aarch64/lib/libstack-transform.a(init.o) (close)
/usr/local/popcorn/aarch64/lib/libc.a(getpid.o)
                              /usr/local/popcorn/aarch64/lib/libstack-transform.a(userspace.o) (getpid)
/usr/local/popcorn/aarch64/lib/libc.a(lseek.o)
                              /usr/local/popcorn/aarch64/lib/libelf.a(begin.o) (lseek)
/usr/local/popcorn/aarch64/lib/libc.a(read.o)
                              /usr/local/popcorn/aarch64/lib/libelf.a(input.o) (read)
/usr/local/popcorn/aarch64/lib/libc.a(abort.o)
                              /usr/local/popcorn/aarch64/lib/libc.a(assert.o) (abort)
/usr/local/popcorn/aarch64/lib/libc.a(syscall.o)
                              /usr/local/popcorn/aarch64/lib/libc.a(__syscall_cp.o) (__syscall)
/usr/local/popcorn/aarch64/lib/libc.a(block.o)
                              /usr/local/popcorn/aarch64/lib/libc.a(abort.o) (__block_all_sigs)
/usr/local/popcorn/aarch64/lib/libc.a(raise.o)
                              /usr/local/popcorn/aarch64/lib/libc.a(abort.o) (raise)
/usr/local/popcorn/aarch64/lib/libc.a(__string_read.o)
                              /usr/local/popcorn/aarch64/lib/libc.a(vsscanf.o) (__string_read)
/usr/local/popcorn/aarch64/lib/libc.a(fputc.o)
                              /usr/local/popcorn/aarch64/lib/libc.a(perror.o) (fputc)
/usr/local/popcorn/aarch64/lib/libc.a(getdelim.o)
                              /usr/local/popcorn/aarch64/lib/libc.a(getline.o) (getdelim)
/usr/local/popcorn/aarch64/lib/libc.a(__overflow.o)
                              /usr/local/popcorn/aarch64/lib/libc.a(fputc.o) (__overflow)
/usr/lib/gcc-cross/aarch64-linux-gnu/6/libgcc.a(addtf3.o)
                              /usr/local/popcorn/aarch64/lib/libc.a(vfprintf.o) (__addtf3)
/usr/lib/gcc-cross/aarch64-linux-gnu/6/libgcc.a(divtf3.o)
                              /usr/local/popcorn/aarch64/lib/libc.a(floatscan.o) (__divtf3)
/usr/lib/gcc-cross/aarch64-linux-gnu/6/libgcc.a(eqtf2.o)
                              /usr/local/popcorn/aarch64/lib/libc.a(vfprintf.o) (__eqtf2)
/usr/lib/gcc-cross/aarch64-linux-gnu/6/libgcc.a(getf2.o)
                              /usr/local/popcorn/aarch64/lib/libc.a(floatscan.o) (__getf2)
/usr/lib/gcc-cross/aarch64-linux-gnu/6/libgcc.a(letf2.o)
                              /usr/local/popcorn/aarch64/lib/libc.a(fmodl.o) (__letf2)
/usr/lib/gcc-cross/aarch64-linux-gnu/6/libgcc.a(multf3.o)
                              /usr/local/popcorn/aarch64/lib/libc.a(vfprintf.o) (__multf3)
/usr/lib/gcc-cross/aarch64-linux-gnu/6/libgcc.a(subtf3.o)
                              /usr/local/popcorn/aarch64/lib/libc.a(vfprintf.o) (__subtf3)
/usr/lib/gcc-cross/aarch64-linux-gnu/6/libgcc.a(unordtf2.o)
                              /usr/local/popcorn/aarch64/lib/libc.a(vfprintf.o) (__unordtf2)
/usr/lib/gcc-cross/aarch64-linux-gnu/6/libgcc.a(fixtfsi.o)
                              /usr/local/popcorn/aarch64/lib/libc.a(vfprintf.o) (__fixtfsi)
/usr/lib/gcc-cross/aarch64-linux-gnu/6/libgcc.a(fixunstfsi.o)
                              /usr/local/popcorn/aarch64/lib/libc.a(vfprintf.o) (__fixunstfsi)
/usr/lib/gcc-cross/aarch64-linux-gnu/6/libgcc.a(floatsitf.o)
                              /usr/local/popcorn/aarch64/lib/libc.a(vfprintf.o) (__floatsitf)
/usr/lib/gcc-cross/aarch64-linux-gnu/6/libgcc.a(floatunsitf.o)
                              /usr/local/popcorn/aarch64/lib/libc.a(vfprintf.o) (__floatunsitf)
/usr/lib/gcc-cross/aarch64-linux-gnu/6/libgcc.a(extendsftf2.o)
                              /usr/local/popcorn/aarch64/lib/libc.a(floatscan.o) (__extendsftf2)
/usr/lib/gcc-cross/aarch64-linux-gnu/6/libgcc.a(extenddftf2.o)
                              /usr/local/popcorn/aarch64/lib/libc.a(vfprintf.o) (__extenddftf2)
/usr/lib/gcc-cross/aarch64-linux-gnu/6/libgcc.a(trunctfsf2.o)
                              /usr/local/popcorn/aarch64/lib/libc.a(vfscanf.o) (__trunctfsf2)
/usr/lib/gcc-cross/aarch64-linux-gnu/6/libgcc.a(trunctfdf2.o)
                              /usr/local/popcorn/aarch64/lib/libc.a(vfscanf.o) (__trunctfdf2)
/usr/lib/gcc-cross/aarch64-linux-gnu/6/libgcc.a(sfp-exceptions.o)
                              /usr/lib/gcc-cross/aarch64-linux-gnu/6/libgcc.a(addtf3.o) (__sfp_handle_exceptions)

Allocating common symbols
Common symbol       size              file

__hwcap             0x8               /usr/local/popcorn/aarch64/lib/libc.a(libc.o)
__libc              0x70              /usr/local/popcorn/aarch64/lib/libc.a(libc.o)
mal                 0x20000           /usr/local/popcorn/aarch64/lib/libc.a(popcorn_malloc.o)
__sysinfo           0x8               /usr/local/popcorn/aarch64/lib/libc.a(libc.o)

Discarded input sections

 .note.GNU-stack
                0x0000000000000000        0x0 0x1 add_aarch64.o
 .llvm_addrsig  0x0000000000000000        0x9 0x1 add_aarch64.o
 .note.GNU-stack
                0x0000000000000000        0x0 0x1 adi_aarch64.o
 .llvm_addrsig  0x0000000000000000        0x7 0x1 adi_aarch64.o
 .note.GNU-stack
                0x0000000000000000        0x0 0x1 c_print_results_aarch64.o
 .llvm_addrsig  0x0000000000000000       0x1c 0x1 c_print_results_aarch64.o
 .note.GNU-stack
                0x0000000000000000        0x0 0x1 c_timers_aarch64.o
 .llvm_addrsig  0x0000000000000000        0x5 0x1 c_timers_aarch64.o
 .note.GNU-stack
                0x0000000000000000        0x0 0x1 error_aarch64.o
 .llvm_addrsig  0x0000000000000000        0xc 0x1 error_aarch64.o
 .note.GNU-stack
                0x0000000000000000        0x0 0x1 exact_rhs_aarch64.o
 .llvm_addrsig  0x0000000000000000       0x2f 0x1 exact_rhs_aarch64.o
 .note.GNU-stack
                0x0000000000000000        0x0 0x1 exact_solution_aarch64.o
 .llvm_addrsig  0x0000000000000000        0x2 0x1 exact_solution_aarch64.o
 .note.GNU-stack
                0x0000000000000000        0x0 0x1 initialize_aarch64.o
 .llvm_addrsig  0x0000000000000000        0xa 0x1 initialize_aarch64.o
 .note.GNU-stack
                0x0000000000000000        0x0 0x1 ninvr_aarch64.o
 .llvm_addrsig  0x0000000000000000        0x9 0x1 ninvr_aarch64.o
 .note.GNU-stack
                0x0000000000000000        0x0 0x1 pinvr_aarch64.o
 .llvm_addrsig  0x0000000000000000        0x9 0x1 pinvr_aarch64.o
 .note.GNU-stack
                0x0000000000000000        0x0 0x1 print_results_aarch64.o
 .llvm_addrsig  0x0000000000000000       0x1b 0x1 print_results_aarch64.o
 .note.GNU-stack
                0x0000000000000000        0x0 0x1 randdp_aarch64.o
 .llvm_addrsig  0x0000000000000000        0x1 0x1 randdp_aarch64.o
 .note.GNU-stack
                0x0000000000000000        0x0 0x1 rhs_aarch64.o
 .llvm_addrsig  0x0000000000000000       0x37 0x1 rhs_aarch64.o
 .note.GNU-stack
                0x0000000000000000        0x0 0x1 set_constants_aarch64.o
 .llvm_addrsig  0x0000000000000000       0x63 0x1 set_constants_aarch64.o
 .note.GNU-stack
                0x0000000000000000        0x0 0x1 sp_aarch64.o
 .llvm_addrsig  0x0000000000000000       0x92 0x1 sp_aarch64.o
 .note.GNU-stack
                0x0000000000000000        0x0 0x1 txinvr_aarch64.o
 .llvm_addrsig  0x0000000000000000       0x10 0x1 txinvr_aarch64.o
 .note.GNU-stack
                0x0000000000000000        0x0 0x1 tzetar_aarch64.o
 .llvm_addrsig  0x0000000000000000       0x10 0x1 tzetar_aarch64.o
 .note.GNU-stack
                0x0000000000000000        0x0 0x1 verify_aarch64.o
 .llvm_addrsig  0x0000000000000000       0x16 0x1 verify_aarch64.o
 .note.GNU-stack
                0x0000000000000000        0x0 0x1 wtime_aarch64.o
 .llvm_addrsig  0x0000000000000000        0x3 0x1 wtime_aarch64.o
 .note.GNU-stack
                0x0000000000000000        0x0 0x1 x_solve_aarch64.o
 .llvm_addrsig  0x0000000000000000       0x21 0x1 x_solve_aarch64.o
 .note.GNU-stack
                0x0000000000000000        0x0 0x1 y_solve_aarch64.o
 .llvm_addrsig  0x0000000000000000       0x20 0x1 y_solve_aarch64.o
 .note.GNU-stack
                0x0000000000000000        0x0 0x1 z_solve_aarch64.o
 .llvm_addrsig  0x0000000000000000       0x21 0x1 z_solve_aarch64.o
 .note.GNU-stack
                0x0000000000000000        0x0 0x1 /usr/local/popcorn/aarch64/lib/crt1.o
 .llvm_addrsig  0x0000000000000000        0x3 0x1 /usr/local/popcorn/aarch64/lib/crt1.o
 .note.GNU-stack
                0x0000000000000000        0x0 0x1 /usr/local/popcorn/aarch64/lib/libc.a(__libc_start_main.o)
 .llvm_addrsig  0x0000000000000000        0xb 0x1 /usr/local/popcorn/aarch64/lib/libc.a(__libc_start_main.o)
 .note.GNU-stack
                0x0000000000000000        0x0 0x1 /usr/local/popcorn/aarch64/lib/libc.a(exit.o)
 .llvm_addrsig  0x0000000000000000        0x8 0x1 /usr/local/popcorn/aarch64/lib/libc.a(exit.o)
 .note.GNU-stack
                0x0000000000000000        0x0 0x1 /usr/local/popcorn/aarch64/lib/libc.a(libc.o)
 .llvm_addrsig  0x0000000000000000        0x2 0x1 /usr/local/popcorn/aarch64/lib/libc.a(libc.o)
 .note.GNU-stack
                0x0000000000000000        0x0 0x1 /usr/local/popcorn/aarch64/lib/libc.a(sqrt.o)
 .llvm_addrsig  0x0000000000000000        0x0 0x1 /usr/local/popcorn/aarch64/lib/libc.a(sqrt.o)
 .note.GNU-stack
                0x0000000000000000        0x0 0x1 /usr/local/popcorn/aarch64/lib/libc.a(pow.o)
 .llvm_addrsig  0x0000000000000000        0x0 0x1 /usr/local/popcorn/aarch64/lib/libc.a(pow.o)
 .note.GNU-stack
                0x0000000000000000        0x0 0x1 /usr/local/popcorn/aarch64/lib/libc.a(scalbn.o)
 .llvm_addrsig  0x0000000000000000        0x0 0x1 /usr/local/popcorn/aarch64/lib/libc.a(scalbn.o)
 .note.GNU-stack
                0x0000000000000000        0x0 0x1 /usr/local/popcorn/aarch64/lib/libc.a(fclose.o)
 .llvm_addrsig  0x0000000000000000        0x2 0x1 /usr/local/popcorn/aarch64/lib/libc.a(fclose.o)
 .note.GNU-stack
                0x0000000000000000        0x0 0x1 /usr/local/popcorn/aarch64/lib/libc.a(fflush.o)
 .llvm_addrsig  0x0000000000000000        0x3 0x1 /usr/local/popcorn/aarch64/lib/libc.a(fflush.o)
 .note.GNU-stack
                0x0000000000000000        0x0 0x1 /usr/local/popcorn/aarch64/lib/libc.a(fgetc.o)
 .llvm_addrsig  0x0000000000000000        0x0 0x1 /usr/local/popcorn/aarch64/lib/libc.a(fgetc.o)
 .note.GNU-stack
                0x0000000000000000        0x0 0x1 /usr/local/popcorn/aarch64/lib/libc.a(fopen.o)
 .llvm_addrsig  0x0000000000000000        0x2 0x1 /usr/local/popcorn/aarch64/lib/libc.a(fopen.o)
 .note.GNU-stack
                0x0000000000000000        0x0 0x1 /usr/local/popcorn/aarch64/lib/libc.a(fscanf.o)
 .llvm_addrsig  0x0000000000000000        0x1 0x1 /usr/local/popcorn/aarch64/lib/libc.a(fscanf.o)
 .note.GNU-stack
                0x0000000000000000        0x0 0x1 /usr/local/popcorn/aarch64/lib/libc.a(ofl.o)
 .llvm_addrsig  0x0000000000000000        0x2 0x1 /usr/local/popcorn/aarch64/lib/libc.a(ofl.o)
 .note.GNU-stack
                0x0000000000000000        0x0 0x1 /usr/local/popcorn/aarch64/lib/libc.a(printf.o)
 .llvm_addrsig  0x0000000000000000        0x0 0x1 /usr/local/popcorn/aarch64/lib/libc.a(printf.o)
 .note.GNU-stack
                0x0000000000000000        0x0 0x1 /usr/local/popcorn/aarch64/lib/libc.a(sprintf.o)
 .llvm_addrsig  0x0000000000000000        0x0 0x1 /usr/local/popcorn/aarch64/lib/libc.a(sprintf.o)
 .note.GNU-stack
                0x0000000000000000        0x0 0x1 /usr/local/popcorn/aarch64/lib/libc.a(stdout.o)
 .llvm_addrsig  0x0000000000000000        0x5 0x1 /usr/local/popcorn/aarch64/lib/libc.a(stdout.o)
 .note.GNU-stack
                0x0000000000000000        0x0 0x1 /usr/local/popcorn/aarch64/lib/libc.a(vfprintf.o)
 .llvm_addrsig  0x0000000000000000        0x8 0x1 /usr/local/popcorn/aarch64/lib/libc.a(vfprintf.o)
 .note.GNU-stack
                0x0000000000000000        0x0 0x1 /usr/local/popcorn/aarch64/lib/libc.a(vfscanf.o)
 .llvm_addrsig  0x0000000000000000        0x1 0x1 /usr/local/popcorn/aarch64/lib/libc.a(vfscanf.o)
 .note.GNU-stack
                0x0000000000000000        0x0 0x1 /usr/local/popcorn/aarch64/lib/libc.a(vsprintf.o)
 .llvm_addrsig  0x0000000000000000        0x0 0x1 /usr/local/popcorn/aarch64/lib/libc.a(vsprintf.o)
 .note.GNU-stack
                0x0000000000000000        0x0 0x1 /usr/local/popcorn/aarch64/lib/libc.a(memset.o)
 .llvm_addrsig  0x0000000000000000        0x0 0x1 /usr/local/popcorn/aarch64/lib/libc.a(memset.o)
 .note.GNU-stack
                0x0000000000000000        0x0 0x1 /usr/local/popcorn/aarch64/lib/libc.a(strchr.o)
 .llvm_addrsig  0x0000000000000000        0x0 0x1 /usr/local/popcorn/aarch64/lib/libc.a(strchr.o)
 .note.GNU-stack
                0x0000000000000000        0x0 0x1 /usr/local/popcorn/aarch64/lib/libc.a(strchrnul.o)
 .llvm_addrsig  0x0000000000000000        0x1 0x1 /usr/local/popcorn/aarch64/lib/libc.a(strchrnul.o)
 .note.GNU-stack
                0x0000000000000000        0x0 0x1 /usr/local/popcorn/aarch64/lib/libc.a(strlen.o)
 .llvm_addrsig  0x0000000000000000        0x0 0x1 /usr/local/popcorn/aarch64/lib/libc.a(strlen.o)
 .note.GNU-stack
                0x0000000000000000        0x0 0x1 /usr/local/popcorn/aarch64/lib/libc.a(strnlen.o)
 .llvm_addrsig  0x0000000000000000        0x0 0x1 /usr/local/popcorn/aarch64/lib/libc.a(strnlen.o)
 .note.GNU-stack
                0x0000000000000000        0x0 0x1 /usr/local/popcorn/aarch64/lib/libc.a(__lock.o)
 .llvm_addrsig  0x0000000000000000        0x1 0x1 /usr/local/popcorn/aarch64/lib/libc.a(__lock.o)
 .note.GNU-stack
                0x0000000000000000        0x0 0x1 /usr/local/popcorn/aarch64/lib/libc.a(__wait.o)
 .llvm_addrsig  0x0000000000000000        0x0 0x1 /usr/local/popcorn/aarch64/lib/libc.a(__wait.o)
 .note.GNU-stack
                0x0000000000000000        0x0 0x1 /usr/local/popcorn/aarch64/lib/libc.a(gettimeofday.o)
 .llvm_addrsig  0x0000000000000000        0x0 0x1 /usr/local/popcorn/aarch64/lib/libc.a(gettimeofday.o)
 .note.GNU-stack
                0x0000000000000000        0x0 0x1 /usr/local/popcorn/aarch64/lib/libc.a(__environ.o)
 .llvm_addrsig  0x0000000000000000        0x1 0x1 /usr/local/popcorn/aarch64/lib/libc.a(__environ.o)
 .note.GNU-stack
                0x0000000000000000        0x0 0x1 /usr/local/popcorn/aarch64/lib/libc.a(__init_tls.o)
 .llvm_addrsig  0x0000000000000000        0x5 0x1 /usr/local/popcorn/aarch64/lib/libc.a(__init_tls.o)
 .note.GNU-stack
                0x0000000000000000        0x0 0x1 /usr/local/popcorn/aarch64/lib/libc.a(__errno_location.o)
 .llvm_addrsig  0x0000000000000000        0x0 0x1 /usr/local/popcorn/aarch64/lib/libc.a(__errno_location.o)
 .note.GNU-stack
                0x0000000000000000        0x0 0x1 /usr/local/popcorn/aarch64/lib/libc.a(strerror.o)
 .llvm_addrsig  0x0000000000000000        0x2 0x1 /usr/local/popcorn/aarch64/lib/libc.a(strerror.o)
 .note.GNU-stack
                0x0000000000000000        0x0 0x1 /usr/local/popcorn/aarch64/lib/libc.a(_Exit.o)
 .llvm_addrsig  0x0000000000000000        0x0 0x1 /usr/local/popcorn/aarch64/lib/libc.a(_Exit.o)
 .note.GNU-stack
                0x0000000000000000        0x0 0x1 /usr/local/popcorn/aarch64/lib/libc.a(floatscan.o)
 .llvm_addrsig  0x0000000000000000        0x2 0x1 /usr/local/popcorn/aarch64/lib/libc.a(floatscan.o)
 .note.GNU-stack
                0x0000000000000000        0x0 0x1 /usr/local/popcorn/aarch64/lib/libc.a(intscan.o)
 .llvm_addrsig  0x0000000000000000        0x1 0x1 /usr/local/popcorn/aarch64/lib/libc.a(intscan.o)
 .note.GNU-stack
                0x0000000000000000        0x0 0x1 /usr/local/popcorn/aarch64/lib/libc.a(shgetc.o)
 .llvm_addrsig  0x0000000000000000        0x0 0x1 /usr/local/popcorn/aarch64/lib/libc.a(shgetc.o)
 .note.GNU-stack
                0x0000000000000000        0x0 0x1 /usr/local/popcorn/aarch64/lib/libc.a(syscall_ret.o)
 .llvm_addrsig  0x0000000000000000        0x0 0x1 /usr/local/popcorn/aarch64/lib/libc.a(syscall_ret.o)
 .note.GNU-stack
                0x0000000000000000        0x0 0x1 /usr/local/popcorn/aarch64/lib/libc.a(__lctrans.o)
 .llvm_addrsig  0x0000000000000000        0x2 0x1 /usr/local/popcorn/aarch64/lib/libc.a(__lctrans.o)
 .note.GNU-stack
                0x0000000000000000        0x0 0x1 /usr/local/popcorn/aarch64/lib/libc.a(lite_malloc.o)
 .llvm_addrsig  0x0000000000000000        0x2 0x1 /usr/local/popcorn/aarch64/lib/libc.a(lite_malloc.o)
 .note.GNU-stack
                0x0000000000000000        0x0 0x1 /usr/local/popcorn/aarch64/lib/libc.a(malloc.o)
 .llvm_addrsig  0x0000000000000000        0x4 0x1 /usr/local/popcorn/aarch64/lib/libc.a(malloc.o)
 .note.GNU-stack
                0x0000000000000000        0x0 0x1 /usr/local/popcorn/aarch64/lib/libc.a(popcorn_malloc.o)
 .llvm_addrsig  0x0000000000000000        0x4 0x1 /usr/local/popcorn/aarch64/lib/libc.a(popcorn_malloc.o)
 .note.GNU-stack
                0x0000000000000000        0x0 0x1 /usr/local/popcorn/aarch64/lib/libc.a(__fpclassifyl.o)
 .llvm_addrsig  0x0000000000000000        0x0 0x1 /usr/local/popcorn/aarch64/lib/libc.a(__fpclassifyl.o)
 .note.GNU-stack
                0x0000000000000000        0x0 0x1 /usr/local/popcorn/aarch64/lib/libc.a(__signbitl.o)
 .llvm_addrsig  0x0000000000000000        0x0 0x1 /usr/local/popcorn/aarch64/lib/libc.a(__signbitl.o)
 .note.GNU-stack
                0x0000000000000000        0x0 0x1 /usr/local/popcorn/aarch64/lib/libc.a(fabs.o)
 .llvm_addrsig  0x0000000000000000        0x0 0x1 /usr/local/popcorn/aarch64/lib/libc.a(fabs.o)
 .note.GNU-stack
                0x0000000000000000        0x0 0x1 /usr/local/popcorn/aarch64/lib/libc.a(copysignl.o)
 .llvm_addrsig  0x0000000000000000        0x0 0x1 /usr/local/popcorn/aarch64/lib/libc.a(copysignl.o)
 .note.GNU-stack
                0x0000000000000000        0x0 0x1 /usr/local/popcorn/aarch64/lib/libc.a(fmodl.o)
 .llvm_addrsig  0x0000000000000000        0x0 0x1 /usr/local/popcorn/aarch64/lib/libc.a(fmodl.o)
 .note.GNU-stack
                0x0000000000000000        0x0 0x1 /usr/local/popcorn/aarch64/lib/libc.a(frexpl.o)
 .llvm_addrsig  0x0000000000000000        0x0 0x1 /usr/local/popcorn/aarch64/lib/libc.a(frexpl.o)
 .note.GNU-stack
                0x0000000000000000        0x0 0x1 /usr/local/popcorn/aarch64/lib/libc.a(scalbnl.o)
 .llvm_addrsig  0x0000000000000000        0x0 0x1 /usr/local/popcorn/aarch64/lib/libc.a(scalbnl.o)
 .note.GNU-stack
                0x0000000000000000        0x0 0x1 /usr/local/popcorn/aarch64/lib/libc.a(madvise.o)
 .llvm_addrsig  0x0000000000000000        0x1 0x1 /usr/local/popcorn/aarch64/lib/libc.a(madvise.o)
 .note.GNU-stack
                0x0000000000000000        0x0 0x1 /usr/local/popcorn/aarch64/lib/libc.a(mmap.o)
 .llvm_addrsig  0x0000000000000000        0x3 0x1 /usr/local/popcorn/aarch64/lib/libc.a(mmap.o)
 .note.GNU-stack
                0x0000000000000000        0x0 0x1 /usr/local/popcorn/aarch64/lib/libc.a(mremap.o)
 .llvm_addrsig  0x0000000000000000        0x3 0x1 /usr/local/popcorn/aarch64/lib/libc.a(mremap.o)
 .note.GNU-stack
                0x0000000000000000        0x0 0x1 /usr/local/popcorn/aarch64/lib/libc.a(munmap.o)
 .llvm_addrsig  0x0000000000000000        0x3 0x1 /usr/local/popcorn/aarch64/lib/libc.a(munmap.o)
 .note.GNU-stack
                0x0000000000000000        0x0 0x1 /usr/local/popcorn/aarch64/lib/libc.a(mbrtowc.o)
 .llvm_addrsig  0x0000000000000000        0x0 0x1 /usr/local/popcorn/aarch64/lib/libc.a(mbrtowc.o)
 .note.GNU-stack
                0x0000000000000000        0x0 0x1 /usr/local/popcorn/aarch64/lib/libc.a(mbsinit.o)
 .llvm_addrsig  0x0000000000000000        0x0 0x1 /usr/local/popcorn/aarch64/lib/libc.a(mbsinit.o)
 .note.GNU-stack
                0x0000000000000000        0x0 0x1 /usr/local/popcorn/aarch64/lib/libc.a(wctomb.o)
 .llvm_addrsig  0x0000000000000000        0x0 0x1 /usr/local/popcorn/aarch64/lib/libc.a(wctomb.o)
 .note.GNU-stack
                0x0000000000000000        0x0 0x1 /usr/local/popcorn/aarch64/lib/libc.a(__fdopen.o)
 .llvm_addrsig  0x0000000000000000        0x6 0x1 /usr/local/popcorn/aarch64/lib/libc.a(__fdopen.o)
 .note.GNU-stack
                0x0000000000000000        0x0 0x1 /usr/local/popcorn/aarch64/lib/libc.a(__fmodeflags.o)
 .llvm_addrsig  0x0000000000000000        0x0 0x1 /usr/local/popcorn/aarch64/lib/libc.a(__fmodeflags.o)
 .note.GNU-stack
                0x0000000000000000        0x0 0x1 /usr/local/popcorn/aarch64/lib/libc.a(__lockfile.o)
 .llvm_addrsig  0x0000000000000000        0x0 0x1 /usr/local/popcorn/aarch64/lib/libc.a(__lockfile.o)
 .note.GNU-stack
                0x0000000000000000        0x0 0x1 /usr/local/popcorn/aarch64/lib/libc.a(__stdio_close.o)
 .llvm_addrsig  0x0000000000000000        0x2 0x1 /usr/local/popcorn/aarch64/lib/libc.a(__stdio_close.o)
 .note.GNU-stack
                0x0000000000000000        0x0 0x1 /usr/local/popcorn/aarch64/lib/libc.a(__stdio_read.o)
 .llvm_addrsig  0x0000000000000000        0x0 0x1 /usr/local/popcorn/aarch64/lib/libc.a(__stdio_read.o)
 .note.GNU-stack
                0x0000000000000000        0x0 0x1 /usr/local/popcorn/aarch64/lib/libc.a(__stdio_seek.o)
 .llvm_addrsig  0x0000000000000000        0x0 0x1 /usr/local/popcorn/aarch64/lib/libc.a(__stdio_seek.o)
 .note.GNU-stack
                0x0000000000000000        0x0 0x1 /usr/local/popcorn/aarch64/lib/libc.a(__stdio_write.o)
 .llvm_addrsig  0x0000000000000000        0x0 0x1 /usr/local/popcorn/aarch64/lib/libc.a(__stdio_write.o)
 .note.GNU-stack
                0x0000000000000000        0x0 0x1 /usr/local/popcorn/aarch64/lib/libc.a(__stdout_write.o)
 .llvm_addrsig  0x0000000000000000        0x1 0x1 /usr/local/popcorn/aarch64/lib/libc.a(__stdout_write.o)
 .note.GNU-stack
                0x0000000000000000        0x0 0x1 /usr/local/popcorn/aarch64/lib/libc.a(__uflow.o)
 .llvm_addrsig  0x0000000000000000        0x0 0x1 /usr/local/popcorn/aarch64/lib/libc.a(__uflow.o)
 .note.GNU-stack
                0x0000000000000000        0x0 0x1 /usr/local/popcorn/aarch64/lib/libc.a(fwrite.o)
 .llvm_addrsig  0x0000000000000000        0x1 0x1 /usr/local/popcorn/aarch64/lib/libc.a(fwrite.o)
 .note.GNU-stack
                0x0000000000000000        0x0 0x1 /usr/local/popcorn/aarch64/lib/libc.a(ofl_add.o)
 .llvm_addrsig  0x0000000000000000        0x0 0x1 /usr/local/popcorn/aarch64/lib/libc.a(ofl_add.o)
 .note.GNU-stack
                0x0000000000000000        0x0 0x1 /usr/local/popcorn/aarch64/lib/libc.a(vsnprintf.o)
 .llvm_addrsig  0x0000000000000000        0x1 0x1 /usr/local/popcorn/aarch64/lib/libc.a(vsnprintf.o)
 .note.GNU-stack
                0x0000000000000000        0x0 0x1 /usr/local/popcorn/aarch64/lib/libc.a(memchr.o)
 .llvm_addrsig  0x0000000000000000        0x0 0x1 /usr/local/popcorn/aarch64/lib/libc.a(memchr.o)
 .note.GNU-stack
                0x0000000000000000        0x0 0x1 /usr/local/popcorn/aarch64/lib/libc.a(memcpy.o)
 .llvm_addrsig  0x0000000000000000        0x0 0x1 /usr/local/popcorn/aarch64/lib/libc.a(memcpy.o)
 .note.GNU-stack
                0x0000000000000000        0x0 0x1 /usr/local/popcorn/aarch64/lib/libc.a(__set_thread_area.o)
 .note.GNU-stack
                0x0000000000000000        0x0 0x1 /usr/local/popcorn/aarch64/lib/libc.a(clock_gettime.o)
 .llvm_addrsig  0x0000000000000000        0x1 0x1 /usr/local/popcorn/aarch64/lib/libc.a(clock_gettime.o)
 .note.GNU-stack
                0x0000000000000000        0x0 0x1 /usr/local/popcorn/aarch64/lib/libc.a(platform.o)
 .llvm_addrsig  0x0000000000000000        0x0 0x1 /usr/local/popcorn/aarch64/lib/libc.a(platform.o)
 .note.GNU-stack
                0x0000000000000000        0x0 0x1 /usr/local/popcorn/aarch64/lib/libc.a(expand_heap.o)
 .llvm_addrsig  0x0000000000000000        0x2 0x1 /usr/local/popcorn/aarch64/lib/libc.a(expand_heap.o)
 .note.GNU-stack
                0x0000000000000000        0x0 0x1 /usr/local/popcorn/aarch64/lib/libc.a(internal.o)
 .llvm_addrsig  0x0000000000000000        0x0 0x1 /usr/local/popcorn/aarch64/lib/libc.a(internal.o)
 .note.GNU-stack
                0x0000000000000000        0x0 0x1 /usr/local/popcorn/aarch64/lib/libc.a(wcrtomb.o)
 .llvm_addrsig  0x0000000000000000        0x0 0x1 /usr/local/popcorn/aarch64/lib/libc.a(wcrtomb.o)
 .note.GNU-stack
                0x0000000000000000        0x0 0x1 /usr/local/popcorn/aarch64/lib/libc.a(__toread.o)
 .llvm_addrsig  0x0000000000000000        0x0 0x1 /usr/local/popcorn/aarch64/lib/libc.a(__toread.o)
 .note.GNU-stack
                0x0000000000000000        0x0 0x1 /usr/local/popcorn/aarch64/lib/libc.a(__towrite.o)
 .llvm_addrsig  0x0000000000000000        0x0 0x1 /usr/local/popcorn/aarch64/lib/libc.a(__towrite.o)
 .note.GNU-stack
                0x0000000000000000        0x0 0x1 /usr/local/popcorn/aarch64/lib/libc.a(__stdio_exit.o)
 .llvm_addrsig  0x0000000000000000        0x4 0x1 /usr/local/popcorn/aarch64/lib/libc.a(__stdio_exit.o)
 .note.GNU-stack
                0x0000000000000000        0x0 0x1 /usr/local/popcorn/aarch64/lib/libmigrate.a(migrate.o)
 .llvm_addrsig  0x0000000000000000        0xf 0x1 /usr/local/popcorn/aarch64/lib/libmigrate.a(migrate.o)
 .note.GNU-stack
                0x0000000000000000        0x0 0x1 /usr/local/popcorn/aarch64/lib/libmigrate.a(mapping.o)
 .llvm_addrsig  0x0000000000000000        0x9 0x1 /usr/local/popcorn/aarch64/lib/libmigrate.a(mapping.o)
 .note.GNU-stack
                0x0000000000000000        0x0 0x1 /usr/local/popcorn/aarch64/lib/libstack-transform.a(userspace.o)
 .llvm_addrsig  0x0000000000000000        0xd 0x1 /usr/local/popcorn/aarch64/lib/libstack-transform.a(userspace.o)
 .note.GNU-stack
                0x0000000000000000        0x0 0x1 /usr/local/popcorn/aarch64/lib/libstack-transform.a(init.o)
 .llvm_addrsig  0x0000000000000000        0x7 0x1 /usr/local/popcorn/aarch64/lib/libstack-transform.a(init.o)
 .note.GNU-stack
                0x0000000000000000        0x0 0x1 /usr/local/popcorn/aarch64/lib/libstack-transform.a(rewrite.o)
 .llvm_addrsig  0x0000000000000000        0x4 0x1 /usr/local/popcorn/aarch64/lib/libstack-transform.a(rewrite.o)
 .note.GNU-stack
                0x0000000000000000        0x0 0x1 /usr/local/popcorn/aarch64/lib/libstack-transform.a(unwind.o)
 .llvm_addrsig  0x0000000000000000        0x0 0x1 /usr/local/popcorn/aarch64/lib/libstack-transform.a(unwind.o)
 .note.GNU-stack
                0x0000000000000000        0x0 0x1 /usr/local/popcorn/aarch64/lib/libstack-transform.a(util.o)
 .llvm_addrsig  0x0000000000000000        0xd 0x1 /usr/local/popcorn/aarch64/lib/libstack-transform.a(util.o)
 .note.GNU-stack
                0x0000000000000000        0x0 0x1 /usr/local/popcorn/aarch64/lib/libstack-transform.a(properties.o)
 .llvm_addrsig  0x0000000000000000        0x6 0x1 /usr/local/popcorn/aarch64/lib/libstack-transform.a(properties.o)
 .note.GNU-stack
                0x0000000000000000        0x0 0x1 /usr/local/popcorn/aarch64/lib/libstack-transform.a(regs.o)
 .llvm_addrsig  0x0000000000000000       0x13 0x1 /usr/local/popcorn/aarch64/lib/libstack-transform.a(regs.o)
 .note.GNU-stack
                0x0000000000000000        0x0 0x1 /usr/local/popcorn/aarch64/lib/libstack-transform.a(properties.o)
 .llvm_addrsig  0x0000000000000000        0x6 0x1 /usr/local/popcorn/aarch64/lib/libstack-transform.a(properties.o)
 .note.GNU-stack
                0x0000000000000000        0x0 0x1 /usr/local/popcorn/aarch64/lib/libstack-transform.a(regs.o)
 .llvm_addrsig  0x0000000000000000       0x13 0x1 /usr/local/popcorn/aarch64/lib/libstack-transform.a(regs.o)
 .note.GNU-stack
                0x0000000000000000        0x0 0x1 /usr/local/popcorn/aarch64/lib/libstack-transform.a(properties.o)
 .llvm_addrsig  0x0000000000000000        0x6 0x1 /usr/local/popcorn/aarch64/lib/libstack-transform.a(properties.o)
 .note.GNU-stack
                0x0000000000000000        0x0 0x1 /usr/local/popcorn/aarch64/lib/libstack-transform.a(regs.o)
 .llvm_addrsig  0x0000000000000000       0x13 0x1 /usr/local/popcorn/aarch64/lib/libstack-transform.a(regs.o)
 .note.GNU-stack
                0x0000000000000000        0x0 0x1 /usr/local/popcorn/aarch64/lib/libstack-transform.a(properties.o)
 .llvm_addrsig  0x0000000000000000        0x6 0x1 /usr/local/popcorn/aarch64/lib/libstack-transform.a(properties.o)
 .note.GNU-stack
                0x0000000000000000        0x0 0x1 /usr/local/popcorn/aarch64/lib/libstack-transform.a(regs.o)
 .llvm_addrsig  0x0000000000000000       0x15 0x1 /usr/local/popcorn/aarch64/lib/libstack-transform.a(regs.o)
 .note.GNU-stack
                0x0000000000000000        0x0 0x1 /usr/local/popcorn/aarch64/lib/libstack-transform.a(data.o)
 .llvm_addrsig  0x0000000000000000        0xb 0x1 /usr/local/popcorn/aarch64/lib/libstack-transform.a(data.o)
 .note.GNU-stack
                0x0000000000000000        0x0 0x1 /usr/local/popcorn/aarch64/lib/libelf.a(begin.o)
 .llvm_addrsig  0x0000000000000000        0x3 0x1 /usr/local/popcorn/aarch64/lib/libelf.a(begin.o)
 .note.GNU-stack
                0x0000000000000000        0x0 0x1 /usr/local/popcorn/aarch64/lib/libelf.a(end.o)
 .llvm_addrsig  0x0000000000000000        0x0 0x1 /usr/local/popcorn/aarch64/lib/libelf.a(end.o)
 .note.GNU-stack
                0x0000000000000000        0x0 0x1 /usr/local/popcorn/aarch64/lib/libelf.a(getdata.o)
 .llvm_addrsig  0x0000000000000000        0x0 0x1 /usr/local/popcorn/aarch64/lib/libelf.a(getdata.o)
 .note.GNU-stack
                0x0000000000000000        0x0 0x1 /usr/local/popcorn/aarch64/lib/libelf.a(getident.o)
 .llvm_addrsig  0x0000000000000000        0x0 0x1 /usr/local/popcorn/aarch64/lib/libelf.a(getident.o)
 .note.GNU-stack
                0x0000000000000000        0x0 0x1 /usr/local/popcorn/aarch64/lib/libelf.a(nextscn.o)
 .llvm_addrsig  0x0000000000000000        0x0 0x1 /usr/local/popcorn/aarch64/lib/libelf.a(nextscn.o)
 .note.GNU-stack
                0x0000000000000000        0x0 0x1 /usr/local/popcorn/aarch64/lib/libelf.a(strptr.o)
 .llvm_addrsig  0x0000000000000000        0x0 0x1 /usr/local/popcorn/aarch64/lib/libelf.a(strptr.o)
 .note.GNU-stack
                0x0000000000000000        0x0 0x1 /usr/local/popcorn/aarch64/lib/libelf.a(version.o)
 .llvm_addrsig  0x0000000000000000        0x1 0x1 /usr/local/popcorn/aarch64/lib/libelf.a(version.o)
 .note.GNU-stack
                0x0000000000000000        0x0 0x1 /usr/local/popcorn/aarch64/lib/libelf.a(32.getehdr.o)
 .llvm_addrsig  0x0000000000000000        0x0 0x1 /usr/local/popcorn/aarch64/lib/libelf.a(32.getehdr.o)
 .note.GNU-stack
                0x0000000000000000        0x0 0x1 /usr/local/popcorn/aarch64/lib/libelf.a(32.xlatetof.o)
 .llvm_addrsig  0x0000000000000000       0x41 0x1 /usr/local/popcorn/aarch64/lib/libelf.a(32.xlatetof.o)
 .note.GNU-stack
                0x0000000000000000        0x0 0x1 /usr/local/popcorn/aarch64/lib/libelf.a(cook.o)
 .llvm_addrsig  0x0000000000000000        0x0 0x1 /usr/local/popcorn/aarch64/lib/libelf.a(cook.o)
 .note.GNU-stack
                0x0000000000000000        0x0 0x1 /usr/local/popcorn/aarch64/lib/libelf.a(data.o)
 .llvm_addrsig  0x0000000000000000        0x0 0x1 /usr/local/popcorn/aarch64/lib/libelf.a(data.o)
 .note.GNU-stack
                0x0000000000000000        0x0 0x1 /usr/local/popcorn/aarch64/lib/libelf.a(input.o)
 .llvm_addrsig  0x0000000000000000        0x0 0x1 /usr/local/popcorn/aarch64/lib/libelf.a(input.o)
 .note.GNU-stack
                0x0000000000000000        0x0 0x1 /usr/local/popcorn/aarch64/lib/libelf.a(x.elfext.o)
 .llvm_addrsig  0x0000000000000000        0x0 0x1 /usr/local/popcorn/aarch64/lib/libelf.a(x.elfext.o)
 .note.GNU-stack
                0x0000000000000000        0x0 0x1 /usr/local/popcorn/aarch64/lib/libelf.a(64.xlatetof.o)
 .llvm_addrsig  0x0000000000000000       0x49 0x1 /usr/local/popcorn/aarch64/lib/libelf.a(64.xlatetof.o)
 .note.GNU-stack
                0x0000000000000000        0x0 0x1 /usr/local/popcorn/aarch64/lib/libelf.a(gelfshdr.o)
 .llvm_addrsig  0x0000000000000000        0x0 0x1 /usr/local/popcorn/aarch64/lib/libelf.a(gelfshdr.o)
 .note.GNU-stack
                0x0000000000000000        0x0 0x1 /usr/local/popcorn/aarch64/lib/libelf.a(swap64.o)
 .llvm_addrsig  0x0000000000000000        0x0 0x1 /usr/local/popcorn/aarch64/lib/libelf.a(swap64.o)
 .note.GNU-stack
                0x0000000000000000        0x0 0x1 /usr/local/popcorn/aarch64/lib/libelf.a(verdef_32_tof.o)
 .llvm_addrsig  0x0000000000000000        0x0 0x1 /usr/local/popcorn/aarch64/lib/libelf.a(verdef_32_tof.o)
 .note.GNU-stack
                0x0000000000000000        0x0 0x1 /usr/local/popcorn/aarch64/lib/libelf.a(verdef_32_tom.o)
 .llvm_addrsig  0x0000000000000000        0x0 0x1 /usr/local/popcorn/aarch64/lib/libelf.a(verdef_32_tom.o)
 .note.GNU-stack
                0x0000000000000000        0x0 0x1 /usr/local/popcorn/aarch64/lib/libelf.a(verdef_64_tof.o)
 .llvm_addrsig  0x0000000000000000        0x0 0x1 /usr/local/popcorn/aarch64/lib/libelf.a(verdef_64_tof.o)
 .note.GNU-stack
                0x0000000000000000        0x0 0x1 /usr/local/popcorn/aarch64/lib/libelf.a(verdef_64_tom.o)
 .llvm_addrsig  0x0000000000000000        0x0 0x1 /usr/local/popcorn/aarch64/lib/libelf.a(verdef_64_tom.o)
 .note.GNU-stack
                0x0000000000000000        0x0 0x1 /usr/local/popcorn/aarch64/lib/libelf.a(getscn.o)
 .llvm_addrsig  0x0000000000000000        0x0 0x1 /usr/local/popcorn/aarch64/lib/libelf.a(getscn.o)
 .note.GNU-stack
                0x0000000000000000        0x0 0x1 /usr/local/popcorn/aarch64/lib/libelf.a(newscn.o)
 .llvm_addrsig  0x0000000000000000        0x0 0x1 /usr/local/popcorn/aarch64/lib/libelf.a(newscn.o)
 .note.GNU-stack
                0x0000000000000000        0x0 0x1 /usr/local/popcorn/aarch64/lib/libelf.a(32.fsize.o)
 .llvm_addrsig  0x0000000000000000        0x0 0x1 /usr/local/popcorn/aarch64/lib/libelf.a(32.fsize.o)
 .note.GNU-stack
                0x0000000000000000        0x0 0x1 /usr/local/popcorn/aarch64/lib/libc.a(arch_crash.o)
 .llvm_addrsig  0x0000000000000000        0x5 0x1 /usr/local/popcorn/aarch64/lib/libc.a(arch_crash.o)
 .note.GNU-stack
                0x0000000000000000        0x0 0x1 /usr/local/popcorn/aarch64/lib/libc.a(getenv.o)
 .llvm_addrsig  0x0000000000000000        0x0 0x1 /usr/local/popcorn/aarch64/lib/libc.a(getenv.o)
 .note.GNU-stack
                0x0000000000000000        0x0 0x1 /usr/local/popcorn/aarch64/lib/libc.a(assert.o)
 .llvm_addrsig  0x0000000000000000        0x1 0x1 /usr/local/popcorn/aarch64/lib/libc.a(assert.o)
 .note.GNU-stack
                0x0000000000000000        0x0 0x1 /usr/local/popcorn/aarch64/lib/libc.a(open.o)
 .llvm_addrsig  0x0000000000000000        0x1 0x1 /usr/local/popcorn/aarch64/lib/libc.a(open.o)
 .note.GNU-stack
                0x0000000000000000        0x0 0x1 /usr/local/popcorn/aarch64/lib/libc.a(calloc.o)
 .llvm_addrsig  0x0000000000000000        0x0 0x1 /usr/local/popcorn/aarch64/lib/libc.a(calloc.o)
 .note.GNU-stack
                0x0000000000000000        0x0 0x1 /usr/local/popcorn/aarch64/lib/libc.a(getrlimit.o)
 .llvm_addrsig  0x0000000000000000        0x1 0x1 /usr/local/popcorn/aarch64/lib/libc.a(getrlimit.o)
 .note.GNU-stack
                0x0000000000000000        0x0 0x1 /usr/local/popcorn/aarch64/lib/libc.a(fprintf.o)
 .llvm_addrsig  0x0000000000000000        0x0 0x1 /usr/local/popcorn/aarch64/lib/libc.a(fprintf.o)
 .note.GNU-stack
                0x0000000000000000        0x0 0x1 /usr/local/popcorn/aarch64/lib/libc.a(fseek.o)
 .llvm_addrsig  0x0000000000000000        0x1 0x1 /usr/local/popcorn/aarch64/lib/libc.a(fseek.o)
 .note.GNU-stack
                0x0000000000000000        0x0 0x1 /usr/local/popcorn/aarch64/lib/libc.a(getc.o)
 .llvm_addrsig  0x0000000000000000        0x1 0x1 /usr/local/popcorn/aarch64/lib/libc.a(getc.o)
 .note.GNU-stack
                0x0000000000000000        0x0 0x1 /usr/local/popcorn/aarch64/lib/libc.a(getline.o)
 .llvm_addrsig  0x0000000000000000        0x0 0x1 /usr/local/popcorn/aarch64/lib/libc.a(getline.o)
 .note.GNU-stack
                0x0000000000000000        0x0 0x1 /usr/local/popcorn/aarch64/lib/libc.a(perror.o)
 .llvm_addrsig  0x0000000000000000        0x0 0x1 /usr/local/popcorn/aarch64/lib/libc.a(perror.o)
 .note.GNU-stack
                0x0000000000000000        0x0 0x1 /usr/local/popcorn/aarch64/lib/libc.a(snprintf.o)
 .llvm_addrsig  0x0000000000000000        0x0 0x1 /usr/local/popcorn/aarch64/lib/libc.a(snprintf.o)
 .note.GNU-stack
                0x0000000000000000        0x0 0x1 /usr/local/popcorn/aarch64/lib/libc.a(sscanf.o)
 .llvm_addrsig  0x0000000000000000        0x1 0x1 /usr/local/popcorn/aarch64/lib/libc.a(sscanf.o)
 .note.GNU-stack
                0x0000000000000000        0x0 0x1 /usr/local/popcorn/aarch64/lib/libc.a(stderr.o)
 .llvm_addrsig  0x0000000000000000        0x5 0x1 /usr/local/popcorn/aarch64/lib/libc.a(stderr.o)
 .note.GNU-stack
                0x0000000000000000        0x0 0x1 /usr/local/popcorn/aarch64/lib/libc.a(vsscanf.o)
 .llvm_addrsig  0x0000000000000000        0x2 0x1 /usr/local/popcorn/aarch64/lib/libc.a(vsscanf.o)
 .note.GNU-stack
                0x0000000000000000        0x0 0x1 /usr/local/popcorn/aarch64/lib/libc.a(bsearch.o)
 .llvm_addrsig  0x0000000000000000        0x0 0x1 /usr/local/popcorn/aarch64/lib/libc.a(bsearch.o)
 .note.GNU-stack
                0x0000000000000000        0x0 0x1 /usr/local/popcorn/aarch64/lib/libc.a(qsort.o)
 .llvm_addrsig  0x0000000000000000        0x1 0x1 /usr/local/popcorn/aarch64/lib/libc.a(qsort.o)
 .note.GNU-stack
                0x0000000000000000        0x0 0x1 /usr/local/popcorn/aarch64/lib/libc.a(strtol.o)
 .llvm_addrsig  0x0000000000000000        0x6 0x1 /usr/local/popcorn/aarch64/lib/libc.a(strtol.o)
 .note.GNU-stack
                0x0000000000000000        0x0 0x1 /usr/local/popcorn/aarch64/lib/libc.a(strcmp.o)
 .llvm_addrsig  0x0000000000000000        0x0 0x1 /usr/local/popcorn/aarch64/lib/libc.a(strcmp.o)
 .note.GNU-stack
                0x0000000000000000        0x0 0x1 /usr/local/popcorn/aarch64/lib/libc.a(strncmp.o)
 .llvm_addrsig  0x0000000000000000        0x0 0x1 /usr/local/popcorn/aarch64/lib/libc.a(strncmp.o)
 .note.GNU-stack
                0x0000000000000000        0x0 0x1 /usr/local/popcorn/aarch64/lib/libc.a(__syscall_cp.o)
 .llvm_addrsig  0x0000000000000000        0x2 0x1 /usr/local/popcorn/aarch64/lib/libc.a(__syscall_cp.o)
 .note.GNU-stack
                0x0000000000000000        0x0 0x1 /usr/local/popcorn/aarch64/lib/libc.a(pthread_attr_get.o)
 .llvm_addrsig  0x0000000000000000        0x0 0x1 /usr/local/popcorn/aarch64/lib/libc.a(pthread_attr_get.o)
 .note.GNU-stack
                0x0000000000000000        0x0 0x1 /usr/local/popcorn/aarch64/lib/libc.a(pthread_getattr_np.o)
 .llvm_addrsig  0x0000000000000000        0x0 0x1 /usr/local/popcorn/aarch64/lib/libc.a(pthread_getattr_np.o)
 .note.GNU-stack
                0x0000000000000000        0x0 0x1 /usr/local/popcorn/aarch64/lib/libc.a(pthread_migrate.o)
 .llvm_addrsig  0x0000000000000000        0x0 0x1 /usr/local/popcorn/aarch64/lib/libc.a(pthread_migrate.o)
 .note.GNU-stack
                0x0000000000000000        0x0 0x1 /usr/local/popcorn/aarch64/lib/libc.a(pthread_self.o)
 .llvm_addrsig  0x0000000000000000        0x1 0x1 /usr/local/popcorn/aarch64/lib/libc.a(pthread_self.o)
 .note.GNU-stack
                0x0000000000000000        0x0 0x1 /usr/local/popcorn/aarch64/lib/libc.a(close.o)
 .llvm_addrsig  0x0000000000000000        0x2 0x1 /usr/local/popcorn/aarch64/lib/libc.a(close.o)
 .note.GNU-stack
                0x0000000000000000        0x0 0x1 /usr/local/popcorn/aarch64/lib/libc.a(getpid.o)
 .llvm_addrsig  0x0000000000000000        0x0 0x1 /usr/local/popcorn/aarch64/lib/libc.a(getpid.o)
 .note.GNU-stack
                0x0000000000000000        0x0 0x1 /usr/local/popcorn/aarch64/lib/libc.a(lseek.o)
 .llvm_addrsig  0x0000000000000000        0x1 0x1 /usr/local/popcorn/aarch64/lib/libc.a(lseek.o)
 .note.GNU-stack
                0x0000000000000000        0x0 0x1 /usr/local/popcorn/aarch64/lib/libc.a(read.o)
 .llvm_addrsig  0x0000000000000000        0x0 0x1 /usr/local/popcorn/aarch64/lib/libc.a(read.o)
 .note.GNU-stack
                0x0000000000000000        0x0 0x1 /usr/local/popcorn/aarch64/lib/libc.a(abort.o)
 .llvm_addrsig  0x0000000000000000        0x0 0x1 /usr/local/popcorn/aarch64/lib/libc.a(abort.o)
 .note.GNU-stack
                0x0000000000000000        0x0 0x1 /usr/local/popcorn/aarch64/lib/libc.a(syscall.o)
 .note.GNU-stack
                0x0000000000000000        0x0 0x1 /usr/local/popcorn/aarch64/lib/libc.a(block.o)
 .llvm_addrsig  0x0000000000000000        0x2 0x1 /usr/local/popcorn/aarch64/lib/libc.a(block.o)
 .note.GNU-stack
                0x0000000000000000        0x0 0x1 /usr/local/popcorn/aarch64/lib/libc.a(raise.o)
 .llvm_addrsig  0x0000000000000000        0x0 0x1 /usr/local/popcorn/aarch64/lib/libc.a(raise.o)
 .note.GNU-stack
                0x0000000000000000        0x0 0x1 /usr/local/popcorn/aarch64/lib/libc.a(__string_read.o)
 .llvm_addrsig  0x0000000000000000        0x0 0x1 /usr/local/popcorn/aarch64/lib/libc.a(__string_read.o)
 .note.GNU-stack
                0x0000000000000000        0x0 0x1 /usr/local/popcorn/aarch64/lib/libc.a(fputc.o)
 .llvm_addrsig  0x0000000000000000        0x0 0x1 /usr/local/popcorn/aarch64/lib/libc.a(fputc.o)
 .note.GNU-stack
                0x0000000000000000        0x0 0x1 /usr/local/popcorn/aarch64/lib/libc.a(getdelim.o)
 .llvm_addrsig  0x0000000000000000        0x1 0x1 /usr/local/popcorn/aarch64/lib/libc.a(getdelim.o)
 .note.GNU-stack
                0x0000000000000000        0x0 0x1 /usr/local/popcorn/aarch64/lib/libc.a(__overflow.o)
 .llvm_addrsig  0x0000000000000000        0x0 0x1 /usr/local/popcorn/aarch64/lib/libc.a(__overflow.o)
 .note.GNU-stack
                0x0000000000000000        0x0 0x1 /usr/lib/gcc-cross/aarch64-linux-gnu/6/libgcc.a(addtf3.o)
 .note.GNU-stack
                0x0000000000000000        0x0 0x1 /usr/lib/gcc-cross/aarch64-linux-gnu/6/libgcc.a(divtf3.o)
 .note.GNU-stack
                0x0000000000000000        0x0 0x1 /usr/lib/gcc-cross/aarch64-linux-gnu/6/libgcc.a(eqtf2.o)
 .note.GNU-stack
                0x0000000000000000        0x0 0x1 /usr/lib/gcc-cross/aarch64-linux-gnu/6/libgcc.a(getf2.o)
 .note.GNU-stack
                0x0000000000000000        0x0 0x1 /usr/lib/gcc-cross/aarch64-linux-gnu/6/libgcc.a(letf2.o)
 .note.GNU-stack
                0x0000000000000000        0x0 0x1 /usr/lib/gcc-cross/aarch64-linux-gnu/6/libgcc.a(multf3.o)
 .note.GNU-stack
                0x0000000000000000        0x0 0x1 /usr/lib/gcc-cross/aarch64-linux-gnu/6/libgcc.a(subtf3.o)
 .note.GNU-stack
                0x0000000000000000        0x0 0x1 /usr/lib/gcc-cross/aarch64-linux-gnu/6/libgcc.a(unordtf2.o)
 .note.GNU-stack
                0x0000000000000000        0x0 0x1 /usr/lib/gcc-cross/aarch64-linux-gnu/6/libgcc.a(fixtfsi.o)
 .note.GNU-stack
                0x0000000000000000        0x0 0x1 /usr/lib/gcc-cross/aarch64-linux-gnu/6/libgcc.a(fixunstfsi.o)
 .note.GNU-stack
                0x0000000000000000        0x0 0x1 /usr/lib/gcc-cross/aarch64-linux-gnu/6/libgcc.a(floatsitf.o)
 .note.GNU-stack
                0x0000000000000000        0x0 0x1 /usr/lib/gcc-cross/aarch64-linux-gnu/6/libgcc.a(floatunsitf.o)
 .note.GNU-stack
                0x0000000000000000        0x0 0x1 /usr/lib/gcc-cross/aarch64-linux-gnu/6/libgcc.a(extendsftf2.o)
 .note.GNU-stack
                0x0000000000000000        0x0 0x1 /usr/lib/gcc-cross/aarch64-linux-gnu/6/libgcc.a(extenddftf2.o)
 .note.GNU-stack
                0x0000000000000000        0x0 0x1 /usr/lib/gcc-cross/aarch64-linux-gnu/6/libgcc.a(trunctfsf2.o)
 .note.GNU-stack
                0x0000000000000000        0x0 0x1 /usr/lib/gcc-cross/aarch64-linux-gnu/6/libgcc.a(trunctfdf2.o)
 .note.GNU-stack
                0x0000000000000000        0x0 0x1 /usr/lib/gcc-cross/aarch64-linux-gnu/6/libgcc.a(sfp-exceptions.o)

Memory Configuration

Name             Origin             Length             Attributes
*default*        0x0000000000000000 0xffffffffffffffff

Linker script and memory map

LOAD add_aarch64.o
LOAD adi_aarch64.o
LOAD c_print_results_aarch64.o
LOAD c_timers_aarch64.o
LOAD error_aarch64.o
LOAD exact_rhs_aarch64.o
LOAD exact_solution_aarch64.o
LOAD initialize_aarch64.o
LOAD ninvr_aarch64.o
LOAD pinvr_aarch64.o
LOAD print_results_aarch64.o
LOAD randdp_aarch64.o
LOAD rhs_aarch64.o
LOAD set_constants_aarch64.o
LOAD sp_aarch64.o
LOAD txinvr_aarch64.o
LOAD tzetar_aarch64.o
LOAD verify_aarch64.o
LOAD wtime_aarch64.o
LOAD x_solve_aarch64.o
LOAD y_solve_aarch64.o
LOAD z_solve_aarch64.o
LOAD /usr/local/popcorn/aarch64/lib/crt1.o
LOAD /usr/local/popcorn/aarch64/lib/libc.a
LOAD /usr/local/popcorn/aarch64/lib/libmigrate.a
LOAD /usr/local/popcorn/aarch64/lib/libstack-transform.a
LOAD /usr/local/popcorn/aarch64/lib/libelf.a
LOAD /usr/local/popcorn/aarch64/lib/libpthread.a
LOAD /usr/local/popcorn/aarch64/lib/libc.a
LOAD /usr/local/popcorn/aarch64/lib/libm.a
START GROUP
LOAD /usr/lib/gcc-cross/aarch64-linux-gnu/6/libgcc.a
LOAD /usr/lib/gcc-cross/aarch64-linux-gnu/6/libgcc_eh.a
END GROUP
                [!provide]                        PROVIDE (__executable_start = SEGMENT_START ("text-segment", 0x400000))
                0x0000000000400190                . = (SEGMENT_START ("text-segment", 0x400000) + SIZEOF_HEADERS)

.interp
 *(.interp)

.note.gnu.build-id
                0x0000000000400190       0x24
 *(.note.gnu.build-id)
 .note.gnu.build-id
                0x0000000000400190       0x24 0x4 add_aarch64.o

.hash
 *(.hash)

.gnu.hash
 *(.gnu.hash)

.dynsym
 *(.dynsym)

.dynstr
 *(.dynstr)

.gnu.version
 *(.gnu.version)

.gnu.version_d
 *(.gnu.version_d)

.gnu.version_r
 *(.gnu.version_r)

.rela.dyn       0x00000000004001b8        0x0
 *(.rela.init)
 *(.rela.text .rela.text.* .rela.gnu.linkonce.t.*)
 .rela.text     0x00000000004001b8        0x0 0x8 add_aarch64.o
 .rela.text.__init_libc
                0x00000000004001b8        0x0 0x8 add_aarch64.o
 .rela.text.__lock
                0x00000000004001b8        0x0 0x8 add_aarch64.o
 .rela.text.__init_tp
                0x00000000004001b8        0x0 0x8 add_aarch64.o
 .rela.text.__copy_tls
                0x00000000004001b8        0x0 0x8 add_aarch64.o
 .rela.text.static_init_tls
                0x00000000004001b8        0x0 0x8 add_aarch64.o
 .rela.text.malloc
                0x00000000004001b8        0x0 0x8 add_aarch64.o
 .rela.text.lock_bin
                0x00000000004001b8        0x0 0x8 add_aarch64.o
 .rela.text.realloc
                0x00000000004001b8        0x0 0x8 add_aarch64.o
 .rela.text.free
                0x00000000004001b8        0x0 0x8 add_aarch64.o
 .rela.text.__init_malloc
                0x00000000004001b8        0x0 0x8 add_aarch64.o
 .rela.text.popcorn_malloc
                0x00000000004001b8        0x0 0x8 add_aarch64.o
 .rela.text.unbin
                0x00000000004001b8        0x0 0x8 add_aarch64.o
 .rela.text.unlock_bin
                0x00000000004001b8        0x0 0x8 add_aarch64.o
 .rela.text.popcorn_realloc
                0x00000000004001b8        0x0 0x8 add_aarch64.o
 .rela.text.popcorn_free
                0x00000000004001b8        0x0 0x8 add_aarch64.o
 .rela.text.__fdopen
                0x00000000004001b8        0x0 0x8 add_aarch64.o
 .rela.text.__expand_heap
                0x00000000004001b8        0x0 0x8 add_aarch64.o
 .rela.text.__expand_heap_node
                0x00000000004001b8        0x0 0x8 add_aarch64.o
 .rela.text.popcorn_get_arena
                0x00000000004001b8        0x0 0x8 add_aarch64.o
 .rela.text.__stdio_exit
                0x00000000004001b8        0x0 0x8 add_aarch64.o
 .rela.text.__st_userspace_ctor
                0x00000000004001b8        0x0 0x8 add_aarch64.o
 .rela.text.__st_userspace_dtor
                0x00000000004001b8        0x0 0x8 add_aarch64.o
 .rela.text.pthread_getattr_np
                0x00000000004001b8        0x0 0x8 add_aarch64.o
 *(.rela.fini)
 *(.rela.rodata .rela.rodata.* .rela.gnu.linkonce.r.*)
 *(.rela.data .rela.data.* .rela.gnu.linkonce.d.*)
 *(.rela.tdata .rela.tdata.* .rela.gnu.linkonce.td.*)
 *(.rela.tbss .rela.tbss.* .rela.gnu.linkonce.tb.*)
 *(.rela.ctors)
 *(.rela.dtors)
 *(.rela.got)
 .rela.got      0x00000000004001b8        0x0 0x8 add_aarch64.o
 *(.rela.bss .rela.bss.* .rela.gnu.linkonce.b.*)
 *(.rela.ifunc)

.rela.plt       0x00000000004001b8        0x0
 *(.rela.plt)
                [!provide]                        PROVIDE (__rela_iplt_start = .)
 *(.rela.iplt)
 .rela.iplt     0x00000000004001b8        0x0 0x8 add_aarch64.o
                [!provide]                        PROVIDE (__rela_iplt_end = .)

.init
 *(SORT_NONE(.init))

.plt            0x00000000004001c0        0x0
 *(.plt)
 *(.iplt)
 .iplt          0x00000000004001c0        0x0 0x4 add_aarch64.o

.text           0x00000000004001c0    0x2f144
 *(.text.unlikely .text.*_unlikely .text.unlikely.*)
 *(.text.exit .text.exit.*)
 .text.exit     0x00000000004001c0       0x24 0x4 /usr/local/popcorn/aarch64/lib/libc.a(exit.o)
                0x00000000004001c0                exit
 *(.text.startup .text.startup.*)
 *(.text.hot .text.hot.*)
 *(.text .stub .text.* .gnu.linkonce.t.*)
 .text          0x00000000004001e4        0x0 0x4 add_aarch64.o
 .text.add      0x00000000004001e4      0x1a4 0x4 add_aarch64.o
                0x00000000004001e4                add
 .text          0x0000000000400388        0x0 0x4 adi_aarch64.o
 .text.adi      0x0000000000400388       0x34 0x4 adi_aarch64.o
                0x0000000000400388                adi
 .text          0x00000000004003bc        0x0 0x4 c_print_results_aarch64.o
 .text.c_print_results
                0x00000000004003bc      0x314 0x4 c_print_results_aarch64.o
                0x00000000004003bc                c_print_results
 .text          0x00000000004006d0        0x0 0x4 c_timers_aarch64.o
 .text.timer_clear
                0x00000000004006d0       0x50 0x4 c_timers_aarch64.o
                0x00000000004006d0                timer_clear
 .text.timer_start
                0x0000000000400720       0x54 0x4 c_timers_aarch64.o
                0x0000000000400720                timer_start
 .text.elapsed_time
                0x0000000000400774       0x48 0x4 c_timers_aarch64.o
 .text.timer_stop
                0x00000000004007bc       0x84 0x4 c_timers_aarch64.o
                0x00000000004007bc                timer_stop
 .text.timer_read
                0x0000000000400840       0x5c 0x4 c_timers_aarch64.o
                0x0000000000400840                timer_read
 .text          0x000000000040089c        0x0 0x4 error_aarch64.o
 .text.error_norm
                0x000000000040089c      0x2f0 0x4 error_aarch64.o
                0x000000000040089c                error_norm
 .text.rhs_norm
                0x0000000000400b8c      0x264 0x4 error_aarch64.o
                0x0000000000400b8c                rhs_norm
 .text          0x0000000000400df0        0x0 0x4 exact_rhs_aarch64.o
 .text.exact_rhs
                0x0000000000400df0     0x25c4 0x4 exact_rhs_aarch64.o
                0x0000000000400df0                exact_rhs
 .text          0x00000000004033b4        0x0 0x4 exact_solution_aarch64.o
 .text.exact_solution
                0x00000000004033b4      0x154 0x4 exact_solution_aarch64.o
                0x00000000004033b4                exact_solution
 .text          0x0000000000403508        0x0 0x4 initialize_aarch64.o
 .text.initialize
                0x0000000000403508      0xd54 0x4 initialize_aarch64.o
                0x0000000000403508                initialize
 .text.lhsinit  0x000000000040425c      0x20c 0x4 initialize_aarch64.o
                0x000000000040425c                lhsinit
 .text.lhsinitj
                0x0000000000404468      0x20c 0x4 initialize_aarch64.o
                0x0000000000404468                lhsinitj
 .text          0x0000000000404674        0x0 0x4 ninvr_aarch64.o
 .text.ninvr    0x0000000000404674      0x328 0x4 ninvr_aarch64.o
                0x0000000000404674                ninvr
 .text          0x000000000040499c        0x0 0x4 pinvr_aarch64.o
 .text.pinvr    0x000000000040499c      0x328 0x4 pinvr_aarch64.o
                0x000000000040499c                pinvr
 .text          0x0000000000404cc4        0x0 0x4 print_results_aarch64.o
 .text.print_results
                0x0000000000404cc4      0x37c 0x4 print_results_aarch64.o
                0x0000000000404cc4                print_results
 .text          0x0000000000405040        0x0 0x4 randdp_aarch64.o
 .text.randlc   0x0000000000405040      0x194 0x4 randdp_aarch64.o
                0x0000000000405040                randlc
 .text.vranlc   0x00000000004051d4      0x1f4 0x4 randdp_aarch64.o
                0x00000000004051d4                vranlc
 .text          0x00000000004053c8        0x0 0x4 rhs_aarch64.o
 .text.compute_rhs
                0x00000000004053c8     0x2ca8 0x4 rhs_aarch64.o
                0x00000000004053c8                compute_rhs
 .text          0x0000000000408070        0x0 0x4 set_constants_aarch64.o
 .text.set_constants
                0x0000000000408070      0x9f0 0x4 set_constants_aarch64.o
                0x0000000000408070                set_constants
 .text          0x0000000000408a60        0x0 0x4 sp_aarch64.o
 .text.main     0x0000000000408a60      0x93c 0x4 sp_aarch64.o
                0x0000000000408a60                main
 .text          0x000000000040939c        0x0 0x4 txinvr_aarch64.o
 .text.txinvr   0x000000000040939c      0x4e0 0x4 txinvr_aarch64.o
                0x000000000040939c                txinvr
 .text          0x000000000040987c        0x0 0x4 tzetar_aarch64.o
 .text.tzetar   0x000000000040987c      0x4dc 0x4 tzetar_aarch64.o
                0x000000000040987c                tzetar
 .text          0x0000000000409d58        0x0 0x4 verify_aarch64.o
 .text.verify   0x0000000000409d58      0xe24 0x4 verify_aarch64.o
                0x0000000000409d58                verify
 .text          0x000000000040ab7c        0x0 0x4 wtime_aarch64.o
 .text.wtime_   0x000000000040ab7c       0xa0 0x4 wtime_aarch64.o
                0x000000000040ab7c                wtime_
 .text          0x000000000040ac1c        0x0 0x4 x_solve_aarch64.o
 .text.x_solve  0x000000000040ac1c     0x20ac 0x4 x_solve_aarch64.o
                0x000000000040ac1c                x_solve
 .text          0x000000000040ccc8        0x0 0x4 y_solve_aarch64.o
 .text.y_solve  0x000000000040ccc8     0x217c 0x4 y_solve_aarch64.o
                0x000000000040ccc8                y_solve
 .text          0x000000000040ee44        0x0 0x4 z_solve_aarch64.o
 .text.z_solve  0x000000000040ee44     0x21e0 0x4 z_solve_aarch64.o
                0x000000000040ee44                z_solve
 .text          0x0000000000411024       0x1c 0x4 /usr/local/popcorn/aarch64/lib/crt1.o
                0x0000000000411024                _start
 .text._start_c
                0x0000000000411040       0x30 0x4 /usr/local/popcorn/aarch64/lib/crt1.o
                0x0000000000411040                _start_c
 .text          0x0000000000411070        0x0 0x4 /usr/local/popcorn/aarch64/lib/libc.a(__libc_start_main.o)
 .text.dummy    0x0000000000411070        0x4 0x4 /usr/local/popcorn/aarch64/lib/libc.a(__libc_start_main.o)
                0x0000000000411070                _init
 .text.dummy1   0x0000000000411074        0x4 0x4 /usr/local/popcorn/aarch64/lib/libc.a(__libc_start_main.o)
                0x0000000000411074                __init_ssp
 .text.__init_libc
                0x0000000000411078      0x1e0 0x4 /usr/local/popcorn/aarch64/lib/libc.a(__libc_start_main.o)
                0x0000000000411078                __init_libc
 .text.libc_start_init
                0x0000000000411258       0x4c 0x4 /usr/local/popcorn/aarch64/lib/libc.a(__libc_start_main.o)
                0x0000000000411258                __libc_start_init
 .text.__libc_start_main
                0x00000000004112a4       0x50 0x4 /usr/local/popcorn/aarch64/lib/libc.a(__libc_start_main.o)
                0x00000000004112a4                __libc_start_main
 .text          0x00000000004112f4        0x0 0x4 /usr/local/popcorn/aarch64/lib/libc.a(exit.o)
 .text.libc_exit_fini
                0x00000000004112f4       0x48 0x4 /usr/local/popcorn/aarch64/lib/libc.a(exit.o)
                0x00000000004112f4                __libc_exit_fini
 .text.dummy    0x000000000041133c        0x4 0x4 /usr/local/popcorn/aarch64/lib/libc.a(exit.o)
                0x000000000041133c                __funcs_on_exit
                0x000000000041133c                _fini
 .text          0x0000000000411340        0x0 0x4 /usr/local/popcorn/aarch64/lib/libc.a(libc.o)
 .text          0x0000000000411340        0x0 0x4 /usr/local/popcorn/aarch64/lib/libc.a(sqrt.o)
 .text.sqrt     0x0000000000411340        0x8 0x4 /usr/local/popcorn/aarch64/lib/libc.a(sqrt.o)
                0x0000000000411340                sqrt
 .text          0x0000000000411348        0x0 0x4 /usr/local/popcorn/aarch64/lib/libc.a(pow.o)
 .text.pow      0x0000000000411348      0x800 0x4 /usr/local/popcorn/aarch64/lib/libc.a(pow.o)
                0x0000000000411348                pow
 .text          0x0000000000411b48        0x0 0x4 /usr/local/popcorn/aarch64/lib/libc.a(scalbn.o)
 .text.scalbn   0x0000000000411b48       0x98 0x4 /usr/local/popcorn/aarch64/lib/libc.a(scalbn.o)
                0x0000000000411b48                scalbn
 .text          0x0000000000411be0        0x0 0x4 /usr/local/popcorn/aarch64/lib/libc.a(fclose.o)
 .text.dummy    0x0000000000411be0        0x4 0x4 /usr/local/popcorn/aarch64/lib/libc.a(fclose.o)
                0x0000000000411be0                __unlist_locked_file
 .text.fclose   0x0000000000411be4       0xd4 0x4 /usr/local/popcorn/aarch64/lib/libc.a(fclose.o)
                0x0000000000411be4                fclose
 .text          0x0000000000411cb8        0x0 0x4 /usr/local/popcorn/aarch64/lib/libc.a(fflush.o)
 .text.fflush   0x0000000000411cb8      0x15c 0x4 /usr/local/popcorn/aarch64/lib/libc.a(fflush.o)
                0x0000000000411cb8                fflush
                0x0000000000411cb8                fflush_unlocked
 .text          0x0000000000411e14        0x0 0x4 /usr/local/popcorn/aarch64/lib/libc.a(fgetc.o)
 .text.fgetc    0x0000000000411e14       0xa0 0x4 /usr/local/popcorn/aarch64/lib/libc.a(fgetc.o)
                0x0000000000411e14                fgetc
 .text          0x0000000000411eb4        0x0 0x4 /usr/local/popcorn/aarch64/lib/libc.a(fopen.o)
 .text.fopen    0x0000000000411eb4       0xc0 0x4 /usr/local/popcorn/aarch64/lib/libc.a(fopen.o)
                0x0000000000411eb4                fopen
                0x0000000000411eb4                fopen64
 .text          0x0000000000411f74        0x0 0x4 /usr/local/popcorn/aarch64/lib/libc.a(fscanf.o)
 .text.fscanf   0x0000000000411f74       0x68 0x4 /usr/local/popcorn/aarch64/lib/libc.a(fscanf.o)
                0x0000000000411f74                fscanf
                0x0000000000411f74                __isoc99_fscanf
 .text          0x0000000000411fdc        0x0 0x4 /usr/local/popcorn/aarch64/lib/libc.a(ofl.o)
 .text.__ofl_lock
                0x0000000000411fdc       0x24 0x4 /usr/local/popcorn/aarch64/lib/libc.a(ofl.o)
                0x0000000000411fdc                __ofl_lock
 .text.__ofl_unlock
                0x0000000000412000        0xc 0x4 /usr/local/popcorn/aarch64/lib/libc.a(ofl.o)
                0x0000000000412000                __ofl_unlock
 .text          0x000000000041200c        0x0 0x4 /usr/local/popcorn/aarch64/lib/libc.a(printf.o)
 .text.printf   0x000000000041200c       0x84 0x4 /usr/local/popcorn/aarch64/lib/libc.a(printf.o)
                0x000000000041200c                printf
 .text          0x0000000000412090        0x0 0x4 /usr/local/popcorn/aarch64/lib/libc.a(sprintf.o)
 .text.sprintf  0x0000000000412090       0x68 0x4 /usr/local/popcorn/aarch64/lib/libc.a(sprintf.o)
                0x0000000000412090                sprintf
 .text          0x00000000004120f8        0x0 0x4 /usr/local/popcorn/aarch64/lib/libc.a(stdout.o)
 .text          0x00000000004120f8        0x0 0x4 /usr/local/popcorn/aarch64/lib/libc.a(vfprintf.o)
 .text.vfprintf
                0x00000000004120f8      0x18c 0x4 /usr/local/popcorn/aarch64/lib/libc.a(vfprintf.o)
                0x00000000004120f8                vfprintf
 .text.printf_core
                0x0000000000412284     0x1b80 0x4 /usr/local/popcorn/aarch64/lib/libc.a(vfprintf.o)
 .text.pop_arg  0x0000000000413e04      0x26c 0x4 /usr/local/popcorn/aarch64/lib/libc.a(vfprintf.o)
 .text.pad      0x0000000000414070       0xd8 0x4 /usr/local/popcorn/aarch64/lib/libc.a(vfprintf.o)
 .text          0x0000000000414148        0x0 0x4 /usr/local/popcorn/aarch64/lib/libc.a(vfscanf.o)
 .text.vfscanf  0x0000000000414148      0xcb4 0x4 /usr/local/popcorn/aarch64/lib/libc.a(vfscanf.o)
                0x0000000000414148                __isoc99_vfscanf
                0x0000000000414148                vfscanf
 .text          0x0000000000414dfc        0x0 0x4 /usr/local/popcorn/aarch64/lib/libc.a(vsprintf.o)
 .text.vsprintf
                0x0000000000414dfc       0x34 0x4 /usr/local/popcorn/aarch64/lib/libc.a(vsprintf.o)
                0x0000000000414dfc                vsprintf
 .text          0x0000000000414e30        0x0 0x4 /usr/local/popcorn/aarch64/lib/libc.a(memset.o)
 .text.memset   0x0000000000414e30      0x140 0x4 /usr/local/popcorn/aarch64/lib/libc.a(memset.o)
                0x0000000000414e30                memset
 .text          0x0000000000414f70        0x0 0x4 /usr/local/popcorn/aarch64/lib/libc.a(strchr.o)
 .text.strchr   0x0000000000414f70       0x2c 0x4 /usr/local/popcorn/aarch64/lib/libc.a(strchr.o)
                0x0000000000414f70                strchr
 .text          0x0000000000414f9c        0x0 0x4 /usr/local/popcorn/aarch64/lib/libc.a(strchrnul.o)
 .text.__strchrnul
                0x0000000000414f9c       0xd4 0x4 /usr/local/popcorn/aarch64/lib/libc.a(strchrnul.o)
                0x0000000000414f9c                __strchrnul
                0x0000000000414f9c                strchrnul
 .text          0x0000000000415070        0x0 0x4 /usr/local/popcorn/aarch64/lib/libc.a(strlen.o)
 .text.strlen   0x0000000000415070       0x74 0x4 /usr/local/popcorn/aarch64/lib/libc.a(strlen.o)
                0x0000000000415070                strlen
 .text          0x00000000004150e4        0x0 0x4 /usr/local/popcorn/aarch64/lib/libc.a(strnlen.o)
 .text.strnlen  0x00000000004150e4       0x38 0x4 /usr/local/popcorn/aarch64/lib/libc.a(strnlen.o)
                0x00000000004150e4                strnlen
 .text          0x000000000041511c        0x0 0x4 /usr/local/popcorn/aarch64/lib/libc.a(__lock.o)
 .text.__lock   0x000000000041511c       0x60 0x4 /usr/local/popcorn/aarch64/lib/libc.a(__lock.o)
                0x000000000041511c                __lock
 .text.__unlock
                0x000000000041517c       0x54 0x4 /usr/local/popcorn/aarch64/lib/libc.a(__lock.o)
                0x000000000041517c                __unlock
 .text          0x00000000004151d0        0x0 0x4 /usr/local/popcorn/aarch64/lib/libc.a(__wait.o)
 .text.__wait   0x00000000004151d0       0xc4 0x4 /usr/local/popcorn/aarch64/lib/libc.a(__wait.o)
                0x00000000004151d0                __wait
 .text          0x0000000000415294        0x0 0x4 /usr/local/popcorn/aarch64/lib/libc.a(gettimeofday.o)
 .text.gettimeofday
                0x0000000000415294       0x60 0x4 /usr/local/popcorn/aarch64/lib/libc.a(gettimeofday.o)
                0x0000000000415294                gettimeofday
 .text          0x00000000004152f4        0x0 0x4 /usr/local/popcorn/aarch64/lib/libc.a(__environ.o)
 .text          0x00000000004152f4        0x0 0x4 /usr/local/popcorn/aarch64/lib/libc.a(__init_tls.o)
 .text.__init_tp
                0x00000000004152f4       0x70 0x4 /usr/local/popcorn/aarch64/lib/libc.a(__init_tls.o)
                0x00000000004152f4                __init_tp
 .text.__copy_tls
                0x0000000000415364       0x9c 0x4 /usr/local/popcorn/aarch64/lib/libc.a(__init_tls.o)
                0x0000000000415364                __copy_tls
 .text.static_init_tls
                0x0000000000415400      0x144 0x4 /usr/local/popcorn/aarch64/lib/libc.a(__init_tls.o)
                0x0000000000415400                __init_tls
 .text          0x0000000000415544        0x0 0x4 /usr/local/popcorn/aarch64/lib/libc.a(__errno_location.o)
 .text.__errno_location
                0x0000000000415544        0xc 0x4 /usr/local/popcorn/aarch64/lib/libc.a(__errno_location.o)
                0x0000000000415544                __errno_location
 .text          0x0000000000415550        0x0 0x4 /usr/local/popcorn/aarch64/lib/libc.a(strerror.o)
 .text.__strerror_l
                0x0000000000415550       0x64 0x4 /usr/local/popcorn/aarch64/lib/libc.a(strerror.o)
                0x0000000000415550                strerror_l
                0x0000000000415550                __strerror_l
 .text.strerror
                0x00000000004155b4        0xc 0x4 /usr/local/popcorn/aarch64/lib/libc.a(strerror.o)
                0x00000000004155b4                strerror
 .text          0x00000000004155c0        0x0 0x4 /usr/local/popcorn/aarch64/lib/libc.a(_Exit.o)
 .text._Exit    0x00000000004155c0       0x20 0x4 /usr/local/popcorn/aarch64/lib/libc.a(_Exit.o)
                0x00000000004155c0                _Exit
 .text          0x00000000004155e0        0x0 0x4 /usr/local/popcorn/aarch64/lib/libc.a(floatscan.o)
 .text.__floatscan
                0x00000000004155e0     0x18d0 0x4 /usr/local/popcorn/aarch64/lib/libc.a(floatscan.o)
                0x00000000004155e0                __floatscan
 .text.scanexp  0x0000000000416eb0      0x250 0x4 /usr/local/popcorn/aarch64/lib/libc.a(floatscan.o)
 .text          0x0000000000417100        0x0 0x4 /usr/local/popcorn/aarch64/lib/libc.a(intscan.o)
 .text.__intscan
                0x0000000000417100      0x6f4 0x4 /usr/local/popcorn/aarch64/lib/libc.a(intscan.o)
                0x0000000000417100                __intscan
 .text          0x00000000004177f4        0x0 0x4 /usr/local/popcorn/aarch64/lib/libc.a(shgetc.o)
 .text.__shlim  0x00000000004177f4       0x2c 0x4 /usr/local/popcorn/aarch64/lib/libc.a(shgetc.o)
                0x00000000004177f4                __shlim
 .text.__shgetc
                0x0000000000417820       0xdc 0x4 /usr/local/popcorn/aarch64/lib/libc.a(shgetc.o)
                0x0000000000417820                __shgetc
 .text          0x00000000004178fc        0x0 0x4 /usr/local/popcorn/aarch64/lib/libc.a(syscall_ret.o)
 .text.__syscall_ret
                0x00000000004178fc       0x30 0x4 /usr/local/popcorn/aarch64/lib/libc.a(syscall_ret.o)
                0x00000000004178fc                __syscall_ret
 .text          0x000000000041792c        0x0 0x4 /usr/local/popcorn/aarch64/lib/libc.a(__lctrans.o)
 .text.dummy    0x000000000041792c        0x4 0x4 /usr/local/popcorn/aarch64/lib/libc.a(__lctrans.o)
                0x000000000041792c                __lctrans_impl
 .text.__lctrans
                0x0000000000417930        0x4 0x4 /usr/local/popcorn/aarch64/lib/libc.a(__lctrans.o)
                0x0000000000417930                __lctrans
 .text.__lctrans_cur
                0x0000000000417934       0x10 0x4 /usr/local/popcorn/aarch64/lib/libc.a(__lctrans.o)
                0x0000000000417934                __lctrans_cur
 .text          0x0000000000417944        0x0 0x4 /usr/local/popcorn/aarch64/lib/libc.a(lite_malloc.o)
 .text.__simple_malloc
                0x0000000000417944      0x110 0x4 /usr/local/popcorn/aarch64/lib/libc.a(lite_malloc.o)
 .text          0x0000000000417a54        0x0 0x4 /usr/local/popcorn/aarch64/lib/libc.a(malloc.o)
 .text.__init_malloc
                0x0000000000417a54       0x14 0x4 /usr/local/popcorn/aarch64/lib/libc.a(malloc.o)
 .text.malloc   0x0000000000417a68      0x5d0 0x4 /usr/local/popcorn/aarch64/lib/libc.a(malloc.o)
                0x0000000000417a68                malloc
 .text.alloc_rev
                0x0000000000418038       0xc8 0x4 /usr/local/popcorn/aarch64/lib/libc.a(malloc.o)
 .text.lock_bin
                0x0000000000418100       0xc8 0x4 /usr/local/popcorn/aarch64/lib/libc.a(malloc.o)
 .text.unbin    0x00000000004181c8       0x9c 0x4 /usr/local/popcorn/aarch64/lib/libc.a(malloc.o)
 .text.unlock_bin
                0x0000000000418264       0x74 0x4 /usr/local/popcorn/aarch64/lib/libc.a(malloc.o)
 .text.__malloc0
                0x00000000004182d8      0x128 0x4 /usr/local/popcorn/aarch64/lib/libc.a(malloc.o)
                0x00000000004182d8                __malloc0
 .text.realloc  0x0000000000418400      0x258 0x4 /usr/local/popcorn/aarch64/lib/libc.a(malloc.o)
                0x0000000000418400                realloc
 .text.free     0x0000000000418658      0x500 0x4 /usr/local/popcorn/aarch64/lib/libc.a(malloc.o)
                0x0000000000418658                free
 .text.alloc_fwd
                0x0000000000418b58       0xc8 0x4 /usr/local/popcorn/aarch64/lib/libc.a(malloc.o)
 .text          0x0000000000418c20        0x0 0x4 /usr/local/popcorn/aarch64/lib/libc.a(popcorn_malloc.o)
 .text.__init_malloc
                0x0000000000418c20       0x14 0x4 /usr/local/popcorn/aarch64/lib/libc.a(popcorn_malloc.o)
 .text.popcorn_malloc
                0x0000000000418c34      0xa9c 0x4 /usr/local/popcorn/aarch64/lib/libc.a(popcorn_malloc.o)
                0x0000000000418c34                popcorn_malloc
 .text.lock_bin
                0x00000000004196d0       0xd4 0x4 /usr/local/popcorn/aarch64/lib/libc.a(popcorn_malloc.o)
 .text.unbin    0x00000000004197a4       0xa0 0x4 /usr/local/popcorn/aarch64/lib/libc.a(popcorn_malloc.o)
 .text.unlock_bin
                0x0000000000419844       0x80 0x4 /usr/local/popcorn/aarch64/lib/libc.a(popcorn_malloc.o)
 .text.__popcorn_malloc0
                0x00000000004198c4      0x128 0x4 /usr/local/popcorn/aarch64/lib/libc.a(popcorn_malloc.o)
                0x00000000004198c4                __popcorn_malloc0
 .text.popcorn_malloc_cur
                0x00000000004199ec       0x28 0x4 /usr/local/popcorn/aarch64/lib/libc.a(popcorn_malloc.o)
                0x00000000004199ec                popcorn_malloc_cur
 .text.popcorn_realloc
                0x0000000000419a14      0x270 0x4 /usr/local/popcorn/aarch64/lib/libc.a(popcorn_malloc.o)
                0x0000000000419a14                popcorn_realloc
 .text.popcorn_free
                0x0000000000419c84      0x788 0x4 /usr/local/popcorn/aarch64/lib/libc.a(popcorn_malloc.o)
                0x0000000000419c84                popcorn_free
 .text.alloc_fwd
                0x000000000041a40c       0xe4 0x4 /usr/local/popcorn/aarch64/lib/libc.a(popcorn_malloc.o)
 .text.popcorn_realloc_cur
                0x000000000041a4f0       0x30 0x4 /usr/local/popcorn/aarch64/lib/libc.a(popcorn_malloc.o)
                0x000000000041a4f0                popcorn_realloc_cur
 .text          0x000000000041a520        0x0 0x4 /usr/local/popcorn/aarch64/lib/libc.a(__fpclassifyl.o)
 .text.__fpclassifyl
                0x000000000041a520       0x50 0x4 /usr/local/popcorn/aarch64/lib/libc.a(__fpclassifyl.o)
                0x000000000041a520                __fpclassifyl
 .text          0x000000000041a570        0x0 0x4 /usr/local/popcorn/aarch64/lib/libc.a(__signbitl.o)
 .text.__signbitl
                0x000000000041a570       0x14 0x4 /usr/local/popcorn/aarch64/lib/libc.a(__signbitl.o)
                0x000000000041a570                __signbitl
 .text          0x000000000041a584        0x0 0x4 /usr/local/popcorn/aarch64/lib/libc.a(fabs.o)
 .text.fabs     0x000000000041a584        0x8 0x4 /usr/local/popcorn/aarch64/lib/libc.a(fabs.o)
                0x000000000041a584                fabs
 .text          0x000000000041a58c        0x0 0x4 /usr/local/popcorn/aarch64/lib/libc.a(copysignl.o)
 .text.copysignl
                0x000000000041a58c       0x2c 0x4 /usr/local/popcorn/aarch64/lib/libc.a(copysignl.o)
                0x000000000041a58c                copysignl
 .text          0x000000000041a5b8        0x0 0x4 /usr/local/popcorn/aarch64/lib/libc.a(fmodl.o)
 .text.fmodl    0x000000000041a5b8      0x224 0x4 /usr/local/popcorn/aarch64/lib/libc.a(fmodl.o)
                0x000000000041a5b8                fmodl
 .text          0x000000000041a7dc        0x0 0x4 /usr/local/popcorn/aarch64/lib/libc.a(frexpl.o)
 .text.frexpl   0x000000000041a7dc       0xb4 0x4 /usr/local/popcorn/aarch64/lib/libc.a(frexpl.o)
                0x000000000041a7dc                frexpl
 .text          0x000000000041a890        0x0 0x4 /usr/local/popcorn/aarch64/lib/libc.a(scalbnl.o)
 .text.scalbnl  0x000000000041a890       0xd4 0x4 /usr/local/popcorn/aarch64/lib/libc.a(scalbnl.o)
                0x000000000041a890                scalbnl
 .text          0x000000000041a964        0x0 0x4 /usr/local/popcorn/aarch64/lib/libc.a(madvise.o)
 .text.__madvise
                0x000000000041a964       0x20 0x4 /usr/local/popcorn/aarch64/lib/libc.a(madvise.o)
                0x000000000041a964                madvise
                0x000000000041a964                __madvise
 .text          0x000000000041a984        0x0 0x4 /usr/local/popcorn/aarch64/lib/libc.a(mmap.o)
 .text.dummy    0x000000000041a984        0x4 0x4 /usr/local/popcorn/aarch64/lib/libc.a(mmap.o)
                0x000000000041a984                __vm_wait
 .text.__mmap   0x000000000041a988       0xbc 0x4 /usr/local/popcorn/aarch64/lib/libc.a(mmap.o)
                0x000000000041a988                __mmap
                0x000000000041a988                mmap
                0x000000000041a988                mmap64
 .text          0x000000000041aa44        0x0 0x4 /usr/local/popcorn/aarch64/lib/libc.a(mremap.o)
 .text.dummy    0x000000000041aa44        0x4 0x4 /usr/local/popcorn/aarch64/lib/libc.a(mremap.o)
 .text.__mremap
                0x000000000041aa48      0x104 0x4 /usr/local/popcorn/aarch64/lib/libc.a(mremap.o)
                0x000000000041aa48                mremap
                0x000000000041aa48                __mremap
 .text          0x000000000041ab4c        0x0 0x4 /usr/local/popcorn/aarch64/lib/libc.a(munmap.o)
 .text.dummy    0x000000000041ab4c        0x4 0x4 /usr/local/popcorn/aarch64/lib/libc.a(munmap.o)
 .text.__munmap
                0x000000000041ab50       0x38 0x4 /usr/local/popcorn/aarch64/lib/libc.a(munmap.o)
                0x000000000041ab50                munmap
                0x000000000041ab50                __munmap
 .text          0x000000000041ab88        0x0 0x4 /usr/local/popcorn/aarch64/lib/libc.a(mbrtowc.o)
 .text.mbrtowc  0x000000000041ab88      0x148 0x4 /usr/local/popcorn/aarch64/lib/libc.a(mbrtowc.o)
                0x000000000041ab88                mbrtowc
 .text          0x000000000041acd0        0x0 0x4 /usr/local/popcorn/aarch64/lib/libc.a(mbsinit.o)
 .text.mbsinit  0x000000000041acd0       0x1c 0x4 /usr/local/popcorn/aarch64/lib/libc.a(mbsinit.o)
                0x000000000041acd0                mbsinit
 .text          0x000000000041acec        0x0 0x4 /usr/local/popcorn/aarch64/lib/libc.a(wctomb.o)
 .text.wctomb   0x000000000041acec       0x1c 0x4 /usr/local/popcorn/aarch64/lib/libc.a(wctomb.o)
                0x000000000041acec                wctomb
 .text          0x000000000041ad08        0x0 0x4 /usr/local/popcorn/aarch64/lib/libc.a(__fdopen.o)
 .text.__fdopen
                0x000000000041ad08      0x1a0 0x4 /usr/local/popcorn/aarch64/lib/libc.a(__fdopen.o)
                0x000000000041ad08                fdopen
                0x000000000041ad08                __fdopen
 .text          0x000000000041aea8        0x0 0x4 /usr/local/popcorn/aarch64/lib/libc.a(__fmodeflags.o)
 .text.__fmodeflags
                0x000000000041aea8       0x94 0x4 /usr/local/popcorn/aarch64/lib/libc.a(__fmodeflags.o)
                0x000000000041aea8                __fmodeflags
 .text          0x000000000041af3c        0x0 0x4 /usr/local/popcorn/aarch64/lib/libc.a(__lockfile.o)
 .text.__lockfile
                0x000000000041af3c       0x70 0x4 /usr/local/popcorn/aarch64/lib/libc.a(__lockfile.o)
                0x000000000041af3c                __lockfile
 .text.__unlockfile
                0x000000000041afac       0x4c 0x4 /usr/local/popcorn/aarch64/lib/libc.a(__lockfile.o)
                0x000000000041afac                __unlockfile
 .text          0x000000000041aff8        0x0 0x4 /usr/local/popcorn/aarch64/lib/libc.a(__stdio_close.o)
 .text.dummy    0x000000000041aff8        0x4 0x4 /usr/local/popcorn/aarch64/lib/libc.a(__stdio_close.o)
                0x000000000041aff8                __aio_close
 .text.__stdio_close
                0x000000000041affc       0x28 0x4 /usr/local/popcorn/aarch64/lib/libc.a(__stdio_close.o)
                0x000000000041affc                __stdio_close
 .text          0x000000000041b024        0x0 0x4 /usr/local/popcorn/aarch64/lib/libc.a(__stdio_read.o)
 .text.__stdio_read
                0x000000000041b024       0xe4 0x4 /usr/local/popcorn/aarch64/lib/libc.a(__stdio_read.o)
                0x000000000041b024                __stdio_read
 .text          0x000000000041b108        0x0 0x4 /usr/local/popcorn/aarch64/lib/libc.a(__stdio_seek.o)
 .text.__stdio_seek
                0x000000000041b108       0x14 0x4 /usr/local/popcorn/aarch64/lib/libc.a(__stdio_seek.o)
                0x000000000041b108                __stdio_seek
 .text          0x000000000041b11c        0x0 0x4 /usr/local/popcorn/aarch64/lib/libc.a(__stdio_write.o)
 .text.__stdio_write
                0x000000000041b11c      0x12c 0x4 /usr/local/popcorn/aarch64/lib/libc.a(__stdio_write.o)
                0x000000000041b11c                __stdio_write
 .text          0x000000000041b248        0x0 0x4 /usr/local/popcorn/aarch64/lib/libc.a(__stdout_write.o)
 .text.__stdout_write
                0x000000000041b248       0x68 0x4 /usr/local/popcorn/aarch64/lib/libc.a(__stdout_write.o)
                0x000000000041b248                __stdout_write
 .text          0x000000000041b2b0        0x0 0x4 /usr/local/popcorn/aarch64/lib/libc.a(__uflow.o)
 .text.__uflow  0x000000000041b2b0       0x4c 0x4 /usr/local/popcorn/aarch64/lib/libc.a(__uflow.o)
                0x000000000041b2b0                __uflow
 .text          0x000000000041b2fc        0x0 0x4 /usr/local/popcorn/aarch64/lib/libc.a(fwrite.o)
 .text.__fwritex
                0x000000000041b2fc       0xf8 0x4 /usr/local/popcorn/aarch64/lib/libc.a(fwrite.o)
                0x000000000041b2fc                __fwritex
 .text.fwrite   0x000000000041b3f4       0x9c 0x4 /usr/local/popcorn/aarch64/lib/libc.a(fwrite.o)
                0x000000000041b3f4                fwrite_unlocked
                0x000000000041b3f4                fwrite
 .text          0x000000000041b490        0x0 0x4 /usr/local/popcorn/aarch64/lib/libc.a(ofl_add.o)
 .text.__ofl_add
                0x000000000041b490       0x40 0x4 /usr/local/popcorn/aarch64/lib/libc.a(ofl_add.o)
                0x000000000041b490                __ofl_add
 .text          0x000000000041b4d0        0x0 0x4 /usr/local/popcorn/aarch64/lib/libc.a(vsnprintf.o)
 .text.vsnprintf
                0x000000000041b4d0       0xd0 0x4 /usr/local/popcorn/aarch64/lib/libc.a(vsnprintf.o)
                0x000000000041b4d0                vsnprintf
 .text.sn_write
                0x000000000041b5a0       0xd8 0x4 /usr/local/popcorn/aarch64/lib/libc.a(vsnprintf.o)
 .text          0x000000000041b678        0x0 0x4 /usr/local/popcorn/aarch64/lib/libc.a(memchr.o)
 .text.memchr   0x000000000041b678       0xa8 0x4 /usr/local/popcorn/aarch64/lib/libc.a(memchr.o)
                0x000000000041b678                memchr
 .text          0x000000000041b720        0x0 0x4 /usr/local/popcorn/aarch64/lib/libc.a(memcpy.o)
 .text.memcpy   0x000000000041b720      0x400 0x4 /usr/local/popcorn/aarch64/lib/libc.a(memcpy.o)
                0x000000000041b720                memcpy
 .text          0x000000000041bb20        0x0 0x4 /usr/local/popcorn/aarch64/lib/libc.a(__set_thread_area.o)
 .text.__set_thread_area
                0x000000000041bb20        0xc 0x10 /usr/local/popcorn/aarch64/lib/libc.a(__set_thread_area.o)
                0x000000000041bb20                __set_thread_area
 .text          0x000000000041bb2c        0x0 0x4 /usr/local/popcorn/aarch64/lib/libc.a(clock_gettime.o)
 .text.__clock_gettime
                0x000000000041bb2c       0x70 0x4 /usr/local/popcorn/aarch64/lib/libc.a(clock_gettime.o)
                0x000000000041bb2c                clock_gettime
                0x000000000041bb2c                __clock_gettime
 .text          0x000000000041bb9c        0x0 0x4 /usr/local/popcorn/aarch64/lib/libc.a(platform.o)
 .text.popcorn_getnid
                0x000000000041bb9c       0x34 0x4 /usr/local/popcorn/aarch64/lib/libc.a(platform.o)
                0x000000000041bb9c                popcorn_getnid
 .text.popcorn_getthreadinfo
                0x000000000041bbd0       0x1c 0x4 /usr/local/popcorn/aarch64/lib/libc.a(platform.o)
                0x000000000041bbd0                popcorn_getthreadinfo
 .text.popcorn_getnodeinfo
                0x000000000041bbec       0x90 0x4 /usr/local/popcorn/aarch64/lib/libc.a(platform.o)
                0x000000000041bbec                popcorn_getnodeinfo
 .text          0x000000000041bc7c        0x0 0x4 /usr/local/popcorn/aarch64/lib/libc.a(expand_heap.o)
 .text.__expand_heap
                0x000000000041bc7c      0x1b4 0x4 /usr/local/popcorn/aarch64/lib/libc.a(expand_heap.o)
                0x000000000041bc7c                __expand_heap
 .text.__expand_heap_node
                0x000000000041be30      0x238 0x4 /usr/local/popcorn/aarch64/lib/libc.a(expand_heap.o)
                0x000000000041be30                __expand_heap_node
 .text.popcorn_get_arena
                0x000000000041c068      0x12c 0x4 /usr/local/popcorn/aarch64/lib/libc.a(expand_heap.o)
                0x000000000041c068                popcorn_get_arena
 .text          0x000000000041c194        0x0 0x4 /usr/local/popcorn/aarch64/lib/libc.a(internal.o)
 .text          0x000000000041c194        0x0 0x4 /usr/local/popcorn/aarch64/lib/libc.a(wcrtomb.o)
 .text.wcrtomb  0x000000000041c194      0x108 0x4 /usr/local/popcorn/aarch64/lib/libc.a(wcrtomb.o)
                0x000000000041c194                wcrtomb
 .text          0x000000000041c29c        0x0 0x4 /usr/local/popcorn/aarch64/lib/libc.a(__toread.o)
 .text.__toread
                0x000000000041c29c       0x84 0x4 /usr/local/popcorn/aarch64/lib/libc.a(__toread.o)
                0x000000000041c29c                __toread
 .text.__toread_needs_stdio_exit
                0x000000000041c320        0x4 0x4 /usr/local/popcorn/aarch64/lib/libc.a(__toread.o)
                0x000000000041c320                __toread_needs_stdio_exit
 .text          0x000000000041c324        0x0 0x4 /usr/local/popcorn/aarch64/lib/libc.a(__towrite.o)
 .text.__towrite
                0x000000000041c324       0x4c 0x4 /usr/local/popcorn/aarch64/lib/libc.a(__towrite.o)
                0x000000000041c324                __towrite
 .text.__towrite_needs_stdio_exit
                0x000000000041c370        0x4 0x4 /usr/local/popcorn/aarch64/lib/libc.a(__towrite.o)
                0x000000000041c370                __towrite_needs_stdio_exit
 .text          0x000000000041c374        0x0 0x4 /usr/local/popcorn/aarch64/lib/libc.a(__stdio_exit.o)
 .text.__stdio_exit
                0x000000000041c374       0x48 0x4 /usr/local/popcorn/aarch64/lib/libc.a(__stdio_exit.o)
                0x000000000041c374                __stdio_exit
                0x000000000041c374                __stdio_exit_needed
 .text.close_file
                0x000000000041c3bc       0x74 0x4 /usr/local/popcorn/aarch64/lib/libc.a(__stdio_exit.o)
 .text          0x000000000041c430        0x0 0x4 /usr/local/popcorn/aarch64/lib/libmigrate.a(migrate.o)
 .text.node_available
                0x000000000041c430       0x58 0x4 /usr/local/popcorn/aarch64/lib/libmigrate.a(migrate.o)
                0x000000000041c430                node_available
 .text.current_arch
                0x000000000041c488       0x70 0x4 /usr/local/popcorn/aarch64/lib/libmigrate.a(migrate.o)
                0x000000000041c488                current_arch
 .text.current_nid
                0x000000000041c4f8       0x14 0x4 /usr/local/popcorn/aarch64/lib/libmigrate.a(migrate.o)
                0x000000000041c4f8                current_nid
 .text.__init_nodes_info
                0x000000000041c50c       0x38 0x4 /usr/local/popcorn/aarch64/lib/libmigrate.a(migrate.o)
                0x000000000041c50c                __init_nodes_info
 .text.__migrate_shim_internal
                0x000000000041c544      0x520 0x4 /usr/local/popcorn/aarch64/lib/libmigrate.a(migrate.o)
                0x000000000041c544                __migrate_shim_internal
 .text.get_thread_pointer
                0x000000000041ca64       0xa4 0x4 /usr/local/popcorn/aarch64/lib/libmigrate.a(migrate.o)
 .text.check_migrate
                0x000000000041cb08       0x68 0x4 /usr/local/popcorn/aarch64/lib/libmigrate.a(migrate.o)
                0x000000000041cb08                check_migrate
 .text.do_migrate
                0x000000000041cb70       0x50 0x4 /usr/local/popcorn/aarch64/lib/libmigrate.a(migrate.o)
 .text.migrate  0x000000000041cbc0       0x54 0x4 /usr/local/popcorn/aarch64/lib/libmigrate.a(migrate.o)
                0x000000000041cbc0                migrate
 .text.migrate_schedule
                0x000000000041cc14       0x68 0x4 /usr/local/popcorn/aarch64/lib/libmigrate.a(migrate.o)
                0x000000000041cc14                migrate_schedule
 .text.get_call_site
                0x000000000041cc7c        0x8 0x4 /usr/local/popcorn/aarch64/lib/libmigrate.a(migrate.o)
 .text          0x000000000041cc84        0x0 0x1 /usr/local/popcorn/aarch64/lib/libmigrate.a(migrate_powerpc64.o)
 *fill*         0x000000000041cc84        0xc 1f2003d5
 .text.__migrate_fixup_powerpc64
                0x000000000041cc90        0x0 0x10 /usr/local/popcorn/aarch64/lib/libmigrate.a(migrate_powerpc64.o)
                0x000000000041cc90                __migrate_fixup_powerpc64
 .text          0x000000000041cc90        0x0 0x1 /usr/local/popcorn/aarch64/lib/libmigrate.a(migrate_aarch64.o)
 .text.__migrate_fixup_aarch64
                0x000000000041cc90       0x7c 0x10 /usr/local/popcorn/aarch64/lib/libmigrate.a(migrate_aarch64.o)
                0x000000000041cc90                __migrate_fixup_aarch64
 .text          0x000000000041cd0c        0x0 0x1 /usr/local/popcorn/aarch64/lib/libmigrate.a(migrate_x86_64.o)
 .text.__migrate_fixup_x86_64
                0x000000000041cd0c        0x0 0x1 /usr/local/popcorn/aarch64/lib/libmigrate.a(migrate_x86_64.o)
                0x000000000041cd0c                __migrate_fixup_x86_64
 .text          0x000000000041cd0c        0x0 0x1 /usr/local/popcorn/aarch64/lib/libmigrate.a(migrate_riscv64.o)
 *fill*         0x000000000041cd0c        0x4 1f2003d5
 .text.__migrate_fixup_riscv64
                0x000000000041cd10        0x0 0x10 /usr/local/popcorn/aarch64/lib/libmigrate.a(migrate_riscv64.o)
                0x000000000041cd10                __migrate_fixup_riscv64
 .text          0x000000000041cd10        0x0 0x4 /usr/local/popcorn/aarch64/lib/libmigrate.a(mapping.o)
 .text.set_default_node
                0x000000000041cd10       0x20 0x4 /usr/local/popcorn/aarch64/lib/libmigrate.a(mapping.o)
                0x000000000041cd10                set_default_node
 .text.cleanup  0x000000000041cd30       0xc4 0x4 /usr/local/popcorn/aarch64/lib/libmigrate.a(mapping.o)
 .text.region_compare
                0x000000000041cdf4       0x74 0x4 /usr/local/popcorn/aarch64/lib/libmigrate.a(mapping.o)
                0x000000000041cdf4                region_compare
 .text.read_mapping_schedule
                0x000000000041ce68      0x284 0x4 /usr/local/popcorn/aarch64/lib/libmigrate.a(mapping.o)
 .text.region_find
                0x000000000041d0ec       0x70 0x4 /usr/local/popcorn/aarch64/lib/libmigrate.a(mapping.o)
                0x000000000041d0ec                region_find
 .text.get_node_mapping
                0x000000000041d15c       0xc4 0x4 /usr/local/popcorn/aarch64/lib/libmigrate.a(mapping.o)
                0x000000000041d15c                get_node_mapping
 .text          0x000000000041d220        0x0 0x4 /usr/local/popcorn/aarch64/lib/libstack-transform.a(userspace.o)
 .text.__st_userspace_ctor
                0x000000000041d220      0x3d4 0x4 /usr/local/popcorn/aarch64/lib/libstack-transform.a(userspace.o)
                0x000000000041d220                __st_userspace_ctor
 .text.__st_userspace_dtor
                0x000000000041d5f4       0xc4 0x4 /usr/local/popcorn/aarch64/lib/libstack-transform.a(userspace.o)
                0x000000000041d5f4                __st_userspace_dtor
 .text.get_stack_bounds
                0x000000000041d6b8       0xf0 0x4 /usr/local/popcorn/aarch64/lib/libstack-transform.a(userspace.o)
                0x000000000041d6b8                get_stack_bounds
 .text.st_userspace_rewrite
                0x000000000041d7a8      0x180 0x4 /usr/local/popcorn/aarch64/lib/libstack-transform.a(userspace.o)
                0x000000000041d7a8                st_userspace_rewrite
 .text          0x000000000041d928        0x0 0x4 /usr/local/popcorn/aarch64/lib/libstack-transform.a(init.o)
 .text.__st_ctor
                0x000000000041d928        0x4 0x4 /usr/local/popcorn/aarch64/lib/libstack-transform.a(init.o)
 .text.__st_dtor
                0x000000000041d92c        0x4 0x4 /usr/local/popcorn/aarch64/lib/libstack-transform.a(init.o)
                0x000000000041d92c                __st_dtor
 .text.st_init  0x000000000041d930      0x1e8 0x4 /usr/local/popcorn/aarch64/lib/libstack-transform.a(init.o)
                0x000000000041d930                st_init
 .text.st_destroy
                0x000000000041db18       0x38 0x4 /usr/local/popcorn/aarch64/lib/libstack-transform.a(init.o)
                0x000000000041db18                st_destroy
 .text          0x000000000041db50        0x0 0x4 /usr/local/popcorn/aarch64/lib/libstack-transform.a(rewrite.o)
 .text.st_rewrite_stack
                0x000000000041db50      0x6d4 0x4 /usr/local/popcorn/aarch64/lib/libstack-transform.a(rewrite.o)
                0x000000000041db50                st_rewrite_stack
 .text.rewrite_frame
                0x000000000041e224      0x498 0x4 /usr/local/popcorn/aarch64/lib/libstack-transform.a(rewrite.o)
 .text.st_rewrite_ondemand
                0x000000000041e6bc       0x2c 0x4 /usr/local/popcorn/aarch64/lib/libstack-transform.a(rewrite.o)
                0x000000000041e6bc                st_rewrite_ondemand
 .text.rewrite_val
                0x000000000041e6e8      0x308 0x4 /usr/local/popcorn/aarch64/lib/libstack-transform.a(rewrite.o)
 .text          0x000000000041e9f0        0x0 0x4 /usr/local/popcorn/aarch64/lib/libstack-transform.a(unwind.o)
 .text.first_frame
                0x000000000041e9f0        0xc 0x4 /usr/local/popcorn/aarch64/lib/libstack-transform.a(unwind.o)
                0x000000000041e9f0                first_frame
 .text.calculate_cfa
                0x000000000041e9fc       0x3c 0x4 /usr/local/popcorn/aarch64/lib/libstack-transform.a(unwind.o)
                0x000000000041e9fc                calculate_cfa
 .text.bootstrap_first_frame
                0x000000000041ea38       0x34 0x4 /usr/local/popcorn/aarch64/lib/libstack-transform.a(unwind.o)
                0x000000000041ea38                bootstrap_first_frame
 .text.bootstrap_first_frame_funcentry
                0x000000000041ea6c       0x64 0x4 /usr/local/popcorn/aarch64/lib/libstack-transform.a(unwind.o)
                0x000000000041ea6c                bootstrap_first_frame_funcentry
 .text.pop_frame
                0x000000000041ead0      0x234 0x4 /usr/local/popcorn/aarch64/lib/libstack-transform.a(unwind.o)
                0x000000000041ead0                pop_frame
 .text.pop_frame_funcentry
                0x000000000041ed04      0x18c 0x4 /usr/local/popcorn/aarch64/lib/libstack-transform.a(unwind.o)
                0x000000000041ed04                pop_frame_funcentry
 .text.get_register_save_loc
                0x000000000041ee90       0x84 0x4 /usr/local/popcorn/aarch64/lib/libstack-transform.a(unwind.o)
                0x000000000041ee90                get_register_save_loc
 .text.clear_activation
                0x000000000041ef14       0x4c 0x4 /usr/local/popcorn/aarch64/lib/libstack-transform.a(unwind.o)
                0x000000000041ef14                clear_activation
 .text          0x000000000041ef60        0x0 0x4 /usr/local/popcorn/aarch64/lib/libstack-transform.a(util.o)
 .text.arch_name
                0x000000000041ef60       0x68 0x4 /usr/local/popcorn/aarch64/lib/libstack-transform.a(util.o)
                0x000000000041ef60                arch_name
 .text.get_regops
                0x000000000041efc8       0x64 0x4 /usr/local/popcorn/aarch64/lib/libstack-transform.a(util.o)
                0x000000000041efc8                get_regops
 .text.get_properties
                0x000000000041f02c       0x64 0x4 /usr/local/popcorn/aarch64/lib/libstack-transform.a(util.o)
                0x000000000041f02c                get_properties
 .text.get_section
                0x000000000041f090       0xbc 0x4 /usr/local/popcorn/aarch64/lib/libstack-transform.a(util.o)
                0x000000000041f090                get_section
 .text.get_num_entries
                0x000000000041f14c       0x60 0x4 /usr/local/popcorn/aarch64/lib/libstack-transform.a(util.o)
                0x000000000041f14c                get_num_entries
 .text.get_section_data
                0x000000000041f1ac       0x28 0x4 /usr/local/popcorn/aarch64/lib/libstack-transform.a(util.o)
                0x000000000041f1ac                get_section_data
 .text.get_site_by_addr
                0x000000000041f1d4       0x80 0x4 /usr/local/popcorn/aarch64/lib/libstack-transform.a(util.o)
                0x000000000041f1d4                get_site_by_addr
 .text.get_site_by_id
                0x000000000041f254       0x78 0x4 /usr/local/popcorn/aarch64/lib/libstack-transform.a(util.o)
                0x000000000041f254                get_site_by_id
 .text.get_unwind_offset_by_addr
                0x000000000041f2cc       0x94 0x4 /usr/local/popcorn/aarch64/lib/libstack-transform.a(util.o)
                0x000000000041f2cc                get_unwind_offset_by_addr
 .text.get_function_address
                0x000000000041f360       0x88 0x4 /usr/local/popcorn/aarch64/lib/libstack-transform.a(util.o)
                0x000000000041f360                get_function_address
 .text          0x000000000041f3e8        0x0 0x4 /usr/local/popcorn/aarch64/lib/libstack-transform.a(properties.o)
 .text.align_sp_aarch64
                0x000000000041f3e8        0xc 0x4 /usr/local/popcorn/aarch64/lib/libstack-transform.a(properties.o)
 .text.is_callee_saved_aarch64
                0x000000000041f3f4       0x2c 0x4 /usr/local/popcorn/aarch64/lib/libstack-transform.a(properties.o)
 .text.callee_reg_size_aarch64
                0x000000000041f420       0x5c 0x4 /usr/local/popcorn/aarch64/lib/libstack-transform.a(properties.o)
 .text          0x000000000041f47c        0x0 0x4 /usr/local/popcorn/aarch64/lib/libstack-transform.a(regs.o)
 .text.regset_default_aarch64
                0x000000000041f47c        0xc 0x4 /usr/local/popcorn/aarch64/lib/libstack-transform.a(regs.o)
 .text.regset_init_aarch64
                0x000000000041f488       0x2c 0x4 /usr/local/popcorn/aarch64/lib/libstack-transform.a(regs.o)
 .text.regset_free_aarch64
                0x000000000041f4b4        0x4 0x4 /usr/local/popcorn/aarch64/lib/libstack-transform.a(regs.o)
 .text.regset_clone_aarch64
                0x000000000041f4b8       0x14 0x4 /usr/local/popcorn/aarch64/lib/libstack-transform.a(regs.o)
 .text.regset_copyin_aarch64
                0x000000000041f4cc        0x8 0x4 /usr/local/popcorn/aarch64/lib/libstack-transform.a(regs.o)
 .text.regset_copyout_aarch64
                0x000000000041f4d4       0x14 0x4 /usr/local/popcorn/aarch64/lib/libstack-transform.a(regs.o)
 .text.pc_aarch64
                0x000000000041f4e8        0x8 0x4 /usr/local/popcorn/aarch64/lib/libstack-transform.a(regs.o)
 .text.sp_aarch64
                0x000000000041f4f0        0x8 0x4 /usr/local/popcorn/aarch64/lib/libstack-transform.a(regs.o)
 .text.fbp_aarch64
                0x000000000041f4f8        0x8 0x4 /usr/local/popcorn/aarch64/lib/libstack-transform.a(regs.o)
 .text.ra_reg_aarch64
                0x000000000041f500        0x8 0x4 /usr/local/popcorn/aarch64/lib/libstack-transform.a(regs.o)
 .text.set_pc_aarch64
                0x000000000041f508        0x8 0x4 /usr/local/popcorn/aarch64/lib/libstack-transform.a(regs.o)
 .text.set_sp_aarch64
                0x000000000041f510        0x8 0x4 /usr/local/popcorn/aarch64/lib/libstack-transform.a(regs.o)
 .text.set_fbp_aarch64
                0x000000000041f518        0x8 0x4 /usr/local/popcorn/aarch64/lib/libstack-transform.a(regs.o)
 .text.set_ra_reg_aarch64
                0x000000000041f520        0x8 0x4 /usr/local/popcorn/aarch64/lib/libstack-transform.a(regs.o)
 .text.setup_fbp_aarch64
                0x000000000041f528        0xc 0x4 /usr/local/popcorn/aarch64/lib/libstack-transform.a(regs.o)
 .text.reg_size_aarch64
                0x000000000041f534       0x54 0x4 /usr/local/popcorn/aarch64/lib/libstack-transform.a(regs.o)
 .text.reg_aarch64
                0x000000000041f588      0x248 0x4 /usr/local/popcorn/aarch64/lib/libstack-transform.a(regs.o)
 .text          0x000000000041f7d0        0x0 0x4 /usr/local/popcorn/aarch64/lib/libstack-transform.a(properties.o)
 .text.align_sp_powerpc64
                0x000000000041f7d0       0x14 0x4 /usr/local/popcorn/aarch64/lib/libstack-transform.a(properties.o)
 .text.is_callee_saved_powerpc64
                0x000000000041f7e4       0x38 0x4 /usr/local/popcorn/aarch64/lib/libstack-transform.a(properties.o)
 .text.callee_reg_size_powerpc64
                0x000000000041f81c       0x5c 0x4 /usr/local/popcorn/aarch64/lib/libstack-transform.a(properties.o)
 .text          0x000000000041f878        0x0 0x4 /usr/local/popcorn/aarch64/lib/libstack-transform.a(regs.o)
 .text.regset_default_powerpc64
                0x000000000041f878        0xc 0x4 /usr/local/popcorn/aarch64/lib/libstack-transform.a(regs.o)
 .text.regset_init_powerpc64
                0x000000000041f884       0x2c 0x4 /usr/local/popcorn/aarch64/lib/libstack-transform.a(regs.o)
 .text.regset_free_powerpc64
                0x000000000041f8b0        0x4 0x4 /usr/local/popcorn/aarch64/lib/libstack-transform.a(regs.o)
 .text.regset_clone_powerpc64
                0x000000000041f8b4       0x14 0x4 /usr/local/popcorn/aarch64/lib/libstack-transform.a(regs.o)
 .text.regset_copyin_powerpc64
                0x000000000041f8c8        0x8 0x4 /usr/local/popcorn/aarch64/lib/libstack-transform.a(regs.o)
 .text.regset_copyout_powerpc64
                0x000000000041f8d0       0x14 0x4 /usr/local/popcorn/aarch64/lib/libstack-transform.a(regs.o)
 .text.pc_powerpc64
                0x000000000041f8e4        0x8 0x4 /usr/local/popcorn/aarch64/lib/libstack-transform.a(regs.o)
 .text.sp_powerpc64
                0x000000000041f8ec        0x8 0x4 /usr/local/popcorn/aarch64/lib/libstack-transform.a(regs.o)
 .text.fbp_powerpc64
                0x000000000041f8f4        0x8 0x4 /usr/local/popcorn/aarch64/lib/libstack-transform.a(regs.o)
 .text.ra_reg_powerpc64
                0x000000000041f8fc        0x8 0x4 /usr/local/popcorn/aarch64/lib/libstack-transform.a(regs.o)
 .text.set_pc_powerpc64
                0x000000000041f904        0x8 0x4 /usr/local/popcorn/aarch64/lib/libstack-transform.a(regs.o)
 .text.set_sp_powerpc64
                0x000000000041f90c        0x8 0x4 /usr/local/popcorn/aarch64/lib/libstack-transform.a(regs.o)
 .text.set_fbp_powerpc64
                0x000000000041f914        0x8 0x4 /usr/local/popcorn/aarch64/lib/libstack-transform.a(regs.o)
 .text.set_ra_reg_powerpc64
                0x000000000041f91c        0x8 0x4 /usr/local/popcorn/aarch64/lib/libstack-transform.a(regs.o)
 .text.setup_fbp_powerpc64
                0x000000000041f924        0xc 0x4 /usr/local/popcorn/aarch64/lib/libstack-transform.a(regs.o)
 .text.reg_size_powerpc64
                0x000000000041f930       0x60 0x4 /usr/local/popcorn/aarch64/lib/libstack-transform.a(regs.o)
 .text.reg_powerpc64
                0x000000000041f990      0x360 0x4 /usr/local/popcorn/aarch64/lib/libstack-transform.a(regs.o)
 .text          0x000000000041fcf0        0x0 0x4 /usr/local/popcorn/aarch64/lib/libstack-transform.a(properties.o)
 .text.align_sp_riscv64
                0x000000000041fcf0        0xc 0x4 /usr/local/popcorn/aarch64/lib/libstack-transform.a(properties.o)
 .text.is_callee_saved_riscv64
                0x000000000041fcfc       0x30 0x4 /usr/local/popcorn/aarch64/lib/libstack-transform.a(properties.o)
 .text.callee_reg_size_riscv64
                0x000000000041fd2c       0x60 0x4 /usr/local/popcorn/aarch64/lib/libstack-transform.a(properties.o)
 .text          0x000000000041fd8c        0x0 0x4 /usr/local/popcorn/aarch64/lib/libstack-transform.a(regs.o)
 .text.regset_default_riscv64
                0x000000000041fd8c        0xc 0x4 /usr/local/popcorn/aarch64/lib/libstack-transform.a(regs.o)
 .text.regset_init_riscv64
                0x000000000041fd98       0x2c 0x4 /usr/local/popcorn/aarch64/lib/libstack-transform.a(regs.o)
 .text.regset_free_riscv64
                0x000000000041fdc4        0x4 0x4 /usr/local/popcorn/aarch64/lib/libstack-transform.a(regs.o)
 .text.regset_clone_riscv64
                0x000000000041fdc8       0x14 0x4 /usr/local/popcorn/aarch64/lib/libstack-transform.a(regs.o)
 .text.regset_copyin_riscv64
                0x000000000041fddc        0x8 0x4 /usr/local/popcorn/aarch64/lib/libstack-transform.a(regs.o)
 .text.regset_copyout_riscv64
                0x000000000041fde4       0x14 0x4 /usr/local/popcorn/aarch64/lib/libstack-transform.a(regs.o)
 .text.pc_riscv64
                0x000000000041fdf8        0x8 0x4 /usr/local/popcorn/aarch64/lib/libstack-transform.a(regs.o)
 .text.sp_riscv64
                0x000000000041fe00        0x8 0x4 /usr/local/popcorn/aarch64/lib/libstack-transform.a(regs.o)
 .text.fbp_riscv64
                0x000000000041fe08        0x8 0x4 /usr/local/popcorn/aarch64/lib/libstack-transform.a(regs.o)
 .text.ra_reg_riscv64
                0x000000000041fe10        0x8 0x4 /usr/local/popcorn/aarch64/lib/libstack-transform.a(regs.o)
 .text.set_pc_riscv64
                0x000000000041fe18        0x8 0x4 /usr/local/popcorn/aarch64/lib/libstack-transform.a(regs.o)
 .text.set_sp_riscv64
                0x000000000041fe20        0x8 0x4 /usr/local/popcorn/aarch64/lib/libstack-transform.a(regs.o)
 .text.set_fbp_riscv64
                0x000000000041fe28        0x8 0x4 /usr/local/popcorn/aarch64/lib/libstack-transform.a(regs.o)
 .text.set_ra_reg_riscv64
                0x000000000041fe30        0x8 0x4 /usr/local/popcorn/aarch64/lib/libstack-transform.a(regs.o)
 .text.setup_fbp_riscv64
                0x000000000041fe38        0xc 0x4 /usr/local/popcorn/aarch64/lib/libstack-transform.a(regs.o)
 .text.reg_size_riscv64
                0x000000000041fe44       0x40 0x4 /usr/local/popcorn/aarch64/lib/libstack-transform.a(regs.o)
 .text.reg_riscv64
                0x000000000041fe84       0x40 0x4 /usr/local/popcorn/aarch64/lib/libstack-transform.a(regs.o)
 .text          0x000000000041fec4        0x0 0x4 /usr/local/popcorn/aarch64/lib/libstack-transform.a(properties.o)
 .text.align_sp_x86_64
                0x000000000041fec4       0x10 0x4 /usr/local/popcorn/aarch64/lib/libstack-transform.a(properties.o)
 .text.is_callee_saved_x86_64
                0x000000000041fed4       0x28 0x4 /usr/local/popcorn/aarch64/lib/libstack-transform.a(properties.o)
 .text.callee_reg_size_x86_64
                0x000000000041fefc       0x54 0x4 /usr/local/popcorn/aarch64/lib/libstack-transform.a(properties.o)
 .text          0x000000000041ff50        0x0 0x4 /usr/local/popcorn/aarch64/lib/libstack-transform.a(regs.o)
 .text.regset_default_x86_64
                0x000000000041ff50        0xc 0x4 /usr/local/popcorn/aarch64/lib/libstack-transform.a(regs.o)
 .text.regset_init_x86_64
                0x000000000041ff5c       0x2c 0x4 /usr/local/popcorn/aarch64/lib/libstack-transform.a(regs.o)
 .text.regset_free_x86_64
                0x000000000041ff88        0x4 0x4 /usr/local/popcorn/aarch64/lib/libstack-transform.a(regs.o)
 .text.regset_clone_x86_64
                0x000000000041ff8c       0x14 0x4 /usr/local/popcorn/aarch64/lib/libstack-transform.a(regs.o)
 .text.regset_copyin_x86_64
                0x000000000041ffa0        0x8 0x4 /usr/local/popcorn/aarch64/lib/libstack-transform.a(regs.o)
 .text.regset_copyout_x86_64
                0x000000000041ffa8       0x14 0x4 /usr/local/popcorn/aarch64/lib/libstack-transform.a(regs.o)
 .text.pc_x86_64
                0x000000000041ffbc        0x8 0x4 /usr/local/popcorn/aarch64/lib/libstack-transform.a(regs.o)
 .text.sp_x86_64
                0x000000000041ffc4        0x8 0x4 /usr/local/popcorn/aarch64/lib/libstack-transform.a(regs.o)
 .text.fbp_x86_64
                0x000000000041ffcc        0x8 0x4 /usr/local/popcorn/aarch64/lib/libstack-transform.a(regs.o)
 .text.ra_reg_x86_64
                0x000000000041ffd4       0x2c 0x4 /usr/local/popcorn/aarch64/lib/libstack-transform.a(regs.o)
 .text.set_pc_x86_64
                0x0000000000420000        0x8 0x4 /usr/local/popcorn/aarch64/lib/libstack-transform.a(regs.o)
 .text.set_sp_x86_64
                0x0000000000420008        0x8 0x4 /usr/local/popcorn/aarch64/lib/libstack-transform.a(regs.o)
 .text.set_fbp_x86_64
                0x0000000000420010        0x8 0x4 /usr/local/popcorn/aarch64/lib/libstack-transform.a(regs.o)
 .text.set_ra_reg_x86_64
                0x0000000000420018       0x2c 0x4 /usr/local/popcorn/aarch64/lib/libstack-transform.a(regs.o)
 .text.setup_fbp_x86_64
                0x0000000000420044        0xc 0x4 /usr/local/popcorn/aarch64/lib/libstack-transform.a(regs.o)
 .text.reg_size_x86_64
                0x0000000000420050       0x54 0x4 /usr/local/popcorn/aarch64/lib/libstack-transform.a(regs.o)
 .text.reg_x86_64
                0x00000000004200a4      0x150 0x4 /usr/local/popcorn/aarch64/lib/libstack-transform.a(regs.o)
 .text          0x00000000004201f4        0x0 0x4 /usr/local/popcorn/aarch64/lib/libstack-transform.a(data.o)
 .text.put_val  0x00000000004201f4      0x290 0x4 /usr/local/popcorn/aarch64/lib/libstack-transform.a(data.o)
                0x00000000004201f4                put_val
 .text.get_dest_loc
                0x0000000000420484       0xd4 0x4 /usr/local/popcorn/aarch64/lib/libstack-transform.a(data.o)
 .text.put_val_arch
                0x0000000000420558      0x460 0x4 /usr/local/popcorn/aarch64/lib/libstack-transform.a(data.o)
                0x0000000000420558                put_val_arch
 .text.put_val_data
                0x00000000004209b8      0x114 0x4 /usr/local/popcorn/aarch64/lib/libstack-transform.a(data.o)
                0x00000000004209b8                put_val_data
 .text.points_to_stack
                0x0000000000420acc      0x170 0x4 /usr/local/popcorn/aarch64/lib/libstack-transform.a(data.o)
                0x0000000000420acc                points_to_stack
 .text.points_to_data
                0x0000000000420c3c      0x1b8 0x4 /usr/local/popcorn/aarch64/lib/libstack-transform.a(data.o)
                0x0000000000420c3c                points_to_data
 .text.set_return_address
                0x0000000000420df4       0x24 0x4 /usr/local/popcorn/aarch64/lib/libstack-transform.a(data.o)
                0x0000000000420df4                set_return_address
 .text.set_return_address_funcentry
                0x0000000000420e18       0x48 0x4 /usr/local/popcorn/aarch64/lib/libstack-transform.a(data.o)
                0x0000000000420e18                set_return_address_funcentry
 .text.get_savedfbp_loc
                0x0000000000420e60       0x90 0x4 /usr/local/popcorn/aarch64/lib/libstack-transform.a(data.o)
                0x0000000000420e60                get_savedfbp_loc
 .text          0x0000000000420ef0        0x0 0x4 /usr/local/popcorn/aarch64/lib/libelf.a(begin.o)
 .text.elf_begin
                0x0000000000420ef0      0xd04 0x4 /usr/local/popcorn/aarch64/lib/libelf.a(begin.o)
                0x0000000000420ef0                elf_begin
 .text._elf_check_type
                0x0000000000421bf4      0x2cc 0x4 /usr/local/popcorn/aarch64/lib/libelf.a(begin.o)
 .text.elf_memory
                0x0000000000421ec0       0xd0 0x4 /usr/local/popcorn/aarch64/lib/libelf.a(begin.o)
                0x0000000000421ec0                elf_memory
 .text.gelf_getclass
                0x0000000000421f90       0x28 0x4 /usr/local/popcorn/aarch64/lib/libelf.a(begin.o)
                0x0000000000421f90                gelf_getclass
 .text          0x0000000000421fb8        0x0 0x4 /usr/local/popcorn/aarch64/lib/libelf.a(end.o)
 .text.elf_end  0x0000000000421fb8      0x1d4 0x4 /usr/local/popcorn/aarch64/lib/libelf.a(end.o)
                0x0000000000421fb8                elf_end
 .text          0x000000000042218c        0x0 0x4 /usr/local/popcorn/aarch64/lib/libelf.a(getdata.o)
 .text.elf_getdata
                0x000000000042218c      0x258 0x4 /usr/local/popcorn/aarch64/lib/libelf.a(getdata.o)
                0x000000000042218c                elf_getdata
 .text          0x00000000004223e4        0x0 0x4 /usr/local/popcorn/aarch64/lib/libelf.a(getident.o)
 .text.elf_getident
                0x00000000004223e4       0x94 0x4 /usr/local/popcorn/aarch64/lib/libelf.a(getident.o)
                0x00000000004223e4                elf_getident
 .text          0x0000000000422478        0x0 0x4 /usr/local/popcorn/aarch64/lib/libelf.a(nextscn.o)
 .text.elf_nextscn
                0x0000000000422478       0xd4 0x4 /usr/local/popcorn/aarch64/lib/libelf.a(nextscn.o)
                0x0000000000422478                elf_nextscn
 .text          0x000000000042254c        0x0 0x4 /usr/local/popcorn/aarch64/lib/libelf.a(strptr.o)
 .text.elf_strptr
                0x000000000042254c      0x19c 0x4 /usr/local/popcorn/aarch64/lib/libelf.a(strptr.o)
                0x000000000042254c                elf_strptr
 .text          0x00000000004226e8        0x0 0x4 /usr/local/popcorn/aarch64/lib/libelf.a(version.o)
 .text.elf_version
                0x00000000004226e8       0x90 0x4 /usr/local/popcorn/aarch64/lib/libelf.a(version.o)
                0x00000000004226e8                elf_version
 .text          0x0000000000422778        0x0 0x4 /usr/local/popcorn/aarch64/lib/libelf.a(32.getehdr.o)
 .text._elf_getehdr
                0x0000000000422778       0x94 0x4 /usr/local/popcorn/aarch64/lib/libelf.a(32.getehdr.o)
                0x0000000000422778                _elf_getehdr
 .text.elf32_getehdr
                0x000000000042280c       0x94 0x4 /usr/local/popcorn/aarch64/lib/libelf.a(32.getehdr.o)
                0x000000000042280c                elf32_getehdr
 .text.elf64_getehdr
                0x00000000004228a0       0x94 0x4 /usr/local/popcorn/aarch64/lib/libelf.a(32.getehdr.o)
                0x00000000004228a0                elf64_getehdr
 .text          0x0000000000422934        0x0 0x4 /usr/local/popcorn/aarch64/lib/libelf.a(32.xlatetof.o)
 .text._elf32_xltsize
                0x0000000000422934       0xac 0x4 /usr/local/popcorn/aarch64/lib/libelf.a(32.xlatetof.o)
                0x0000000000422934                _elf32_xltsize
 .text.elf32_xlatetom
                0x00000000004229e0      0x130 0x4 /usr/local/popcorn/aarch64/lib/libelf.a(32.xlatetof.o)
                0x00000000004229e0                elf32_xlatetom
 .text.elf32_xlatetof
                0x0000000000422b10      0x130 0x4 /usr/local/popcorn/aarch64/lib/libelf.a(32.xlatetof.o)
                0x0000000000422b10                elf32_xlatetof
 .text.byte_copy
                0x0000000000422c40       0xf0 0x4 /usr/local/popcorn/aarch64/lib/libelf.a(32.xlatetof.o)
 .text.addr_32L__tom
                0x0000000000422d30       0x2c 0x4 /usr/local/popcorn/aarch64/lib/libelf.a(32.xlatetof.o)
 .text.addr_32L__tof
                0x0000000000422d5c       0x48 0x4 /usr/local/popcorn/aarch64/lib/libelf.a(32.xlatetof.o)
 .text.dyn_32L11_tom
                0x0000000000422da4       0x38 0x4 /usr/local/popcorn/aarch64/lib/libelf.a(32.xlatetof.o)
 .text.dyn_32L11_tof
                0x0000000000422ddc       0x70 0x4 /usr/local/popcorn/aarch64/lib/libelf.a(32.xlatetof.o)
 .text.ehdr_32L11_tom
                0x0000000000422e4c       0xe0 0x4 /usr/local/popcorn/aarch64/lib/libelf.a(32.xlatetof.o)
 .text.ehdr_32L11_tof
                0x0000000000422f2c      0x1ac 0x4 /usr/local/popcorn/aarch64/lib/libelf.a(32.xlatetof.o)
 .text.half_32L__tom
                0x00000000004230d8       0xbc 0x4 /usr/local/popcorn/aarch64/lib/libelf.a(32.xlatetof.o)
 .text.half_32L__tof
                0x0000000000423194       0xbc 0x4 /usr/local/popcorn/aarch64/lib/libelf.a(32.xlatetof.o)
 .text.off_32L__tom
                0x0000000000423250       0x2c 0x4 /usr/local/popcorn/aarch64/lib/libelf.a(32.xlatetof.o)
 .text.off_32L__tof
                0x000000000042327c       0x48 0x4 /usr/local/popcorn/aarch64/lib/libelf.a(32.xlatetof.o)
 .text.phdr_32L11_tom
                0x00000000004232c4       0x68 0x4 /usr/local/popcorn/aarch64/lib/libelf.a(32.xlatetof.o)
 .text.phdr_32L11_tof
                0x000000000042332c      0x148 0x4 /usr/local/popcorn/aarch64/lib/libelf.a(32.xlatetof.o)
 .text.rela_32L11_tom
                0x0000000000423474       0x5c 0x4 /usr/local/popcorn/aarch64/lib/libelf.a(32.xlatetof.o)
 .text.rela_32L11_tof
                0x00000000004234d0       0xb0 0x4 /usr/local/popcorn/aarch64/lib/libelf.a(32.xlatetof.o)
 .text.rel_32L11_tom
                0x0000000000423580       0x38 0x4 /usr/local/popcorn/aarch64/lib/libelf.a(32.xlatetof.o)
 .text.rel_32L11_tof
                0x00000000004235b8       0x70 0x4 /usr/local/popcorn/aarch64/lib/libelf.a(32.xlatetof.o)
 .text.shdr_32L11_tom
                0x0000000000423628       0x94 0x4 /usr/local/popcorn/aarch64/lib/libelf.a(32.xlatetof.o)
 .text.shdr_32L11_tof
                0x00000000004236bc      0x1ac 0x4 /usr/local/popcorn/aarch64/lib/libelf.a(32.xlatetof.o)
 .text.sword_32L__tom
                0x0000000000423868       0x2c 0x4 /usr/local/popcorn/aarch64/lib/libelf.a(32.xlatetof.o)
 .text.sword_32L__tof
                0x0000000000423894       0x48 0x4 /usr/local/popcorn/aarch64/lib/libelf.a(32.xlatetof.o)
 .text.sym_32L11_tom
                0x00000000004238dc       0x58 0x4 /usr/local/popcorn/aarch64/lib/libelf.a(32.xlatetof.o)
 .text.sym_32L11_tof
                0x0000000000423934       0xb4 0x4 /usr/local/popcorn/aarch64/lib/libelf.a(32.xlatetof.o)
 .text.word_32L__tom
                0x00000000004239e8       0x2c 0x4 /usr/local/popcorn/aarch64/lib/libelf.a(32.xlatetof.o)
 .text.word_32L__tof
                0x0000000000423a14       0x48 0x4 /usr/local/popcorn/aarch64/lib/libelf.a(32.xlatetof.o)
 .text.addr_32M__tom
                0x0000000000423a5c       0x28 0x4 /usr/local/popcorn/aarch64/lib/libelf.a(32.xlatetof.o)
 .text.addr_32M__tof
                0x0000000000423a84       0x44 0x4 /usr/local/popcorn/aarch64/lib/libelf.a(32.xlatetof.o)
 .text.dyn_32M11_tom
                0x0000000000423ac8       0x3c 0x4 /usr/local/popcorn/aarch64/lib/libelf.a(32.xlatetof.o)
 .text.dyn_32M11_tof
                0x0000000000423b04       0x6c 0x4 /usr/local/popcorn/aarch64/lib/libelf.a(32.xlatetof.o)
 .text.ehdr_32M11_tom
                0x0000000000423b70      0x134 0x4 /usr/local/popcorn/aarch64/lib/libelf.a(32.xlatetof.o)
 .text.ehdr_32M11_tof
                0x0000000000423ca4      0x1ac 0x4 /usr/local/popcorn/aarch64/lib/libelf.a(32.xlatetof.o)
 .text.half_32M__tom
                0x0000000000423e50       0xbc 0x4 /usr/local/popcorn/aarch64/lib/libelf.a(32.xlatetof.o)
 .text.half_32M__tof
                0x0000000000423f0c       0xb8 0x4 /usr/local/popcorn/aarch64/lib/libelf.a(32.xlatetof.o)
 .text.off_32M__tom
                0x0000000000423fc4       0x28 0x4 /usr/local/popcorn/aarch64/lib/libelf.a(32.xlatetof.o)
 .text.off_32M__tof
                0x0000000000423fec       0x44 0x4 /usr/local/popcorn/aarch64/lib/libelf.a(32.xlatetof.o)
 .text.phdr_32M11_tom
                0x0000000000424030       0x84 0x4 /usr/local/popcorn/aarch64/lib/libelf.a(32.xlatetof.o)
 .text.phdr_32M11_tof
                0x00000000004240b4      0x144 0x4 /usr/local/popcorn/aarch64/lib/libelf.a(32.xlatetof.o)
 .text.rela_32M11_tom
                0x00000000004241f8       0x64 0x4 /usr/local/popcorn/aarch64/lib/libelf.a(32.xlatetof.o)
 .text.rela_32M11_tof
                0x000000000042425c       0xac 0x4 /usr/local/popcorn/aarch64/lib/libelf.a(32.xlatetof.o)
 .text.rel_32M11_tom
                0x0000000000424308       0x3c 0x4 /usr/local/popcorn/aarch64/lib/libelf.a(32.xlatetof.o)
 .text.rel_32M11_tof
                0x0000000000424344       0x6c 0x4 /usr/local/popcorn/aarch64/lib/libelf.a(32.xlatetof.o)
 .text.shdr_32M11_tom
                0x00000000004243b0       0xb8 0x4 /usr/local/popcorn/aarch64/lib/libelf.a(32.xlatetof.o)
 .text.shdr_32M11_tof
                0x0000000000424468      0x1a8 0x4 /usr/local/popcorn/aarch64/lib/libelf.a(32.xlatetof.o)
 .text.sword_32M__tom
                0x0000000000424610       0x28 0x4 /usr/local/popcorn/aarch64/lib/libelf.a(32.xlatetof.o)
 .text.sword_32M__tof
                0x0000000000424638       0x44 0x4 /usr/local/popcorn/aarch64/lib/libelf.a(32.xlatetof.o)
 .text.sym_32M11_tom
                0x000000000042467c       0x68 0x4 /usr/local/popcorn/aarch64/lib/libelf.a(32.xlatetof.o)
 .text.sym_32M11_tof
                0x00000000004246e4       0xb0 0x4 /usr/local/popcorn/aarch64/lib/libelf.a(32.xlatetof.o)
 .text.word_32M__tom
                0x0000000000424794       0x28 0x4 /usr/local/popcorn/aarch64/lib/libelf.a(32.xlatetof.o)
 .text.word_32M__tof
                0x00000000004247bc       0x44 0x4 /usr/local/popcorn/aarch64/lib/libelf.a(32.xlatetof.o)
 .text.array_copy
                0x0000000000424800      0x138 0x4 /usr/local/popcorn/aarch64/lib/libelf.a(32.xlatetof.o)
 .text          0x0000000000424938        0x0 0x4 /usr/local/popcorn/aarch64/lib/libelf.a(cook.o)
 .text._elf_scn_type
                0x0000000000424938       0xa4 0x4 /usr/local/popcorn/aarch64/lib/libelf.a(cook.o)
                0x0000000000424938                _elf_scn_type
 .text._elf_xlatetom
                0x00000000004249dc       0x50 0x4 /usr/local/popcorn/aarch64/lib/libelf.a(cook.o)
                0x00000000004249dc                _elf_xlatetom
 .text._elf_cook
                0x0000000000424a2c      0x7d4 0x4 /usr/local/popcorn/aarch64/lib/libelf.a(cook.o)
                0x0000000000424a2c                _elf_cook
 .text._elf_item
                0x0000000000425200      0x1c0 0x4 /usr/local/popcorn/aarch64/lib/libelf.a(cook.o)
 .text          0x00000000004253c0        0x0 0x4 /usr/local/popcorn/aarch64/lib/libelf.a(data.o)
 .text          0x00000000004253c0        0x0 0x4 /usr/local/popcorn/aarch64/lib/libelf.a(input.o)
 .text._elf_read
                0x00000000004253c0      0x120 0x4 /usr/local/popcorn/aarch64/lib/libelf.a(input.o)
                0x00000000004253c0                _elf_read
 .text._elf_mmap
                0x00000000004254e0       0x60 0x4 /usr/local/popcorn/aarch64/lib/libelf.a(input.o)
                0x00000000004254e0                _elf_mmap
 .text          0x0000000000425540        0x0 0x4 /usr/local/popcorn/aarch64/lib/libelf.a(x.elfext.o)
 .text.elf_getphdrnum
                0x0000000000425540       0x70 0x4 /usr/local/popcorn/aarch64/lib/libelf.a(x.elfext.o)
                0x0000000000425540                elf_getphdrnum
 .text.elf_getshdrnum
                0x00000000004255b0       0x7c 0x4 /usr/local/popcorn/aarch64/lib/libelf.a(x.elfext.o)
                0x00000000004255b0                elf_getshdrnum
 .text.elf_getshdrstrndx
                0x000000000042562c      0x10c 0x4 /usr/local/popcorn/aarch64/lib/libelf.a(x.elfext.o)
                0x000000000042562c                elf_getshdrstrndx
 .text.elf_getphnum
                0x0000000000425738       0x70 0x4 /usr/local/popcorn/aarch64/lib/libelf.a(x.elfext.o)
                0x0000000000425738                elf_getphnum
 .text.elf_getshnum
                0x00000000004257a8       0x7c 0x4 /usr/local/popcorn/aarch64/lib/libelf.a(x.elfext.o)
                0x00000000004257a8                elf_getshnum
 .text.elf_getshstrndx
                0x0000000000425824      0x110 0x4 /usr/local/popcorn/aarch64/lib/libelf.a(x.elfext.o)
                0x0000000000425824                elf_getshstrndx
 .text.elfx_update_shstrndx
                0x0000000000425934       0xf8 0x4 /usr/local/popcorn/aarch64/lib/libelf.a(x.elfext.o)
                0x0000000000425934                elfx_update_shstrndx
 .text          0x0000000000425a2c        0x0 0x4 /usr/local/popcorn/aarch64/lib/libelf.a(64.xlatetof.o)
 .text._elf64_xltsize
                0x0000000000425a2c       0xac 0x4 /usr/local/popcorn/aarch64/lib/libelf.a(64.xlatetof.o)
                0x0000000000425a2c                _elf64_xltsize
 .text.elf64_xlatetom
                0x0000000000425ad8      0x130 0x4 /usr/local/popcorn/aarch64/lib/libelf.a(64.xlatetof.o)
                0x0000000000425ad8                elf64_xlatetom
 .text.elf64_xlatetof
                0x0000000000425c08      0x130 0x4 /usr/local/popcorn/aarch64/lib/libelf.a(64.xlatetof.o)
                0x0000000000425c08                elf64_xlatetof
 .text.gelf_xlatetom
                0x0000000000425d38      0x1a4 0x4 /usr/local/popcorn/aarch64/lib/libelf.a(64.xlatetof.o)
                0x0000000000425d38                gelf_xlatetom
 .text.gelf_xlatetof
                0x0000000000425edc      0x1a4 0x4 /usr/local/popcorn/aarch64/lib/libelf.a(64.xlatetof.o)
                0x0000000000425edc                gelf_xlatetof
 .text.byte_copy
                0x0000000000426080       0xf0 0x4 /usr/local/popcorn/aarch64/lib/libelf.a(64.xlatetof.o)
 .text.addr_64L__tom
                0x0000000000426170       0x54 0x4 /usr/local/popcorn/aarch64/lib/libelf.a(64.xlatetof.o)
 .text.addr_64L__tof
                0x00000000004261c4       0x54 0x4 /usr/local/popcorn/aarch64/lib/libelf.a(64.xlatetof.o)
 .text.dyn_64L11_tom
                0x0000000000426218       0x64 0x4 /usr/local/popcorn/aarch64/lib/libelf.a(64.xlatetof.o)
 .text.dyn_64L11_tof
                0x000000000042627c       0x64 0x4 /usr/local/popcorn/aarch64/lib/libelf.a(64.xlatetof.o)
 .text.ehdr_64L11_tom
                0x00000000004262e0       0xcc 0x4 /usr/local/popcorn/aarch64/lib/libelf.a(64.xlatetof.o)
 .text.ehdr_64L11_tof
                0x00000000004263ac      0x144 0x4 /usr/local/popcorn/aarch64/lib/libelf.a(64.xlatetof.o)
 .text.half_64L__tom
                0x00000000004264f0       0xbc 0x4 /usr/local/popcorn/aarch64/lib/libelf.a(64.xlatetof.o)
 .text.half_64L__tof
                0x00000000004265ac       0xbc 0x4 /usr/local/popcorn/aarch64/lib/libelf.a(64.xlatetof.o)
 .text.off_64L__tom
                0x0000000000426668       0x54 0x4 /usr/local/popcorn/aarch64/lib/libelf.a(64.xlatetof.o)
 .text.off_64L__tof
                0x00000000004266bc       0x54 0x4 /usr/local/popcorn/aarch64/lib/libelf.a(64.xlatetof.o)
 .text.phdr_64L11_tom
                0x0000000000426710       0xdc 0x4 /usr/local/popcorn/aarch64/lib/libelf.a(64.xlatetof.o)
 .text.phdr_64L11_tof
                0x00000000004267ec      0x114 0x4 /usr/local/popcorn/aarch64/lib/libelf.a(64.xlatetof.o)
 .text.rela_64L11_tom
                0x0000000000426900       0x88 0x4 /usr/local/popcorn/aarch64/lib/libelf.a(64.xlatetof.o)
 .text.rela_64L11_tof
                0x0000000000426988       0x88 0x4 /usr/local/popcorn/aarch64/lib/libelf.a(64.xlatetof.o)
 .text.rel_64L11_tom
                0x0000000000426a10       0x64 0x4 /usr/local/popcorn/aarch64/lib/libelf.a(64.xlatetof.o)
 .text.rel_64L11_tof
                0x0000000000426a74       0x64 0x4 /usr/local/popcorn/aarch64/lib/libelf.a(64.xlatetof.o)
 .text.shdr_64L11_tom
                0x0000000000426ad8       0xcc 0x4 /usr/local/popcorn/aarch64/lib/libelf.a(64.xlatetof.o)
 .text.shdr_64L11_tof
                0x0000000000426ba4      0x13c 0x4 /usr/local/popcorn/aarch64/lib/libelf.a(64.xlatetof.o)
 .text.sword_64L__tom
                0x0000000000426ce0       0x2c 0x4 /usr/local/popcorn/aarch64/lib/libelf.a(64.xlatetof.o)
 .text.sword_64L__tof
                0x0000000000426d0c       0x48 0x4 /usr/local/popcorn/aarch64/lib/libelf.a(64.xlatetof.o)
 .text.sym_64L11_tom
                0x0000000000426d54       0x9c 0x4 /usr/local/popcorn/aarch64/lib/libelf.a(64.xlatetof.o)
 .text.sym_64L11_tof
                0x0000000000426df0       0xc0 0x4 /usr/local/popcorn/aarch64/lib/libelf.a(64.xlatetof.o)
 .text.word_64L__tom
                0x0000000000426eb0       0x2c 0x4 /usr/local/popcorn/aarch64/lib/libelf.a(64.xlatetof.o)
 .text.word_64L__tof
                0x0000000000426edc       0x48 0x4 /usr/local/popcorn/aarch64/lib/libelf.a(64.xlatetof.o)
 .text.sxword_64L__tom
                0x0000000000426f24       0x54 0x4 /usr/local/popcorn/aarch64/lib/libelf.a(64.xlatetof.o)
 .text.sxword_64L__tof
                0x0000000000426f78       0x54 0x4 /usr/local/popcorn/aarch64/lib/libelf.a(64.xlatetof.o)
 .text.xword_64L__tom
                0x0000000000426fcc       0x54 0x4 /usr/local/popcorn/aarch64/lib/libelf.a(64.xlatetof.o)
 .text.xword_64L__tof
                0x0000000000427020       0x54 0x4 /usr/local/popcorn/aarch64/lib/libelf.a(64.xlatetof.o)
 .text.addr_64M__tom
                0x0000000000427074       0x54 0x4 /usr/local/popcorn/aarch64/lib/libelf.a(64.xlatetof.o)
 .text.addr_64M__tof
                0x00000000004270c8       0x54 0x4 /usr/local/popcorn/aarch64/lib/libelf.a(64.xlatetof.o)
 .text.dyn_64M11_tom
                0x000000000042711c       0x64 0x4 /usr/local/popcorn/aarch64/lib/libelf.a(64.xlatetof.o)
 .text.dyn_64M11_tof
                0x0000000000427180       0x64 0x4 /usr/local/popcorn/aarch64/lib/libelf.a(64.xlatetof.o)
 .text.ehdr_64M11_tom
                0x00000000004271e4      0x114 0x4 /usr/local/popcorn/aarch64/lib/libelf.a(64.xlatetof.o)
 .text.ehdr_64M11_tof
                0x00000000004272f8      0x144 0x4 /usr/local/popcorn/aarch64/lib/libelf.a(64.xlatetof.o)
 .text.half_64M__tom
                0x000000000042743c       0xbc 0x4 /usr/local/popcorn/aarch64/lib/libelf.a(64.xlatetof.o)
 .text.half_64M__tof
                0x00000000004274f8       0xb8 0x4 /usr/local/popcorn/aarch64/lib/libelf.a(64.xlatetof.o)
 .text.off_64M__tom
                0x00000000004275b0       0x54 0x4 /usr/local/popcorn/aarch64/lib/libelf.a(64.xlatetof.o)
 .text.off_64M__tof
                0x0000000000427604       0x54 0x4 /usr/local/popcorn/aarch64/lib/libelf.a(64.xlatetof.o)
 .text.phdr_64M11_tom
                0x0000000000427658       0xcc 0x4 /usr/local/popcorn/aarch64/lib/libelf.a(64.xlatetof.o)
 .text.phdr_64M11_tof
                0x0000000000427724       0xfc 0x4 /usr/local/popcorn/aarch64/lib/libelf.a(64.xlatetof.o)
 .text.rela_64M11_tom
                0x0000000000427820       0x88 0x4 /usr/local/popcorn/aarch64/lib/libelf.a(64.xlatetof.o)
 .text.rela_64M11_tof
                0x00000000004278a8       0x88 0x4 /usr/local/popcorn/aarch64/lib/libelf.a(64.xlatetof.o)
 .text.rel_64M11_tom
                0x0000000000427930       0x64 0x4 /usr/local/popcorn/aarch64/lib/libelf.a(64.xlatetof.o)
 .text.rel_64M11_tof
                0x0000000000427994       0x64 0x4 /usr/local/popcorn/aarch64/lib/libelf.a(64.xlatetof.o)
 .text.shdr_64M11_tom
                0x00000000004279f8       0xc4 0x4 /usr/local/popcorn/aarch64/lib/libelf.a(64.xlatetof.o)
 .text.shdr_64M11_tof
                0x0000000000427abc      0x124 0x4 /usr/local/popcorn/aarch64/lib/libelf.a(64.xlatetof.o)
 .text.sword_64M__tom
                0x0000000000427be0       0x28 0x4 /usr/local/popcorn/aarch64/lib/libelf.a(64.xlatetof.o)
 .text.sword_64M__tof
                0x0000000000427c08       0x44 0x4 /usr/local/popcorn/aarch64/lib/libelf.a(64.xlatetof.o)
 .text.sym_64M11_tom
                0x0000000000427c4c       0xa8 0x4 /usr/local/popcorn/aarch64/lib/libelf.a(64.xlatetof.o)
 .text.sym_64M11_tof
                0x0000000000427cf4       0xc0 0x4 /usr/local/popcorn/aarch64/lib/libelf.a(64.xlatetof.o)
 .text.word_64M__tom
                0x0000000000427db4       0x28 0x4 /usr/local/popcorn/aarch64/lib/libelf.a(64.xlatetof.o)
 .text.word_64M__tof
                0x0000000000427ddc       0x44 0x4 /usr/local/popcorn/aarch64/lib/libelf.a(64.xlatetof.o)
 .text.sxword_64M__tom
                0x0000000000427e20       0x54 0x4 /usr/local/popcorn/aarch64/lib/libelf.a(64.xlatetof.o)
 .text.sxword_64M__tof
                0x0000000000427e74       0x54 0x4 /usr/local/popcorn/aarch64/lib/libelf.a(64.xlatetof.o)
 .text.xword_64M__tom
                0x0000000000427ec8       0x54 0x4 /usr/local/popcorn/aarch64/lib/libelf.a(64.xlatetof.o)
 .text.xword_64M__tof
                0x0000000000427f1c       0x54 0x4 /usr/local/popcorn/aarch64/lib/libelf.a(64.xlatetof.o)
 .text.array_copy
                0x0000000000427f70      0x138 0x4 /usr/local/popcorn/aarch64/lib/libelf.a(64.xlatetof.o)
 .text          0x00000000004280a8        0x0 0x4 /usr/local/popcorn/aarch64/lib/libelf.a(gelfshdr.o)
 .text.gelf_getshdr
                0x00000000004280a8      0x104 0x4 /usr/local/popcorn/aarch64/lib/libelf.a(gelfshdr.o)
                0x00000000004280a8                gelf_getshdr
 .text.gelf_update_shdr
                0x00000000004281ac       0xec 0x4 /usr/local/popcorn/aarch64/lib/libelf.a(gelfshdr.o)
                0x00000000004281ac                gelf_update_shdr
 .text          0x0000000000428298        0x0 0x4 /usr/local/popcorn/aarch64/lib/libelf.a(swap64.o)
 .text._elf_load_u64L
                0x0000000000428298        0x8 0x4 /usr/local/popcorn/aarch64/lib/libelf.a(swap64.o)
                0x0000000000428298                _elf_load_u64L
 .text._elf_load_u64M
                0x00000000004282a0        0xc 0x4 /usr/local/popcorn/aarch64/lib/libelf.a(swap64.o)
                0x00000000004282a0                _elf_load_u64M
 .text._elf_load_i64L
                0x00000000004282ac        0x8 0x4 /usr/local/popcorn/aarch64/lib/libelf.a(swap64.o)
                0x00000000004282ac                _elf_load_i64L
 .text._elf_load_i64M
                0x00000000004282b4        0xc 0x4 /usr/local/popcorn/aarch64/lib/libelf.a(swap64.o)
                0x00000000004282b4                _elf_load_i64M
 .text._elf_store_u64L
                0x00000000004282c0        0x8 0x4 /usr/local/popcorn/aarch64/lib/libelf.a(swap64.o)
                0x00000000004282c0                _elf_store_u64L
 .text._elf_store_u64M
                0x00000000004282c8        0xc 0x4 /usr/local/popcorn/aarch64/lib/libelf.a(swap64.o)
                0x00000000004282c8                _elf_store_u64M
 .text._elf_store_i64L
                0x00000000004282d4        0x8 0x4 /usr/local/popcorn/aarch64/lib/libelf.a(swap64.o)
                0x00000000004282d4                _elf_store_i64L
 .text._elf_store_i64M
                0x00000000004282dc        0xc 0x4 /usr/local/popcorn/aarch64/lib/libelf.a(swap64.o)
                0x00000000004282dc                _elf_store_i64M
 .text          0x00000000004282e8        0x0 0x4 /usr/local/popcorn/aarch64/lib/libelf.a(verdef_32_tof.o)
 .text._elf_verdef_32L11_tof
                0x00000000004282e8        0x8 0x4 /usr/local/popcorn/aarch64/lib/libelf.a(verdef_32_tof.o)
                0x00000000004282e8                _elf_verdef_32L11_tof
 .text.xlt_verdef
                0x00000000004282f0      0x280 0x4 /usr/local/popcorn/aarch64/lib/libelf.a(verdef_32_tof.o)
 .text._elf_verdef_32M11_tof
                0x0000000000428570        0x8 0x4 /usr/local/popcorn/aarch64/lib/libelf.a(verdef_32_tof.o)
                0x0000000000428570                _elf_verdef_32M11_tof
 .text._elf_verneed_32L11_tof
                0x0000000000428578        0x8 0x4 /usr/local/popcorn/aarch64/lib/libelf.a(verdef_32_tof.o)
                0x0000000000428578                _elf_verneed_32L11_tof
 .text.xlt_verneed
                0x0000000000428580      0x300 0x4 /usr/local/popcorn/aarch64/lib/libelf.a(verdef_32_tof.o)
 .text._elf_verneed_32M11_tof
                0x0000000000428880        0x8 0x4 /usr/local/popcorn/aarch64/lib/libelf.a(verdef_32_tof.o)
                0x0000000000428880                _elf_verneed_32M11_tof
 .text          0x0000000000428888        0x0 0x4 /usr/local/popcorn/aarch64/lib/libelf.a(verdef_32_tom.o)
 .text._elf_verdef_32L11_tom
                0x0000000000428888        0x8 0x4 /usr/local/popcorn/aarch64/lib/libelf.a(verdef_32_tom.o)
                0x0000000000428888                _elf_verdef_32L11_tom
 .text.xlt_verdef
                0x0000000000428890      0x27c 0x4 /usr/local/popcorn/aarch64/lib/libelf.a(verdef_32_tom.o)
 .text._elf_verdef_32M11_tom
                0x0000000000428b0c        0x8 0x4 /usr/local/popcorn/aarch64/lib/libelf.a(verdef_32_tom.o)
                0x0000000000428b0c                _elf_verdef_32M11_tom
 .text._elf_verneed_32L11_tom
                0x0000000000428b14        0x8 0x4 /usr/local/popcorn/aarch64/lib/libelf.a(verdef_32_tom.o)
                0x0000000000428b14                _elf_verneed_32L11_tom
 .text.xlt_verneed
                0x0000000000428b1c      0x254 0x4 /usr/local/popcorn/aarch64/lib/libelf.a(verdef_32_tom.o)
 .text._elf_verneed_32M11_tom
                0x0000000000428d70        0x8 0x4 /usr/local/popcorn/aarch64/lib/libelf.a(verdef_32_tom.o)
                0x0000000000428d70                _elf_verneed_32M11_tom
 .text          0x0000000000428d78        0x0 0x4 /usr/local/popcorn/aarch64/lib/libelf.a(verdef_64_tof.o)
 .text._elf_verdef_64L11_tof
                0x0000000000428d78        0x8 0x4 /usr/local/popcorn/aarch64/lib/libelf.a(verdef_64_tof.o)
                0x0000000000428d78                _elf_verdef_64L11_tof
 .text.xlt_verdef
                0x0000000000428d80      0x280 0x4 /usr/local/popcorn/aarch64/lib/libelf.a(verdef_64_tof.o)
 .text._elf_verdef_64M11_tof
                0x0000000000429000        0x8 0x4 /usr/local/popcorn/aarch64/lib/libelf.a(verdef_64_tof.o)
                0x0000000000429000                _elf_verdef_64M11_tof
 .text._elf_verneed_64L11_tof
                0x0000000000429008        0x8 0x4 /usr/local/popcorn/aarch64/lib/libelf.a(verdef_64_tof.o)
                0x0000000000429008                _elf_verneed_64L11_tof
 .text.xlt_verneed
                0x0000000000429010      0x300 0x4 /usr/local/popcorn/aarch64/lib/libelf.a(verdef_64_tof.o)
 .text._elf_verneed_64M11_tof
                0x0000000000429310        0x8 0x4 /usr/local/popcorn/aarch64/lib/libelf.a(verdef_64_tof.o)
                0x0000000000429310                _elf_verneed_64M11_tof
 .text          0x0000000000429318        0x0 0x4 /usr/local/popcorn/aarch64/lib/libelf.a(verdef_64_tom.o)
 .text._elf_verdef_64L11_tom
                0x0000000000429318        0x8 0x4 /usr/local/popcorn/aarch64/lib/libelf.a(verdef_64_tom.o)
                0x0000000000429318                _elf_verdef_64L11_tom
 .text.xlt_verdef
                0x0000000000429320      0x27c 0x4 /usr/local/popcorn/aarch64/lib/libelf.a(verdef_64_tom.o)
 .text._elf_verdef_64M11_tom
                0x000000000042959c        0x8 0x4 /usr/local/popcorn/aarch64/lib/libelf.a(verdef_64_tom.o)
                0x000000000042959c                _elf_verdef_64M11_tom
 .text._elf_verneed_64L11_tom
                0x00000000004295a4        0x8 0x4 /usr/local/popcorn/aarch64/lib/libelf.a(verdef_64_tom.o)
                0x00000000004295a4                _elf_verneed_64L11_tom
 .text.xlt_verneed
                0x00000000004295ac      0x254 0x4 /usr/local/popcorn/aarch64/lib/libelf.a(verdef_64_tom.o)
 .text._elf_verneed_64M11_tom
                0x0000000000429800        0x8 0x4 /usr/local/popcorn/aarch64/lib/libelf.a(verdef_64_tom.o)
                0x0000000000429800                _elf_verneed_64M11_tom
 .text          0x0000000000429808        0x0 0x4 /usr/local/popcorn/aarch64/lib/libelf.a(getscn.o)
 .text.elf_getscn
                0x0000000000429808       0x90 0x4 /usr/local/popcorn/aarch64/lib/libelf.a(getscn.o)
                0x0000000000429808                elf_getscn
 .text          0x0000000000429898        0x0 0x4 /usr/local/popcorn/aarch64/lib/libelf.a(newscn.o)
 .text._elf_update_shnum
                0x0000000000429898       0x7c 0x4 /usr/local/popcorn/aarch64/lib/libelf.a(newscn.o)
                0x0000000000429898                _elf_update_shnum
 .text._elf_first_scn
                0x0000000000429914      0x114 0x4 /usr/local/popcorn/aarch64/lib/libelf.a(newscn.o)
                0x0000000000429914                _elf_first_scn
 .text.elf_newscn
                0x0000000000429a28      0x284 0x4 /usr/local/popcorn/aarch64/lib/libelf.a(newscn.o)
                0x0000000000429a28                elf_newscn
 .text          0x0000000000429cac        0x0 0x4 /usr/local/popcorn/aarch64/lib/libelf.a(32.fsize.o)
 .text.elf32_fsize
                0x0000000000429cac       0x4c 0x4 /usr/local/popcorn/aarch64/lib/libelf.a(32.fsize.o)
                0x0000000000429cac                elf32_fsize
 .text.elf64_fsize
                0x0000000000429cf8       0x4c 0x4 /usr/local/popcorn/aarch64/lib/libelf.a(32.fsize.o)
                0x0000000000429cf8                elf64_fsize
 .text.gelf_fsize
                0x0000000000429d44       0x90 0x4 /usr/local/popcorn/aarch64/lib/libelf.a(32.fsize.o)
                0x0000000000429d44                gelf_fsize
 .text.gelf_msize
                0x0000000000429dd4       0xa8 0x4 /usr/local/popcorn/aarch64/lib/libelf.a(32.fsize.o)
                0x0000000000429dd4                gelf_msize
 .text          0x0000000000429e7c        0x0 0x4 /usr/local/popcorn/aarch64/lib/libc.a(arch_crash.o)
 .text.__crash_aarch64
                0x0000000000429e7c       0x30 0x4 /usr/local/popcorn/aarch64/lib/libc.a(arch_crash.o)
                0x0000000000429e7c                crash_aarch64
                0x0000000000429e7c                __crash_aarch64
 .text.__crash_powerpc64
                0x0000000000429eac        0x8 0x4 /usr/local/popcorn/aarch64/lib/libc.a(arch_crash.o)
                0x0000000000429eac                __crash_powerpc64
                0x0000000000429eac                crash_powerpc64
 .text.__crash_riscv64
                0x0000000000429eb4        0x8 0x4 /usr/local/popcorn/aarch64/lib/libc.a(arch_crash.o)
                0x0000000000429eb4                crash_riscv64
                0x0000000000429eb4                __crash_riscv64
 .text.__crash_x86_64
                0x0000000000429ebc        0x8 0x4 /usr/local/popcorn/aarch64/lib/libc.a(arch_crash.o)
                0x0000000000429ebc                crash_x86_64
                0x0000000000429ebc                __crash_x86_64
 .text.__crash  0x0000000000429ec4       0x30 0x4 /usr/local/popcorn/aarch64/lib/libc.a(arch_crash.o)
                0x0000000000429ec4                crash
                0x0000000000429ec4                __crash
 .text          0x0000000000429ef4        0x0 0x4 /usr/local/popcorn/aarch64/lib/libc.a(getenv.o)
 .text.getenv   0x0000000000429ef4       0x8c 0x4 /usr/local/popcorn/aarch64/lib/libc.a(getenv.o)
                0x0000000000429ef4                getenv
 .text          0x0000000000429f80        0x0 0x4 /usr/local/popcorn/aarch64/lib/libc.a(assert.o)
 .text.__assert_fail
                0x0000000000429f80       0x3c 0x4 /usr/local/popcorn/aarch64/lib/libc.a(assert.o)
                0x0000000000429f80                __assert_fail
 .text          0x0000000000429fbc        0x0 0x4 /usr/local/popcorn/aarch64/lib/libc.a(open.o)
 .text.open     0x0000000000429fbc      0x108 0x4 /usr/local/popcorn/aarch64/lib/libc.a(open.o)
                0x0000000000429fbc                open64
                0x0000000000429fbc                open
 .text          0x000000000042a0c4        0x0 0x4 /usr/local/popcorn/aarch64/lib/libc.a(calloc.o)
 .text.calloc   0x000000000042a0c4       0x48 0x4 /usr/local/popcorn/aarch64/lib/libc.a(calloc.o)
                0x000000000042a0c4                calloc
 .text.popcorn_calloc
                0x000000000042a10c       0x4c 0x4 /usr/local/popcorn/aarch64/lib/libc.a(calloc.o)
                0x000000000042a10c                popcorn_calloc
 .text.popcorn_calloc_cur
                0x000000000042a158       0x64 0x4 /usr/local/popcorn/aarch64/lib/libc.a(calloc.o)
                0x000000000042a158                popcorn_calloc_cur
 .text          0x000000000042a1bc        0x0 0x4 /usr/local/popcorn/aarch64/lib/libc.a(getrlimit.o)
 .text.getrlimit
                0x000000000042a1bc       0xe4 0x4 /usr/local/popcorn/aarch64/lib/libc.a(getrlimit.o)
                0x000000000042a1bc                getrlimit
                0x000000000042a1bc                getrlimit64
 .text          0x000000000042a2a0        0x0 0x4 /usr/local/popcorn/aarch64/lib/libc.a(fprintf.o)
 .text.fprintf  0x000000000042a2a0       0x68 0x4 /usr/local/popcorn/aarch64/lib/libc.a(fprintf.o)
                0x000000000042a2a0                fprintf
 .text          0x000000000042a308        0x0 0x4 /usr/local/popcorn/aarch64/lib/libc.a(fseek.o)
 .text.__fseeko_unlocked
                0x000000000042a308       0xb8 0x4 /usr/local/popcorn/aarch64/lib/libc.a(fseek.o)
                0x000000000042a308                __fseeko_unlocked
 .text.__fseeko
                0x000000000042a3c0       0x7c 0x4 /usr/local/popcorn/aarch64/lib/libc.a(fseek.o)
                0x000000000042a3c0                fseeko
                0x000000000042a3c0                __fseeko
                0x000000000042a3c0                fseeko64
 .text.fseek    0x000000000042a43c        0x4 0x4 /usr/local/popcorn/aarch64/lib/libc.a(fseek.o)
                0x000000000042a43c                fseek
 .text          0x000000000042a440        0x0 0x4 /usr/local/popcorn/aarch64/lib/libc.a(getc.o)
 .text.getc     0x000000000042a440       0xa0 0x4 /usr/local/popcorn/aarch64/lib/libc.a(getc.o)
                0x000000000042a440                getc
                0x000000000042a440                _IO_getc
 .text          0x000000000042a4e0        0x0 0x4 /usr/local/popcorn/aarch64/lib/libc.a(getline.o)
 .text.getline  0x000000000042a4e0        0xc 0x4 /usr/local/popcorn/aarch64/lib/libc.a(getline.o)
                0x000000000042a4e0                getline
 .text          0x000000000042a4ec        0x0 0x4 /usr/local/popcorn/aarch64/lib/libc.a(perror.o)
 .text.perror   0x000000000042a4ec       0xd0 0x4 /usr/local/popcorn/aarch64/lib/libc.a(perror.o)
                0x000000000042a4ec                perror
 .text          0x000000000042a5bc        0x0 0x4 /usr/local/popcorn/aarch64/lib/libc.a(snprintf.o)
 .text.snprintf
                0x000000000042a5bc       0x68 0x4 /usr/local/popcorn/aarch64/lib/libc.a(snprintf.o)
                0x000000000042a5bc                snprintf
 .text          0x000000000042a624        0x0 0x4 /usr/local/popcorn/aarch64/lib/libc.a(sscanf.o)
 .text.sscanf   0x000000000042a624       0x68 0x4 /usr/local/popcorn/aarch64/lib/libc.a(sscanf.o)
                0x000000000042a624                sscanf
                0x000000000042a624                __isoc99_sscanf
 .text          0x000000000042a68c        0x0 0x4 /usr/local/popcorn/aarch64/lib/libc.a(stderr.o)
 .text          0x000000000042a68c        0x0 0x4 /usr/local/popcorn/aarch64/lib/libc.a(vsscanf.o)
 .text.vsscanf  0x000000000042a68c       0x78 0x4 /usr/local/popcorn/aarch64/lib/libc.a(vsscanf.o)
                0x000000000042a68c                vsscanf
                0x000000000042a68c                __isoc99_vsscanf
 .text.do_read  0x000000000042a704        0x4 0x4 /usr/local/popcorn/aarch64/lib/libc.a(vsscanf.o)
 .text          0x000000000042a708        0x0 0x4 /usr/local/popcorn/aarch64/lib/libc.a(bsearch.o)
 .text.bsearch  0x000000000042a708       0x84 0x4 /usr/local/popcorn/aarch64/lib/libc.a(bsearch.o)
                0x000000000042a708                bsearch
 .text          0x000000000042a78c        0x0 0x4 /usr/local/popcorn/aarch64/lib/libc.a(qsort.o)
 .text.qsort    0x000000000042a78c      0x328 0x4 /usr/local/popcorn/aarch64/lib/libc.a(qsort.o)
                0x000000000042a78c                qsort
 .text.sift     0x000000000042aab4      0x110 0x4 /usr/local/popcorn/aarch64/lib/libc.a(qsort.o)
 .text.trinkle  0x000000000042abc4      0x1e0 0x4 /usr/local/popcorn/aarch64/lib/libc.a(qsort.o)
 .text.cycle    0x000000000042ada4       0xbc 0x4 /usr/local/popcorn/aarch64/lib/libc.a(qsort.o)
 .text          0x000000000042ae60        0x0 0x4 /usr/local/popcorn/aarch64/lib/libc.a(strtol.o)
 .text.strtoull
                0x000000000042ae60        0x8 0x4 /usr/local/popcorn/aarch64/lib/libc.a(strtol.o)
                0x000000000042ae60                __strtoull_internal
                0x000000000042ae60                strtoull
 .text.strtox   0x000000000042ae68       0xb0 0x4 /usr/local/popcorn/aarch64/lib/libc.a(strtol.o)
 .text.strtoll  0x000000000042af18        0x8 0x4 /usr/local/popcorn/aarch64/lib/libc.a(strtol.o)
                0x000000000042af18                __strtoll_internal
                0x000000000042af18                strtoll
 .text.strtoul  0x000000000042af20        0x8 0x4 /usr/local/popcorn/aarch64/lib/libc.a(strtol.o)
                0x000000000042af20                strtoul
                0x000000000042af20                __strtoul_internal
 .text.strtol   0x000000000042af28        0x8 0x4 /usr/local/popcorn/aarch64/lib/libc.a(strtol.o)
                0x000000000042af28                __strtol_internal
                0x000000000042af28                strtol
 .text.strtoimax
                0x000000000042af30        0x8 0x4 /usr/local/popcorn/aarch64/lib/libc.a(strtol.o)
                0x000000000042af30                strtoimax
                0x000000000042af30                __strtoimax_internal
 .text.strtoumax
                0x000000000042af38        0x8 0x4 /usr/local/popcorn/aarch64/lib/libc.a(strtol.o)
                0x000000000042af38                strtoumax
                0x000000000042af38                __strtoumax_internal
 .text          0x000000000042af40        0x0 0x4 /usr/local/popcorn/aarch64/lib/libc.a(strcmp.o)
 .text.strcmp   0x000000000042af40       0x28 0x4 /usr/local/popcorn/aarch64/lib/libc.a(strcmp.o)
                0x000000000042af40                strcmp
 .text          0x000000000042af68        0x0 0x4 /usr/local/popcorn/aarch64/lib/libc.a(strncmp.o)
 .text.strncmp  0x000000000042af68       0x48 0x4 /usr/local/popcorn/aarch64/lib/libc.a(strncmp.o)
                0x000000000042af68                strncmp
 .text          0x000000000042afb0        0x0 0x4 /usr/local/popcorn/aarch64/lib/libc.a(__syscall_cp.o)
 .text.sccp     0x000000000042afb0        0x4 0x4 /usr/local/popcorn/aarch64/lib/libc.a(__syscall_cp.o)
                0x000000000042afb0                __syscall_cp_c
 .text.__syscall_cp
                0x000000000042afb4        0x4 0x4 /usr/local/popcorn/aarch64/lib/libc.a(__syscall_cp.o)
                0x000000000042afb4                __syscall_cp
 .text          0x000000000042afb8        0x0 0x4 /usr/local/popcorn/aarch64/lib/libc.a(pthread_attr_get.o)
 .text.pthread_attr_getdetachstate
                0x000000000042afb8       0x10 0x4 /usr/local/popcorn/aarch64/lib/libc.a(pthread_attr_get.o)
                0x000000000042afb8                pthread_attr_getdetachstate
 .text.pthread_attr_getguardsize
                0x000000000042afc8       0x10 0x4 /usr/local/popcorn/aarch64/lib/libc.a(pthread_attr_get.o)
                0x000000000042afc8                pthread_attr_getguardsize
 .text.pthread_attr_getinheritsched
                0x000000000042afd8       0x10 0x4 /usr/local/popcorn/aarch64/lib/libc.a(pthread_attr_get.o)
                0x000000000042afd8                pthread_attr_getinheritsched
 .text.pthread_attr_getschedparam
                0x000000000042afe8       0x10 0x4 /usr/local/popcorn/aarch64/lib/libc.a(pthread_attr_get.o)
                0x000000000042afe8                pthread_attr_getschedparam
 .text.pthread_attr_getschedpolicy
                0x000000000042aff8       0x10 0x4 /usr/local/popcorn/aarch64/lib/libc.a(pthread_attr_get.o)
                0x000000000042aff8                pthread_attr_getschedpolicy
 .text.pthread_attr_getscope
                0x000000000042b008        0xc 0x4 /usr/local/popcorn/aarch64/lib/libc.a(pthread_attr_get.o)
                0x000000000042b008                pthread_attr_getscope
 .text.pthread_attr_getstack
                0x000000000042b014       0x2c 0x4 /usr/local/popcorn/aarch64/lib/libc.a(pthread_attr_get.o)
                0x000000000042b014                pthread_attr_getstack
 .text.pthread_attr_getstacksize
                0x000000000042b040       0x10 0x4 /usr/local/popcorn/aarch64/lib/libc.a(pthread_attr_get.o)
                0x000000000042b040                pthread_attr_getstacksize
 .text.pthread_barrierattr_getpshared
                0x000000000042b050       0x18 0x4 /usr/local/popcorn/aarch64/lib/libc.a(pthread_attr_get.o)
                0x000000000042b050                pthread_barrierattr_getpshared
 .text.pthread_condattr_getclock
                0x000000000042b068       0x14 0x4 /usr/local/popcorn/aarch64/lib/libc.a(pthread_attr_get.o)
                0x000000000042b068                pthread_condattr_getclock
 .text.pthread_condattr_getpshared
                0x000000000042b07c       0x14 0x4 /usr/local/popcorn/aarch64/lib/libc.a(pthread_attr_get.o)
                0x000000000042b07c                pthread_condattr_getpshared
 .text.pthread_mutexattr_getprotocol
                0x000000000042b090        0xc 0x4 /usr/local/popcorn/aarch64/lib/libc.a(pthread_attr_get.o)
                0x000000000042b090                pthread_mutexattr_getprotocol
 .text.pthread_mutexattr_getpshared
                0x000000000042b09c       0x14 0x4 /usr/local/popcorn/aarch64/lib/libc.a(pthread_attr_get.o)
                0x000000000042b09c                pthread_mutexattr_getpshared
 .text.pthread_mutexattr_getrobust
                0x000000000042b0b0       0x14 0x4 /usr/local/popcorn/aarch64/lib/libc.a(pthread_attr_get.o)
                0x000000000042b0b0                pthread_mutexattr_getrobust
 .text.pthread_mutexattr_gettype
                0x000000000042b0c4       0x14 0x4 /usr/local/popcorn/aarch64/lib/libc.a(pthread_attr_get.o)
                0x000000000042b0c4                pthread_mutexattr_gettype
 .text.pthread_rwlockattr_getpshared
                0x000000000042b0d8       0x10 0x4 /usr/local/popcorn/aarch64/lib/libc.a(pthread_attr_get.o)
                0x000000000042b0d8                pthread_rwlockattr_getpshared
 .text          0x000000000042b0e8        0x0 0x4 /usr/local/popcorn/aarch64/lib/libc.a(pthread_getattr_np.o)
 .text.pthread_getattr_np
                0x000000000042b0e8      0x110 0x4 /usr/local/popcorn/aarch64/lib/libc.a(pthread_getattr_np.o)
                0x000000000042b0e8                pthread_getattr_np
 .text          0x000000000042b1f8        0x0 0x4 /usr/local/popcorn/aarch64/lib/libc.a(pthread_migrate.o)
 .text.pthread_set_migrate_args
                0x000000000042b1f8        0xc 0x4 /usr/local/popcorn/aarch64/lib/libc.a(pthread_migrate.o)
                0x000000000042b1f8                pthread_set_migrate_args
 .text.pthread_get_migrate_args
                0x000000000042b204        0xc 0x4 /usr/local/popcorn/aarch64/lib/libc.a(pthread_migrate.o)
                0x000000000042b204                pthread_get_migrate_args
 .text          0x000000000042b210        0x0 0x4 /usr/local/popcorn/aarch64/lib/libc.a(pthread_self.o)
 .text.__pthread_self_internal
                0x000000000042b210        0xc 0x4 /usr/local/popcorn/aarch64/lib/libc.a(pthread_self.o)
                0x000000000042b210                pthread_self
                0x000000000042b210                thrd_current
 .text          0x000000000042b21c        0x0 0x4 /usr/local/popcorn/aarch64/lib/libc.a(close.o)
 .text.dummy    0x000000000042b21c        0x4 0x4 /usr/local/popcorn/aarch64/lib/libc.a(close.o)
 .text.close    0x000000000042b220       0x44 0x4 /usr/local/popcorn/aarch64/lib/libc.a(close.o)
                0x000000000042b220                close
 .text          0x000000000042b264        0x0 0x4 /usr/local/popcorn/aarch64/lib/libc.a(getpid.o)
 .text.getpid   0x000000000042b264        0xc 0x4 /usr/local/popcorn/aarch64/lib/libc.a(getpid.o)
                0x000000000042b264                getpid
 .text          0x000000000042b270        0x0 0x4 /usr/local/popcorn/aarch64/lib/libc.a(lseek.o)
 .text.lseek    0x000000000042b270       0x14 0x4 /usr/local/popcorn/aarch64/lib/libc.a(lseek.o)
                0x000000000042b270                lseek
                0x000000000042b270                lseek64
 .text          0x000000000042b284        0x0 0x4 /usr/local/popcorn/aarch64/lib/libc.a(read.o)
 .text.read     0x000000000042b284       0x30 0x4 /usr/local/popcorn/aarch64/lib/libc.a(read.o)
                0x000000000042b284                read
 .text          0x000000000042b2b4        0x0 0x4 /usr/local/popcorn/aarch64/lib/libc.a(abort.o)
 .text.abort    0x000000000042b2b4       0x34 0x4 /usr/local/popcorn/aarch64/lib/libc.a(abort.o)
                0x000000000042b2b4                abort
 .text          0x000000000042b2e8        0x0 0x4 /usr/local/popcorn/aarch64/lib/libc.a(syscall.o)
 *fill*         0x000000000042b2e8        0x8 1f2003d5
 .text.__syscall
                0x000000000042b2f0       0x28 0x10 /usr/local/popcorn/aarch64/lib/libc.a(syscall.o)
                0x000000000042b2f0                __syscall
 .text          0x000000000042b318        0x0 0x4 /usr/local/popcorn/aarch64/lib/libc.a(block.o)
 .text.__block_all_sigs
                0x000000000042b318       0x20 0x4 /usr/local/popcorn/aarch64/lib/libc.a(block.o)
                0x000000000042b318                __block_all_sigs
 .text.__block_app_sigs
                0x000000000042b338       0x20 0x4 /usr/local/popcorn/aarch64/lib/libc.a(block.o)
                0x000000000042b338                __block_app_sigs
 .text.__restore_sigs
                0x000000000042b358       0x1c 0x4 /usr/local/popcorn/aarch64/lib/libc.a(block.o)
                0x000000000042b358                __restore_sigs
 .text          0x000000000042b374        0x0 0x4 /usr/local/popcorn/aarch64/lib/libc.a(raise.o)
 .text.raise    0x000000000042b374       0x58 0x4 /usr/local/popcorn/aarch64/lib/libc.a(raise.o)
                0x000000000042b374                raise
 .text          0x000000000042b3cc        0x0 0x4 /usr/local/popcorn/aarch64/lib/libc.a(__string_read.o)
 .text.__string_read
                0x000000000042b3cc       0x84 0x4 /usr/local/popcorn/aarch64/lib/libc.a(__string_read.o)
                0x000000000042b3cc                __string_read
 .text          0x000000000042b450        0x0 0x4 /usr/local/popcorn/aarch64/lib/libc.a(fputc.o)
 .text.fputc    0x000000000042b450       0xd4 0x4 /usr/local/popcorn/aarch64/lib/libc.a(fputc.o)
                0x000000000042b450                fputc
 .text          0x000000000042b524        0x0 0x4 /usr/local/popcorn/aarch64/lib/libc.a(getdelim.o)
 .text.getdelim
                0x000000000042b524      0x274 0x4 /usr/local/popcorn/aarch64/lib/libc.a(getdelim.o)
                0x000000000042b524                __getdelim
                0x000000000042b524                getdelim
 .text          0x000000000042b798        0x0 0x4 /usr/local/popcorn/aarch64/lib/libc.a(__overflow.o)
 .text.__overflow
                0x000000000042b798       0xa4 0x4 /usr/local/popcorn/aarch64/lib/libc.a(__overflow.o)
                0x000000000042b798                __overflow
 *fill*         0x000000000042b83c        0x4 1f2003d5
 .text          0x000000000042b840      0xca4 0x8 /usr/lib/gcc-cross/aarch64-linux-gnu/6/libgcc.a(addtf3.o)
                0x000000000042b840                __addtf3
 *fill*         0x000000000042c4e4        0x4 1f2003d5
 .text          0x000000000042c4e8      0x948 0x8 /usr/lib/gcc-cross/aarch64-linux-gnu/6/libgcc.a(divtf3.o)
                0x000000000042c4e8                __divtf3
 .text          0x000000000042ce30      0x110 0x8 /usr/lib/gcc-cross/aarch64-linux-gnu/6/libgcc.a(eqtf2.o)
                0x000000000042ce30                __eqtf2
                0x000000000042ce30                __netf2
 .text          0x000000000042cf40      0x154 0x8 /usr/lib/gcc-cross/aarch64-linux-gnu/6/libgcc.a(getf2.o)
                0x000000000042cf40                __getf2
                0x000000000042cf40                __gttf2
 *fill*         0x000000000042d094        0x4 1f2003d5
 .text          0x000000000042d098      0x174 0x8 /usr/lib/gcc-cross/aarch64-linux-gnu/6/libgcc.a(letf2.o)
                0x000000000042d098                __letf2
                0x000000000042d098                __lttf2
 *fill*         0x000000000042d20c        0x4 1f2003d5
 .text          0x000000000042d210      0x790 0x8 /usr/lib/gcc-cross/aarch64-linux-gnu/6/libgcc.a(multf3.o)
                0x000000000042d210                __multf3
 .text          0x000000000042d9a0      0xcb8 0x8 /usr/lib/gcc-cross/aarch64-linux-gnu/6/libgcc.a(subtf3.o)
                0x000000000042d9a0                __subtf3
 .text          0x000000000042e658       0xd0 0x8 /usr/lib/gcc-cross/aarch64-linux-gnu/6/libgcc.a(unordtf2.o)
                0x000000000042e658                __unordtf2
 .text          0x000000000042e728      0x100 0x8 /usr/lib/gcc-cross/aarch64-linux-gnu/6/libgcc.a(fixtfsi.o)
                0x000000000042e728                __fixtfsi
 .text          0x000000000042e828       0xec 0x8 /usr/lib/gcc-cross/aarch64-linux-gnu/6/libgcc.a(fixunstfsi.o)
                0x000000000042e828                __fixunstfsi
 *fill*         0x000000000042e914        0x4 1f2003d5
 .text          0x000000000042e918       0x7c 0x8 /usr/lib/gcc-cross/aarch64-linux-gnu/6/libgcc.a(floatsitf.o)
                0x000000000042e918                __floatsitf
 *fill*         0x000000000042e994        0x4 1f2003d5
 .text          0x000000000042e998       0x70 0x8 /usr/lib/gcc-cross/aarch64-linux-gnu/6/libgcc.a(floatunsitf.o)
                0x000000000042e998                __floatunsitf
 .text          0x000000000042ea08       0xf0 0x8 /usr/lib/gcc-cross/aarch64-linux-gnu/6/libgcc.a(extendsftf2.o)
                0x000000000042ea08                __extendsftf2
 .text          0x000000000042eaf8      0x114 0x8 /usr/lib/gcc-cross/aarch64-linux-gnu/6/libgcc.a(extenddftf2.o)
                0x000000000042eaf8                __extenddftf2
 *fill*         0x000000000042ec0c        0x4 1f2003d5
 .text          0x000000000042ec10      0x318 0x8 /usr/lib/gcc-cross/aarch64-linux-gnu/6/libgcc.a(trunctfsf2.o)
                0x000000000042ec10                __trunctfsf2
 .text          0x000000000042ef28      0x370 0x8 /usr/lib/gcc-cross/aarch64-linux-gnu/6/libgcc.a(trunctfdf2.o)
                0x000000000042ef28                __trunctfdf2
 .text          0x000000000042f298       0x6c 0x8 /usr/lib/gcc-cross/aarch64-linux-gnu/6/libgcc.a(sfp-exceptions.o)
                0x000000000042f298                __sfp_handle_exceptions
 *(.gnu.warning)

.fini
 *(SORT_NONE(.fini))
                [!provide]                        PROVIDE (__etext = .)
                [!provide]                        PROVIDE (_etext = .)
                [!provide]                        PROVIDE (etext = .)

.rodata         0x000000000042f310     0x35ff
 *(.rodata .rodata.* .gnu.linkonce.r.*)
 .rodata.c_print_results__str_____s_Benc
                0x000000000042f310       0x1b 0x1 c_print_results_aarch64.o
                0x000000000042f310                c_print_results__str_____s_Benc
 .rodata.c_print_results__str_1__Class____
                0x000000000042f32b       0x2e 0x1 c_print_results_aarch64.o
                0x000000000042f32b                c_print_results__str_1__Class____
 .rodata.c_print_results__str_2__Size_____
                0x000000000042f359       0x26 0x1 c_print_results_aarch64.o
                0x000000000042f359                c_print_results__str_2__Size_____
 .rodata.c_print_results__str_3__Size_____
                0x000000000042f37f       0x2c 0x1 c_print_results_aarch64.o
                0x000000000042f37f                c_print_results__str_3__Size_____
 .rodata.c_print_results__str_4__Iteration
                0x000000000042f3ab       0x25 0x1 c_print_results_aarch64.o
                0x000000000042f3ab                c_print_results__str_4__Iteration
 .rodata.c_print_results__str_5__Time_in_s
                0x000000000042f3d0       0x27 0x1 c_print_results_aarch64.o
                0x000000000042f3d0                c_print_results__str_5__Time_in_s
 .rodata.c_print_results__str_6__Mop_s_tot
                0x000000000042f3f7       0x27 0x1 c_print_results_aarch64.o
                0x000000000042f3f7                c_print_results__str_6__Mop_s_tot
 .rodata.c_print_results__str_7__Operation
                0x000000000042f41e       0x19 0x1 c_print_results_aarch64.o
                0x000000000042f41e                c_print_results__str_7__Operation
 .rodata.c_print_results__str_8__Verificat
                0x000000000042f437       0x2d 0x1 c_print_results_aarch64.o
                0x000000000042f437                c_print_results__str_8__Verificat
 .rodata.c_print_results__str_9__Verificat
                0x000000000042f464       0x2d 0x1 c_print_results_aarch64.o
                0x000000000042f464                c_print_results__str_9__Verificat
 .rodata.c_print_results__str_10__Verificat
                0x000000000042f491       0x2d 0x1 c_print_results_aarch64.o
                0x000000000042f491                c_print_results__str_10__Verificat
 .rodata.c_print_results__str_11__Version__
                0x000000000042f4be       0x25 0x1 c_print_results_aarch64.o
                0x000000000042f4be                c_print_results__str_11__Version__
 .rodata.c_print_results__str_12__Compile_d
                0x000000000042f4e3       0x25 0x1 c_print_results_aarch64.o
                0x000000000042f4e3                c_print_results__str_12__Compile_d
 .rodata.c_print_results__str_13___Compile_
                0x000000000042f508       0x14 0x1 c_print_results_aarch64.o
                0x000000000042f508                c_print_results__str_13___Compile_
 .rodata.c_print_results__str_14_____CC____
                0x000000000042f51c       0x17 0x1 c_print_results_aarch64.o
                0x000000000042f51c                c_print_results__str_14_____CC____
 .rodata.c_print_results__str_15_____CLINK_
                0x000000000042f533       0x17 0x1 c_print_results_aarch64.o
                0x000000000042f533                c_print_results__str_15_____CLINK_
 .rodata.c_print_results__str_16_____C_LIB_
                0x000000000042f54a       0x17 0x1 c_print_results_aarch64.o
                0x000000000042f54a                c_print_results__str_16_____C_LIB_
 .rodata.c_print_results__str_17_____C_INC_
                0x000000000042f561       0x17 0x1 c_print_results_aarch64.o
                0x000000000042f561                c_print_results__str_17_____C_INC_
 .rodata.c_print_results__str_18_____CFLAGS
                0x000000000042f578       0x17 0x1 c_print_results_aarch64.o
                0x000000000042f578                c_print_results__str_18_____CFLAGS
 .rodata.c_print_results__str_19_____CLINKF
                0x000000000042f58f       0x17 0x1 c_print_results_aarch64.o
                0x000000000042f58f                c_print_results__str_19_____CLINKF
 .rodata.c_print_results__str_20___________
                0x000000000042f5a6       0x29 0x1 c_print_results_aarch64.o
                0x000000000042f5a6                c_print_results__str_20___________
 .rodata.c_print_results__str_21__Please_se
                0x000000000042f5cf       0x27 0x1 c_print_results_aarch64.o
                0x000000000042f5cf                c_print_results__str_21__Please_se
 .rodata.c_print_results__str_22__Center_fo
                0x000000000042f5f6       0x22 0x1 c_print_results_aarch64.o
                0x000000000042f5f6                c_print_results__str_22__Center_fo
 .rodata.c_print_results__str_23__cmp_aces_
                0x000000000042f618       0x15 0x1 c_print_results_aarch64.o
                0x000000000042f618                c_print_results__str_23__cmp_aces_
 .rodata.c_print_results__str_24__http___ac
                0x000000000042f62d       0x18 0x1 c_print_results_aarch64.o
                0x000000000042f62d                c_print_results__str_24__http___ac
 .rodata.c_print_results__str_25___________
                0x000000000042f645       0x28 0x1 c_print_results_aarch64.o
                0x000000000042f645                c_print_results__str_25___________
 .rodata.print_results__str_____s_Benc
                0x000000000042f66d       0x1c 0x1 print_results_aarch64.o
                0x000000000042f66d                print_results__str_____s_Benc
 .rodata.print_results__str_1__Class____
                0x000000000042f689       0x25 0x1 print_results_aarch64.o
                0x000000000042f689                print_results__str_1__Class____
 .rodata.print_results__str_2__15_0lf_
                0x000000000042f6ae        0x8 0x1 print_results_aarch64.o
                0x000000000042f6ae                print_results__str_2__15_0lf_
 .rodata.print_results__str_3__Size_____
                0x000000000042f6b6       0x22 0x1 print_results_aarch64.o
                0x000000000042f6b6                print_results__str_3__Size_____
 .rodata.print_results__str_4__Size_____
                0x000000000042f6d8       0x25 0x1 print_results_aarch64.o
                0x000000000042f6d8                print_results__str_4__Size_____
 .rodata.print_results__str_5__Size_____
                0x000000000042f6fd       0x2a 0x1 print_results_aarch64.o
                0x000000000042f6fd                print_results__str_5__Size_____
 .rodata.print_results__str_6__Iteration
                0x000000000042f727       0x25 0x1 print_results_aarch64.o
                0x000000000042f727                print_results__str_6__Iteration
 .rodata.print_results__str_7__Time_in_s
                0x000000000042f74c       0x28 0x1 print_results_aarch64.o
                0x000000000042f74c                print_results__str_7__Time_in_s
 .rodata.print_results__str_8__Mop_s_tot
                0x000000000042f774       0x25 0x1 print_results_aarch64.o
                0x000000000042f774                print_results__str_8__Mop_s_tot
 .rodata.print_results__str_9__Operation
                0x000000000042f799       0x19 0x1 print_results_aarch64.o
                0x000000000042f799                print_results__str_9__Operation
 .rodata.print_results__str_10__Verificat
                0x000000000042f7b2       0x25 0x1 print_results_aarch64.o
                0x000000000042f7b2                print_results__str_10__Verificat
 .rodata.print_results__str_11_SUCCESSFUL
                0x000000000042f7d7        0xb 0x1 print_results_aarch64.o
                0x000000000042f7d7                print_results__str_11_SUCCESSFUL
 .rodata.print_results__str_12_UNSUCCESSF
                0x000000000042f7e2        0xd 0x1 print_results_aarch64.o
                0x000000000042f7e2                print_results__str_12_UNSUCCESSF
 .rodata.print_results__str_13__Version__
                0x000000000042f7ef       0x25 0x1 print_results_aarch64.o
                0x000000000042f7ef                print_results__str_13__Version__
 .rodata.print_results__str_14__Compile_d
                0x000000000042f814       0x25 0x1 print_results_aarch64.o
                0x000000000042f814                print_results__str_14__Compile_d
 .rodata.print_results__str_15___Compile_
                0x000000000042f839       0x2a 0x1 print_results_aarch64.o
                0x000000000042f839                print_results__str_15___Compile_
 .rodata.print_results__str_16_____CLINK_
                0x000000000042f863       0x17 0x1 print_results_aarch64.o
                0x000000000042f863                print_results__str_16_____CLINK_
 .rodata.print_results__str_17_____C_LIB_
                0x000000000042f87a       0x17 0x1 print_results_aarch64.o
                0x000000000042f87a                print_results__str_17_____C_LIB_
 .rodata.print_results__str_18_____C_INC_
                0x000000000042f891       0x17 0x1 print_results_aarch64.o
                0x000000000042f891                print_results__str_18_____C_INC_
 .rodata.print_results__str_19_____CFLAGS
                0x000000000042f8a8       0x17 0x1 print_results_aarch64.o
                0x000000000042f8a8                print_results__str_19_____CFLAGS
 .rodata.print_results__str_20_____CLINKF
                0x000000000042f8bf       0x17 0x1 print_results_aarch64.o
                0x000000000042f8bf                print_results__str_20_____CLINKF
 .rodata.print_results__str_21_____RAND__
                0x000000000042f8d6       0x17 0x1 print_results_aarch64.o
                0x000000000042f8d6                print_results__str_21_____RAND__
 .rodata.print_results__str_22___________
                0x000000000042f8ed       0xc3 0x1 print_results_aarch64.o
                0x000000000042f8ed                print_results__str_22___________
 .rodata.cst8   0x000000000042f9b0       0x18 0x8 sp_aarch64.o
 .rodata.sp__str_timer_flag
                0x000000000042f9c8        0xb 0x1 sp_aarch64.o
                0x000000000042f9c8                sp__str_timer_flag
 .rodata.sp__str_1_r_
                0x000000000042f9d3        0x2 0x1 sp_aarch64.o
                0x000000000042f9d3                sp__str_1_r_
 .rodata.sp__str_2_total_
                0x000000000042f9d5        0x6 0x1 sp_aarch64.o
                0x000000000042f9d5                sp__str_2_total_
 .rodata.sp__str_3_rhsx_
                0x000000000042f9db        0x5 0x1 sp_aarch64.o
                0x000000000042f9db                sp__str_3_rhsx_
 .rodata.sp__str_4_rhsy_
                0x000000000042f9e0        0x5 0x1 sp_aarch64.o
                0x000000000042f9e0                sp__str_4_rhsy_
 .rodata.sp__str_5_rhsz_
                0x000000000042f9e5        0x5 0x1 sp_aarch64.o
                0x000000000042f9e5                sp__str_5_rhsz_
 .rodata.sp__str_6_rhs_
                0x000000000042f9ea        0x4 0x1 sp_aarch64.o
                0x000000000042f9ea                sp__str_6_rhs_
 .rodata.sp__str_7_xsolve_
                0x000000000042f9ee        0x7 0x1 sp_aarch64.o
                0x000000000042f9ee                sp__str_7_xsolve_
 .rodata.sp__str_8_ysolve_
                0x000000000042f9f5        0x7 0x1 sp_aarch64.o
                0x000000000042f9f5                sp__str_8_ysolve_
 .rodata.sp__str_9_zsolve_
                0x000000000042f9fc        0x7 0x1 sp_aarch64.o
                0x000000000042f9fc                sp__str_9_zsolve_
 .rodata.sp__str_10_redist1_
                0x000000000042fa03        0x8 0x1 sp_aarch64.o
                0x000000000042fa03                sp__str_10_redist1_
 .rodata.sp__str_11_redist2_
                0x000000000042fa0b        0x8 0x1 sp_aarch64.o
                0x000000000042fa0b                sp__str_11_redist2_
 .rodata.sp__str_12_tzetar_
                0x000000000042fa13        0x7 0x1 sp_aarch64.o
                0x000000000042fa13                sp__str_12_tzetar_
 .rodata.sp__str_13_ninvr_
                0x000000000042fa1a        0x6 0x1 sp_aarch64.o
                0x000000000042fa1a                sp__str_13_ninvr_
 .rodata.sp__str_14_pinvr_
                0x000000000042fa20        0x6 0x1 sp_aarch64.o
                0x000000000042fa20                sp__str_14_pinvr_
 .rodata.sp__str_15_txinvr_
                0x000000000042fa26        0x7 0x1 sp_aarch64.o
                0x000000000042fa26                sp__str_15_txinvr_
 .rodata.sp__str_16_add_
                0x000000000042fa2d        0x4 0x1 sp_aarch64.o
                0x000000000042fa2d                sp__str_16_add_
 .rodata.sp__str_17____NAS_Par
                0x000000000042fa31       0x3b 0x1 sp_aarch64.o
                0x000000000042fa31                sp__str_17____NAS_Par
 .rodata.sp__str_18_inputsp_da
                0x000000000042fa6c        0xd 0x1 sp_aarch64.o
                0x000000000042fa6c                sp__str_18_inputsp_da
 .rodata.sp__str_19__Reading_f
                0x000000000042fa79       0x27 0x1 sp_aarch64.o
                0x000000000042fa79                sp__str_19__Reading_f
 .rodata.sp__str_20__d_
                0x000000000042faa0        0x3 0x1 sp_aarch64.o
                0x000000000042faa0                sp__str_20__d_
 .rodata.sp__str_21__lf_
                0x000000000042faa3        0x4 0x1 sp_aarch64.o
                0x000000000042faa3                sp__str_21__lf_
 .rodata.sp__str_22__d_d_d_
                0x000000000042faa7        0x7 0x1 sp_aarch64.o
                0x000000000042faa7                sp__str_22__d_d_d_
 .rodata.sp__str_23__No_input_
                0x000000000042faae       0x36 0x1 sp_aarch64.o
                0x000000000042faae                sp__str_23__No_input_
 .rodata.sp__str_24__Size___4d
                0x000000000042fae4       0x14 0x1 sp_aarch64.o
                0x000000000042fae4                sp__str_24__Size___4d
 .rodata.sp__str_25__Iteration
                0x000000000042faf8       0x20 0x1 sp_aarch64.o
                0x000000000042faf8                sp__str_25__Iteration
 .rodata.sp__str_26___
                0x000000000042fb18        0x2 0x1 sp_aarch64.o
                0x000000000042fb18                sp__str_26___
 .rodata.sp__str_27___d___d___
                0x000000000042fb1a        0xd 0x1 sp_aarch64.o
                0x000000000042fb1a                sp__str_27___d___d___
 .rodata.sp__str_28__Problem_s
                0x000000000042fb27       0x30 0x1 sp_aarch64.o
                0x000000000042fb27                sp__str_28__Problem_s
 .rodata.sp__str_29_goin_to_mi
                0x000000000042fb57       0x17 0x1 sp_aarch64.o
                0x000000000042fb57                sp__str_29_goin_to_mi
 .rodata.sp__str_30__Time_step
                0x000000000042fb6e       0x10 0x1 sp_aarch64.o
                0x000000000042fb6e                sp__str_30__Time_step
 .rodata.sp__str_31___migrated
                0x000000000042fb7e       0x18 0x1 sp_aarch64.o
                0x000000000042fb7e                sp__str_31___migrated
 .rodata.sp__str_32_SP_
                0x000000000042fb96        0x3 0x1 sp_aarch64.o
                0x000000000042fb96                sp__str_32_SP_
 .rodata.sp__str_33___________
                0x000000000042fb99       0x19 0x1 sp_aarch64.o
                0x000000000042fb99                sp__str_33___________
 .rodata.sp__str_34_3_3_1_
                0x000000000042fbb2        0x6 0x1 sp_aarch64.o
                0x000000000042fbb2                sp__str_34_3_3_1_
 .rodata.sp__str_35_03_Nov_201
                0x000000000042fbb8        0xc 0x1 sp_aarch64.o
                0x000000000042fbb8                sp__str_35_03_Nov_201
 .rodata.sp__str_36_gcc_
                0x000000000042fbc4        0x4 0x1 sp_aarch64.o
                0x000000000042fbc4                sp__str_36_gcc_
 .rodata.sp__str_37___CC__
                0x000000000042fbc8        0x6 0x1 sp_aarch64.o
                0x000000000042fbc8                sp__str_37___CC__
 .rodata.sp__str_38__lm_
                0x000000000042fbce        0x4 0x1 sp_aarch64.o
                0x000000000042fbce                sp__str_38__lm_
 .rodata.sp__str_39__I___commo
                0x000000000042fbd2        0xc 0x1 sp_aarch64.o
                0x000000000042fbd2                sp__str_39__I___commo
 .rodata.sp__str_40__g__Wall__
                0x000000000042fbde       0x1d 0x1 sp_aarch64.o
                0x000000000042fbde                sp__str_40__g__Wall__
 .rodata.sp__str_41__O3__mcmod
                0x000000000042fbfb       0x14 0x1 sp_aarch64.o
                0x000000000042fbfb                sp__str_41__O3__mcmod
 .rodata.sp__str_42__none__
                0x000000000042fc0f        0x7 0x1 sp_aarch64.o
                0x000000000042fc0f                sp__str_42__none__
 .rodata.sp__str_43___SECTION_
                0x000000000042fc16       0x19 0x1 sp_aarch64.o
                0x000000000042fc16                sp__str_43___SECTION_
 .rodata.sp__str_44_____8s__9_
                0x000000000042fc2f       0x19 0x1 sp_aarch64.o
                0x000000000042fc2f                sp__str_44_____8s__9_
 .rodata.sp__str_45__________8
                0x000000000042fc48       0x1e 0x1 sp_aarch64.o
                0x000000000042fc48                sp__str_45__________8
 .rodata.sp__str_46_sub_rhs_
                0x000000000042fc66        0x8 0x1 sp_aarch64.o
                0x000000000042fc66                sp__str_46_sub_rhs_
 .rodata.sp__str_47_rest_rhs_
                0x000000000042fc6e        0x9 0x1 sp_aarch64.o
                0x000000000042fc6e                sp__str_47_rest_rhs_
 .rodata.sp__str_48_sub_zsol_
                0x000000000042fc77        0x9 0x1 sp_aarch64.o
                0x000000000042fc77                sp__str_48_sub_zsol_
 .rodata.sp__str_49_redist_
                0x000000000042fc80        0x7 0x1 sp_aarch64.o
                0x000000000042fc80                sp__str_49_redist_
 .rodata.verify__str__Verificat
                0x000000000042fc87       0x2c 0x1 verify_aarch64.o
                0x000000000042fc87                verify__str__Verificat
 .rodata.verify__str_1__accuracy_
                0x000000000042fcb3       0x29 0x1 verify_aarch64.o
                0x000000000042fcb3                verify__str_1__accuracy_
 .rodata.verify__str_2__DT_does_n
                0x000000000042fcdc       0x32 0x1 verify_aarch64.o
                0x000000000042fcdc                verify__str_2__DT_does_n
 .rodata.verify__str_3__Unknown_c
                0x000000000042fd0e       0x10 0x1 verify_aarch64.o
                0x000000000042fd0e                verify__str_3__Unknown_c
 .rodata.verify__str_4__Compariso
                0x000000000042fd1e       0x26 0x1 verify_aarch64.o
                0x000000000042fd1e                verify__str_4__Compariso
 .rodata.verify__str_5__RMS_norms
                0x000000000042fd44       0x18 0x1 verify_aarch64.o
                0x000000000042fd44                verify__str_5__RMS_norms
 .rodata.verify__str_6___________
                0x000000000042fd5c       0x16 0x1 verify_aarch64.o
                0x000000000042fd5c                verify__str_6___________
 .rodata.verify__str_7___________
                0x000000000042fd72       0x24 0x1 verify_aarch64.o
                0x000000000042fd72                verify__str_7___________
 .rodata.verify__str_8__FAILURE__
                0x000000000042fd96       0x24 0x1 verify_aarch64.o
                0x000000000042fd96                verify__str_8__FAILURE__
 .rodata.verify__str_9__Compariso
                0x000000000042fdba       0x2c 0x1 verify_aarch64.o
                0x000000000042fdba                verify__str_9__Compariso
 .rodata.verify__str_10__RMS_norms
                0x000000000042fde6       0x1e 0x1 verify_aarch64.o
                0x000000000042fde6                verify__str_10__RMS_norms
 .rodata.verify__str_11__No_refere
                0x000000000042fe04       0x1f 0x1 verify_aarch64.o
                0x000000000042fe04                verify__str_11__No_refere
 .rodata.verify__str_12__No_verifi
                0x000000000042fe23       0x1c 0x1 verify_aarch64.o
                0x000000000042fe23                verify__str_12__No_verifi
 .rodata.verify__str_13__Verificat
                0x000000000042fe3f       0x1a 0x1 verify_aarch64.o
                0x000000000042fe3f                verify__str_13__Verificat
 .rodata.verify__str_14__Verificat
                0x000000000042fe59       0x16 0x1 verify_aarch64.o
                0x000000000042fe59                verify__str_14__Verificat
 *fill*         0x000000000042fe6f        0x1 
 .rodata.cst8   0x000000000042fe70        0x8 0x8 wtime_aarch64.o
 .rodata.src_env___libc_start_main__str_
                0x000000000042fe78        0x1 0x1 /usr/local/popcorn/aarch64/lib/libc.a(__libc_start_main.o)
                0x000000000042fe78                src_env___libc_start_main__str_
 *fill*         0x000000000042fe79        0x3 
 .rodata.src_env___libc_start_main___const___init_libc_pfd_
                0x000000000042fe7c       0x18 0x4 /usr/local/popcorn/aarch64/lib/libc.a(__libc_start_main.o)
                0x000000000042fe7c                src_env___libc_start_main___const___init_libc_pfd_
 .rodata.src_env___libc_start_main__str_1__dev_null_
                0x000000000042fe94        0xa 0x1 /usr/local/popcorn/aarch64/lib/libc.a(__libc_start_main.o)
                0x000000000042fe94                src_env___libc_start_main__str_1__dev_null_
 *fill*         0x000000000042fe9e        0x2 
 .rodata.cst8   0x000000000042fea0       0xc0 0x8 /usr/local/popcorn/aarch64/lib/libc.a(pow.o)
 .rodata.src_math_pow_c_bp
                0x000000000042ff60       0x10 0x8 /usr/local/popcorn/aarch64/lib/libc.a(pow.o)
 .rodata.src_math_pow_c_dp_l
                0x000000000042ff70       0x10 0x8 /usr/local/popcorn/aarch64/lib/libc.a(pow.o)
 .rodata.src_math_pow_c_dp_h
                0x000000000042ff80       0x10 0x8 /usr/local/popcorn/aarch64/lib/libc.a(pow.o)
 .rodata.src_stdio_fopen__str_rwa_
                0x000000000042ff90        0x4 0x1 /usr/local/popcorn/aarch64/lib/libc.a(fopen.o)
                0x000000000042ff90                src_stdio_fopen__str_rwa_
 *fill*         0x000000000042ff94        0x4 
 .rodata.stdout
                0x000000000042ff98        0x8 0x8 /usr/local/popcorn/aarch64/lib/libc.a(stdout.o)
                0x000000000042ff98                stdout
 .rodata.cst16  0x000000000042ffa0       0xb0 0x10 /usr/local/popcorn/aarch64/lib/libc.a(vfprintf.o)
 .rodata.printf_core
                0x0000000000430050       0x5c 0x2 /usr/local/popcorn/aarch64/lib/libc.a(vfprintf.o)
 .rodata.pop_arg
                0x00000000004300ac       0x12 0x1 /usr/local/popcorn/aarch64/lib/libc.a(vfprintf.o)
 .rodata.src_stdio_vfprintf__str______0X0x_
                0x00000000004300be        0xa 0x1 /usr/local/popcorn/aarch64/lib/libc.a(vfprintf.o)
                0x00000000004300be                src_stdio_vfprintf__str______0X0x_
 .rodata.src_stdio_vfprintf__str_1__null__
                0x00000000004300c8        0x7 0x1 /usr/local/popcorn/aarch64/lib/libc.a(vfprintf.o)
                0x00000000004300c8                src_stdio_vfprintf__str_1__null__
 .rodata.src_stdio_vfprintf_c_states
                0x00000000004300cf      0x1d0 0x1 /usr/local/popcorn/aarch64/lib/libc.a(vfprintf.o)
 .rodata.src_stdio_vfprintf_c_xdigits
                0x000000000043029f       0x10 0x1 /usr/local/popcorn/aarch64/lib/libc.a(vfprintf.o)
 .rodata.src_stdio_vfprintf__str_3__0X_0X_0X_
                0x00000000004302af       0x13 0x1 /usr/local/popcorn/aarch64/lib/libc.a(vfprintf.o)
                0x00000000004302af                src_stdio_vfprintf__str_3__0X_0X_0X_
 .rodata.src_stdio_vfprintf__str_4_inf_
                0x00000000004302c2        0x4 0x1 /usr/local/popcorn/aarch64/lib/libc.a(vfprintf.o)
                0x00000000004302c2                src_stdio_vfprintf__str_4_inf_
 .rodata.src_stdio_vfprintf__str_5_INF_
                0x00000000004302c6        0x4 0x1 /usr/local/popcorn/aarch64/lib/libc.a(vfprintf.o)
                0x00000000004302c6                src_stdio_vfprintf__str_5_INF_
 .rodata.src_stdio_vfprintf__str_6_nan_
                0x00000000004302ca        0x4 0x1 /usr/local/popcorn/aarch64/lib/libc.a(vfprintf.o)
                0x00000000004302ca                src_stdio_vfprintf__str_6_nan_
 .rodata.src_stdio_vfprintf__str_7_NAN_
                0x00000000004302ce        0x4 0x1 /usr/local/popcorn/aarch64/lib/libc.a(vfprintf.o)
                0x00000000004302ce                src_stdio_vfprintf__str_7_NAN_
 .rodata.src_stdio_vfprintf__str_8___
                0x00000000004302d2        0x2 0x1 /usr/local/popcorn/aarch64/lib/libc.a(vfprintf.o)
                0x00000000004302d2                src_stdio_vfprintf__str_8___
 .rodata.vfscanf
                0x00000000004302d4       0xce 0x2 /usr/local/popcorn/aarch64/lib/libc.a(vfscanf.o)
 .rodata.src_errno_strerror_c_errid
                0x00000000004303a2       0x58 0x1 /usr/local/popcorn/aarch64/lib/libc.a(strerror.o)
 .rodata.src_errno_strerror_c_errmsg
                0x00000000004303fa      0x70c 0x1 /usr/local/popcorn/aarch64/lib/libc.a(strerror.o)
 *fill*         0x0000000000430b06        0xa 
 .rodata.cst16  0x0000000000430b10       0x50 0x10 /usr/local/popcorn/aarch64/lib/libc.a(floatscan.o)
                                         0x90 (size before relaxing)
 .rodata.src_internal_floatscan_c_decfloat_p10s
                0x0000000000430b60       0x20 0x4 /usr/local/popcorn/aarch64/lib/libc.a(floatscan.o)
 .rodata.src_internal_floatscan_switch_table___floatscan_
                0x0000000000430b80        0xc 0x4 /usr/local/popcorn/aarch64/lib/libc.a(floatscan.o)
                0x0000000000430b80                src_internal_floatscan_switch_table___floatscan_
 .rodata.src_internal_floatscan_switch_table___floatscan_2_
                0x0000000000430b8c        0xc 0x4 /usr/local/popcorn/aarch64/lib/libc.a(floatscan.o)
                0x0000000000430b8c                src_internal_floatscan_switch_table___floatscan_2_
 .rodata.src_internal_intscan_c_table
                0x0000000000430b98      0x101 0x1 /usr/local/popcorn/aarch64/lib/libc.a(intscan.o)
 .rodata.src_internal_intscan__str__________
                0x0000000000430c99        0x9 0x1 /usr/local/popcorn/aarch64/lib/libc.a(intscan.o)
                0x0000000000430c99                src_internal_intscan__str__________
 .rodata.src_malloc_malloc_c_bin_tab
                0x0000000000430ca2       0x3c 0x1 /usr/local/popcorn/aarch64/lib/libc.a(malloc.o)
 .rodata.src_malloc_popcorn_malloc_c_bin_tab
                0x0000000000430cde       0x3c 0x1 /usr/local/popcorn/aarch64/lib/libc.a(popcorn_malloc.o)
 *fill*         0x0000000000430d1a        0x6 
 .rodata.cst16  0x0000000000430d20       0x20 0x10 /usr/local/popcorn/aarch64/lib/libc.a(fmodl.o)
                                         0x30 (size before relaxing)
 .rodata.cst16  0x0000000000430d40       0x20 0x10 /usr/local/popcorn/aarch64/lib/libc.a(frexpl.o)
 .rodata.cst16  0x0000000000430d60       0x20 0x10 /usr/local/popcorn/aarch64/lib/libc.a(scalbnl.o)
 .rodata.src_stdio___fdopen__str_rwa_
                0x0000000000430d80        0x4 0x1 /usr/local/popcorn/aarch64/lib/libc.a(__fdopen.o)
                0x0000000000430d80                src_stdio___fdopen__str_rwa_
 *fill*         0x0000000000430d84        0xc 
 .rodata.cst16  0x0000000000430d90       0x30 0x10 /usr/local/popcorn/aarch64/lib/libc.a(platform.o)
 .rodata.__fsmu8
                0x0000000000430dc0       0xcc 0x4 /usr/local/popcorn/aarch64/lib/libc.a(internal.o)
                0x0000000000430dc0                __fsmu8
 .rodata.__migrate_shim_internal
                0x0000000000430e8c       0x10 0x4 /usr/local/popcorn/aarch64/lib/libmigrate.a(migrate.o)
 .rodata.get_thread_pointer
                0x0000000000430e9c       0x10 0x4 /usr/local/popcorn/aarch64/lib/libmigrate.a(migrate.o)
 .rodata.src_migrate__str_Destinatio
                0x0000000000430eac       0x29 0x1 /usr/local/popcorn/aarch64/lib/libmigrate.a(migrate.o)
                0x0000000000430eac                src_migrate__str_Destinatio
 .rodata.src_migrate__str_1_0_____Unsu
                0x0000000000430ed5       0x21 0x1 /usr/local/popcorn/aarch64/lib/libmigrate.a(migrate.o)
                0x0000000000430ed5                src_migrate__str_1_0_____Unsu
 .rodata.src_migrate__str_2_src_migrat
                0x0000000000430ef6        0xe 0x1 /usr/local/popcorn/aarch64/lib/libmigrate.a(migrate.o)
                0x0000000000430ef6                src_migrate__str_2_src_migrat
 .rodata.src_migrate___func_____migrate_shim_internal___migrate_
                0x0000000000430f04       0x18 0x1 /usr/local/popcorn/aarch64/lib/libmigrate.a(migrate.o)
                0x0000000000430f04                src_migrate___func_____migrate_shim_internal___migrate_
 .rodata.src_migrate__str_3_Could_not_
                0x0000000000430f1c       0x1a 0x1 /usr/local/popcorn/aarch64/lib/libmigrate.a(migrate.o)
                0x0000000000430f1c                src_migrate__str_3_Could_not_
 .rodata.src_migrate__str_4_Could_not_
                0x0000000000430f36       0x1a 0x1 /usr/local/popcorn/aarch64/lib/libmigrate.a(migrate.o)
                0x0000000000430f36                src_migrate__str_4_Could_not_
 .rodata.src_migrate___func___get_thread_pointer_get_thread
                0x0000000000430f50       0x13 0x1 /usr/local/popcorn/aarch64/lib/libmigrate.a(migrate.o)
                0x0000000000430f50                src_migrate___func___get_thread_pointer_get_thread
 .rodata.src_mapping__str_POPCORN_TH
                0x0000000000430f63       0x18 0x1 /usr/local/popcorn/aarch64/lib/libmigrate.a(mapping.o)
                0x0000000000430f63                src_mapping__str_POPCORN_TH
 .rodata.src_mapping__str_1_thread_sch
                0x0000000000430f7b       0x14 0x1 /usr/local/popcorn/aarch64/lib/libmigrate.a(mapping.o)
                0x0000000000430f7b                src_mapping__str_1_thread_sch
 .rodata.src_mapping__str_2_r_
                0x0000000000430f8f        0x2 0x1 /usr/local/popcorn/aarch64/lib/libmigrate.a(mapping.o)
                0x0000000000430f8f                src_mapping__str_2_r_
 .rodata.src_mapping__str_3__lu__lu_
                0x0000000000430f91        0x8 0x1 /usr/local/popcorn/aarch64/lib/libmigrate.a(mapping.o)
                0x0000000000430f91                src_mapping__str_3__lu__lu_
 .rodata.src_mapping__str_4__d_
                0x0000000000430f99        0x3 0x1 /usr/local/popcorn/aarch64/lib/libmigrate.a(mapping.o)
                0x0000000000430f99                src_mapping__str_4__d_
 .rodata.src_userspace__str_ST_AARCH64
                0x0000000000430f9c        0xf 0x1 /usr/local/popcorn/aarch64/lib/libstack-transform.a(userspace.o)
                0x0000000000430f9c                src_userspace__str_ST_AARCH64
 .rodata.src_userspace__str_1__s_aarch64
                0x0000000000430fab        0xb 0x1 /usr/local/popcorn/aarch64/lib/libstack-transform.a(userspace.o)
                0x0000000000430fab                src_userspace__str_1__s_aarch64
 .rodata.src_userspace__str_2_ST_POWERPC
                0x0000000000430fb6       0x11 0x1 /usr/local/popcorn/aarch64/lib/libstack-transform.a(userspace.o)
                0x0000000000430fb6                src_userspace__str_2_ST_POWERPC
 .rodata.src_userspace__str_3__s_powerpc
                0x0000000000430fc7        0xd 0x1 /usr/local/popcorn/aarch64/lib/libstack-transform.a(userspace.o)
                0x0000000000430fc7                src_userspace__str_3__s_powerpc
 .rodata.src_userspace__str_4_ST_RISCV64
                0x0000000000430fd4        0xf 0x1 /usr/local/popcorn/aarch64/lib/libstack-transform.a(userspace.o)
                0x0000000000430fd4                src_userspace__str_4_ST_RISCV64
 .rodata.src_userspace__str_5__s_riscv64
                0x0000000000430fe3        0xb 0x1 /usr/local/popcorn/aarch64/lib/libstack-transform.a(userspace.o)
                0x0000000000430fe3                src_userspace__str_5__s_riscv64
 .rodata.src_userspace__str_6_ST_X86_64_
                0x0000000000430fee        0xe 0x1 /usr/local/popcorn/aarch64/lib/libstack-transform.a(userspace.o)
                0x0000000000430fee                src_userspace__str_6_ST_X86_64_
 .rodata.src_userspace__str_7__s_x86_64_
                0x0000000000430ffc        0xa 0x1 /usr/local/popcorn/aarch64/lib/libstack-transform.a(userspace.o)
                0x0000000000430ffc                src_userspace__str_7__s_x86_64_
 .rodata.src_userspace__str_8__proc__d_m
                0x0000000000431006        0xe 0x1 /usr/local/popcorn/aarch64/lib/libstack-transform.a(userspace.o)
                0x0000000000431006                src_userspace__str_8__proc__d_m
 .rodata.src_userspace__str_9_r_
                0x0000000000431014        0x2 0x1 /usr/local/popcorn/aarch64/lib/libstack-transform.a(userspace.o)
                0x0000000000431014                src_userspace__str_9_r_
 .rodata.src_userspace__str_10__lx__lx__s
                0x0000000000431016       0x19 0x1 /usr/local/popcorn/aarch64/lib/libstack-transform.a(userspace.o)
                0x0000000000431016                src_userspace__str_10__lx__lx__s
 .rodata.src_userspace__str_11__stack__
                0x000000000043102f        0x8 0x1 /usr/local/popcorn/aarch64/lib/libstack-transform.a(userspace.o)
                0x000000000043102f                src_userspace__str_11__stack__
 *fill*         0x0000000000431037        0x1 
 .rodata.src_userspace_switch_table_st_userspace_rewrite_12_
                0x0000000000431038       0x20 0x8 /usr/local/popcorn/aarch64/lib/libstack-transform.a(userspace.o)
                0x0000000000431038                src_userspace_switch_table_st_userspace_rewrite_12_
 .rodata.src_init__str__stack_tra
                0x0000000000431058       0x1f 0x1 /usr/local/popcorn/aarch64/lib/libstack-transform.a(init.o)
                0x0000000000431058                src_init__str__stack_tra
 .rodata.src_init__str_1__stack_tra
                0x0000000000431077       0x18 0x1 /usr/local/popcorn/aarch64/lib/libstack-transform.a(init.o)
                0x0000000000431077                src_init__str_1__stack_tra
 .rodata.src_init__str_2__stack_tra
                0x000000000043108f       0x14 0x1 /usr/local/popcorn/aarch64/lib/libstack-transform.a(init.o)
                0x000000000043108f                src_init__str_2__stack_tra
 .rodata.src_init__str_3__stack_tra
                0x00000000004310a3       0x16 0x1 /usr/local/popcorn/aarch64/lib/libstack-transform.a(init.o)
                0x00000000004310a3                src_init__str_3__stack_tra
 .rodata.src_init__str_4__stack_tra
                0x00000000004310b9       0x16 0x1 /usr/local/popcorn/aarch64/lib/libstack-transform.a(init.o)
                0x00000000004310b9                src_init__str_4__stack_tra
 .rodata.src_init__str_5__stack_tra
                0x00000000004310cf       0x1c 0x1 /usr/local/popcorn/aarch64/lib/libstack-transform.a(init.o)
                0x00000000004310cf                src_init__str_5__stack_tra
 *fill*         0x00000000004310eb        0x5 
 .rodata.cst8   0x00000000004310f0        0x8 0x8 /usr/local/popcorn/aarch64/lib/libstack-transform.a(rewrite.o)
 .rodata.src_rewrite__str__src_rewri
                0x00000000004310f8       0x42 0x1 /usr/local/popcorn/aarch64/lib/libstack-transform.a(rewrite.o)
                0x00000000004310f8                src_rewrite__str__src_rewri
 .rodata.src_rewrite__str_1__src_rewri
                0x000000000043113a       0x68 0x1 /usr/local/popcorn/aarch64/lib/libstack-transform.a(rewrite.o)
                0x000000000043113a                src_rewrite__str_1__src_rewri
 .rodata.src_rewrite__str_2__src_rewri
                0x00000000004311a2       0x54 0x1 /usr/local/popcorn/aarch64/lib/libstack-transform.a(rewrite.o)
                0x00000000004311a2                src_rewrite__str_2__src_rewri
 .rodata.src_rewrite__str_3__src_rewri
                0x00000000004311f6       0x61 0x1 /usr/local/popcorn/aarch64/lib/libstack-transform.a(rewrite.o)
                0x00000000004311f6                src_rewrite__str_3__src_rewri
 .rodata.src_util__str_aarch64_
                0x0000000000431257        0x8 0x1 /usr/local/popcorn/aarch64/lib/libstack-transform.a(util.o)
                0x0000000000431257                src_util__str_aarch64_
 .rodata.src_util__str_1_powerpc64_
                0x000000000043125f        0xa 0x1 /usr/local/popcorn/aarch64/lib/libstack-transform.a(util.o)
                0x000000000043125f                src_util__str_1_powerpc64_
 .rodata.src_util__str_2_riscv64_
                0x0000000000431269        0x8 0x1 /usr/local/popcorn/aarch64/lib/libstack-transform.a(util.o)
                0x0000000000431269                src_util__str_2_riscv64_
 .rodata.src_util__str_3_x86_64_
                0x0000000000431271        0x7 0x1 /usr/local/popcorn/aarch64/lib/libstack-transform.a(util.o)
                0x0000000000431271                src_util__str_3_x86_64_
 .rodata.src_util__str_4_unknown_un
                0x0000000000431278       0x21 0x1 /usr/local/popcorn/aarch64/lib/libstack-transform.a(util.o)
                0x0000000000431278                src_util__str_4_unknown_un
 *fill*         0x0000000000431299        0x1 
 .rodata.src_arch_aarch64_properties_c_callee_saved_aarch64
                0x000000000043129a       0x28 0x2 /usr/local/popcorn/aarch64/lib/libstack-transform.a(properties.o)
 .rodata.src_arch_aarch64_properties_c_callee_saved_size_aarch64
                0x00000000004312c2       0x28 0x2 /usr/local/popcorn/aarch64/lib/libstack-transform.a(properties.o)
 *fill*         0x00000000004312ea        0x6 
 .rodata.properties_aarch64
                0x00000000004312f0       0x38 0x8 /usr/local/popcorn/aarch64/lib/libstack-transform.a(properties.o)
                0x00000000004312f0                properties_aarch64
 .rodata.src_arch_aarch64_properties__str__src_arch_
                0x0000000000431328       0x51 0x1 /usr/local/popcorn/aarch64/lib/libstack-transform.a(properties.o)
                0x0000000000431328                src_arch_aarch64_properties__str__src_arch_
 .rodata.reg_aarch64
                0x0000000000431379       0x60 0x1 /usr/local/popcorn/aarch64/lib/libstack-transform.a(regs.o)
 *fill*         0x00000000004313d9        0x7 
 .rodata.regs_aarch64
                0x00000000004313e0       0xa8 0x8 /usr/local/popcorn/aarch64/lib/libstack-transform.a(regs.o)
                0x00000000004313e0                regs_aarch64
 .rodata.src_arch_aarch64_regs__str__src_arch_
                0x0000000000431488       0x4c 0x1 /usr/local/popcorn/aarch64/lib/libstack-transform.a(regs.o)
                0x0000000000431488                src_arch_aarch64_regs__str__src_arch_
 .rodata.src_arch_aarch64_regs__str_1__src_arch_
                0x00000000004314d4       0x4c 0x1 /usr/local/popcorn/aarch64/lib/libstack-transform.a(regs.o)
                0x00000000004314d4                src_arch_aarch64_regs__str_1__src_arch_
 .rodata.is_callee_saved_powerpc64
                0x0000000000431520       0x41 0x1 /usr/local/popcorn/aarch64/lib/libstack-transform.a(properties.o)
 .rodata.callee_reg_size_powerpc64
                0x0000000000431561       0x42 0x1 /usr/local/popcorn/aarch64/lib/libstack-transform.a(properties.o)
 *fill*         0x00000000004315a3        0x1 
 .rodata.src_arch_powerpc64_properties_c_callee_saved_powerpc64
                0x00000000004315a4       0x4e 0x2 /usr/local/popcorn/aarch64/lib/libstack-transform.a(properties.o)
 .rodata.src_arch_powerpc64_properties_c_callee_saved_size_powerpc64
                0x00000000004315f2       0x4c 0x2 /usr/local/popcorn/aarch64/lib/libstack-transform.a(properties.o)
 *fill*         0x000000000043163e        0x2 
 .rodata.properties_powerpc64
                0x0000000000431640       0x38 0x8 /usr/local/popcorn/aarch64/lib/libstack-transform.a(properties.o)
                0x0000000000431640                properties_powerpc64
 .rodata.src_arch_powerpc64_properties__str__src_arch_
                0x0000000000431678       0x56 0x1 /usr/local/popcorn/aarch64/lib/libstack-transform.a(properties.o)
                0x0000000000431678                src_arch_powerpc64_properties__str__src_arch_
 .rodata.reg_powerpc64
                0x00000000004316ce       0x43 0x1 /usr/local/popcorn/aarch64/lib/libstack-transform.a(regs.o)
 *fill*         0x0000000000431711        0x7 
 .rodata.regs_powerpc64
                0x0000000000431718       0xa8 0x8 /usr/local/popcorn/aarch64/lib/libstack-transform.a(regs.o)
                0x0000000000431718                regs_powerpc64
 .rodata.src_arch_powerpc64_regs__str__src_arch_
                0x00000000004317c0       0x50 0x1 /usr/local/popcorn/aarch64/lib/libstack-transform.a(regs.o)
                0x00000000004317c0                src_arch_powerpc64_regs__str__src_arch_
 .rodata.src_arch_powerpc64_regs__str_1__src_arch_
                0x0000000000431810       0x50 0x1 /usr/local/popcorn/aarch64/lib/libstack-transform.a(regs.o)
                0x0000000000431810                src_arch_powerpc64_regs__str_1__src_arch_
 .rodata.src_arch_riscv64_properties_c_callee_saved_riscv64
                0x0000000000431860       0x30 0x2 /usr/local/popcorn/aarch64/lib/libstack-transform.a(properties.o)
 .rodata.src_arch_riscv64_properties_c_callee_saved_size_riscv64
                0x0000000000431890       0x30 0x2 /usr/local/popcorn/aarch64/lib/libstack-transform.a(properties.o)
 .rodata.properties_riscv64
                0x00000000004318c0       0x38 0x8 /usr/local/popcorn/aarch64/lib/libstack-transform.a(properties.o)
                0x00000000004318c0                properties_riscv64
 .rodata.src_arch_riscv64_properties__str__src_arch_
                0x00000000004318f8       0x52 0x1 /usr/local/popcorn/aarch64/lib/libstack-transform.a(properties.o)
                0x00000000004318f8                src_arch_riscv64_properties__str__src_arch_
 *fill*         0x000000000043194a        0x6 
 .rodata.regs_riscv64
                0x0000000000431950       0xa8 0x8 /usr/local/popcorn/aarch64/lib/libstack-transform.a(regs.o)
                0x0000000000431950                regs_riscv64
 .rodata.src_arch_riscv64_regs__str__src_arch_
                0x00000000004319f8       0x4c 0x1 /usr/local/popcorn/aarch64/lib/libstack-transform.a(regs.o)
                0x00000000004319f8                src_arch_riscv64_regs__str__src_arch_
 .rodata.src_arch_riscv64_regs__str_1__src_arch_
                0x0000000000431a44       0x4c 0x1 /usr/local/popcorn/aarch64/lib/libstack-transform.a(regs.o)
                0x0000000000431a44                src_arch_riscv64_regs__str_1__src_arch_
 .rodata.src_arch_x86_64_properties_c_callee_saved_x86_64
                0x0000000000431a90        0xe 0x2 /usr/local/popcorn/aarch64/lib/libstack-transform.a(properties.o)
 .rodata.src_arch_x86_64_properties_c_callee_saved_size_x86_64
                0x0000000000431a9e        0xe 0x2 /usr/local/popcorn/aarch64/lib/libstack-transform.a(properties.o)
 *fill*         0x0000000000431aac        0x4 
 .rodata.properties_x86_64
                0x0000000000431ab0       0x38 0x8 /usr/local/popcorn/aarch64/lib/libstack-transform.a(properties.o)
                0x0000000000431ab0                properties_x86_64
 .rodata.src_arch_x86_64_properties__str__src_arch_
                0x0000000000431ae8       0x4f 0x1 /usr/local/popcorn/aarch64/lib/libstack-transform.a(properties.o)
                0x0000000000431ae8                src_arch_x86_64_properties__str__src_arch_
 .rodata.reg_x86_64
                0x0000000000431b37       0x21 0x1 /usr/local/popcorn/aarch64/lib/libstack-transform.a(regs.o)
 .rodata.regs_x86_64
                0x0000000000431b58       0xa8 0x8 /usr/local/popcorn/aarch64/lib/libstack-transform.a(regs.o)
                0x0000000000431b58                regs_x86_64
 .rodata.src_arch_x86_64_regs__str__src_arch_
                0x0000000000431c00       0x4b 0x1 /usr/local/popcorn/aarch64/lib/libstack-transform.a(regs.o)
                0x0000000000431c00                src_arch_x86_64_regs__str__src_arch_
 .rodata.src_arch_x86_64_regs__str_1__src_arch_
                0x0000000000431c4b       0x4b 0x1 /usr/local/popcorn/aarch64/lib/libstack-transform.a(regs.o)
                0x0000000000431c4b                src_arch_x86_64_regs__str_1__src_arch_
 .rodata.src_arch_x86_64_regs__str_2__src_arch_
                0x0000000000431c96       0x4a 0x1 /usr/local/popcorn/aarch64/lib/libstack-transform.a(regs.o)
                0x0000000000431c96                src_arch_x86_64_regs__str_2__src_arch_
 .rodata.src_arch_x86_64_regs__str_3__src_arch_
                0x0000000000431ce0       0x4a 0x1 /usr/local/popcorn/aarch64/lib/libstack-transform.a(regs.o)
                0x0000000000431ce0                src_arch_x86_64_regs__str_3__src_arch_
 .rodata.put_val_arch
                0x0000000000431d2a       0x16 0x1 /usr/local/popcorn/aarch64/lib/libstack-transform.a(data.o)
 .rodata.points_to_stack
                0x0000000000431d40        0x5 0x1 /usr/local/popcorn/aarch64/lib/libstack-transform.a(data.o)
 .rodata.src_data__str__src_data_
                0x0000000000431d45       0x50 0x1 /usr/local/popcorn/aarch64/lib/libstack-transform.a(data.o)
                0x0000000000431d45                src_data__str__src_data_
 .rodata.src_data__str_1__src_data_
                0x0000000000431d95       0x3d 0x1 /usr/local/popcorn/aarch64/lib/libstack-transform.a(data.o)
                0x0000000000431d95                src_data__str_1__src_data_
 .rodata.src_data__str_2__src_data_
                0x0000000000431dd2       0x30 0x1 /usr/local/popcorn/aarch64/lib/libstack-transform.a(data.o)
                0x0000000000431dd2                src_data__str_2__src_data_
 .rodata.src_data__str_3__src_data_
                0x0000000000431e02       0x49 0x1 /usr/local/popcorn/aarch64/lib/libstack-transform.a(data.o)
                0x0000000000431e02                src_data__str_3__src_data_
 .rodata.src_data__str_4__src_data_
                0x0000000000431e4b       0x3f 0x1 /usr/local/popcorn/aarch64/lib/libstack-transform.a(data.o)
                0x0000000000431e4b                src_data__str_4__src_data_
 .rodata.src_data__str_5__src_data_
                0x0000000000431e8a       0x3d 0x1 /usr/local/popcorn/aarch64/lib/libstack-transform.a(data.o)
                0x0000000000431e8a                src_data__str_5__src_data_
 .rodata.src_data__str_6__src_data_
                0x0000000000431ec7       0x3f 0x1 /usr/local/popcorn/aarch64/lib/libstack-transform.a(data.o)
                0x0000000000431ec7                src_data__str_6__src_data_
 .rodata.src_data__str_7__src_data_
                0x0000000000431f06       0x37 0x1 /usr/local/popcorn/aarch64/lib/libstack-transform.a(data.o)
                0x0000000000431f06                src_data__str_7__src_data_
 .rodata.src_data__str_8__src_data_
                0x0000000000431f3d       0x37 0x1 /usr/local/popcorn/aarch64/lib/libstack-transform.a(data.o)
                0x0000000000431f3d                src_data__str_8__src_data_
 .rodata.src_data__str_9__src_data_
                0x0000000000431f74       0x3f 0x1 /usr/local/popcorn/aarch64/lib/libstack-transform.a(data.o)
                0x0000000000431f74                src_data__str_9__src_data_
 .rodata.src_data__str_10__src_data_
                0x0000000000431fb3       0x3f 0x1 /usr/local/popcorn/aarch64/lib/libstack-transform.a(data.o)
                0x0000000000431fb3                src_data__str_10__src_data_
 .rodata.elf_begin
                0x0000000000431ff2       0x10 0x2 /usr/local/popcorn/aarch64/lib/libelf.a(begin.o)
 *fill*         0x0000000000432002        0x6 
 .rodata.begin_c__elf_init
                0x0000000000432008       0xe0 0x8 /usr/local/popcorn/aarch64/lib/libelf.a(begin.o)
 .rodata.begin_c_fmag
                0x00000000004320e8        0x3 0x1 /usr/local/popcorn/aarch64/lib/libelf.a(begin.o)
 .rodata.begin__str__ELF_
                0x00000000004320eb        0x5 0x1 /usr/local/popcorn/aarch64/lib/libelf.a(begin.o)
                0x00000000004320eb                begin__str__ELF_
 .rodata.begin__str_1___arch___
                0x00000000004320f0        0x9 0x1 /usr/local/popcorn/aarch64/lib/libelf.a(begin.o)
                0x00000000004320f0                begin__str_1___arch___
 .rodata.version__str_LIBELF_SAN
                0x00000000004320f9       0x15 0x1 /usr/local/popcorn/aarch64/lib/libelf.a(version.o)
                0x00000000004320f9                version__str_LIBELF_SAN
 *fill*         0x000000000043210e        0x2 
 .rodata.32_xlatetof_c_xlate32_11
                0x0000000000432110      0x220 0x8 /usr/local/popcorn/aarch64/lib/libelf.a(32.xlatetof.o)
 .rodata._elf_scn_type
                0x0000000000432330       0x11 0x1 /usr/local/popcorn/aarch64/lib/libelf.a(cook.o)
 .rodata._elf_cook
                0x0000000000432341       0x22 0x1 /usr/local/popcorn/aarch64/lib/libelf.a(cook.o)
 *fill*         0x0000000000432363        0x5 
 .rodata._elf_scn_init
                0x0000000000432368       0xa0 0x8 /usr/local/popcorn/aarch64/lib/libelf.a(cook.o)
                0x0000000000432368                _elf_scn_init
 .rodata._elf_data_init
                0x0000000000432408       0x58 0x8 /usr/local/popcorn/aarch64/lib/libelf.a(cook.o)
                0x0000000000432408                _elf_data_init
 .rodata.64_xlatetof_c_xlate64_11
                0x0000000000432460      0x220 0x8 /usr/local/popcorn/aarch64/lib/libelf.a(64.xlatetof.o)
 .rodata._elf_fmsize
                0x0000000000432680      0x220 0x8 /usr/local/popcorn/aarch64/lib/libelf.a(32.fsize.o)
                0x0000000000432680                _elf_fmsize
 .rodata.src_exit_assert__str_Assertion_
                0x00000000004328a0       0x23 0x1 /usr/local/popcorn/aarch64/lib/libc.a(assert.o)
                0x00000000004328a0                src_exit_assert__str_Assertion_
 *fill*         0x00000000004328c3        0x5 
 .rodata.stderr
                0x00000000004328c8        0x8 0x8 /usr/local/popcorn/aarch64/lib/libc.a(stderr.o)
                0x00000000004328c8                stderr
 .rodata.src_stdlib_qsort___const_qsort_p_
                0x00000000004328d0       0x10 0x8 /usr/local/popcorn/aarch64/lib/libc.a(qsort.o)
                0x00000000004328d0                src_stdlib_qsort___const_qsort_p_
 .rodata.src_signal_block_c_all_mask
                0x00000000004328e0        0x8 0x8 /usr/local/popcorn/aarch64/lib/libc.a(block.o)
 .rodata.src_signal_block_c_app_mask
                0x00000000004328e8        0x8 0x8 /usr/local/popcorn/aarch64/lib/libc.a(block.o)
 .rodata        0x00000000004328f0        0xf 0x4 /usr/lib/gcc-cross/aarch64-linux-gnu/6/libgcc.a(divtf3.o)
 *fill*         0x00000000004328ff        0x1 
 .rodata        0x0000000000432900        0xf 0x4 /usr/lib/gcc-cross/aarch64-linux-gnu/6/libgcc.a(multf3.o)

.llvm_stackmaps
                0x0000000000432910     0x76f0
 .llvm_stackmaps
                0x0000000000432910       0xd8 0x8 add_aarch64.o
 .llvm_stackmaps
                0x00000000004329e8      0x108 0x8 adi_aarch64.o
 .llvm_stackmaps
                0x0000000000432af0      0xcc8 0x8 c_print_results_aarch64.o
 .llvm_stackmaps
                0x00000000004337b8      0x288 0x8 c_timers_aarch64.o
 .llvm_stackmaps
                0x0000000000433a40      0x240 0x8 error_aarch64.o
 .llvm_stackmaps
                0x0000000000433c80      0x320 0x8 exact_rhs_aarch64.o
 .llvm_stackmaps
                0x0000000000433fa0       0x98 0x8 exact_solution_aarch64.o
 .llvm_stackmaps
                0x0000000000434038      0x898 0x8 initialize_aarch64.o
 .llvm_stackmaps
                0x00000000004348d0      0x120 0x8 ninvr_aarch64.o
 .llvm_stackmaps
                0x00000000004349f0      0x120 0x8 pinvr_aarch64.o
 .llvm_stackmaps
                0x0000000000434b10      0xf48 0x8 print_results_aarch64.o
 .llvm_stackmaps
                0x0000000000435a58      0x110 0x8 randdp_aarch64.o
 .llvm_stackmaps
                0x0000000000435b68      0x578 0x8 rhs_aarch64.o
 .llvm_stackmaps
                0x00000000004360e0      0x160 0x8 set_constants_aarch64.o
 .llvm_stackmaps
                0x0000000000436240     0x2028 0x8 sp_aarch64.o
 .llvm_stackmaps
                0x0000000000438268      0x170 0x8 txinvr_aarch64.o
 .llvm_stackmaps
                0x00000000004383d8      0x180 0x8 tzetar_aarch64.o
 .llvm_stackmaps
                0x0000000000438558      0xd40 0x8 verify_aarch64.o
 .llvm_stackmaps
                0x0000000000439298       0xa8 0x8 wtime_aarch64.o
 .llvm_stackmaps
                0x0000000000439340      0x1d0 0x8 x_solve_aarch64.o
 .llvm_stackmaps
                0x0000000000439510      0x1d0 0x8 y_solve_aarch64.o
 .llvm_stackmaps
                0x00000000004396e0      0x1d0 0x8 z_solve_aarch64.o
 .llvm_stackmaps
                0x00000000004398b0       0x48 0x8 /usr/local/popcorn/aarch64/lib/libc.a(__libc_start_main.o)
 .llvm_stackmaps
                0x00000000004398f8      0x498 0x8 /usr/local/popcorn/aarch64/lib/libmigrate.a(migrate.o)
 .llvm_stackmaps
                0x0000000000439d90      0x270 0x8 /usr/local/popcorn/aarch64/lib/libmigrate.a(mapping.o)

.rodata1
 *(.rodata1)

.eh_frame_hdr
 *(.eh_frame_hdr)
 *(.eh_frame_entry .eh_frame_entry.*)

.eh_frame       0x000000000043a000      0x448
 *(.eh_frame)
 .eh_frame      0x000000000043a000       0x30 0x8 add_aarch64.o
 .eh_frame      0x000000000043a030       0x20 0x8 adi_aarch64.o
                                         0x30 (size before relaxing)
 .eh_frame      0x000000000043a050       0x38 0x8 c_print_results_aarch64.o
                                         0x48 (size before relaxing)
 .eh_frame      0x000000000043a088       0x90 0x8 c_timers_aarch64.o
                                         0xa8 (size before relaxing)
 .eh_frame      0x000000000043a118       0x48 0x8 error_aarch64.o
                                         0x58 (size before relaxing)
 .eh_frame      0x000000000043a160       0x28 0x8 exact_rhs_aarch64.o
                                         0x38 (size before relaxing)
 .eh_frame      0x000000000043a188       0x28 0x8 exact_solution_aarch64.o
                                         0x38 (size before relaxing)
 .eh_frame      0x000000000043a1b0       0x68 0x8 initialize_aarch64.o
                                         0x80 (size before relaxing)
 .eh_frame      0x000000000043a218       0x20 0x8 ninvr_aarch64.o
                                         0x30 (size before relaxing)
 .eh_frame      0x000000000043a238       0x20 0x8 pinvr_aarch64.o
                                         0x30 (size before relaxing)
 .eh_frame      0x000000000043a258       0x38 0x8 print_results_aarch64.o
                                         0x48 (size before relaxing)
 .eh_frame      0x000000000043a290       0x48 0x8 randdp_aarch64.o
                                         0x58 (size before relaxing)
 .eh_frame      0x000000000043a2d8       0x20 0x8 rhs_aarch64.o
                                         0x38 (size before relaxing)
 .eh_frame      0x000000000043a2f8       0x28 0x8 set_constants_aarch64.o
                                         0x40 (size before relaxing)
 .eh_frame      0x000000000043a320       0x38 0x8 sp_aarch64.o
                                         0x48 (size before relaxing)
 .eh_frame      0x000000000043a358       0x20 0x8 txinvr_aarch64.o
                                         0x30 (size before relaxing)
 .eh_frame      0x000000000043a378       0x20 0x8 tzetar_aarch64.o
                                         0x30 (size before relaxing)
 .eh_frame      0x000000000043a398       0x30 0x8 verify_aarch64.o
                                         0x40 (size before relaxing)
 .eh_frame      0x000000000043a3c8       0x20 0x8 wtime_aarch64.o
                                         0x30 (size before relaxing)
 .eh_frame      0x000000000043a3e8       0x20 0x8 x_solve_aarch64.o
                                         0x38 (size before relaxing)
 .eh_frame      0x000000000043a408       0x20 0x8 y_solve_aarch64.o
                                         0x38 (size before relaxing)
 .eh_frame      0x000000000043a428       0x20 0x8 z_solve_aarch64.o
                                         0x38 (size before relaxing)
 *(.eh_frame.*)

.gcc_except_table
 *(.gcc_except_table .gcc_except_table.*)

.gnu_extab
 *(.gnu_extab*)

.exception_ranges
 *(.exception_ranges*)
                0x000000000044af78                . = DATA_SEGMENT_ALIGN (CONSTANT (MAXPAGESIZE), CONSTANT (COMMONPAGESIZE))

.eh_frame
 *(.eh_frame)
 *(.eh_frame.*)

.gnu_extab
 *(.gnu_extab)

.gcc_except_table
 *(.gcc_except_table .gcc_except_table.*)

.exception_ranges
 *(.exception_ranges*)

.tdata          0x000000000044af78        0x0
                [!provide]                        PROVIDE (__tdata_start = .)
 *(.tdata .tdata.* .gnu.linkonce.td.*)

.tbss           0x000000000044af78    0xde0b0
 *(.tbss .tbss.* .gnu.linkonce.tb.*)
 .tbss.src_userspace_c_bounds
                0x000000000044af78       0x10 0x8 /usr/local/popcorn/aarch64/lib/libstack-transform.a(userspace.o)
 .tbss.src_rewrite_c_src_ctx
                0x000000000044af88     0xb050 0x8 /usr/local/popcorn/aarch64/lib/libstack-transform.a(rewrite.o)
 .tbss.src_rewrite_c_src_regs
                0x0000000000455fd8    0x62000 0x1 /usr/local/popcorn/aarch64/lib/libstack-transform.a(rewrite.o)
 .tbss.src_rewrite_c_src_callee
                0x00000000004b7fd8     0x2000 0x1 /usr/local/popcorn/aarch64/lib/libstack-transform.a(rewrite.o)
 .tbss.src_rewrite_c_dest_ctx
                0x00000000004b9fd8     0xb050 0x8 /usr/local/popcorn/aarch64/lib/libstack-transform.a(rewrite.o)
 .tbss.src_rewrite_c_dest_regs
                0x00000000004c5028    0x62000 0x1 /usr/local/popcorn/aarch64/lib/libstack-transform.a(rewrite.o)
 .tbss.src_rewrite_c_dest_callee
                0x0000000000527028     0x2000 0x1 /usr/local/popcorn/aarch64/lib/libstack-transform.a(rewrite.o)
 *(.tcommon)

.preinit_array  0x000000000044af78        0x0
                [!provide]                        PROVIDE (__preinit_array_start = .)
 *(.preinit_array)
                [!provide]                        PROVIDE (__preinit_array_end = .)

.init_array     0x000000000044af78       0x28
                0x000000000044af78                PROVIDE (__init_array_start = .)
 *(SORT_BY_INIT_PRIORITY(.init_array.*) SORT_BY_INIT_PRIORITY(.ctors.*))
 *(.init_array EXCLUDE_FILE(*crtend?.o *crtend.o *crtbegin?.o *crtbegin.o) .ctors)
 .init_array    0x000000000044af78        0x8 0x8 /usr/local/popcorn/aarch64/lib/libc.a(malloc.o)
 .init_array    0x000000000044af80        0x8 0x8 /usr/local/popcorn/aarch64/lib/libc.a(popcorn_malloc.o)
 .init_array    0x000000000044af88        0x8 0x8 /usr/local/popcorn/aarch64/lib/libmigrate.a(migrate.o)
 .init_array    0x000000000044af90        0x8 0x8 /usr/local/popcorn/aarch64/lib/libmigrate.a(mapping.o)
 .init_array    0x000000000044af98        0x8 0x8 /usr/local/popcorn/aarch64/lib/libstack-transform.a(init.o)
                0x000000000044afa0                PROVIDE (__init_array_end = .)

.fini_array     0x000000000044afa0        0x8
                0x000000000044afa0                PROVIDE (__fini_array_start = .)
 *(SORT_BY_INIT_PRIORITY(.fini_array.*) SORT_BY_INIT_PRIORITY(.dtors.*))
 *(.fini_array EXCLUDE_FILE(*crtend?.o *crtend.o *crtbegin?.o *crtbegin.o) .dtors)
 .fini_array    0x000000000044afa0        0x8 0x8 /usr/local/popcorn/aarch64/lib/libmigrate.a(mapping.o)
                0x000000000044afa8                PROVIDE (__fini_array_end = .)

.ctors
 *crtbegin.o(.ctors)
 *crtbegin?.o(.ctors)
 *(EXCLUDE_FILE(*crtend?.o *crtend.o) .ctors)
 *(SORT_BY_NAME(.ctors.*))
 *(.ctors)

.dtors
 *crtbegin.o(.dtors)
 *crtbegin?.o(.dtors)
 *(EXCLUDE_FILE(*crtend?.o *crtend.o) .dtors)
 *(SORT_BY_NAME(.dtors.*))
 *(.dtors)

.jcr
 *(.jcr)

.data.rel.ro
 *(.data.rel.ro.local* .gnu.linkonce.d.rel.ro.local.*)
 *(.data.rel.ro .data.rel.ro.* .gnu.linkonce.d.rel.ro.*)

.dynamic
 *(.dynamic)

.got            0x000000000044afa8       0x40
 *(.got)
 .got           0x000000000044afa8       0x40 0x8 add_aarch64.o
                0x000000000044afa8                _GLOBAL_OFFSET_TABLE_
 *(.igot)
                0x000000000044afe8                . = DATA_SEGMENT_RELRO_END (., 0x18)

.got.plt        0x000000000044afe8       0x18
 *(.got.plt)
 .got.plt       0x000000000044afe8       0x18 0x8 add_aarch64.o
 *(.igot.plt)
 .igot.plt      0x000000000044b000        0x0 0x8 add_aarch64.o

.data           0x000000000044b000      0x1f0
                [!provide]                        PROVIDE (__data_start = .)
 *(.data .data.* .gnu.linkonce.d.*)
 .data.wtime_c_wtime__sec
                0x000000000044b000        0x4 0x4 wtime_aarch64.o
 *fill*         0x000000000044b004        0x4 
 .data.src_stdio_stdout_c_f
                0x000000000044b008       0xe8 0x8 /usr/local/popcorn/aarch64/lib/libc.a(stdout.o)
 .data.__stdout_used
                0x000000000044b0f0        0x8 0x8 /usr/local/popcorn/aarch64/lib/libc.a(stdout.o)
                0x000000000044b0f0                __stdout_used
 .data.src_migrate_c_origin_nid
                0x000000000044b0f8        0x4 0x4 /usr/local/popcorn/aarch64/lib/libmigrate.a(migrate.o)
 .data          0x000000000044b0fc        0x0 0x1 /usr/local/popcorn/aarch64/lib/libmigrate.a(migrate_powerpc64.o)
 .data          0x000000000044b0fc        0x0 0x1 /usr/local/popcorn/aarch64/lib/libmigrate.a(migrate_aarch64.o)
 .data          0x000000000044b0fc        0x0 0x1 /usr/local/popcorn/aarch64/lib/libmigrate.a(migrate_x86_64.o)
 .data          0x000000000044b0fc        0x0 0x1 /usr/local/popcorn/aarch64/lib/libmigrate.a(migrate_riscv64.o)
 .data._elf_sanity_checks
                0x000000000044b0fc        0x4 0x4 /usr/local/popcorn/aarch64/lib/libelf.a(data.o)
                0x000000000044b0fc                _elf_sanity_checks
 .data.src_stdio_stderr_c_f
                0x000000000044b100       0xe8 0x8 /usr/local/popcorn/aarch64/lib/libc.a(stderr.o)
 .data.__stderr_used
                0x000000000044b1e8        0x8 0x8 /usr/local/popcorn/aarch64/lib/libc.a(stderr.o)
                0x000000000044b1e8                __stderr_used
 .data          0x000000000044b1f0        0x0 0x1 /usr/lib/gcc-cross/aarch64-linux-gnu/6/libgcc.a(addtf3.o)
 .data          0x000000000044b1f0        0x0 0x1 /usr/lib/gcc-cross/aarch64-linux-gnu/6/libgcc.a(divtf3.o)
 .data          0x000000000044b1f0        0x0 0x1 /usr/lib/gcc-cross/aarch64-linux-gnu/6/libgcc.a(eqtf2.o)
 .data          0x000000000044b1f0        0x0 0x1 /usr/lib/gcc-cross/aarch64-linux-gnu/6/libgcc.a(getf2.o)
 .data          0x000000000044b1f0        0x0 0x1 /usr/lib/gcc-cross/aarch64-linux-gnu/6/libgcc.a(letf2.o)
 .data          0x000000000044b1f0        0x0 0x1 /usr/lib/gcc-cross/aarch64-linux-gnu/6/libgcc.a(multf3.o)
 .data          0x000000000044b1f0        0x0 0x1 /usr/lib/gcc-cross/aarch64-linux-gnu/6/libgcc.a(subtf3.o)
 .data          0x000000000044b1f0        0x0 0x1 /usr/lib/gcc-cross/aarch64-linux-gnu/6/libgcc.a(unordtf2.o)
 .data          0x000000000044b1f0        0x0 0x1 /usr/lib/gcc-cross/aarch64-linux-gnu/6/libgcc.a(fixtfsi.o)
 .data          0x000000000044b1f0        0x0 0x1 /usr/lib/gcc-cross/aarch64-linux-gnu/6/libgcc.a(fixunstfsi.o)
 .data          0x000000000044b1f0        0x0 0x1 /usr/lib/gcc-cross/aarch64-linux-gnu/6/libgcc.a(floatsitf.o)
 .data          0x000000000044b1f0        0x0 0x1 /usr/lib/gcc-cross/aarch64-linux-gnu/6/libgcc.a(floatunsitf.o)
 .data          0x000000000044b1f0        0x0 0x1 /usr/lib/gcc-cross/aarch64-linux-gnu/6/libgcc.a(extendsftf2.o)
 .data          0x000000000044b1f0        0x0 0x1 /usr/lib/gcc-cross/aarch64-linux-gnu/6/libgcc.a(extenddftf2.o)
 .data          0x000000000044b1f0        0x0 0x1 /usr/lib/gcc-cross/aarch64-linux-gnu/6/libgcc.a(trunctfsf2.o)
 .data          0x000000000044b1f0        0x0 0x1 /usr/lib/gcc-cross/aarch64-linux-gnu/6/libgcc.a(trunctfdf2.o)
 .data          0x000000000044b1f0        0x0 0x1 /usr/lib/gcc-cross/aarch64-linux-gnu/6/libgcc.a(sfp-exceptions.o)

.data1
 *(.data1)
                0x000000000044b1f0                _edata = .
                [!provide]                        PROVIDE (edata = .)
                0x000000000044b1f0                . = .
                0x000000000044b1f0                __bss_start = .
                0x000000000044b1f0                __bss_start__ = .

.bss            0x000000000044c000  0x2e04000
 *(.dynbss)
 *(.bss .bss.* .gnu.linkonce.b.*)
 .bss.c_timers_c_elapsed
                0x000000000044c000      0x200 0x10 c_timers_aarch64.o
 .bss.c_timers_c_start
                0x000000000044c200      0x200 0x10 c_timers_aarch64.o
 .bss.timeron   0x000000000044c400        0x4 0x4 sp_aarch64.o
                0x000000000044c400                timeron
 *fill*         0x000000000044c404        0x4 
 .bss.dt        0x000000000044c408        0x8 0x8 sp_aarch64.o
                0x000000000044c408                dt
 .bss.grid_points
                0x000000000044c410        0xc 0x4 sp_aarch64.o
                0x000000000044c410                grid_points
 .bss.nx2       0x000000000044c41c        0x4 0x4 sp_aarch64.o
                0x000000000044c41c                nx2
 .bss.ny2       0x000000000044c420        0x4 0x4 sp_aarch64.o
                0x000000000044c420                ny2
 .bss.nz2       0x000000000044c424        0x4 0x4 sp_aarch64.o
                0x000000000044c424                nz2
 .bss.tx1       0x000000000044c428        0x8 0x8 sp_aarch64.o
                0x000000000044c428                tx1
 .bss.tx2       0x000000000044c430        0x8 0x8 sp_aarch64.o
                0x000000000044c430                tx2
 .bss.tx3       0x000000000044c438        0x8 0x8 sp_aarch64.o
                0x000000000044c438                tx3
 .bss.ty1       0x000000000044c440        0x8 0x8 sp_aarch64.o
                0x000000000044c440                ty1
 .bss.ty2       0x000000000044c448        0x8 0x8 sp_aarch64.o
                0x000000000044c448                ty2
 .bss.ty3       0x000000000044c450        0x8 0x8 sp_aarch64.o
                0x000000000044c450                ty3
 .bss.tz1       0x000000000044c458        0x8 0x8 sp_aarch64.o
                0x000000000044c458                tz1
 .bss.tz2       0x000000000044c460        0x8 0x8 sp_aarch64.o
                0x000000000044c460                tz2
 .bss.tz3       0x000000000044c468        0x8 0x8 sp_aarch64.o
                0x000000000044c468                tz3
 .bss.dx1       0x000000000044c470        0x8 0x8 sp_aarch64.o
                0x000000000044c470                dx1
 .bss.dx2       0x000000000044c478        0x8 0x8 sp_aarch64.o
                0x000000000044c478                dx2
 .bss.dx3       0x000000000044c480        0x8 0x8 sp_aarch64.o
                0x000000000044c480                dx3
 .bss.dx4       0x000000000044c488        0x8 0x8 sp_aarch64.o
                0x000000000044c488                dx4
 .bss.dx5       0x000000000044c490        0x8 0x8 sp_aarch64.o
                0x000000000044c490                dx5
 .bss.dy1       0x000000000044c498        0x8 0x8 sp_aarch64.o
                0x000000000044c498                dy1
 .bss.dy2       0x000000000044c4a0        0x8 0x8 sp_aarch64.o
                0x000000000044c4a0                dy2
 .bss.dy3       0x000000000044c4a8        0x8 0x8 sp_aarch64.o
                0x000000000044c4a8                dy3
 .bss.dy4       0x000000000044c4b0        0x8 0x8 sp_aarch64.o
                0x000000000044c4b0                dy4
 .bss.dy5       0x000000000044c4b8        0x8 0x8 sp_aarch64.o
                0x000000000044c4b8                dy5
 .bss.dz1       0x000000000044c4c0        0x8 0x8 sp_aarch64.o
                0x000000000044c4c0                dz1
 .bss.dz2       0x000000000044c4c8        0x8 0x8 sp_aarch64.o
                0x000000000044c4c8                dz2
 .bss.dz3       0x000000000044c4d0        0x8 0x8 sp_aarch64.o
                0x000000000044c4d0                dz3
 .bss.dz4       0x000000000044c4d8        0x8 0x8 sp_aarch64.o
                0x000000000044c4d8                dz4
 .bss.dz5       0x000000000044c4e0        0x8 0x8 sp_aarch64.o
                0x000000000044c4e0                dz5
 .bss.dssp      0x000000000044c4e8        0x8 0x8 sp_aarch64.o
                0x000000000044c4e8                dssp
 .bss.ce        0x000000000044c4f0      0x208 0x10 sp_aarch64.o
                0x000000000044c4f0                ce
 .bss.dxmax     0x000000000044c6f8        0x8 0x8 sp_aarch64.o
                0x000000000044c6f8                dxmax
 .bss.dymax     0x000000000044c700        0x8 0x8 sp_aarch64.o
                0x000000000044c700                dymax
 .bss.dzmax     0x000000000044c708        0x8 0x8 sp_aarch64.o
                0x000000000044c708                dzmax
 .bss.xxcon1    0x000000000044c710        0x8 0x8 sp_aarch64.o
                0x000000000044c710                xxcon1
 .bss.xxcon2    0x000000000044c718        0x8 0x8 sp_aarch64.o
                0x000000000044c718                xxcon2
 .bss.xxcon3    0x000000000044c720        0x8 0x8 sp_aarch64.o
                0x000000000044c720                xxcon3
 .bss.xxcon4    0x000000000044c728        0x8 0x8 sp_aarch64.o
                0x000000000044c728                xxcon4
 .bss.xxcon5    0x000000000044c730        0x8 0x8 sp_aarch64.o
                0x000000000044c730                xxcon5
 .bss.dx1tx1    0x000000000044c738        0x8 0x8 sp_aarch64.o
                0x000000000044c738                dx1tx1
 .bss.dx2tx1    0x000000000044c740        0x8 0x8 sp_aarch64.o
                0x000000000044c740                dx2tx1
 .bss.dx3tx1    0x000000000044c748        0x8 0x8 sp_aarch64.o
                0x000000000044c748                dx3tx1
 .bss.dx4tx1    0x000000000044c750        0x8 0x8 sp_aarch64.o
                0x000000000044c750                dx4tx1
 .bss.dx5tx1    0x000000000044c758        0x8 0x8 sp_aarch64.o
                0x000000000044c758                dx5tx1
 .bss.yycon1    0x000000000044c760        0x8 0x8 sp_aarch64.o
                0x000000000044c760                yycon1
 .bss.yycon2    0x000000000044c768        0x8 0x8 sp_aarch64.o
                0x000000000044c768                yycon2
 .bss.yycon3    0x000000000044c770        0x8 0x8 sp_aarch64.o
                0x000000000044c770                yycon3
 .bss.yycon4    0x000000000044c778        0x8 0x8 sp_aarch64.o
                0x000000000044c778                yycon4
 .bss.yycon5    0x000000000044c780        0x8 0x8 sp_aarch64.o
                0x000000000044c780                yycon5
 .bss.dy1ty1    0x000000000044c788        0x8 0x8 sp_aarch64.o
                0x000000000044c788                dy1ty1
 .bss.dy2ty1    0x000000000044c790        0x8 0x8 sp_aarch64.o
                0x000000000044c790                dy2ty1
 .bss.dy3ty1    0x000000000044c798        0x8 0x8 sp_aarch64.o
                0x000000000044c798                dy3ty1
 .bss.dy4ty1    0x000000000044c7a0        0x8 0x8 sp_aarch64.o
                0x000000000044c7a0                dy4ty1
 .bss.dy5ty1    0x000000000044c7a8        0x8 0x8 sp_aarch64.o
                0x000000000044c7a8                dy5ty1
 .bss.zzcon1    0x000000000044c7b0        0x8 0x8 sp_aarch64.o
                0x000000000044c7b0                zzcon1
 .bss.zzcon2    0x000000000044c7b8        0x8 0x8 sp_aarch64.o
                0x000000000044c7b8                zzcon2
 .bss.zzcon3    0x000000000044c7c0        0x8 0x8 sp_aarch64.o
                0x000000000044c7c0                zzcon3
 .bss.zzcon4    0x000000000044c7c8        0x8 0x8 sp_aarch64.o
                0x000000000044c7c8                zzcon4
 .bss.zzcon5    0x000000000044c7d0        0x8 0x8 sp_aarch64.o
                0x000000000044c7d0                zzcon5
 .bss.dz1tz1    0x000000000044c7d8        0x8 0x8 sp_aarch64.o
                0x000000000044c7d8                dz1tz1
 .bss.dz2tz1    0x000000000044c7e0        0x8 0x8 sp_aarch64.o
                0x000000000044c7e0                dz2tz1
 .bss.dz3tz1    0x000000000044c7e8        0x8 0x8 sp_aarch64.o
                0x000000000044c7e8                dz3tz1
 .bss.dz4tz1    0x000000000044c7f0        0x8 0x8 sp_aarch64.o
                0x000000000044c7f0                dz4tz1
 .bss.dz5tz1    0x000000000044c7f8        0x8 0x8 sp_aarch64.o
                0x000000000044c7f8                dz5tz1
 .bss.dnxm1     0x000000000044c800        0x8 0x8 sp_aarch64.o
                0x000000000044c800                dnxm1
 .bss.dnym1     0x000000000044c808        0x8 0x8 sp_aarch64.o
                0x000000000044c808                dnym1
 .bss.dnzm1     0x000000000044c810        0x8 0x8 sp_aarch64.o
                0x000000000044c810                dnzm1
 .bss.c1c2      0x000000000044c818        0x8 0x8 sp_aarch64.o
                0x000000000044c818                c1c2
 .bss.c1c5      0x000000000044c820        0x8 0x8 sp_aarch64.o
                0x000000000044c820                c1c5
 .bss.c3c4      0x000000000044c828        0x8 0x8 sp_aarch64.o
                0x000000000044c828                c3c4
 .bss.c1345     0x000000000044c830        0x8 0x8 sp_aarch64.o
                0x000000000044c830                c1345
 .bss.conz1     0x000000000044c838        0x8 0x8 sp_aarch64.o
                0x000000000044c838                conz1
 .bss.c1        0x000000000044c840        0x8 0x8 sp_aarch64.o
                0x000000000044c840                c1
 .bss.c2        0x000000000044c848        0x8 0x8 sp_aarch64.o
                0x000000000044c848                c2
 .bss.c3        0x000000000044c850        0x8 0x8 sp_aarch64.o
                0x000000000044c850                c3
 .bss.c4        0x000000000044c858        0x8 0x8 sp_aarch64.o
                0x000000000044c858                c4
 .bss.c5        0x000000000044c860        0x8 0x8 sp_aarch64.o
                0x000000000044c860                c5
 .bss.c4dssp    0x000000000044c868        0x8 0x8 sp_aarch64.o
                0x000000000044c868                c4dssp
 .bss.c5dssp    0x000000000044c870        0x8 0x8 sp_aarch64.o
                0x000000000044c870                c5dssp
 .bss.dtdssp    0x000000000044c878        0x8 0x8 sp_aarch64.o
                0x000000000044c878                dtdssp
 .bss.dttx1     0x000000000044c880        0x8 0x8 sp_aarch64.o
                0x000000000044c880                dttx1
 .bss.bt        0x000000000044c888        0x8 0x8 sp_aarch64.o
                0x000000000044c888                bt
 .bss.dttx2     0x000000000044c890        0x8 0x8 sp_aarch64.o
                0x000000000044c890                dttx2
 .bss.dtty1     0x000000000044c898        0x8 0x8 sp_aarch64.o
                0x000000000044c898                dtty1
 .bss.dtty2     0x000000000044c8a0        0x8 0x8 sp_aarch64.o
                0x000000000044c8a0                dtty2
 .bss.dttz1     0x000000000044c8a8        0x8 0x8 sp_aarch64.o
                0x000000000044c8a8                dttz1
 .bss.dttz2     0x000000000044c8b0        0x8 0x8 sp_aarch64.o
                0x000000000044c8b0                dttz2
 .bss.c2dttx1   0x000000000044c8b8        0x8 0x8 sp_aarch64.o
                0x000000000044c8b8                c2dttx1
 .bss.c2dtty1   0x000000000044c8c0        0x8 0x8 sp_aarch64.o
                0x000000000044c8c0                c2dtty1
 .bss.c2dttz1   0x000000000044c8c8        0x8 0x8 sp_aarch64.o
                0x000000000044c8c8                c2dttz1
 .bss.comz1     0x000000000044c8d0        0x8 0x8 sp_aarch64.o
                0x000000000044c8d0                comz1
 .bss.comz4     0x000000000044c8d8        0x8 0x8 sp_aarch64.o
                0x000000000044c8d8                comz4
 .bss.comz5     0x000000000044c8e0        0x8 0x8 sp_aarch64.o
                0x000000000044c8e0                comz5
 .bss.comz6     0x000000000044c8e8        0x8 0x8 sp_aarch64.o
                0x000000000044c8e8                comz6
 .bss.c3c4tx3   0x000000000044c8f0        0x8 0x8 sp_aarch64.o
                0x000000000044c8f0                c3c4tx3
 .bss.c3c4ty3   0x000000000044c8f8        0x8 0x8 sp_aarch64.o
                0x000000000044c8f8                c3c4ty3
 .bss.c3c4tz3   0x000000000044c900        0x8 0x8 sp_aarch64.o
                0x000000000044c900                c3c4tz3
 .bss.c2iv      0x000000000044c908        0x8 0x8 sp_aarch64.o
                0x000000000044c908                c2iv
 .bss.con43     0x000000000044c910        0x8 0x8 sp_aarch64.o
                0x000000000044c910                con43
 .bss.con16     0x000000000044c918        0x8 0x8 sp_aarch64.o
                0x000000000044c918                con16
 .bss.u         0x000000000044c920   0xa50a00 0x10 sp_aarch64.o
                0x000000000044c920                u
 .bss.us        0x0000000000e9d320   0x210200 0x10 sp_aarch64.o
                0x0000000000e9d320                us
 .bss.vs        0x00000000010ad520   0x210200 0x10 sp_aarch64.o
                0x00000000010ad520                vs
 .bss.ws        0x00000000012bd720   0x210200 0x10 sp_aarch64.o
                0x00000000012bd720                ws
 .bss.qs        0x00000000014cd920   0x210200 0x10 sp_aarch64.o
                0x00000000014cd920                qs
 .bss.rho_i     0x00000000016ddb20   0x210200 0x10 sp_aarch64.o
                0x00000000016ddb20                rho_i
 .bss.speed     0x00000000018edd20   0x210200 0x10 sp_aarch64.o
                0x00000000018edd20                speed
 .bss.square    0x0000000001afdf20   0x210200 0x10 sp_aarch64.o
                0x0000000001afdf20                square
 .bss.rhs       0x0000000001d0e120   0xa50a00 0x10 sp_aarch64.o
                0x0000000001d0e120                rhs
 .bss.forcing   0x000000000275eb20   0xa50a00 0x10 sp_aarch64.o
                0x000000000275eb20                forcing
 .bss.cv        0x00000000031af520      0x200 0x10 sp_aarch64.o
                0x00000000031af520                cv
 .bss.rhon      0x00000000031af720      0x200 0x10 sp_aarch64.o
                0x00000000031af720                rhon
 .bss.rhos      0x00000000031af920      0x200 0x10 sp_aarch64.o
                0x00000000031af920                rhos
 .bss.rhoq      0x00000000031afb20      0x200 0x10 sp_aarch64.o
                0x00000000031afb20                rhoq
 .bss.cuf       0x00000000031afd20      0x200 0x10 sp_aarch64.o
                0x00000000031afd20                cuf
 .bss.q         0x00000000031aff20      0x200 0x10 sp_aarch64.o
                0x00000000031aff20                q
 .bss.ue        0x00000000031b0120      0xa00 0x10 sp_aarch64.o
                0x00000000031b0120                ue
 .bss.buf       0x00000000031b0b20      0xa00 0x10 sp_aarch64.o
                0x00000000031b0b20                buf
 .bss.lhs       0x00000000031b1520    0x29428 0x10 sp_aarch64.o
                0x00000000031b1520                lhs
 *fill*         0x00000000031da948        0x8 
 .bss.lhsp      0x00000000031da950    0x29428 0x10 sp_aarch64.o
                0x00000000031da950                lhsp
 *fill*         0x0000000003203d78        0x8 
 .bss.lhsm      0x0000000003203d80    0x29428 0x10 sp_aarch64.o
                0x0000000003203d80                lhsm
 .bss.__popcorn_stack_base
                0x000000000322d1a8        0x8 0x8 /usr/local/popcorn/aarch64/lib/libc.a(__libc_start_main.o)
                0x000000000322d1a8                __popcorn_stack_base
 .bss.__progname
                0x000000000322d1b0        0x8 0x8 /usr/local/popcorn/aarch64/lib/libc.a(libc.o)
                0x000000000322d1b0                __progname
                0x000000000322d1b0                program_invocation_short_name
 .bss.__progname_full
                0x000000000322d1b8        0x8 0x8 /usr/local/popcorn/aarch64/lib/libc.a(libc.o)
                0x000000000322d1b8                program_invocation_name
                0x000000000322d1b8                __progname_full
 .bss.src_stdio_fflush_c_dummy
                0x000000000322d1c0        0x8 0x8 /usr/local/popcorn/aarch64/lib/libc.a(fflush.o)
 .bss.src_stdio_ofl_c_ofl_lock
                0x000000000322d1c8        0x8 0x4 /usr/local/popcorn/aarch64/lib/libc.a(ofl.o)
 .bss.src_stdio_ofl_c_ofl_head
                0x000000000322d1d0        0x8 0x8 /usr/local/popcorn/aarch64/lib/libc.a(ofl.o)
 .bss.src_stdio_stdout_c_buf
                0x000000000322d1d8      0x408 0x1 /usr/local/popcorn/aarch64/lib/libc.a(stdout.o)
 .bss.__environ
                0x000000000322d5e0        0x8 0x8 /usr/local/popcorn/aarch64/lib/libc.a(__environ.o)
                0x000000000322d5e0                _environ
                0x000000000322d5e0                __environ
                0x000000000322d5e0                environ
                0x000000000322d5e0                ___environ
 .bss.src_env___init_tls_c_main_tls
                0x000000000322d5e8       0x30 0x8 /usr/local/popcorn/aarch64/lib/libc.a(__init_tls.o)
 .bss.src_env___init_tls_c_builtin_tls
                0x000000000322d618      0x1a8 0x8 /usr/local/popcorn/aarch64/lib/libc.a(__init_tls.o)
 .bss.src_malloc_lite_malloc_c___simple_malloc_cur
                0x000000000322d7c0        0x8 0x8 /usr/local/popcorn/aarch64/lib/libc.a(lite_malloc.o)
 .bss.src_malloc_lite_malloc_c___simple_malloc_end
                0x000000000322d7c8        0x8 0x8 /usr/local/popcorn/aarch64/lib/libc.a(lite_malloc.o)
 .bss.src_malloc_lite_malloc_c___simple_malloc_lock
                0x000000000322d7d0        0x8 0x4 /usr/local/popcorn/aarch64/lib/libc.a(lite_malloc.o)
 *fill*         0x000000000322d7d8      0x828 
 .bss.src_malloc_malloc_c_mal
                0x000000000322e000     0x1000 0x1000 /usr/local/popcorn/aarch64/lib/libc.a(malloc.o)
 .bss.src_malloc_malloc_c_expand_heap_heap_lock
                0x000000000322f000        0x8 0x4 /usr/local/popcorn/aarch64/lib/libc.a(malloc.o)
 .bss.src_malloc_malloc_c_expand_heap_end
                0x000000000322f008        0x8 0x8 /usr/local/popcorn/aarch64/lib/libc.a(malloc.o)
 .bss.src_malloc_popcorn_malloc_c_expand_heap_heap_lock
                0x000000000322f010      0x100 0x4 /usr/local/popcorn/aarch64/lib/libc.a(popcorn_malloc.o)
 .bss.src_malloc_popcorn_malloc_c_expand_heap_end
                0x000000000322f110      0x100 0x8 /usr/local/popcorn/aarch64/lib/libc.a(popcorn_malloc.o)
 .bss.src_multibyte_mbrtowc_c_mbrtowc_internal_state
                0x000000000322f210        0x4 0x4 /usr/local/popcorn/aarch64/lib/libc.a(mbrtowc.o)
 *fill*         0x000000000322f214        0x4 
 .bss.src_malloc_expand_heap_c___expand_heap_brk
                0x000000000322f218        0x8 0x8 /usr/local/popcorn/aarch64/lib/libc.a(expand_heap.o)
 .bss.src_malloc_expand_heap_c___expand_heap_mmap_step
                0x000000000322f220        0x4 0x4 /usr/local/popcorn/aarch64/lib/libc.a(expand_heap.o)
 *fill*         0x000000000322f224        0x4 
 .bss.src_malloc_expand_heap_c___expand_heap_node_node_arenas
                0x000000000322f228      0x100 0x8 /usr/local/popcorn/aarch64/lib/libc.a(expand_heap.o)
 .bss.src_malloc_expand_heap_c___expand_heap_node_node_sizes
                0x000000000322f328      0x100 0x8 /usr/local/popcorn/aarch64/lib/libc.a(expand_heap.o)
 .bss.src_malloc_expand_heap_c_arena_start
                0x000000000322f428        0x8 0x8 /usr/local/popcorn/aarch64/lib/libc.a(expand_heap.o)
 .bss.src_malloc_expand_heap_c_set_arena_start_lock
                0x000000000322f430        0x8 0x4 /usr/local/popcorn/aarch64/lib/libc.a(expand_heap.o)
 .bss.src_stdio___stdio_exit_c_dummy_file
                0x000000000322f438        0x8 0x8 /usr/local/popcorn/aarch64/lib/libc.a(__stdio_exit.o)
                0x000000000322f438                __stdin_used
 .bss.src_migrate_c_ni
                0x000000000322f440      0x180 0x4 /usr/local/popcorn/aarch64/lib/libmigrate.a(migrate.o)
 .bss           0x000000000322f5c0        0x0 0x1 /usr/local/popcorn/aarch64/lib/libmigrate.a(migrate_powerpc64.o)
 .bss           0x000000000322f5c0        0x0 0x1 /usr/local/popcorn/aarch64/lib/libmigrate.a(migrate_aarch64.o)
 .bss           0x000000000322f5c0        0x0 0x1 /usr/local/popcorn/aarch64/lib/libmigrate.a(migrate_x86_64.o)
 .bss           0x000000000322f5c0        0x0 0x1 /usr/local/popcorn/aarch64/lib/libmigrate.a(migrate_riscv64.o)
 .bss.src_mapping_c_default_node
                0x000000000322f5c0        0x4 0x4 /usr/local/popcorn/aarch64/lib/libmigrate.a(mapping.o)
 *fill*         0x000000000322f5c4        0x4 
 .bss.src_mapping_c_mappings
                0x000000000322f5c8        0x8 0x8 /usr/local/popcorn/aarch64/lib/libmigrate.a(mapping.o)
 .bss.src_mapping_c_num_mappings
                0x000000000322f5d0        0x8 0x8 /usr/local/popcorn/aarch64/lib/libmigrate.a(mapping.o)
 .bss.aarch64_fn
                0x000000000322f5d8        0x8 0x8 /usr/local/popcorn/aarch64/lib/libstack-transform.a(userspace.o)
                0x000000000322f5d8                aarch64_fn
 .bss.powerpc64_fn
                0x000000000322f5e0        0x8 0x8 /usr/local/popcorn/aarch64/lib/libstack-transform.a(userspace.o)
                0x000000000322f5e0                powerpc64_fn
 .bss.riscv64_fn
                0x000000000322f5e8        0x8 0x8 /usr/local/popcorn/aarch64/lib/libstack-transform.a(userspace.o)
                0x000000000322f5e8                riscv64_fn
 .bss.x86_64_fn
                0x000000000322f5f0        0x8 0x8 /usr/local/popcorn/aarch64/lib/libstack-transform.a(userspace.o)
                0x000000000322f5f0                x86_64_fn
 .bss.src_userspace_c_aarch64_handle
                0x000000000322f5f8        0x8 0x8 /usr/local/popcorn/aarch64/lib/libstack-transform.a(userspace.o)
 .bss.src_userspace_c_alloc_aarch64_fn
                0x000000000322f600        0x1 0x1 /usr/local/popcorn/aarch64/lib/libstack-transform.a(userspace.o)
 *fill*         0x000000000322f601        0x7 
 .bss.src_userspace_c_powerpc64_handle
                0x000000000322f608        0x8 0x8 /usr/local/popcorn/aarch64/lib/libstack-transform.a(userspace.o)
 .bss.src_userspace_c_alloc_powerpc64_fn
                0x000000000322f610        0x1 0x1 /usr/local/popcorn/aarch64/lib/libstack-transform.a(userspace.o)
 *fill*         0x000000000322f611        0x7 
 .bss.src_userspace_c_riscv64_handle
                0x000000000322f618        0x8 0x8 /usr/local/popcorn/aarch64/lib/libstack-transform.a(userspace.o)
 .bss.src_userspace_c_alloc_riscv64_fn
                0x000000000322f620        0x1 0x1 /usr/local/popcorn/aarch64/lib/libstack-transform.a(userspace.o)
 *fill*         0x000000000322f621        0x7 
 .bss.src_userspace_c_x86_64_handle
                0x000000000322f628        0x8 0x8 /usr/local/popcorn/aarch64/lib/libstack-transform.a(userspace.o)
 .bss.src_userspace_c_alloc_x86_64_fn
                0x000000000322f630        0x1 0x1 /usr/local/popcorn/aarch64/lib/libstack-transform.a(userspace.o)
 *fill*         0x000000000322f631        0x3 
 .bss._elf_version
                0x000000000322f634        0x4 0x4 /usr/local/popcorn/aarch64/lib/libelf.a(data.o)
                0x000000000322f634                _elf_version
 .bss._elf_errno
                0x000000000322f638        0x4 0x4 /usr/local/popcorn/aarch64/lib/libelf.a(data.o)
                0x000000000322f638                _elf_errno
 .bss._elf_fill
                0x000000000322f63c        0x4 0x4 /usr/local/popcorn/aarch64/lib/libelf.a(data.o)
                0x000000000322f63c                _elf_fill
 .bss.src_stdio_stderr_c_buf
                0x000000000322f640        0x8 0x1 /usr/local/popcorn/aarch64/lib/libc.a(stderr.o)
 .bss           0x000000000322f648        0x0 0x1 /usr/lib/gcc-cross/aarch64-linux-gnu/6/libgcc.a(addtf3.o)
 .bss           0x000000000322f648        0x0 0x1 /usr/lib/gcc-cross/aarch64-linux-gnu/6/libgcc.a(divtf3.o)
 .bss           0x000000000322f648        0x0 0x1 /usr/lib/gcc-cross/aarch64-linux-gnu/6/libgcc.a(eqtf2.o)
 .bss           0x000000000322f648        0x0 0x1 /usr/lib/gcc-cross/aarch64-linux-gnu/6/libgcc.a(getf2.o)
 .bss           0x000000000322f648        0x0 0x1 /usr/lib/gcc-cross/aarch64-linux-gnu/6/libgcc.a(letf2.o)
 .bss           0x000000000322f648        0x0 0x1 /usr/lib/gcc-cross/aarch64-linux-gnu/6/libgcc.a(multf3.o)
 .bss           0x000000000322f648        0x0 0x1 /usr/lib/gcc-cross/aarch64-linux-gnu/6/libgcc.a(subtf3.o)
 .bss           0x000000000322f648        0x0 0x1 /usr/lib/gcc-cross/aarch64-linux-gnu/6/libgcc.a(unordtf2.o)
 .bss           0x000000000322f648        0x0 0x1 /usr/lib/gcc-cross/aarch64-linux-gnu/6/libgcc.a(fixtfsi.o)
 .bss           0x000000000322f648        0x0 0x1 /usr/lib/gcc-cross/aarch64-linux-gnu/6/libgcc.a(fixunstfsi.o)
 .bss           0x000000000322f648        0x0 0x1 /usr/lib/gcc-cross/aarch64-linux-gnu/6/libgcc.a(floatsitf.o)
 .bss           0x000000000322f648        0x0 0x1 /usr/lib/gcc-cross/aarch64-linux-gnu/6/libgcc.a(floatunsitf.o)
 .bss           0x000000000322f648        0x0 0x1 /usr/lib/gcc-cross/aarch64-linux-gnu/6/libgcc.a(extendsftf2.o)
 .bss           0x000000000322f648        0x0 0x1 /usr/lib/gcc-cross/aarch64-linux-gnu/6/libgcc.a(extenddftf2.o)
 .bss           0x000000000322f648        0x0 0x1 /usr/lib/gcc-cross/aarch64-linux-gnu/6/libgcc.a(trunctfsf2.o)
 .bss           0x000000000322f648        0x0 0x1 /usr/lib/gcc-cross/aarch64-linux-gnu/6/libgcc.a(trunctfdf2.o)
 .bss           0x000000000322f648        0x0 0x1 /usr/lib/gcc-cross/aarch64-linux-gnu/6/libgcc.a(sfp-exceptions.o)
 *(COMMON)
 COMMON         0x000000000322f648       0x80 0x8 /usr/local/popcorn/aarch64/lib/libc.a(libc.o)
                0x000000000322f648                __hwcap
                0x000000000322f650                __libc
                0x000000000322f6c0                __sysinfo
 *fill*         0x000000000322f6c8      0x938 
 COMMON         0x0000000003230000    0x20000 0x1000 /usr/local/popcorn/aarch64/lib/libc.a(popcorn_malloc.o)
                0x0000000003230000                mal
                0x0000000003250000                . = ALIGN ((. != 0x0)?0x8:0x1)
                0x0000000003250000                _bss_end__ = .
                0x0000000003250000                __bss_end__ = .
                0x0000000003250000                . = ALIGN (0x8)
                0x0000000003250000                . = SEGMENT_START ("ldata-segment", .)
                0x0000000003250000                . = ALIGN (0x8)
                0x0000000003250000                __end__ = .
                0x0000000003250000                _end = .
                [!provide]                        PROVIDE (end = .)
                0x0000000003250000                . = DATA_SEGMENT_END (.)

.stab
 *(.stab)

.stabstr
 *(.stabstr)

.stab.excl
 *(.stab.excl)

.stab.exclstr
 *(.stab.exclstr)

.stab.index
 *(.stab.index)

.stab.indexstr
 *(.stab.indexstr)

.comment        0x0000000000000000     0x46f4
 *(.comment)
 .comment       0x0000000000000000       0x68 0x1 add_aarch64.o
                                         0x69 (size before relaxing)
 .comment       0x0000000000000068       0x69 0x1 adi_aarch64.o
 .comment       0x00000000000000d1       0x69 0x1 c_print_results_aarch64.o
 .comment       0x000000000000013a       0x69 0x1 c_timers_aarch64.o
 .comment       0x00000000000001a3       0x69 0x1 error_aarch64.o
 .comment       0x000000000000020c       0x69 0x1 exact_rhs_aarch64.o
 .comment       0x0000000000000275       0x69 0x1 exact_solution_aarch64.o
 .comment       0x00000000000002de       0x69 0x1 initialize_aarch64.o
 .comment       0x0000000000000347       0x69 0x1 ninvr_aarch64.o
 .comment       0x00000000000003b0       0x69 0x1 pinvr_aarch64.o
 .comment       0x0000000000000419       0x69 0x1 print_results_aarch64.o
 .comment       0x0000000000000482       0x69 0x1 randdp_aarch64.o
 .comment       0x00000000000004eb       0x69 0x1 rhs_aarch64.o
 .comment       0x0000000000000554       0x69 0x1 set_constants_aarch64.o
 .comment       0x00000000000005bd       0x69 0x1 sp_aarch64.o
 .comment       0x0000000000000626       0x69 0x1 txinvr_aarch64.o
 .comment       0x000000000000068f       0x69 0x1 tzetar_aarch64.o
 .comment       0x00000000000006f8       0x69 0x1 verify_aarch64.o
 .comment       0x0000000000000761       0x69 0x1 wtime_aarch64.o
 .comment       0x00000000000007ca       0x69 0x1 x_solve_aarch64.o
 .comment       0x0000000000000833       0x69 0x1 y_solve_aarch64.o
 .comment       0x000000000000089c       0x69 0x1 z_solve_aarch64.o
 .comment       0x0000000000000905       0x69 0x1 /usr/local/popcorn/aarch64/lib/crt1.o
 .comment       0x000000000000096e       0x69 0x1 /usr/local/popcorn/aarch64/lib/libc.a(__libc_start_main.o)
 .comment       0x00000000000009d7       0x69 0x1 /usr/local/popcorn/aarch64/lib/libc.a(exit.o)
 .comment       0x0000000000000a40       0x69 0x1 /usr/local/popcorn/aarch64/lib/libc.a(libc.o)
 .comment       0x0000000000000aa9       0x69 0x1 /usr/local/popcorn/aarch64/lib/libc.a(sqrt.o)
 .comment       0x0000000000000b12       0x69 0x1 /usr/local/popcorn/aarch64/lib/libc.a(pow.o)
 .comment       0x0000000000000b7b       0x69 0x1 /usr/local/popcorn/aarch64/lib/libc.a(scalbn.o)
 .comment       0x0000000000000be4       0x69 0x1 /usr/local/popcorn/aarch64/lib/libc.a(fclose.o)
 .comment       0x0000000000000c4d       0x69 0x1 /usr/local/popcorn/aarch64/lib/libc.a(fflush.o)
 .comment       0x0000000000000cb6       0x69 0x1 /usr/local/popcorn/aarch64/lib/libc.a(fgetc.o)
 .comment       0x0000000000000d1f       0x69 0x1 /usr/local/popcorn/aarch64/lib/libc.a(fopen.o)
 .comment       0x0000000000000d88       0x69 0x1 /usr/local/popcorn/aarch64/lib/libc.a(fscanf.o)
 .comment       0x0000000000000df1       0x69 0x1 /usr/local/popcorn/aarch64/lib/libc.a(ofl.o)
 .comment       0x0000000000000e5a       0x69 0x1 /usr/local/popcorn/aarch64/lib/libc.a(printf.o)
 .comment       0x0000000000000ec3       0x69 0x1 /usr/local/popcorn/aarch64/lib/libc.a(sprintf.o)
 .comment       0x0000000000000f2c       0x69 0x1 /usr/local/popcorn/aarch64/lib/libc.a(stdout.o)
 .comment       0x0000000000000f95       0x69 0x1 /usr/local/popcorn/aarch64/lib/libc.a(vfprintf.o)
 .comment       0x0000000000000ffe       0x69 0x1 /usr/local/popcorn/aarch64/lib/libc.a(vfscanf.o)
 .comment       0x0000000000001067       0x69 0x1 /usr/local/popcorn/aarch64/lib/libc.a(vsprintf.o)
 .comment       0x00000000000010d0       0x69 0x1 /usr/local/popcorn/aarch64/lib/libc.a(memset.o)
 .comment       0x0000000000001139       0x69 0x1 /usr/local/popcorn/aarch64/lib/libc.a(strchr.o)
 .comment       0x00000000000011a2       0x69 0x1 /usr/local/popcorn/aarch64/lib/libc.a(strchrnul.o)
 .comment       0x000000000000120b       0x69 0x1 /usr/local/popcorn/aarch64/lib/libc.a(strlen.o)
 .comment       0x0000000000001274       0x69 0x1 /usr/local/popcorn/aarch64/lib/libc.a(strnlen.o)
 .comment       0x00000000000012dd       0x69 0x1 /usr/local/popcorn/aarch64/lib/libc.a(__lock.o)
 .comment       0x0000000000001346       0x69 0x1 /usr/local/popcorn/aarch64/lib/libc.a(__wait.o)
 .comment       0x00000000000013af       0x69 0x1 /usr/local/popcorn/aarch64/lib/libc.a(gettimeofday.o)
 .comment       0x0000000000001418       0x69 0x1 /usr/local/popcorn/aarch64/lib/libc.a(__environ.o)
 .comment       0x0000000000001481       0x69 0x1 /usr/local/popcorn/aarch64/lib/libc.a(__init_tls.o)
 .comment       0x00000000000014ea       0x69 0x1 /usr/local/popcorn/aarch64/lib/libc.a(__errno_location.o)
 .comment       0x0000000000001553       0x69 0x1 /usr/local/popcorn/aarch64/lib/libc.a(strerror.o)
 .comment       0x00000000000015bc       0x69 0x1 /usr/local/popcorn/aarch64/lib/libc.a(_Exit.o)
 .comment       0x0000000000001625       0x69 0x1 /usr/local/popcorn/aarch64/lib/libc.a(floatscan.o)
 .comment       0x000000000000168e       0x69 0x1 /usr/local/popcorn/aarch64/lib/libc.a(intscan.o)
 .comment       0x00000000000016f7       0x69 0x1 /usr/local/popcorn/aarch64/lib/libc.a(shgetc.o)
 .comment       0x0000000000001760       0x69 0x1 /usr/local/popcorn/aarch64/lib/libc.a(syscall_ret.o)
 .comment       0x00000000000017c9       0x69 0x1 /usr/local/popcorn/aarch64/lib/libc.a(__lctrans.o)
 .comment       0x0000000000001832       0x69 0x1 /usr/local/popcorn/aarch64/lib/libc.a(lite_malloc.o)
 .comment       0x000000000000189b       0x69 0x1 /usr/local/popcorn/aarch64/lib/libc.a(malloc.o)
 .comment       0x0000000000001904       0x69 0x1 /usr/local/popcorn/aarch64/lib/libc.a(popcorn_malloc.o)
 .comment       0x000000000000196d       0x69 0x1 /usr/local/popcorn/aarch64/lib/libc.a(__fpclassifyl.o)
 .comment       0x00000000000019d6       0x69 0x1 /usr/local/popcorn/aarch64/lib/libc.a(__signbitl.o)
 .comment       0x0000000000001a3f       0x69 0x1 /usr/local/popcorn/aarch64/lib/libc.a(fabs.o)
 .comment       0x0000000000001aa8       0x69 0x1 /usr/local/popcorn/aarch64/lib/libc.a(copysignl.o)
 .comment       0x0000000000001b11       0x69 0x1 /usr/local/popcorn/aarch64/lib/libc.a(fmodl.o)
 .comment       0x0000000000001b7a       0x69 0x1 /usr/local/popcorn/aarch64/lib/libc.a(frexpl.o)
 .comment       0x0000000000001be3       0x69 0x1 /usr/local/popcorn/aarch64/lib/libc.a(scalbnl.o)
 .comment       0x0000000000001c4c       0x69 0x1 /usr/local/popcorn/aarch64/lib/libc.a(madvise.o)
 .comment       0x0000000000001cb5       0x69 0x1 /usr/local/popcorn/aarch64/lib/libc.a(mmap.o)
 .comment       0x0000000000001d1e       0x69 0x1 /usr/local/popcorn/aarch64/lib/libc.a(mremap.o)
 .comment       0x0000000000001d87       0x69 0x1 /usr/local/popcorn/aarch64/lib/libc.a(munmap.o)
 .comment       0x0000000000001df0       0x69 0x1 /usr/local/popcorn/aarch64/lib/libc.a(mbrtowc.o)
 .comment       0x0000000000001e59       0x69 0x1 /usr/local/popcorn/aarch64/lib/libc.a(mbsinit.o)
 .comment       0x0000000000001ec2       0x69 0x1 /usr/local/popcorn/aarch64/lib/libc.a(wctomb.o)
 .comment       0x0000000000001f2b       0x69 0x1 /usr/local/popcorn/aarch64/lib/libc.a(__fdopen.o)
 .comment       0x0000000000001f94       0x69 0x1 /usr/local/popcorn/aarch64/lib/libc.a(__fmodeflags.o)
 .comment       0x0000000000001ffd       0x69 0x1 /usr/local/popcorn/aarch64/lib/libc.a(__lockfile.o)
 .comment       0x0000000000002066       0x69 0x1 /usr/local/popcorn/aarch64/lib/libc.a(__stdio_close.o)
 .comment       0x00000000000020cf       0x69 0x1 /usr/local/popcorn/aarch64/lib/libc.a(__stdio_read.o)
 .comment       0x0000000000002138       0x69 0x1 /usr/local/popcorn/aarch64/lib/libc.a(__stdio_seek.o)
 .comment       0x00000000000021a1       0x69 0x1 /usr/local/popcorn/aarch64/lib/libc.a(__stdio_write.o)
 .comment       0x000000000000220a       0x69 0x1 /usr/local/popcorn/aarch64/lib/libc.a(__stdout_write.o)
 .comment       0x0000000000002273       0x69 0x1 /usr/local/popcorn/aarch64/lib/libc.a(__uflow.o)
 .comment       0x00000000000022dc       0x69 0x1 /usr/local/popcorn/aarch64/lib/libc.a(fwrite.o)
 .comment       0x0000000000002345       0x69 0x1 /usr/local/popcorn/aarch64/lib/libc.a(ofl_add.o)
 .comment       0x00000000000023ae       0x69 0x1 /usr/local/popcorn/aarch64/lib/libc.a(vsnprintf.o)
 .comment       0x0000000000002417       0x69 0x1 /usr/local/popcorn/aarch64/lib/libc.a(memchr.o)
 .comment       0x0000000000002480       0x69 0x1 /usr/local/popcorn/aarch64/lib/libc.a(memcpy.o)
 .comment       0x00000000000024e9       0x69 0x1 /usr/local/popcorn/aarch64/lib/libc.a(clock_gettime.o)
 .comment       0x0000000000002552       0x69 0x1 /usr/local/popcorn/aarch64/lib/libc.a(platform.o)
 .comment       0x00000000000025bb       0x69 0x1 /usr/local/popcorn/aarch64/lib/libc.a(expand_heap.o)
 .comment       0x0000000000002624       0x69 0x1 /usr/local/popcorn/aarch64/lib/libc.a(internal.o)
 .comment       0x000000000000268d       0x69 0x1 /usr/local/popcorn/aarch64/lib/libc.a(wcrtomb.o)
 .comment       0x00000000000026f6       0x69 0x1 /usr/local/popcorn/aarch64/lib/libc.a(__toread.o)
 .comment       0x000000000000275f       0x69 0x1 /usr/local/popcorn/aarch64/lib/libc.a(__towrite.o)
 .comment       0x00000000000027c8       0x69 0x1 /usr/local/popcorn/aarch64/lib/libc.a(__stdio_exit.o)
 .comment       0x0000000000002831       0x69 0x1 /usr/local/popcorn/aarch64/lib/libmigrate.a(migrate.o)
 .comment       0x000000000000289a       0x69 0x1 /usr/local/popcorn/aarch64/lib/libmigrate.a(mapping.o)
 .comment       0x0000000000002903       0x69 0x1 /usr/local/popcorn/aarch64/lib/libstack-transform.a(userspace.o)
 .comment       0x000000000000296c       0x69 0x1 /usr/local/popcorn/aarch64/lib/libstack-transform.a(init.o)
 .comment       0x00000000000029d5       0x69 0x1 /usr/local/popcorn/aarch64/lib/libstack-transform.a(rewrite.o)
 .comment       0x0000000000002a3e       0x69 0x1 /usr/local/popcorn/aarch64/lib/libstack-transform.a(unwind.o)
 .comment       0x0000000000002aa7       0x69 0x1 /usr/local/popcorn/aarch64/lib/libstack-transform.a(util.o)
 .comment       0x0000000000002b10       0x69 0x1 /usr/local/popcorn/aarch64/lib/libstack-transform.a(properties.o)
 .comment       0x0000000000002b79       0x69 0x1 /usr/local/popcorn/aarch64/lib/libstack-transform.a(regs.o)
 .comment       0x0000000000002be2       0x69 0x1 /usr/local/popcorn/aarch64/lib/libstack-transform.a(properties.o)
 .comment       0x0000000000002c4b       0x69 0x1 /usr/local/popcorn/aarch64/lib/libstack-transform.a(regs.o)
 .comment       0x0000000000002cb4       0x69 0x1 /usr/local/popcorn/aarch64/lib/libstack-transform.a(properties.o)
 .comment       0x0000000000002d1d       0x69 0x1 /usr/local/popcorn/aarch64/lib/libstack-transform.a(regs.o)
 .comment       0x0000000000002d86       0x69 0x1 /usr/local/popcorn/aarch64/lib/libstack-transform.a(properties.o)
 .comment       0x0000000000002def       0x69 0x1 /usr/local/popcorn/aarch64/lib/libstack-transform.a(regs.o)
 .comment       0x0000000000002e58       0x69 0x1 /usr/local/popcorn/aarch64/lib/libstack-transform.a(data.o)
 .comment       0x0000000000002ec1       0x69 0x1 /usr/local/popcorn/aarch64/lib/libelf.a(begin.o)
 .comment       0x0000000000002f2a       0x69 0x1 /usr/local/popcorn/aarch64/lib/libelf.a(end.o)
 .comment       0x0000000000002f93       0x69 0x1 /usr/local/popcorn/aarch64/lib/libelf.a(getdata.o)
 .comment       0x0000000000002ffc       0x69 0x1 /usr/local/popcorn/aarch64/lib/libelf.a(getident.o)
 .comment       0x0000000000003065       0x69 0x1 /usr/local/popcorn/aarch64/lib/libelf.a(nextscn.o)
 .comment       0x00000000000030ce       0x69 0x1 /usr/local/popcorn/aarch64/lib/libelf.a(strptr.o)
 .comment       0x0000000000003137       0x69 0x1 /usr/local/popcorn/aarch64/lib/libelf.a(version.o)
 .comment       0x00000000000031a0       0x69 0x1 /usr/local/popcorn/aarch64/lib/libelf.a(32.getehdr.o)
 .comment       0x0000000000003209       0x69 0x1 /usr/local/popcorn/aarch64/lib/libelf.a(32.xlatetof.o)
 .comment       0x0000000000003272       0x69 0x1 /usr/local/popcorn/aarch64/lib/libelf.a(cook.o)
 .comment       0x00000000000032db       0x69 0x1 /usr/local/popcorn/aarch64/lib/libelf.a(data.o)
 .comment       0x0000000000003344       0x69 0x1 /usr/local/popcorn/aarch64/lib/libelf.a(input.o)
 .comment       0x00000000000033ad       0x69 0x1 /usr/local/popcorn/aarch64/lib/libelf.a(x.elfext.o)
 .comment       0x0000000000003416       0x69 0x1 /usr/local/popcorn/aarch64/lib/libelf.a(64.xlatetof.o)
 .comment       0x000000000000347f       0x69 0x1 /usr/local/popcorn/aarch64/lib/libelf.a(gelfshdr.o)
 .comment       0x00000000000034e8       0x69 0x1 /usr/local/popcorn/aarch64/lib/libelf.a(swap64.o)
 .comment       0x0000000000003551       0x69 0x1 /usr/local/popcorn/aarch64/lib/libelf.a(verdef_32_tof.o)
 .comment       0x00000000000035ba       0x69 0x1 /usr/local/popcorn/aarch64/lib/libelf.a(verdef_32_tom.o)
 .comment       0x0000000000003623       0x69 0x1 /usr/local/popcorn/aarch64/lib/libelf.a(verdef_64_tof.o)
 .comment       0x000000000000368c       0x69 0x1 /usr/local/popcorn/aarch64/lib/libelf.a(verdef_64_tom.o)
 .comment       0x00000000000036f5       0x69 0x1 /usr/local/popcorn/aarch64/lib/libelf.a(getscn.o)
 .comment       0x000000000000375e       0x69 0x1 /usr/local/popcorn/aarch64/lib/libelf.a(newscn.o)
 .comment       0x00000000000037c7       0x69 0x1 /usr/local/popcorn/aarch64/lib/libelf.a(32.fsize.o)
 .comment       0x0000000000003830       0x69 0x1 /usr/local/popcorn/aarch64/lib/libc.a(arch_crash.o)
 .comment       0x0000000000003899       0x69 0x1 /usr/local/popcorn/aarch64/lib/libc.a(getenv.o)
 .comment       0x0000000000003902       0x69 0x1 /usr/local/popcorn/aarch64/lib/libc.a(assert.o)
 .comment       0x000000000000396b       0x69 0x1 /usr/local/popcorn/aarch64/lib/libc.a(open.o)
 .comment       0x00000000000039d4       0x69 0x1 /usr/local/popcorn/aarch64/lib/libc.a(calloc.o)
 .comment       0x0000000000003a3d       0x69 0x1 /usr/local/popcorn/aarch64/lib/libc.a(getrlimit.o)
 .comment       0x0000000000003aa6       0x69 0x1 /usr/local/popcorn/aarch64/lib/libc.a(fprintf.o)
 .comment       0x0000000000003b0f       0x69 0x1 /usr/local/popcorn/aarch64/lib/libc.a(fseek.o)
 .comment       0x0000000000003b78       0x69 0x1 /usr/local/popcorn/aarch64/lib/libc.a(getc.o)
 .comment       0x0000000000003be1       0x69 0x1 /usr/local/popcorn/aarch64/lib/libc.a(getline.o)
 .comment       0x0000000000003c4a       0x69 0x1 /usr/local/popcorn/aarch64/lib/libc.a(perror.o)
 .comment       0x0000000000003cb3       0x69 0x1 /usr/local/popcorn/aarch64/lib/libc.a(snprintf.o)
 .comment       0x0000000000003d1c       0x69 0x1 /usr/local/popcorn/aarch64/lib/libc.a(sscanf.o)
 .comment       0x0000000000003d85       0x69 0x1 /usr/local/popcorn/aarch64/lib/libc.a(stderr.o)
 .comment       0x0000000000003dee       0x69 0x1 /usr/local/popcorn/aarch64/lib/libc.a(vsscanf.o)
 .comment       0x0000000000003e57       0x69 0x1 /usr/local/popcorn/aarch64/lib/libc.a(bsearch.o)
 .comment       0x0000000000003ec0       0x69 0x1 /usr/local/popcorn/aarch64/lib/libc.a(qsort.o)
 .comment       0x0000000000003f29       0x69 0x1 /usr/local/popcorn/aarch64/lib/libc.a(strtol.o)
 .comment       0x0000000000003f92       0x69 0x1 /usr/local/popcorn/aarch64/lib/libc.a(strcmp.o)
 .comment       0x0000000000003ffb       0x69 0x1 /usr/local/popcorn/aarch64/lib/libc.a(strncmp.o)
 .comment       0x0000000000004064       0x69 0x1 /usr/local/popcorn/aarch64/lib/libc.a(__syscall_cp.o)
 .comment       0x00000000000040cd       0x69 0x1 /usr/local/popcorn/aarch64/lib/libc.a(pthread_attr_get.o)
 .comment       0x0000000000004136       0x69 0x1 /usr/local/popcorn/aarch64/lib/libc.a(pthread_getattr_np.o)
 .comment       0x000000000000419f       0x69 0x1 /usr/local/popcorn/aarch64/lib/libc.a(pthread_migrate.o)
 .comment       0x0000000000004208       0x69 0x1 /usr/local/popcorn/aarch64/lib/libc.a(pthread_self.o)
 .comment       0x0000000000004271       0x69 0x1 /usr/local/popcorn/aarch64/lib/libc.a(close.o)
 .comment       0x00000000000042da       0x69 0x1 /usr/local/popcorn/aarch64/lib/libc.a(getpid.o)
 .comment       0x0000000000004343       0x69 0x1 /usr/local/popcorn/aarch64/lib/libc.a(lseek.o)
 .comment       0x00000000000043ac       0x69 0x1 /usr/local/popcorn/aarch64/lib/libc.a(read.o)
 .comment       0x0000000000004415       0x69 0x1 /usr/local/popcorn/aarch64/lib/libc.a(abort.o)
 .comment       0x000000000000447e       0x69 0x1 /usr/local/popcorn/aarch64/lib/libc.a(block.o)
 .comment       0x00000000000044e7       0x69 0x1 /usr/local/popcorn/aarch64/lib/libc.a(raise.o)
 .comment       0x0000000000004550       0x69 0x1 /usr/local/popcorn/aarch64/lib/libc.a(__string_read.o)
 .comment       0x00000000000045b9       0x69 0x1 /usr/local/popcorn/aarch64/lib/libc.a(fputc.o)
 .comment       0x0000000000004622       0x69 0x1 /usr/local/popcorn/aarch64/lib/libc.a(getdelim.o)
 .comment       0x000000000000468b       0x69 0x1 /usr/local/popcorn/aarch64/lib/libc.a(__overflow.o)

.stack_transform.unwind
                0x0000000000000000      0x2f8
 .stack_transform.unwind
                0x0000000000000000        0x8 0x4 add_aarch64.o
 .stack_transform.unwind
                0x0000000000000008        0x8 0x4 adi_aarch64.o
 .stack_transform.unwind
                0x0000000000000010       0x38 0x4 c_print_results_aarch64.o
 .stack_transform.unwind
                0x0000000000000048       0x40 0x4 c_timers_aarch64.o
 .stack_transform.unwind
                0x0000000000000088       0x28 0x4 error_aarch64.o
 .stack_transform.unwind
                0x00000000000000b0       0x14 0x4 exact_rhs_aarch64.o
 .stack_transform.unwind
                0x00000000000000c4       0x18 0x4 exact_solution_aarch64.o
 .stack_transform.unwind
                0x00000000000000dc       0x3c 0x4 initialize_aarch64.o
 .stack_transform.unwind
                0x0000000000000118        0x8 0x4 ninvr_aarch64.o
 .stack_transform.unwind
                0x0000000000000120        0x8 0x4 pinvr_aarch64.o
 .stack_transform.unwind
                0x0000000000000128       0x38 0x4 print_results_aarch64.o
 .stack_transform.unwind
                0x0000000000000160       0x28 0x4 randdp_aarch64.o
 .stack_transform.unwind
                0x0000000000000188       0x14 0x4 rhs_aarch64.o
 .stack_transform.unwind
                0x000000000000019c       0x20 0x4 set_constants_aarch64.o
 .stack_transform.unwind
                0x00000000000001bc       0x34 0x4 sp_aarch64.o
 .stack_transform.unwind
                0x00000000000001f0        0x8 0x4 txinvr_aarch64.o
 .stack_transform.unwind
                0x00000000000001f8        0x8 0x4 tzetar_aarch64.o
 .stack_transform.unwind
                0x0000000000000200       0x28 0x4 verify_aarch64.o
 .stack_transform.unwind
                0x0000000000000228        0xc 0x4 wtime_aarch64.o
 .stack_transform.unwind
                0x0000000000000234       0x10 0x4 x_solve_aarch64.o
 .stack_transform.unwind
                0x0000000000000244       0x10 0x4 y_solve_aarch64.o
 .stack_transform.unwind
                0x0000000000000254       0x10 0x4 z_solve_aarch64.o
 .stack_transform.unwind
                0x0000000000000264       0x18 0x4 /usr/local/popcorn/aarch64/lib/libc.a(__libc_start_main.o)
 .stack_transform.unwind
                0x000000000000027c       0x5c 0x4 /usr/local/popcorn/aarch64/lib/libmigrate.a(migrate.o)
 .stack_transform.unwind
                0x00000000000002d8       0x20 0x4 /usr/local/popcorn/aarch64/lib/libmigrate.a(mapping.o)

.stack_transform.unwind_arange
                0x0000000000000000      0x2b0
 .stack_transform.unwind_arange
                0x0000000000000000       0x10 0x8 add_aarch64.o
 .stack_transform.unwind_arange
                0x0000000000000010       0x10 0x8 adi_aarch64.o
 .stack_transform.unwind_arange
                0x0000000000000020       0x10 0x8 c_print_results_aarch64.o
 .stack_transform.unwind_arange
                0x0000000000000030       0x50 0x8 c_timers_aarch64.o
 .stack_transform.unwind_arange
                0x0000000000000080       0x20 0x8 error_aarch64.o
 .stack_transform.unwind_arange
                0x00000000000000a0       0x10 0x8 exact_rhs_aarch64.o
 .stack_transform.unwind_arange
                0x00000000000000b0       0x10 0x8 exact_solution_aarch64.o
 .stack_transform.unwind_arange
                0x00000000000000c0       0x30 0x8 initialize_aarch64.o
 .stack_transform.unwind_arange
                0x00000000000000f0       0x10 0x8 ninvr_aarch64.o
 .stack_transform.unwind_arange
                0x0000000000000100       0x10 0x8 pinvr_aarch64.o
 .stack_transform.unwind_arange
                0x0000000000000110       0x10 0x8 print_results_aarch64.o
 .stack_transform.unwind_arange
                0x0000000000000120       0x20 0x8 randdp_aarch64.o
 .stack_transform.unwind_arange
                0x0000000000000140       0x10 0x8 rhs_aarch64.o
 .stack_transform.unwind_arange
                0x0000000000000150       0x10 0x8 set_constants_aarch64.o
 .stack_transform.unwind_arange
                0x0000000000000160       0x10 0x8 sp_aarch64.o
 .stack_transform.unwind_arange
                0x0000000000000170       0x10 0x8 txinvr_aarch64.o
 .stack_transform.unwind_arange
                0x0000000000000180       0x10 0x8 tzetar_aarch64.o
 .stack_transform.unwind_arange
                0x0000000000000190       0x10 0x8 verify_aarch64.o
 .stack_transform.unwind_arange
                0x00000000000001a0       0x10 0x8 wtime_aarch64.o
 .stack_transform.unwind_arange
                0x00000000000001b0       0x10 0x8 x_solve_aarch64.o
 .stack_transform.unwind_arange
                0x00000000000001c0       0x10 0x8 y_solve_aarch64.o
 .stack_transform.unwind_arange
                0x00000000000001d0       0x10 0x8 z_solve_aarch64.o
 .stack_transform.unwind_arange
                0x00000000000001e0       0x10 0x8 /usr/local/popcorn/aarch64/lib/libc.a(__libc_start_main.o)
 .stack_transform.unwind_arange
                0x00000000000001f0       0x90 0x8 /usr/local/popcorn/aarch64/lib/libmigrate.a(migrate.o)
 .stack_transform.unwind_arange
                0x0000000000000280       0x30 0x8 /usr/local/popcorn/aarch64/lib/libmigrate.a(mapping.o)

.gnu.build.attributes
 *(.gnu.build.attributes .gnu.build.attributes.*)

.debug
 *(.debug)

.line
 *(.line)

.debug_srcinfo
 *(.debug_srcinfo)

.debug_sfnames
 *(.debug_sfnames)

.debug_aranges  0x0000000000000000       0x60
 *(.debug_aranges)
 .debug_aranges
                0x0000000000000000       0x30 0x1 /usr/local/popcorn/aarch64/lib/libc.a(__set_thread_area.o)
 .debug_aranges
                0x0000000000000030       0x30 0x1 /usr/local/popcorn/aarch64/lib/libc.a(syscall.o)

.debug_pubnames
 *(.debug_pubnames)

.debug_info     0x0000000000000000    0x21c7e
 *(.debug_info .gnu.linkonce.wi.*)
 .debug_info    0x0000000000000000       0x80 0x1 add_aarch64.o
 .debug_info    0x0000000000000080       0x40 0x1 adi_aarch64.o
 .debug_info    0x00000000000000c0      0x186 0x1 c_print_results_aarch64.o
 .debug_info    0x0000000000000246      0x14e 0x1 c_timers_aarch64.o
 .debug_info    0x0000000000000394      0x17b 0x1 error_aarch64.o
 .debug_info    0x000000000000050f      0x137 0x1 exact_rhs_aarch64.o
 .debug_info    0x0000000000000646       0x9a 0x1 exact_solution_aarch64.o
 .debug_info    0x00000000000006e0      0x1ef 0x1 initialize_aarch64.o
 .debug_info    0x00000000000008cf       0xdb 0x1 ninvr_aarch64.o
 .debug_info    0x00000000000009aa       0xdb 0x1 pinvr_aarch64.o
 .debug_info    0x0000000000000a85      0x1c9 0x1 print_results_aarch64.o
 .debug_info    0x0000000000000c4e      0x257 0x1 randdp_aarch64.o
 .debug_info    0x0000000000000ea5      0x123 0x1 rhs_aarch64.o
 .debug_info    0x0000000000000fc8       0x47 0x1 set_constants_aarch64.o
 .debug_info    0x000000000000100f      0xc3c 0x1 sp_aarch64.o
 .debug_info    0x0000000000001c4b      0x13e 0x1 txinvr_aarch64.o
 .debug_info    0x0000000000001d89      0x14d 0x1 tzetar_aarch64.o
 .debug_info    0x0000000000001ed6      0x14b 0x1 verify_aarch64.o
 .debug_info    0x0000000000002021       0xc7 0x1 wtime_aarch64.o
 .debug_info    0x00000000000020e8       0xcd 0x1 x_solve_aarch64.o
 .debug_info    0x00000000000021b5       0xcd 0x1 y_solve_aarch64.o
 .debug_info    0x0000000000002282       0xcd 0x1 z_solve_aarch64.o
 .debug_info    0x000000000000234f       0x93 0x1 /usr/local/popcorn/aarch64/lib/crt1.o
 .debug_info    0x00000000000023e2      0x40d 0x1 /usr/local/popcorn/aarch64/lib/libc.a(__libc_start_main.o)
 .debug_info    0x00000000000027ef       0xb0 0x1 /usr/local/popcorn/aarch64/lib/libc.a(exit.o)
 .debug_info    0x000000000000289f      0x1d7 0x1 /usr/local/popcorn/aarch64/lib/libc.a(libc.o)
 .debug_info    0x0000000000002a76       0x5a 0x1 /usr/local/popcorn/aarch64/lib/libc.a(sqrt.o)
 .debug_info    0x0000000000002ad0      0x84d 0x1 /usr/local/popcorn/aarch64/lib/libc.a(pow.o)
 .debug_info    0x000000000000331d       0xc9 0x1 /usr/local/popcorn/aarch64/lib/libc.a(scalbn.o)
 .debug_info    0x00000000000033e6      0x373 0x1 /usr/local/popcorn/aarch64/lib/libc.a(fclose.o)
 .debug_info    0x0000000000003759      0x35c 0x1 /usr/local/popcorn/aarch64/lib/libc.a(fflush.o)
 .debug_info    0x0000000000003ab5      0x310 0x1 /usr/local/popcorn/aarch64/lib/libc.a(fgetc.o)
 .debug_info    0x0000000000003dc5      0x562 0x1 /usr/local/popcorn/aarch64/lib/libc.a(fopen.o)
 .debug_info    0x0000000000004327      0x112 0x1 /usr/local/popcorn/aarch64/lib/libc.a(fscanf.o)
 .debug_info    0x0000000000004439      0x341 0x1 /usr/local/popcorn/aarch64/lib/libc.a(ofl.o)
 .debug_info    0x000000000000477a       0xe8 0x1 /usr/local/popcorn/aarch64/lib/libc.a(printf.o)
 .debug_info    0x0000000000004862      0x101 0x1 /usr/local/popcorn/aarch64/lib/libc.a(sprintf.o)
 .debug_info    0x0000000000004963      0x337 0x1 /usr/local/popcorn/aarch64/lib/libc.a(stdout.o)
 .debug_info    0x0000000000004c9a     0x118d 0x1 /usr/local/popcorn/aarch64/lib/libc.a(vfprintf.o)
 .debug_info    0x0000000000005e27      0x75f 0x1 /usr/local/popcorn/aarch64/lib/libc.a(vfscanf.o)
 .debug_info    0x0000000000006586       0xe7 0x1 /usr/local/popcorn/aarch64/lib/libc.a(vsprintf.o)
 .debug_info    0x000000000000666d      0x118 0x1 /usr/local/popcorn/aarch64/lib/libc.a(memset.o)
 .debug_info    0x0000000000006785       0x9b 0x1 /usr/local/popcorn/aarch64/lib/libc.a(strchr.o)
 .debug_info    0x0000000000006820       0xcd 0x1 /usr/local/popcorn/aarch64/lib/libc.a(strchrnul.o)
 .debug_info    0x00000000000068ed       0xb0 0x1 /usr/local/popcorn/aarch64/lib/libc.a(strlen.o)
 .debug_info    0x000000000000699d       0x95 0x1 /usr/local/popcorn/aarch64/lib/libc.a(strnlen.o)
 .debug_info    0x0000000000006a32      0x376 0x1 /usr/local/popcorn/aarch64/lib/libc.a(__lock.o)
 .debug_info    0x0000000000006da8      0x3db 0x1 /usr/local/popcorn/aarch64/lib/libc.a(__wait.o)
 .debug_info    0x0000000000007183       0xee 0x1 /usr/local/popcorn/aarch64/lib/libc.a(gettimeofday.o)
 .debug_info    0x0000000000007271       0x45 0x1 /usr/local/popcorn/aarch64/lib/libc.a(__environ.o)
 .debug_info    0x00000000000072b6      0x7fb 0x1 /usr/local/popcorn/aarch64/lib/libc.a(__init_tls.o)
 .debug_info    0x0000000000007ab1      0x3a8 0x1 /usr/local/popcorn/aarch64/lib/libc.a(__errno_location.o)
 .debug_info    0x0000000000007e59      0x4a0 0x1 /usr/local/popcorn/aarch64/lib/libc.a(strerror.o)
 .debug_info    0x00000000000082f9       0xff 0x1 /usr/local/popcorn/aarch64/lib/libc.a(_Exit.o)
 .debug_info    0x00000000000083f8      0x93c 0x1 /usr/local/popcorn/aarch64/lib/libc.a(floatscan.o)
 .debug_info    0x0000000000008d34      0x3f0 0x1 /usr/local/popcorn/aarch64/lib/libc.a(intscan.o)
 .debug_info    0x0000000000009124      0x340 0x1 /usr/local/popcorn/aarch64/lib/libc.a(shgetc.o)
 .debug_info    0x0000000000009464       0x62 0x1 /usr/local/popcorn/aarch64/lib/libc.a(syscall_ret.o)
 .debug_info    0x00000000000094c6      0x46e 0x1 /usr/local/popcorn/aarch64/lib/libc.a(__lctrans.o)
 .debug_info    0x0000000000009934      0x12d 0x1 /usr/local/popcorn/aarch64/lib/libc.a(lite_malloc.o)
 .debug_info    0x0000000000009a61     0x1ee2 0x1 /usr/local/popcorn/aarch64/lib/libc.a(malloc.o)
 .debug_info    0x000000000000b943     0x302d 0x1 /usr/local/popcorn/aarch64/lib/libc.a(popcorn_malloc.o)
 .debug_info    0x000000000000e970      0x134 0x1 /usr/local/popcorn/aarch64/lib/libc.a(__fpclassifyl.o)
 .debug_info    0x000000000000eaa4      0x124 0x1 /usr/local/popcorn/aarch64/lib/libc.a(__signbitl.o)
 .debug_info    0x000000000000ebc8       0x5a 0x1 /usr/local/popcorn/aarch64/lib/libc.a(fabs.o)
 .debug_info    0x000000000000ec22      0x13a 0x1 /usr/local/popcorn/aarch64/lib/libc.a(copysignl.o)
 .debug_info    0x000000000000ed5c      0x1cb 0x1 /usr/local/popcorn/aarch64/lib/libc.a(fmodl.o)
 .debug_info    0x000000000000ef27      0x149 0x1 /usr/local/popcorn/aarch64/lib/libc.a(frexpl.o)
 .debug_info    0x000000000000f070      0x135 0x1 /usr/local/popcorn/aarch64/lib/libc.a(scalbnl.o)
 .debug_info    0x000000000000f1a5      0x14d 0x1 /usr/local/popcorn/aarch64/lib/libc.a(madvise.o)
 .debug_info    0x000000000000f2f2      0x221 0x1 /usr/local/popcorn/aarch64/lib/libc.a(mmap.o)
 .debug_info    0x000000000000f513      0x234 0x1 /usr/local/popcorn/aarch64/lib/libc.a(mremap.o)
 .debug_info    0x000000000000f747      0x12f 0x1 /usr/local/popcorn/aarch64/lib/libc.a(munmap.o)
 .debug_info    0x000000000000f876      0x517 0x1 /usr/local/popcorn/aarch64/lib/libc.a(mbrtowc.o)
 .debug_info    0x000000000000fd8d       0xa1 0x1 /usr/local/popcorn/aarch64/lib/libc.a(mbsinit.o)
 .debug_info    0x000000000000fe2e       0x88 0x1 /usr/local/popcorn/aarch64/lib/libc.a(wctomb.o)
 .debug_info    0x000000000000feb6      0x59b 0x1 /usr/local/popcorn/aarch64/lib/libc.a(__fdopen.o)
 .debug_info    0x0000000000010451       0x7b 0x1 /usr/local/popcorn/aarch64/lib/libc.a(__fmodeflags.o)
 .debug_info    0x00000000000104cc      0x91f 0x1 /usr/local/popcorn/aarch64/lib/libc.a(__lockfile.o)
 .debug_info    0x0000000000010deb      0x392 0x1 /usr/local/popcorn/aarch64/lib/libc.a(__stdio_close.o)
 .debug_info    0x000000000001117d      0x431 0x1 /usr/local/popcorn/aarch64/lib/libc.a(__stdio_read.o)
 .debug_info    0x00000000000115ae      0x3e6 0x1 /usr/local/popcorn/aarch64/lib/libc.a(__stdio_seek.o)
 .debug_info    0x0000000000011994      0x463 0x1 /usr/local/popcorn/aarch64/lib/libc.a(__stdio_write.o)
 .debug_info    0x0000000000011df7      0x42c 0x1 /usr/local/popcorn/aarch64/lib/libc.a(__stdout_write.o)
 .debug_info    0x0000000000012223      0x310 0x1 /usr/local/popcorn/aarch64/lib/libc.a(__uflow.o)
 .debug_info    0x0000000000012533      0x3d7 0x1 /usr/local/popcorn/aarch64/lib/libc.a(fwrite.o)
 .debug_info    0x000000000001290a      0x315 0x1 /usr/local/popcorn/aarch64/lib/libc.a(ofl_add.o)
 .debug_info    0x0000000000012c1f      0x468 0x1 /usr/local/popcorn/aarch64/lib/libc.a(vsnprintf.o)
 .debug_info    0x0000000000013087       0xf3 0x1 /usr/local/popcorn/aarch64/lib/libc.a(memchr.o)
 .debug_info    0x000000000001317a      0x112 0x1 /usr/local/popcorn/aarch64/lib/libc.a(memcpy.o)
 .debug_info    0x000000000001328c      0x112 0x1 /usr/local/popcorn/aarch64/lib/libc.a(__set_thread_area.o)
 .debug_info    0x000000000001339e      0x1a1 0x1 /usr/local/popcorn/aarch64/lib/libc.a(clock_gettime.o)
 .debug_info    0x000000000001353f      0x292 0x1 /usr/local/popcorn/aarch64/lib/libc.a(platform.o)
 .debug_info    0x00000000000137d1      0x81e 0x1 /usr/local/popcorn/aarch64/lib/libc.a(expand_heap.o)
 .debug_info    0x0000000000013fef       0x5e 0x1 /usr/local/popcorn/aarch64/lib/libc.a(internal.o)
 .debug_info    0x000000000001404d      0x467 0x1 /usr/local/popcorn/aarch64/lib/libc.a(wcrtomb.o)
 .debug_info    0x00000000000144b4      0x316 0x1 /usr/local/popcorn/aarch64/lib/libc.a(__toread.o)
 .debug_info    0x00000000000147ca      0x316 0x1 /usr/local/popcorn/aarch64/lib/libc.a(__towrite.o)
 .debug_info    0x0000000000014ae0      0x33c 0x1 /usr/local/popcorn/aarch64/lib/libc.a(__stdio_exit.o)
 .debug_info    0x0000000000014e1c      0x71e 0x1 /usr/local/popcorn/aarch64/lib/libmigrate.a(migrate.o)
 .debug_info    0x000000000001553a      0x291 0x1 /usr/local/popcorn/aarch64/lib/libmigrate.a(mapping.o)
 .debug_info    0x00000000000157cb      0xd10 0x1 /usr/local/popcorn/aarch64/lib/libstack-transform.a(userspace.o)
 .debug_info    0x00000000000164db      0x865 0x1 /usr/local/popcorn/aarch64/lib/libstack-transform.a(init.o)
 .debug_info    0x0000000000016d40      0xf02 0x1 /usr/local/popcorn/aarch64/lib/libstack-transform.a(rewrite.o)
 .debug_info    0x0000000000017c42      0xd40 0x1 /usr/local/popcorn/aarch64/lib/libstack-transform.a(unwind.o)
 .debug_info    0x0000000000018982      0xc42 0x1 /usr/local/popcorn/aarch64/lib/libstack-transform.a(util.o)
 .debug_info    0x00000000000195c4      0x1f3 0x1 /usr/local/popcorn/aarch64/lib/libstack-transform.a(properties.o)
 .debug_info    0x00000000000197b7      0x65a 0x1 /usr/local/popcorn/aarch64/lib/libstack-transform.a(regs.o)
 .debug_info    0x0000000000019e11      0x20e 0x1 /usr/local/popcorn/aarch64/lib/libstack-transform.a(properties.o)
 .debug_info    0x000000000001a01f      0x653 0x1 /usr/local/popcorn/aarch64/lib/libstack-transform.a(regs.o)
 .debug_info    0x000000000001a672      0x1f3 0x1 /usr/local/popcorn/aarch64/lib/libstack-transform.a(properties.o)
 .debug_info    0x000000000001a865      0x63b 0x1 /usr/local/popcorn/aarch64/lib/libstack-transform.a(regs.o)
 .debug_info    0x000000000001aea0      0x1f3 0x1 /usr/local/popcorn/aarch64/lib/libstack-transform.a(properties.o)
 .debug_info    0x000000000001b093      0x782 0x1 /usr/local/popcorn/aarch64/lib/libstack-transform.a(regs.o)
 .debug_info    0x000000000001b815      0xf42 0x1 /usr/local/popcorn/aarch64/lib/libstack-transform.a(data.o)
 .debug_info    0x000000000001c757      0x20b 0x1 /usr/local/popcorn/aarch64/lib/libc.a(arch_crash.o)
 .debug_info    0x000000000001c962       0xa5 0x1 /usr/local/popcorn/aarch64/lib/libc.a(getenv.o)
 .debug_info    0x000000000001ca07       0x95 0x1 /usr/local/popcorn/aarch64/lib/libc.a(assert.o)
 .debug_info    0x000000000001ca9c      0x1e2 0x1 /usr/local/popcorn/aarch64/lib/libc.a(open.o)
 .debug_info    0x000000000001cc7e      0x136 0x1 /usr/local/popcorn/aarch64/lib/libc.a(calloc.o)
 .debug_info    0x000000000001cdb4      0x257 0x1 /usr/local/popcorn/aarch64/lib/libc.a(getrlimit.o)
 .debug_info    0x000000000001d00b      0x112 0x1 /usr/local/popcorn/aarch64/lib/libc.a(fprintf.o)
 .debug_info    0x000000000001d11d      0x3c7 0x1 /usr/local/popcorn/aarch64/lib/libc.a(fseek.o)
 .debug_info    0x000000000001d4e4      0x310 0x1 /usr/local/popcorn/aarch64/lib/libc.a(getc.o)
 .debug_info    0x000000000001d7f4       0xd1 0x1 /usr/local/popcorn/aarch64/lib/libc.a(getline.o)
 .debug_info    0x000000000001d8c5      0x334 0x1 /usr/local/popcorn/aarch64/lib/libc.a(perror.o)
 .debug_info    0x000000000001dbf9      0x122 0x1 /usr/local/popcorn/aarch64/lib/libc.a(snprintf.o)
 .debug_info    0x000000000001dd1b       0xf7 0x1 /usr/local/popcorn/aarch64/lib/libc.a(sscanf.o)
 .debug_info    0x000000000001de12      0x336 0x1 /usr/local/popcorn/aarch64/lib/libc.a(stderr.o)
 .debug_info    0x000000000001e148      0x3d1 0x1 /usr/local/popcorn/aarch64/lib/libc.a(vsscanf.o)
 .debug_info    0x000000000001e519       0xeb 0x1 /usr/local/popcorn/aarch64/lib/libc.a(bsearch.o)
 .debug_info    0x000000000001e604      0x673 0x1 /usr/local/popcorn/aarch64/lib/libc.a(qsort.o)
 .debug_info    0x000000000001ec77      0x5dc 0x1 /usr/local/popcorn/aarch64/lib/libc.a(strtol.o)
 .debug_info    0x000000000001f253       0x87 0x1 /usr/local/popcorn/aarch64/lib/libc.a(strcmp.o)
 .debug_info    0x000000000001f2da       0xca 0x1 /usr/local/popcorn/aarch64/lib/libc.a(strncmp.o)
 .debug_info    0x000000000001f3a4      0x143 0x1 /usr/local/popcorn/aarch64/lib/libc.a(__syscall_cp.o)
 .debug_info    0x000000000001f4e7      0x5ba 0x1 /usr/local/popcorn/aarch64/lib/libc.a(pthread_attr_get.o)
 .debug_info    0x000000000001faa1      0x431 0x1 /usr/local/popcorn/aarch64/lib/libc.a(pthread_getattr_np.o)
 .debug_info    0x000000000001fed2      0x3e4 0x1 /usr/local/popcorn/aarch64/lib/libc.a(pthread_migrate.o)
 .debug_info    0x00000000000202b6      0x3af 0x1 /usr/local/popcorn/aarch64/lib/libc.a(pthread_self.o)
 .debug_info    0x0000000000020665       0x98 0x1 /usr/local/popcorn/aarch64/lib/libc.a(close.o)
 .debug_info    0x00000000000206fd       0xb5 0x1 /usr/local/popcorn/aarch64/lib/libc.a(getpid.o)
 .debug_info    0x00000000000207b2      0x145 0x1 /usr/local/popcorn/aarch64/lib/libc.a(lseek.o)
 .debug_info    0x00000000000208f7       0x9e 0x1 /usr/local/popcorn/aarch64/lib/libc.a(read.o)
 .debug_info    0x0000000000020995       0x6e 0x1 /usr/local/popcorn/aarch64/lib/libc.a(abort.o)
 .debug_info    0x0000000000020a03      0x102 0x1 /usr/local/popcorn/aarch64/lib/libc.a(syscall.o)
 .debug_info    0x0000000000020b05      0x27a 0x1 /usr/local/popcorn/aarch64/lib/libc.a(block.o)
 .debug_info    0x0000000000020d7f      0x1b4 0x1 /usr/local/popcorn/aarch64/lib/libc.a(raise.o)
 .debug_info    0x0000000000020f33      0x34c 0x1 /usr/local/popcorn/aarch64/lib/libc.a(__string_read.o)
 .debug_info    0x000000000002127f      0x310 0x1 /usr/local/popcorn/aarch64/lib/libc.a(fputc.o)
 .debug_info    0x000000000002158f      0x3d0 0x1 /usr/local/popcorn/aarch64/lib/libc.a(getdelim.o)
 .debug_info    0x000000000002195f      0x31f 0x1 /usr/local/popcorn/aarch64/lib/libc.a(__overflow.o)

.debug_abbrev   0x0000000000000000     0x7f69
 *(.debug_abbrev)
 .debug_abbrev  0x0000000000000000       0x41 0x1 add_aarch64.o
 .debug_abbrev  0x0000000000000041       0x27 0x1 adi_aarch64.o
 .debug_abbrev  0x0000000000000068       0x62 0x1 c_print_results_aarch64.o
 .debug_abbrev  0x00000000000000ca       0xa8 0x1 c_timers_aarch64.o
 .debug_abbrev  0x0000000000000172       0x74 0x1 error_aarch64.o
 .debug_abbrev  0x00000000000001e6       0x5c 0x1 exact_rhs_aarch64.o
 .debug_abbrev  0x0000000000000242       0x59 0x1 exact_solution_aarch64.o
 .debug_abbrev  0x000000000000029b       0x80 0x1 initialize_aarch64.o
 .debug_abbrev  0x000000000000031b       0x41 0x1 ninvr_aarch64.o
 .debug_abbrev  0x000000000000035c       0x41 0x1 pinvr_aarch64.o
 .debug_abbrev  0x000000000000039d       0x97 0x1 print_results_aarch64.o
 .debug_abbrev  0x0000000000000434       0x77 0x1 randdp_aarch64.o
 .debug_abbrev  0x00000000000004ab       0x41 0x1 rhs_aarch64.o
 .debug_abbrev  0x00000000000004ec       0x32 0x1 set_constants_aarch64.o
 .debug_abbrev  0x000000000000051e       0xce 0x1 sp_aarch64.o
 .debug_abbrev  0x00000000000005ec       0x41 0x1 txinvr_aarch64.o
 .debug_abbrev  0x000000000000062d       0x41 0x1 tzetar_aarch64.o
 .debug_abbrev  0x000000000000066e       0x97 0x1 verify_aarch64.o
 .debug_abbrev  0x0000000000000705       0x96 0x1 wtime_aarch64.o
 .debug_abbrev  0x000000000000079b       0x41 0x1 x_solve_aarch64.o
 .debug_abbrev  0x00000000000007dc       0x41 0x1 y_solve_aarch64.o
 .debug_abbrev  0x000000000000081d       0x41 0x1 z_solve_aarch64.o
 .debug_abbrev  0x000000000000085e       0x5e 0x1 /usr/local/popcorn/aarch64/lib/crt1.o
 .debug_abbrev  0x00000000000008bc      0x1a7 0x1 /usr/local/popcorn/aarch64/lib/libc.a(__libc_start_main.o)
 .debug_abbrev  0x0000000000000a63       0x97 0x1 /usr/local/popcorn/aarch64/lib/libc.a(exit.o)
 .debug_abbrev  0x0000000000000afa       0x93 0x1 /usr/local/popcorn/aarch64/lib/libc.a(libc.o)
 .debug_abbrev  0x0000000000000b8d       0x45 0x1 /usr/local/popcorn/aarch64/lib/libc.a(sqrt.o)
 .debug_abbrev  0x0000000000000bd2       0xf4 0x1 /usr/local/popcorn/aarch64/lib/libc.a(pow.o)
 .debug_abbrev  0x0000000000000cc6       0x7b 0x1 /usr/local/popcorn/aarch64/lib/libc.a(scalbn.o)
 .debug_abbrev  0x0000000000000d41      0x103 0x1 /usr/local/popcorn/aarch64/lib/libc.a(fclose.o)
 .debug_abbrev  0x0000000000000e44       0xf7 0x1 /usr/local/popcorn/aarch64/lib/libc.a(fflush.o)
 .debug_abbrev  0x0000000000000f3b       0xd8 0x1 /usr/local/popcorn/aarch64/lib/libc.a(fgetc.o)
 .debug_abbrev  0x0000000000001013      0x13c 0x1 /usr/local/popcorn/aarch64/lib/libc.a(fopen.o)
 .debug_abbrev  0x000000000000114f       0xbf 0x1 /usr/local/popcorn/aarch64/lib/libc.a(fscanf.o)
 .debug_abbrev  0x000000000000120e       0xde 0x1 /usr/local/popcorn/aarch64/lib/libc.a(ofl.o)
 .debug_abbrev  0x00000000000012ec       0xa9 0x1 /usr/local/popcorn/aarch64/lib/libc.a(printf.o)
 .debug_abbrev  0x0000000000001395       0xa9 0x1 /usr/local/popcorn/aarch64/lib/libc.a(sprintf.o)
 .debug_abbrev  0x000000000000143e       0xc8 0x1 /usr/local/popcorn/aarch64/lib/libc.a(stdout.o)
 .debug_abbrev  0x0000000000001506      0x266 0x1 /usr/local/popcorn/aarch64/lib/libc.a(vfprintf.o)
 .debug_abbrev  0x000000000000176c      0x1cc 0x1 /usr/local/popcorn/aarch64/lib/libc.a(vfscanf.o)
 .debug_abbrev  0x0000000000001938       0x89 0x1 /usr/local/popcorn/aarch64/lib/libc.a(vsprintf.o)
 .debug_abbrev  0x00000000000019c1       0x7c 0x1 /usr/local/popcorn/aarch64/lib/libc.a(memset.o)
 .debug_abbrev  0x0000000000001a3d       0x62 0x1 /usr/local/popcorn/aarch64/lib/libc.a(strchr.o)
 .debug_abbrev  0x0000000000001a9f       0x74 0x1 /usr/local/popcorn/aarch64/lib/libc.a(strchrnul.o)
 .debug_abbrev  0x0000000000001b13       0x74 0x1 /usr/local/popcorn/aarch64/lib/libc.a(strlen.o)
 .debug_abbrev  0x0000000000001b87       0x6f 0x1 /usr/local/popcorn/aarch64/lib/libc.a(strnlen.o)
 .debug_abbrev  0x0000000000001bf6       0xd1 0x1 /usr/local/popcorn/aarch64/lib/libc.a(__lock.o)
 .debug_abbrev  0x0000000000001cc7       0xdb 0x1 /usr/local/popcorn/aarch64/lib/libc.a(__wait.o)
 .debug_abbrev  0x0000000000001da2       0x90 0x1 /usr/local/popcorn/aarch64/lib/libc.a(gettimeofday.o)
 .debug_abbrev  0x0000000000001e32       0x33 0x1 /usr/local/popcorn/aarch64/lib/libc.a(__environ.o)
 .debug_abbrev  0x0000000000001e65      0x1b3 0x1 /usr/local/popcorn/aarch64/lib/libc.a(__init_tls.o)
 .debug_abbrev  0x0000000000002018      0x123 0x1 /usr/local/popcorn/aarch64/lib/libc.a(__errno_location.o)
 .debug_abbrev  0x000000000000213b      0x155 0x1 /usr/local/popcorn/aarch64/lib/libc.a(strerror.o)
 .debug_abbrev  0x0000000000002290       0xaf 0x1 /usr/local/popcorn/aarch64/lib/libc.a(_Exit.o)
 .debug_abbrev  0x000000000000233f      0x1d1 0x1 /usr/local/popcorn/aarch64/lib/libc.a(floatscan.o)
 .debug_abbrev  0x0000000000002510      0x147 0x1 /usr/local/popcorn/aarch64/lib/libc.a(intscan.o)
 .debug_abbrev  0x0000000000002657       0xfc 0x1 /usr/local/popcorn/aarch64/lib/libc.a(shgetc.o)
 .debug_abbrev  0x0000000000002753       0x45 0x1 /usr/local/popcorn/aarch64/lib/libc.a(syscall_ret.o)
 .debug_abbrev  0x0000000000002798      0x152 0x1 /usr/local/popcorn/aarch64/lib/libc.a(__lctrans.o)
 .debug_abbrev  0x00000000000028ea       0xa3 0x1 /usr/local/popcorn/aarch64/lib/libc.a(lite_malloc.o)
 .debug_abbrev  0x000000000000298d      0x2a6 0x1 /usr/local/popcorn/aarch64/lib/libc.a(malloc.o)
 .debug_abbrev  0x0000000000002c33      0x29f 0x1 /usr/local/popcorn/aarch64/lib/libc.a(popcorn_malloc.o)
 .debug_abbrev  0x0000000000002ed2       0x88 0x1 /usr/local/popcorn/aarch64/lib/libc.a(__fpclassifyl.o)
 .debug_abbrev  0x0000000000002f5a       0x88 0x1 /usr/local/popcorn/aarch64/lib/libc.a(__signbitl.o)
 .debug_abbrev  0x0000000000002fe2       0x45 0x1 /usr/local/popcorn/aarch64/lib/libc.a(fabs.o)
 .debug_abbrev  0x0000000000003027       0x97 0x1 /usr/local/popcorn/aarch64/lib/libc.a(copysignl.o)
 .debug_abbrev  0x00000000000030be       0x88 0x1 /usr/local/popcorn/aarch64/lib/libc.a(fmodl.o)
 .debug_abbrev  0x0000000000003146       0x8f 0x1 /usr/local/popcorn/aarch64/lib/libc.a(frexpl.o)
 .debug_abbrev  0x00000000000031d5       0x88 0x1 /usr/local/popcorn/aarch64/lib/libc.a(scalbnl.o)
 .debug_abbrev  0x000000000000325d       0xa3 0x1 /usr/local/popcorn/aarch64/lib/libc.a(madvise.o)
 .debug_abbrev  0x0000000000003300       0xc5 0x1 /usr/local/popcorn/aarch64/lib/libc.a(mmap.o)
 .debug_abbrev  0x00000000000033c5       0xe6 0x1 /usr/local/popcorn/aarch64/lib/libc.a(mremap.o)
 .debug_abbrev  0x00000000000034ab       0xca 0x1 /usr/local/popcorn/aarch64/lib/libc.a(munmap.o)
 .debug_abbrev  0x0000000000003575      0x17c 0x1 /usr/local/popcorn/aarch64/lib/libc.a(mbrtowc.o)
 .debug_abbrev  0x00000000000036f1       0x7c 0x1 /usr/local/popcorn/aarch64/lib/libc.a(mbsinit.o)
 .debug_abbrev  0x000000000000376d       0x59 0x1 /usr/local/popcorn/aarch64/lib/libc.a(wctomb.o)
 .debug_abbrev  0x00000000000037c6      0x13e 0x1 /usr/local/popcorn/aarch64/lib/libc.a(__fdopen.o)
 .debug_abbrev  0x0000000000003904       0x62 0x1 /usr/local/popcorn/aarch64/lib/libc.a(__fmodeflags.o)
 .debug_abbrev  0x0000000000003966      0x1c2 0x1 /usr/local/popcorn/aarch64/lib/libc.a(__lockfile.o)
 .debug_abbrev  0x0000000000003b28      0x139 0x1 /usr/local/popcorn/aarch64/lib/libc.a(__stdio_close.o)
 .debug_abbrev  0x0000000000003c61      0x14f 0x1 /usr/local/popcorn/aarch64/lib/libc.a(__stdio_read.o)
 .debug_abbrev  0x0000000000003db0      0x129 0x1 /usr/local/popcorn/aarch64/lib/libc.a(__stdio_seek.o)
 .debug_abbrev  0x0000000000003ed9      0x14f 0x1 /usr/local/popcorn/aarch64/lib/libc.a(__stdio_write.o)
 .debug_abbrev  0x0000000000004028      0x117 0x1 /usr/local/popcorn/aarch64/lib/libc.a(__stdout_write.o)
 .debug_abbrev  0x000000000000413f       0xd8 0x1 /usr/local/popcorn/aarch64/lib/libc.a(__uflow.o)
 .debug_abbrev  0x0000000000004217       0xf8 0x1 /usr/local/popcorn/aarch64/lib/libc.a(fwrite.o)
 .debug_abbrev  0x000000000000430f       0xd8 0x1 /usr/local/popcorn/aarch64/lib/libc.a(ofl_add.o)
 .debug_abbrev  0x00000000000043e7      0x12d 0x1 /usr/local/popcorn/aarch64/lib/libc.a(vsnprintf.o)
 .debug_abbrev  0x0000000000004514       0x82 0x1 /usr/local/popcorn/aarch64/lib/libc.a(memchr.o)
 .debug_abbrev  0x0000000000004596       0x8f 0x1 /usr/local/popcorn/aarch64/lib/libc.a(memcpy.o)
 .debug_abbrev  0x0000000000004625       0x28 0x1 /usr/local/popcorn/aarch64/lib/libc.a(__set_thread_area.o)
 .debug_abbrev  0x000000000000464d       0xf1 0x1 /usr/local/popcorn/aarch64/lib/libc.a(clock_gettime.o)
 .debug_abbrev  0x000000000000473e       0xec 0x1 /usr/local/popcorn/aarch64/lib/libc.a(platform.o)
 .debug_abbrev  0x000000000000482a      0x14b 0x1 /usr/local/popcorn/aarch64/lib/libc.a(expand_heap.o)
 .debug_abbrev  0x0000000000004975       0x5b 0x1 /usr/local/popcorn/aarch64/lib/libc.a(internal.o)
 .debug_abbrev  0x00000000000049d0      0x151 0x1 /usr/local/popcorn/aarch64/lib/libc.a(wcrtomb.o)
 .debug_abbrev  0x0000000000004b21       0xdc 0x1 /usr/local/popcorn/aarch64/lib/libc.a(__toread.o)
 .debug_abbrev  0x0000000000004bfd       0xdc 0x1 /usr/local/popcorn/aarch64/lib/libc.a(__towrite.o)
 .debug_abbrev  0x0000000000004cd9       0xf8 0x1 /usr/local/popcorn/aarch64/lib/libc.a(__stdio_exit.o)
 .debug_abbrev  0x0000000000004dd1      0x1c2 0x1 /usr/local/popcorn/aarch64/lib/libmigrate.a(migrate.o)
 .debug_abbrev  0x0000000000004f93       0xdb 0x1 /usr/local/popcorn/aarch64/lib/libmigrate.a(mapping.o)
 .debug_abbrev  0x000000000000506e      0x210 0x1 /usr/local/popcorn/aarch64/lib/libstack-transform.a(userspace.o)
 .debug_abbrev  0x000000000000527e      0x14e 0x1 /usr/local/popcorn/aarch64/lib/libstack-transform.a(init.o)
 .debug_abbrev  0x00000000000053cc      0x233 0x1 /usr/local/popcorn/aarch64/lib/libstack-transform.a(rewrite.o)
 .debug_abbrev  0x00000000000055ff      0x1d1 0x1 /usr/local/popcorn/aarch64/lib/libstack-transform.a(unwind.o)
 .debug_abbrev  0x00000000000057d0      0x19c 0x1 /usr/local/popcorn/aarch64/lib/libstack-transform.a(util.o)
 .debug_abbrev  0x000000000000596c       0xca 0x1 /usr/local/popcorn/aarch64/lib/libstack-transform.a(properties.o)
 .debug_abbrev  0x0000000000005a36      0x139 0x1 /usr/local/popcorn/aarch64/lib/libstack-transform.a(regs.o)
 .debug_abbrev  0x0000000000005b6f       0xd9 0x1 /usr/local/popcorn/aarch64/lib/libstack-transform.a(properties.o)
 .debug_abbrev  0x0000000000005c48      0x139 0x1 /usr/local/popcorn/aarch64/lib/libstack-transform.a(regs.o)
 .debug_abbrev  0x0000000000005d81       0xca 0x1 /usr/local/popcorn/aarch64/lib/libstack-transform.a(properties.o)
 .debug_abbrev  0x0000000000005e4b      0x139 0x1 /usr/local/popcorn/aarch64/lib/libstack-transform.a(regs.o)
 .debug_abbrev  0x0000000000005f84       0xca 0x1 /usr/local/popcorn/aarch64/lib/libstack-transform.a(properties.o)
 .debug_abbrev  0x000000000000604e      0x139 0x1 /usr/local/popcorn/aarch64/lib/libstack-transform.a(regs.o)
 .debug_abbrev  0x0000000000006187      0x211 0x1 /usr/local/popcorn/aarch64/lib/libstack-transform.a(data.o)
 .debug_abbrev  0x0000000000006398       0x8c 0x1 /usr/local/popcorn/aarch64/lib/libc.a(arch_crash.o)
 .debug_abbrev  0x0000000000006424       0x76 0x1 /usr/local/popcorn/aarch64/lib/libc.a(getenv.o)
 .debug_abbrev  0x000000000000649a       0x54 0x1 /usr/local/popcorn/aarch64/lib/libc.a(assert.o)
 .debug_abbrev  0x00000000000064ee       0xea 0x1 /usr/local/popcorn/aarch64/lib/libc.a(open.o)
 .debug_abbrev  0x00000000000065d8       0xa3 0x1 /usr/local/popcorn/aarch64/lib/libc.a(calloc.o)
 .debug_abbrev  0x000000000000667b      0x10e 0x1 /usr/local/popcorn/aarch64/lib/libc.a(getrlimit.o)
 .debug_abbrev  0x0000000000006789       0xbf 0x1 /usr/local/popcorn/aarch64/lib/libc.a(fprintf.o)
 .debug_abbrev  0x0000000000006848       0xe5 0x1 /usr/local/popcorn/aarch64/lib/libc.a(fseek.o)
 .debug_abbrev  0x000000000000692d       0xd8 0x1 /usr/local/popcorn/aarch64/lib/libc.a(getc.o)
 .debug_abbrev  0x0000000000006a05       0x76 0x1 /usr/local/popcorn/aarch64/lib/libc.a(getline.o)
 .debug_abbrev  0x0000000000006a7b       0xd6 0x1 /usr/local/popcorn/aarch64/lib/libc.a(perror.o)
 .debug_abbrev  0x0000000000006b51       0xa9 0x1 /usr/local/popcorn/aarch64/lib/libc.a(snprintf.o)
 .debug_abbrev  0x0000000000006bfa       0xa9 0x1 /usr/local/popcorn/aarch64/lib/libc.a(sscanf.o)
 .debug_abbrev  0x0000000000006ca3       0xbf 0x1 /usr/local/popcorn/aarch64/lib/libc.a(stderr.o)
 .debug_abbrev  0x0000000000006d62      0x111 0x1 /usr/local/popcorn/aarch64/lib/libc.a(vsscanf.o)
 .debug_abbrev  0x0000000000006e73       0x8f 0x1 /usr/local/popcorn/aarch64/lib/libc.a(bsearch.o)
 .debug_abbrev  0x0000000000006f02      0x181 0x1 /usr/local/popcorn/aarch64/lib/libc.a(qsort.o)
 .debug_abbrev  0x0000000000007083      0x144 0x1 /usr/local/popcorn/aarch64/lib/libc.a(strtol.o)
 .debug_abbrev  0x00000000000071c7       0x53 0x1 /usr/local/popcorn/aarch64/lib/libc.a(strcmp.o)
 .debug_abbrev  0x000000000000721a       0x83 0x1 /usr/local/popcorn/aarch64/lib/libc.a(strncmp.o)
 .debug_abbrev  0x000000000000729d       0x67 0x1 /usr/local/popcorn/aarch64/lib/libc.a(__syscall_cp.o)
 .debug_abbrev  0x0000000000007304      0x103 0x1 /usr/local/popcorn/aarch64/lib/libc.a(pthread_attr_get.o)
 .debug_abbrev  0x0000000000007407      0x11f 0x1 /usr/local/popcorn/aarch64/lib/libc.a(pthread_getattr_np.o)
 .debug_abbrev  0x0000000000007526      0x145 0x1 /usr/local/popcorn/aarch64/lib/libc.a(pthread_migrate.o)
 .debug_abbrev  0x000000000000766b      0x11f 0x1 /usr/local/popcorn/aarch64/lib/libc.a(pthread_self.o)
 .debug_abbrev  0x000000000000778a       0x78 0x1 /usr/local/popcorn/aarch64/lib/libc.a(close.o)
 .debug_abbrev  0x0000000000007802       0x98 0x1 /usr/local/popcorn/aarch64/lib/libc.a(getpid.o)
 .debug_abbrev  0x000000000000789a       0x9e 0x1 /usr/local/popcorn/aarch64/lib/libc.a(lseek.o)
 .debug_abbrev  0x0000000000007938       0x57 0x1 /usr/local/popcorn/aarch64/lib/libc.a(read.o)
 .debug_abbrev  0x000000000000798f       0x63 0x1 /usr/local/popcorn/aarch64/lib/libc.a(abort.o)
 .debug_abbrev  0x00000000000079f2       0x28 0x1 /usr/local/popcorn/aarch64/lib/libc.a(syscall.o)
 .debug_abbrev  0x0000000000007a1a       0xeb 0x1 /usr/local/popcorn/aarch64/lib/libc.a(block.o)
 .debug_abbrev  0x0000000000007b05       0xf8 0x1 /usr/local/popcorn/aarch64/lib/libc.a(raise.o)
 .debug_abbrev  0x0000000000007bfd       0xd8 0x1 /usr/local/popcorn/aarch64/lib/libc.a(__string_read.o)
 .debug_abbrev  0x0000000000007cd5       0xc9 0x1 /usr/local/popcorn/aarch64/lib/libc.a(fputc.o)
 .debug_abbrev  0x0000000000007d9e       0xf3 0x1 /usr/local/popcorn/aarch64/lib/libc.a(getdelim.o)
 .debug_abbrev  0x0000000000007e91       0xd8 0x1 /usr/local/popcorn/aarch64/lib/libc.a(__overflow.o)

.debug_line     0x0000000000000000    0x18225
 *(.debug_line .debug_line.* .debug_line_end)
 .debug_line    0x0000000000000000       0xf7 0x1 add_aarch64.o
 .debug_line    0x00000000000000f7       0x46 0x1 adi_aarch64.o
 .debug_line    0x000000000000013d      0x111 0x1 c_print_results_aarch64.o
 .debug_line    0x000000000000024e       0xf4 0x1 c_timers_aarch64.o
 .debug_line    0x0000000000000342      0x321 0x1 error_aarch64.o
 .debug_line    0x0000000000000663     0x14dd 0x1 exact_rhs_aarch64.o
 .debug_line    0x0000000000001b40       0xf0 0x1 exact_solution_aarch64.o
 .debug_line    0x0000000000001c30      0x957 0x1 initialize_aarch64.o
 .debug_line    0x0000000000002587      0x1f1 0x1 ninvr_aarch64.o
 .debug_line    0x0000000000002778      0x1f1 0x1 pinvr_aarch64.o
 .debug_line    0x0000000000002969      0x150 0x1 print_results_aarch64.o
 .debug_line    0x0000000000002ab9      0x23d 0x1 randdp_aarch64.o
 .debug_line    0x0000000000002cf6     0x1788 0x1 rhs_aarch64.o
 .debug_line    0x000000000000447e      0x4aa 0x1 set_constants_aarch64.o
 .debug_line    0x0000000000004928      0x3fd 0x1 sp_aarch64.o
 .debug_line    0x0000000000004d25      0x2fc 0x1 txinvr_aarch64.o
 .debug_line    0x0000000000005021      0x2f9 0x1 tzetar_aarch64.o
 .debug_line    0x000000000000531a      0x495 0x1 verify_aarch64.o
 .debug_line    0x00000000000057af       0xa5 0x1 wtime_aarch64.o
 .debug_line    0x0000000000005854     0x100a 0x1 x_solve_aarch64.o
 .debug_line    0x000000000000685e     0x102c 0x1 y_solve_aarch64.o
 .debug_line    0x000000000000788a     0x100b 0x1 z_solve_aarch64.o
 .debug_line    0x0000000000008895       0x49 0x1 /usr/local/popcorn/aarch64/lib/crt1.o
 .debug_line    0x00000000000088de      0x26e 0x1 /usr/local/popcorn/aarch64/lib/libc.a(__libc_start_main.o)
 .debug_line    0x0000000000008b4c       0xb0 0x1 /usr/local/popcorn/aarch64/lib/libc.a(exit.o)
 .debug_line    0x0000000000008bfc       0x6d 0x1 /usr/local/popcorn/aarch64/lib/libc.a(libc.o)
 .debug_line    0x0000000000008c69       0x4f 0x1 /usr/local/popcorn/aarch64/lib/libc.a(sqrt.o)
 .debug_line    0x0000000000008cb8      0x614 0x1 /usr/local/popcorn/aarch64/lib/libc.a(pow.o)
 .debug_line    0x00000000000092cc       0xe1 0x1 /usr/local/popcorn/aarch64/lib/libc.a(scalbn.o)
 .debug_line    0x00000000000093ad      0x104 0x1 /usr/local/popcorn/aarch64/lib/libc.a(fclose.o)
 .debug_line    0x00000000000094b1      0x139 0x1 /usr/local/popcorn/aarch64/lib/libc.a(fflush.o)
 .debug_line    0x00000000000095ea       0xac 0x1 /usr/local/popcorn/aarch64/lib/libc.a(fgetc.o)
 .debug_line    0x0000000000009696      0x119 0x1 /usr/local/popcorn/aarch64/lib/libc.a(fopen.o)
 .debug_line    0x00000000000097af       0x71 0x1 /usr/local/popcorn/aarch64/lib/libc.a(fscanf.o)
 .debug_line    0x0000000000009820       0xaa 0x1 /usr/local/popcorn/aarch64/lib/libc.a(ofl.o)
 .debug_line    0x00000000000098ca       0x89 0x1 /usr/local/popcorn/aarch64/lib/libc.a(printf.o)
 .debug_line    0x0000000000009953       0x72 0x1 /usr/local/popcorn/aarch64/lib/libc.a(sprintf.o)
 .debug_line    0x00000000000099c5       0x7c 0x1 /usr/local/popcorn/aarch64/lib/libc.a(stdout.o)
 .debug_line    0x0000000000009a41     0x12e4 0x1 /usr/local/popcorn/aarch64/lib/libc.a(vfprintf.o)
 .debug_line    0x000000000000ad25      0x71f 0x1 /usr/local/popcorn/aarch64/lib/libc.a(vfscanf.o)
 .debug_line    0x000000000000b444       0x6f 0x1 /usr/local/popcorn/aarch64/lib/libc.a(vsprintf.o)
 .debug_line    0x000000000000b4b3      0x14d 0x1 /usr/local/popcorn/aarch64/lib/libc.a(memset.o)
 .debug_line    0x000000000000b600       0x57 0x1 /usr/local/popcorn/aarch64/lib/libc.a(strchr.o)
 .debug_line    0x000000000000b657       0xcc 0x1 /usr/local/popcorn/aarch64/lib/libc.a(strchrnul.o)
 .debug_line    0x000000000000b723       0xb6 0x1 /usr/local/popcorn/aarch64/lib/libc.a(strlen.o)
 .debug_line    0x000000000000b7d9       0x74 0x1 /usr/local/popcorn/aarch64/lib/libc.a(strnlen.o)
 .debug_line    0x000000000000b84d      0x127 0x1 /usr/local/popcorn/aarch64/lib/libc.a(__lock.o)
 .debug_line    0x000000000000b974      0x138 0x1 /usr/local/popcorn/aarch64/lib/libc.a(__wait.o)
 .debug_line    0x000000000000baac       0x8c 0x1 /usr/local/popcorn/aarch64/lib/libc.a(gettimeofday.o)
 .debug_line    0x000000000000bb38       0x35 0x1 /usr/local/popcorn/aarch64/lib/libc.a(__environ.o)
 .debug_line    0x000000000000bb6d      0x298 0x1 /usr/local/popcorn/aarch64/lib/libc.a(__init_tls.o)
 .debug_line    0x000000000000be05       0xe0 0x1 /usr/local/popcorn/aarch64/lib/libc.a(__errno_location.o)
 .debug_line    0x000000000000bee5      0x13b 0x1 /usr/local/popcorn/aarch64/lib/libc.a(strerror.o)
 .debug_line    0x000000000000c020       0x75 0x1 /usr/local/popcorn/aarch64/lib/libc.a(_Exit.o)
 .debug_line    0x000000000000c095      0xf0a 0x1 /usr/local/popcorn/aarch64/lib/libc.a(floatscan.o)
 .debug_line    0x000000000000cf9f      0x3db 0x1 /usr/local/popcorn/aarch64/lib/libc.a(intscan.o)
 .debug_line    0x000000000000d37a      0x14a 0x1 /usr/local/popcorn/aarch64/lib/libc.a(shgetc.o)
 .debug_line    0x000000000000d4c4       0x60 0x1 /usr/local/popcorn/aarch64/lib/libc.a(syscall_ret.o)
 .debug_line    0x000000000000d524      0x11d 0x1 /usr/local/popcorn/aarch64/lib/libc.a(__lctrans.o)
 .debug_line    0x000000000000d641       0xfd 0x1 /usr/local/popcorn/aarch64/lib/libc.a(lite_malloc.o)
 .debug_line    0x000000000000d73e      0xdca 0x1 /usr/local/popcorn/aarch64/lib/libc.a(malloc.o)
 .debug_line    0x000000000000e508     0x12fb 0x1 /usr/local/popcorn/aarch64/lib/libc.a(popcorn_malloc.o)
 .debug_line    0x000000000000f803       0xb4 0x1 /usr/local/popcorn/aarch64/lib/libc.a(__fpclassifyl.o)
 .debug_line    0x000000000000f8b7       0x88 0x1 /usr/local/popcorn/aarch64/lib/libc.a(__signbitl.o)
 .debug_line    0x000000000000f93f       0x4f 0x1 /usr/local/popcorn/aarch64/lib/libc.a(fabs.o)
 .debug_line    0x000000000000f98e       0x96 0x1 /usr/local/popcorn/aarch64/lib/libc.a(copysignl.o)
 .debug_line    0x000000000000fa24      0x1c4 0x1 /usr/local/popcorn/aarch64/lib/libc.a(fmodl.o)
 .debug_line    0x000000000000fbe8       0xca 0x1 /usr/local/popcorn/aarch64/lib/libc.a(frexpl.o)
 .debug_line    0x000000000000fcb2       0xff 0x1 /usr/local/popcorn/aarch64/lib/libc.a(scalbnl.o)
 .debug_line    0x000000000000fdb1       0xa6 0x1 /usr/local/popcorn/aarch64/lib/libc.a(madvise.o)
 .debug_line    0x000000000000fe57       0xf4 0x1 /usr/local/popcorn/aarch64/lib/libc.a(mmap.o)
 .debug_line    0x000000000000ff4b       0xec 0x1 /usr/local/popcorn/aarch64/lib/libc.a(mremap.o)
 .debug_line    0x0000000000010037       0xae 0x1 /usr/local/popcorn/aarch64/lib/libc.a(munmap.o)
 .debug_line    0x00000000000100e5      0x1a6 0x1 /usr/local/popcorn/aarch64/lib/libc.a(mbrtowc.o)
 .debug_line    0x000000000001028b       0x79 0x1 /usr/local/popcorn/aarch64/lib/libc.a(mbsinit.o)
 .debug_line    0x0000000000010304       0x77 0x1 /usr/local/popcorn/aarch64/lib/libc.a(wctomb.o)
 .debug_line    0x000000000001037b      0x1b8 0x1 /usr/local/popcorn/aarch64/lib/libc.a(__fdopen.o)
 .debug_line    0x0000000000010533       0x87 0x1 /usr/local/popcorn/aarch64/lib/libc.a(__fmodeflags.o)
 .debug_line    0x00000000000105ba      0x1a9 0x1 /usr/local/popcorn/aarch64/lib/libc.a(__lockfile.o)
 .debug_line    0x0000000000010763       0xf0 0x1 /usr/local/popcorn/aarch64/lib/libc.a(__stdio_close.o)
 .debug_line    0x0000000000010853      0x141 0x1 /usr/local/popcorn/aarch64/lib/libc.a(__stdio_read.o)
 .debug_line    0x0000000000010994       0xc6 0x1 /usr/local/popcorn/aarch64/lib/libc.a(__stdio_seek.o)
 .debug_line    0x0000000000010a5a      0x198 0x1 /usr/local/popcorn/aarch64/lib/libc.a(__stdio_write.o)
 .debug_line    0x0000000000010bf2      0x109 0x1 /usr/local/popcorn/aarch64/lib/libc.a(__stdout_write.o)
 .debug_line    0x0000000000010cfb       0xab 0x1 /usr/local/popcorn/aarch64/lib/libc.a(__uflow.o)
 .debug_line    0x0000000000010da6      0x146 0x1 /usr/local/popcorn/aarch64/lib/libc.a(fwrite.o)
 .debug_line    0x0000000000010eec       0xaa 0x1 /usr/local/popcorn/aarch64/lib/libc.a(ofl_add.o)
 .debug_line    0x0000000000010f96      0x133 0x1 /usr/local/popcorn/aarch64/lib/libc.a(vsnprintf.o)
 .debug_line    0x00000000000110c9       0xd3 0x1 /usr/local/popcorn/aarch64/lib/libc.a(memchr.o)
 .debug_line    0x000000000001119c      0x31a 0x1 /usr/local/popcorn/aarch64/lib/libc.a(memcpy.o)
 .debug_line    0x00000000000114b6       0x5b 0x1 /usr/local/popcorn/aarch64/lib/libc.a(__set_thread_area.o)
 .debug_line    0x0000000000011511       0xdb 0x1 /usr/local/popcorn/aarch64/lib/libc.a(clock_gettime.o)
 .debug_line    0x00000000000115ec      0x123 0x1 /usr/local/popcorn/aarch64/lib/libc.a(platform.o)
 .debug_line    0x000000000001170f      0x453 0x1 /usr/local/popcorn/aarch64/lib/libc.a(expand_heap.o)
 .debug_line    0x0000000000011b62       0x59 0x1 /usr/local/popcorn/aarch64/lib/libc.a(internal.o)
 .debug_line    0x0000000000011bbb      0x15f 0x1 /usr/local/popcorn/aarch64/lib/libc.a(wcrtomb.o)
 .debug_line    0x0000000000011d1a       0xe9 0x1 /usr/local/popcorn/aarch64/lib/libc.a(__toread.o)
 .debug_line    0x0000000000011e03       0xe2 0x1 /usr/local/popcorn/aarch64/lib/libc.a(__towrite.o)
 .debug_line    0x0000000000011ee5      0x103 0x1 /usr/local/popcorn/aarch64/lib/libc.a(__stdio_exit.o)
 .debug_line    0x0000000000011fe8      0x54c 0x1 /usr/local/popcorn/aarch64/lib/libmigrate.a(migrate.o)
 .debug_line    0x0000000000012534      0x356 0x1 /usr/local/popcorn/aarch64/lib/libmigrate.a(mapping.o)
 .debug_line    0x000000000001288a      0x553 0x1 /usr/local/popcorn/aarch64/lib/libstack-transform.a(userspace.o)
 .debug_line    0x0000000000012ddd      0x31c 0x1 /usr/local/popcorn/aarch64/lib/libstack-transform.a(init.o)
 .debug_line    0x00000000000130f9      0x852 0x1 /usr/local/popcorn/aarch64/lib/libstack-transform.a(rewrite.o)
 .debug_line    0x000000000001394b      0x55d 0x1 /usr/local/popcorn/aarch64/lib/libstack-transform.a(unwind.o)
 .debug_line    0x0000000000013ea8      0x4b1 0x1 /usr/local/popcorn/aarch64/lib/libstack-transform.a(util.o)
 .debug_line    0x0000000000014359      0x107 0x1 /usr/local/popcorn/aarch64/lib/libstack-transform.a(properties.o)
 .debug_line    0x0000000000014460      0x544 0x1 /usr/local/popcorn/aarch64/lib/libstack-transform.a(regs.o)
 .debug_line    0x00000000000149a4      0x119 0x1 /usr/local/popcorn/aarch64/lib/libstack-transform.a(properties.o)
 .debug_line    0x0000000000014abd      0x4c4 0x1 /usr/local/popcorn/aarch64/lib/libstack-transform.a(regs.o)
 .debug_line    0x0000000000014f81      0x107 0x1 /usr/local/popcorn/aarch64/lib/libstack-transform.a(properties.o)
 .debug_line    0x0000000000015088      0x2b0 0x1 /usr/local/popcorn/aarch64/lib/libstack-transform.a(regs.o)
 .debug_line    0x0000000000015338       0xfd 0x1 /usr/local/popcorn/aarch64/lib/libstack-transform.a(properties.o)
 .debug_line    0x0000000000015435      0x3f7 0x1 /usr/local/popcorn/aarch64/lib/libstack-transform.a(regs.o)
 .debug_line    0x000000000001582c      0x94d 0x1 /usr/local/popcorn/aarch64/lib/libstack-transform.a(data.o)
 .debug_line    0x0000000000016179       0xba 0x1 /usr/local/popcorn/aarch64/lib/libc.a(arch_crash.o)
 .debug_line    0x0000000000016233       0xae 0x1 /usr/local/popcorn/aarch64/lib/libc.a(getenv.o)
 .debug_line    0x00000000000162e1       0x56 0x1 /usr/local/popcorn/aarch64/lib/libc.a(assert.o)
 .debug_line    0x0000000000016337       0xc8 0x1 /usr/local/popcorn/aarch64/lib/libc.a(open.o)
 .debug_line    0x00000000000163ff      0x121 0x1 /usr/local/popcorn/aarch64/lib/libc.a(calloc.o)
 .debug_line    0x0000000000016520       0xfb 0x1 /usr/local/popcorn/aarch64/lib/libc.a(getrlimit.o)
 .debug_line    0x000000000001661b       0x72 0x1 /usr/local/popcorn/aarch64/lib/libc.a(fprintf.o)
 .debug_line    0x000000000001668d      0x129 0x1 /usr/local/popcorn/aarch64/lib/libc.a(fseek.o)
 .debug_line    0x00000000000167b6       0xab 0x1 /usr/local/popcorn/aarch64/lib/libc.a(getc.o)
 .debug_line    0x0000000000016861       0x69 0x1 /usr/local/popcorn/aarch64/lib/libc.a(getline.o)
 .debug_line    0x00000000000168ca       0xd4 0x1 /usr/local/popcorn/aarch64/lib/libc.a(perror.o)
 .debug_line    0x000000000001699e       0x73 0x1 /usr/local/popcorn/aarch64/lib/libc.a(snprintf.o)
 .debug_line    0x0000000000016a11       0x71 0x1 /usr/local/popcorn/aarch64/lib/libc.a(sscanf.o)
 .debug_line    0x0000000000016a82       0x7c 0x1 /usr/local/popcorn/aarch64/lib/libc.a(stderr.o)
 .debug_line    0x0000000000016afe       0xb8 0x1 /usr/local/popcorn/aarch64/lib/libc.a(vsscanf.o)
 .debug_line    0x0000000000016bb6       0x92 0x1 /usr/local/popcorn/aarch64/lib/libc.a(bsearch.o)
 .debug_line    0x0000000000016c48      0x4ac 0x1 /usr/local/popcorn/aarch64/lib/libc.a(qsort.o)
 .debug_line    0x00000000000170f4      0x172 0x1 /usr/local/popcorn/aarch64/lib/libc.a(strtol.o)
 .debug_line    0x0000000000017266       0x62 0x1 /usr/local/popcorn/aarch64/lib/libc.a(strcmp.o)
 .debug_line    0x00000000000172c8       0xa2 0x1 /usr/local/popcorn/aarch64/lib/libc.a(strncmp.o)
 .debug_line    0x000000000001736a       0x85 0x1 /usr/local/popcorn/aarch64/lib/libc.a(__syscall_cp.o)
 .debug_line    0x00000000000173ef      0x2af 0x1 /usr/local/popcorn/aarch64/lib/libc.a(pthread_attr_get.o)
 .debug_line    0x000000000001769e      0x13f 0x1 /usr/local/popcorn/aarch64/lib/libc.a(pthread_getattr_np.o)
 .debug_line    0x00000000000177dd      0x105 0x1 /usr/local/popcorn/aarch64/lib/libc.a(pthread_migrate.o)
 .debug_line    0x00000000000178e2       0xdc 0x1 /usr/local/popcorn/aarch64/lib/libc.a(pthread_self.o)
 .debug_line    0x00000000000179be       0x6e 0x1 /usr/local/popcorn/aarch64/lib/libc.a(close.o)
 .debug_line    0x0000000000017a2c       0x93 0x1 /usr/local/popcorn/aarch64/lib/libc.a(getpid.o)
 .debug_line    0x0000000000017abf       0xa2 0x1 /usr/local/popcorn/aarch64/lib/libc.a(lseek.o)
 .debug_line    0x0000000000017b61       0x67 0x1 /usr/local/popcorn/aarch64/lib/libc.a(read.o)
 .debug_line    0x0000000000017bc8       0x75 0x1 /usr/local/popcorn/aarch64/lib/libc.a(abort.o)
 .debug_line    0x0000000000017c3d       0x5a 0x1 /usr/local/popcorn/aarch64/lib/libc.a(syscall.o)
 .debug_line    0x0000000000017c97       0xba 0x1 /usr/local/popcorn/aarch64/lib/libc.a(block.o)
 .debug_line    0x0000000000017d51       0xa4 0x1 /usr/local/popcorn/aarch64/lib/libc.a(raise.o)
 .debug_line    0x0000000000017df5       0xb8 0x1 /usr/local/popcorn/aarch64/lib/libc.a(__string_read.o)
 .debug_line    0x0000000000017ead       0xad 0x1 /usr/local/popcorn/aarch64/lib/libc.a(fputc.o)
 .debug_line    0x0000000000017f5a      0x1f0 0x1 /usr/local/popcorn/aarch64/lib/libc.a(getdelim.o)
 .debug_line    0x000000000001814a       0xdb 0x1 /usr/local/popcorn/aarch64/lib/libc.a(__overflow.o)

.debug_frame    0x0000000000000000     0x3648
 *(.debug_frame)
 .debug_frame   0x0000000000000000       0x38 0x8 /usr/local/popcorn/aarch64/lib/crt1.o
 .debug_frame   0x0000000000000038       0xc0 0x8 /usr/local/popcorn/aarch64/lib/libc.a(__libc_start_main.o)
 .debug_frame   0x00000000000000f8       0x80 0x8 /usr/local/popcorn/aarch64/lib/libc.a(exit.o)
 .debug_frame   0x0000000000000178       0x30 0x8 /usr/local/popcorn/aarch64/lib/libc.a(sqrt.o)
 .debug_frame   0x00000000000001a8       0x50 0x8 /usr/local/popcorn/aarch64/lib/libc.a(pow.o)
 .debug_frame   0x00000000000001f8       0x30 0x8 /usr/local/popcorn/aarch64/lib/libc.a(scalbn.o)
 .debug_frame   0x0000000000000228       0x58 0x8 /usr/local/popcorn/aarch64/lib/libc.a(fclose.o)
 .debug_frame   0x0000000000000280       0x40 0x8 /usr/local/popcorn/aarch64/lib/libc.a(fflush.o)
 .debug_frame   0x00000000000002c0       0x40 0x8 /usr/local/popcorn/aarch64/lib/libc.a(fgetc.o)
 .debug_frame   0x0000000000000300       0x40 0x8 /usr/local/popcorn/aarch64/lib/libc.a(fopen.o)
 .debug_frame   0x0000000000000340       0x38 0x8 /usr/local/popcorn/aarch64/lib/libc.a(fscanf.o)
 .debug_frame   0x0000000000000378       0x50 0x8 /usr/local/popcorn/aarch64/lib/libc.a(ofl.o)
 .debug_frame   0x00000000000003c8       0x40 0x8 /usr/local/popcorn/aarch64/lib/libc.a(printf.o)
 .debug_frame   0x0000000000000408       0x38 0x8 /usr/local/popcorn/aarch64/lib/libc.a(sprintf.o)
 .debug_frame   0x0000000000000440       0xe0 0x8 /usr/local/popcorn/aarch64/lib/libc.a(vfprintf.o)
 .debug_frame   0x0000000000000520       0x50 0x8 /usr/local/popcorn/aarch64/lib/libc.a(vfscanf.o)
 .debug_frame   0x0000000000000570       0x38 0x8 /usr/local/popcorn/aarch64/lib/libc.a(vsprintf.o)
 .debug_frame   0x00000000000005a8       0x30 0x8 /usr/local/popcorn/aarch64/lib/libc.a(memset.o)
 .debug_frame   0x00000000000005d8       0x40 0x8 /usr/local/popcorn/aarch64/lib/libc.a(strchr.o)
 .debug_frame   0x0000000000000618       0x40 0x8 /usr/local/popcorn/aarch64/lib/libc.a(strchrnul.o)
 .debug_frame   0x0000000000000658       0x30 0x8 /usr/local/popcorn/aarch64/lib/libc.a(strlen.o)
 .debug_frame   0x0000000000000688       0x40 0x8 /usr/local/popcorn/aarch64/lib/libc.a(strnlen.o)
 .debug_frame   0x00000000000006c8       0x58 0x8 /usr/local/popcorn/aarch64/lib/libc.a(__lock.o)
 .debug_frame   0x0000000000000720       0x30 0x8 /usr/local/popcorn/aarch64/lib/libc.a(__wait.o)
 .debug_frame   0x0000000000000750       0x40 0x8 /usr/local/popcorn/aarch64/lib/libc.a(gettimeofday.o)
 .debug_frame   0x0000000000000790       0x90 0x8 /usr/local/popcorn/aarch64/lib/libc.a(__init_tls.o)
 .debug_frame   0x0000000000000820       0x30 0x8 /usr/local/popcorn/aarch64/lib/libc.a(__errno_location.o)
 .debug_frame   0x0000000000000850       0x48 0x8 /usr/local/popcorn/aarch64/lib/libc.a(strerror.o)
 .debug_frame   0x0000000000000898       0x30 0x8 /usr/local/popcorn/aarch64/lib/libc.a(_Exit.o)
 .debug_frame   0x00000000000008c8       0x80 0x8 /usr/local/popcorn/aarch64/lib/libc.a(floatscan.o)
 .debug_frame   0x0000000000000948       0x50 0x8 /usr/local/popcorn/aarch64/lib/libc.a(intscan.o)
 .debug_frame   0x0000000000000998       0x58 0x8 /usr/local/popcorn/aarch64/lib/libc.a(shgetc.o)
 .debug_frame   0x00000000000009f0       0x40 0x8 /usr/local/popcorn/aarch64/lib/libc.a(syscall_ret.o)
 .debug_frame   0x0000000000000a30       0x60 0x8 /usr/local/popcorn/aarch64/lib/libc.a(__lctrans.o)
 .debug_frame   0x0000000000000a90       0x40 0x8 /usr/local/popcorn/aarch64/lib/libc.a(lite_malloc.o)
 .debug_frame   0x0000000000000ad0      0x1b0 0x8 /usr/local/popcorn/aarch64/lib/libc.a(malloc.o)
 .debug_frame   0x0000000000000c80      0x1d8 0x8 /usr/local/popcorn/aarch64/lib/libc.a(popcorn_malloc.o)
 .debug_frame   0x0000000000000e58       0x38 0x8 /usr/local/popcorn/aarch64/lib/libc.a(__fpclassifyl.o)
 .debug_frame   0x0000000000000e90       0x38 0x8 /usr/local/popcorn/aarch64/lib/libc.a(__signbitl.o)
 .debug_frame   0x0000000000000ec8       0x30 0x8 /usr/local/popcorn/aarch64/lib/libc.a(fabs.o)
 .debug_frame   0x0000000000000ef8       0x38 0x8 /usr/local/popcorn/aarch64/lib/libc.a(copysignl.o)
 .debug_frame   0x0000000000000f30       0x48 0x8 /usr/local/popcorn/aarch64/lib/libc.a(fmodl.o)
 .debug_frame   0x0000000000000f78       0x40 0x8 /usr/local/popcorn/aarch64/lib/libc.a(frexpl.o)
 .debug_frame   0x0000000000000fb8       0x40 0x8 /usr/local/popcorn/aarch64/lib/libc.a(scalbnl.o)
 .debug_frame   0x0000000000000ff8       0x38 0x8 /usr/local/popcorn/aarch64/lib/libc.a(madvise.o)
 .debug_frame   0x0000000000001030       0x60 0x8 /usr/local/popcorn/aarch64/lib/libc.a(mmap.o)
 .debug_frame   0x0000000000001090       0x60 0x8 /usr/local/popcorn/aarch64/lib/libc.a(mremap.o)
 .debug_frame   0x00000000000010f0       0x58 0x8 /usr/local/popcorn/aarch64/lib/libc.a(munmap.o)
 .debug_frame   0x0000000000001148       0x38 0x8 /usr/local/popcorn/aarch64/lib/libc.a(mbrtowc.o)
 .debug_frame   0x0000000000001180       0x30 0x8 /usr/local/popcorn/aarch64/lib/libc.a(mbsinit.o)
 .debug_frame   0x00000000000011b0       0x38 0x8 /usr/local/popcorn/aarch64/lib/libc.a(wctomb.o)
 .debug_frame   0x00000000000011e8       0x40 0x8 /usr/local/popcorn/aarch64/lib/libc.a(__fdopen.o)
 .debug_frame   0x0000000000001228       0x40 0x8 /usr/local/popcorn/aarch64/lib/libc.a(__fmodeflags.o)
 .debug_frame   0x0000000000001268       0x58 0x8 /usr/local/popcorn/aarch64/lib/libc.a(__lockfile.o)
 .debug_frame   0x00000000000012c0       0x50 0x8 /usr/local/popcorn/aarch64/lib/libc.a(__stdio_close.o)
 .debug_frame   0x0000000000001310       0x48 0x8 /usr/local/popcorn/aarch64/lib/libc.a(__stdio_read.o)
 .debug_frame   0x0000000000001358       0x30 0x8 /usr/local/popcorn/aarch64/lib/libc.a(__stdio_seek.o)
 .debug_frame   0x0000000000001388       0x48 0x8 /usr/local/popcorn/aarch64/lib/libc.a(__stdio_write.o)
 .debug_frame   0x00000000000013d0       0x38 0x8 /usr/local/popcorn/aarch64/lib/libc.a(__stdout_write.o)
 .debug_frame   0x0000000000001408       0x40 0x8 /usr/local/popcorn/aarch64/lib/libc.a(__uflow.o)
 .debug_frame   0x0000000000001448       0x78 0x8 /usr/local/popcorn/aarch64/lib/libc.a(fwrite.o)
 .debug_frame   0x00000000000014c0       0x40 0x8 /usr/local/popcorn/aarch64/lib/libc.a(ofl_add.o)
 .debug_frame   0x0000000000001500       0x78 0x8 /usr/local/popcorn/aarch64/lib/libc.a(vsnprintf.o)
 .debug_frame   0x0000000000001578       0x30 0x8 /usr/local/popcorn/aarch64/lib/libc.a(memchr.o)
 .debug_frame   0x00000000000015a8       0x30 0x8 /usr/local/popcorn/aarch64/lib/libc.a(memcpy.o)
 .debug_frame   0x00000000000015d8       0x38 0x8 /usr/local/popcorn/aarch64/lib/libc.a(clock_gettime.o)
 .debug_frame   0x0000000000001610       0x80 0x8 /usr/local/popcorn/aarch64/lib/libc.a(platform.o)
 .debug_frame   0x0000000000001690       0x98 0x8 /usr/local/popcorn/aarch64/lib/libc.a(expand_heap.o)
 .debug_frame   0x0000000000001728       0x38 0x8 /usr/local/popcorn/aarch64/lib/libc.a(wcrtomb.o)
 .debug_frame   0x0000000000001760       0x58 0x8 /usr/local/popcorn/aarch64/lib/libc.a(__toread.o)
 .debug_frame   0x00000000000017b8       0x48 0x8 /usr/local/popcorn/aarch64/lib/libc.a(__towrite.o)
 .debug_frame   0x0000000000001800       0x68 0x8 /usr/local/popcorn/aarch64/lib/libc.a(__stdio_exit.o)
 .debug_frame   0x0000000000001868      0x198 0x8 /usr/local/popcorn/aarch64/lib/libmigrate.a(migrate.o)
 .debug_frame   0x0000000000001a00       0xe0 0x8 /usr/local/popcorn/aarch64/lib/libmigrate.a(mapping.o)
 .debug_frame   0x0000000000001ae0       0xc0 0x8 /usr/local/popcorn/aarch64/lib/libstack-transform.a(userspace.o)
 .debug_frame   0x0000000000001ba0       0x98 0x8 /usr/local/popcorn/aarch64/lib/libstack-transform.a(init.o)
 .debug_frame   0x0000000000001c38       0xe0 0x8 /usr/local/popcorn/aarch64/lib/libstack-transform.a(rewrite.o)
 .debug_frame   0x0000000000001d18      0x150 0x8 /usr/local/popcorn/aarch64/lib/libstack-transform.a(unwind.o)
 .debug_frame   0x0000000000001e68      0x130 0x8 /usr/local/popcorn/aarch64/lib/libstack-transform.a(util.o)
 .debug_frame   0x0000000000001f98       0x68 0x8 /usr/local/popcorn/aarch64/lib/libstack-transform.a(properties.o)
 .debug_frame   0x0000000000002000      0x1d8 0x8 /usr/local/popcorn/aarch64/lib/libstack-transform.a(regs.o)
 .debug_frame   0x00000000000021d8       0x68 0x8 /usr/local/popcorn/aarch64/lib/libstack-transform.a(properties.o)
 .debug_frame   0x0000000000002240      0x1d8 0x8 /usr/local/popcorn/aarch64/lib/libstack-transform.a(regs.o)
 .debug_frame   0x0000000000002418       0x68 0x8 /usr/local/popcorn/aarch64/lib/libstack-transform.a(properties.o)
 .debug_frame   0x0000000000002480      0x1d0 0x8 /usr/local/popcorn/aarch64/lib/libstack-transform.a(regs.o)
 .debug_frame   0x0000000000002650       0x68 0x8 /usr/local/popcorn/aarch64/lib/libstack-transform.a(properties.o)
 .debug_frame   0x00000000000026b8      0x1e8 0x8 /usr/local/popcorn/aarch64/lib/libstack-transform.a(regs.o)
 .debug_frame   0x00000000000028a0      0x178 0x8 /usr/local/popcorn/aarch64/lib/libstack-transform.a(data.o)
 .debug_frame   0x0000000000002a18       0x90 0x8 /usr/local/popcorn/aarch64/lib/libc.a(arch_crash.o)
 .debug_frame   0x0000000000002aa8       0x40 0x8 /usr/local/popcorn/aarch64/lib/libc.a(getenv.o)
 .debug_frame   0x0000000000002ae8       0x38 0x8 /usr/local/popcorn/aarch64/lib/libc.a(assert.o)
 .debug_frame   0x0000000000002b20       0x40 0x8 /usr/local/popcorn/aarch64/lib/libc.a(open.o)
 .debug_frame   0x0000000000002b60       0x80 0x8 /usr/local/popcorn/aarch64/lib/libc.a(calloc.o)
 .debug_frame   0x0000000000002be0       0x40 0x8 /usr/local/popcorn/aarch64/lib/libc.a(getrlimit.o)
 .debug_frame   0x0000000000002c20       0x38 0x8 /usr/local/popcorn/aarch64/lib/libc.a(fprintf.o)
 .debug_frame   0x0000000000002c58       0x88 0x8 /usr/local/popcorn/aarch64/lib/libc.a(fseek.o)
 .debug_frame   0x0000000000002ce0       0x40 0x8 /usr/local/popcorn/aarch64/lib/libc.a(getc.o)
 .debug_frame   0x0000000000002d20       0x30 0x8 /usr/local/popcorn/aarch64/lib/libc.a(getline.o)
 .debug_frame   0x0000000000002d50       0x40 0x8 /usr/local/popcorn/aarch64/lib/libc.a(perror.o)
 .debug_frame   0x0000000000002d90       0x38 0x8 /usr/local/popcorn/aarch64/lib/libc.a(snprintf.o)
 .debug_frame   0x0000000000002dc8       0x38 0x8 /usr/local/popcorn/aarch64/lib/libc.a(sscanf.o)
 .debug_frame   0x0000000000002e00       0x58 0x8 /usr/local/popcorn/aarch64/lib/libc.a(vsscanf.o)
 .debug_frame   0x0000000000002e58       0x48 0x8 /usr/local/popcorn/aarch64/lib/libc.a(bsearch.o)
 .debug_frame   0x0000000000002ea0       0xf8 0x8 /usr/local/popcorn/aarch64/lib/libc.a(qsort.o)
 .debug_frame   0x0000000000002f98       0xd8 0x8 /usr/local/popcorn/aarch64/lib/libc.a(strtol.o)
 .debug_frame   0x0000000000003070       0x30 0x8 /usr/local/popcorn/aarch64/lib/libc.a(strcmp.o)
 .debug_frame   0x00000000000030a0       0x30 0x8 /usr/local/popcorn/aarch64/lib/libc.a(strncmp.o)
 .debug_frame   0x00000000000030d0       0x48 0x8 /usr/local/popcorn/aarch64/lib/libc.a(__syscall_cp.o)
 .debug_frame   0x0000000000003118      0x198 0x8 /usr/local/popcorn/aarch64/lib/libc.a(pthread_attr_get.o)
 .debug_frame   0x00000000000032b0       0x40 0x8 /usr/local/popcorn/aarch64/lib/libc.a(pthread_getattr_np.o)
 .debug_frame   0x00000000000032f0       0x48 0x8 /usr/local/popcorn/aarch64/lib/libc.a(pthread_migrate.o)
 .debug_frame   0x0000000000003338       0x30 0x8 /usr/local/popcorn/aarch64/lib/libc.a(pthread_self.o)
 .debug_frame   0x0000000000003368       0x50 0x8 /usr/local/popcorn/aarch64/lib/libc.a(close.o)
 .debug_frame   0x00000000000033b8       0x30 0x8 /usr/local/popcorn/aarch64/lib/libc.a(getpid.o)
 .debug_frame   0x00000000000033e8       0x30 0x8 /usr/local/popcorn/aarch64/lib/libc.a(lseek.o)
 .debug_frame   0x0000000000003418       0x38 0x8 /usr/local/popcorn/aarch64/lib/libc.a(read.o)
 .debug_frame   0x0000000000003450       0x40 0x8 /usr/local/popcorn/aarch64/lib/libc.a(abort.o)
 .debug_frame   0x0000000000003490       0x60 0x8 /usr/local/popcorn/aarch64/lib/libc.a(block.o)
 .debug_frame   0x00000000000034f0       0x40 0x8 /usr/local/popcorn/aarch64/lib/libc.a(raise.o)
 .debug_frame   0x0000000000003530       0x48 0x8 /usr/local/popcorn/aarch64/lib/libc.a(__string_read.o)
 .debug_frame   0x0000000000003578       0x40 0x8 /usr/local/popcorn/aarch64/lib/libc.a(fputc.o)
 .debug_frame   0x00000000000035b8       0x50 0x8 /usr/local/popcorn/aarch64/lib/libc.a(getdelim.o)
 .debug_frame   0x0000000000003608       0x40 0x8 /usr/local/popcorn/aarch64/lib/libc.a(__overflow.o)

.debug_str      0x0000000000000000     0x3bd3
 *(.debug_str)
 .debug_str     0x0000000000000000       0xca 0x1 add_aarch64.o
                                         0xe0 (size before relaxing)
 .debug_str     0x00000000000000ca        0xa 0x1 adi_aarch64.o
                                         0xd4 (size before relaxing)
 .debug_str     0x00000000000000d4       0x8f 0x1 c_print_results_aarch64.o
                                        0x182 (size before relaxing)
 .debug_str     0x0000000000000163       0x66 0x1 c_timers_aarch64.o
                                        0x145 (size before relaxing)
 .debug_str     0x00000000000001c9       0x1c 0x1 error_aarch64.o
                                        0x12b (size before relaxing)
 .debug_str     0x00000000000001e5       0x39 0x1 exact_rhs_aarch64.o
                                        0x136 (size before relaxing)
 .debug_str     0x000000000000021e       0x20 0x1 exact_solution_aarch64.o
                                        0x109 (size before relaxing)
 .debug_str     0x000000000000023e       0x47 0x1 initialize_aarch64.o
                                        0x14f (size before relaxing)
 .debug_str     0x0000000000000285       0x23 0x1 ninvr_aarch64.o
                                         0xfe (size before relaxing)
 .debug_str     0x00000000000002a8        0xe 0x1 pinvr_aarch64.o
                                         0xfe (size before relaxing)
 .debug_str     0x00000000000002b6       0x38 0x1 print_results_aarch64.o
                                        0x197 (size before relaxing)
 .debug_str     0x00000000000002ee       0x33 0x1 randdp_aarch64.o
                                        0x122 (size before relaxing)
 .debug_str     0x0000000000000321       0x3f 0x1 rhs_aarch64.o
                                        0x122 (size before relaxing)
 .debug_str     0x0000000000000360       0x1e 0x1 set_constants_aarch64.o
                                         0xef (size before relaxing)
 .debug_str     0x000000000000037e      0x277 0x1 sp_aarch64.o
                                        0x40f (size before relaxing)
 .debug_str     0x00000000000005f5       0x24 0x1 txinvr_aarch64.o
                                        0x11a (size before relaxing)
 .debug_str     0x0000000000000619       0x2f 0x1 tzetar_aarch64.o
                                        0x125 (size before relaxing)
 .debug_str     0x0000000000000648       0x50 0x1 verify_aarch64.o
                                        0x16f (size before relaxing)
 .debug_str     0x0000000000000698       0x39 0x1 wtime_aarch64.o
                                        0x120 (size before relaxing)
 .debug_str     0x00000000000006d1       0x22 0x1 x_solve_aarch64.o
                                        0x103 (size before relaxing)
 .debug_str     0x00000000000006f3       0x18 0x1 y_solve_aarch64.o
                                        0x103 (size before relaxing)
 .debug_str     0x000000000000070b       0x15 0x1 z_solve_aarch64.o
                                        0x103 (size before relaxing)
 .debug_str     0x0000000000000720       0x4f 0x1 /usr/local/popcorn/aarch64/lib/crt1.o
                                         0xd5 (size before relaxing)
 .debug_str     0x000000000000076f       0xba 0x1 /usr/local/popcorn/aarch64/lib/libc.a(__libc_start_main.o)
                                        0x1db (size before relaxing)
 .debug_str     0x0000000000000829       0x24 0x1 /usr/local/popcorn/aarch64/lib/libc.a(exit.o)
                                         0xf4 (size before relaxing)
 .debug_str     0x000000000000084d       0xe7 0x1 /usr/local/popcorn/aarch64/lib/libc.a(libc.o)
                                        0x1e0 (size before relaxing)
 .debug_str     0x0000000000000934       0x1d 0x1 /usr/local/popcorn/aarch64/lib/libc.a(sqrt.o)
                                         0xc9 (size before relaxing)
 .debug_str     0x0000000000000951       0xbf 0x1 /usr/local/popcorn/aarch64/lib/libc.a(pow.o)
                                        0x1ee (size before relaxing)
 .debug_str     0x0000000000000a10       0x22 0x1 /usr/local/popcorn/aarch64/lib/libc.a(scalbn.o)
                                         0xf7 (size before relaxing)
 .debug_str     0x0000000000000a32       0xe3 0x1 /usr/local/popcorn/aarch64/lib/libc.a(fclose.o)
                                        0x260 (size before relaxing)
 .debug_str     0x0000000000000b15       0x1a 0x1 /usr/local/popcorn/aarch64/lib/libc.a(fflush.o)
                                        0x256 (size before relaxing)
 .debug_str     0x0000000000000b2f       0x18 0x1 /usr/local/popcorn/aarch64/lib/libc.a(fgetc.o)
                                        0x240 (size before relaxing)
 .debug_str     0x0000000000000b47       0x37 0x1 /usr/local/popcorn/aarch64/lib/libc.a(fopen.o)
                                        0x281 (size before relaxing)
 .debug_str     0x0000000000000b7e       0x61 0x1 /usr/local/popcorn/aarch64/lib/libc.a(fscanf.o)
                                        0x133 (size before relaxing)
 .debug_str     0x0000000000000bdf       0x31 0x1 /usr/local/popcorn/aarch64/lib/libc.a(ofl.o)
                                        0x25e (size before relaxing)
 .debug_str     0x0000000000000c10       0x13 0x1 /usr/local/popcorn/aarch64/lib/libc.a(printf.o)
                                        0x123 (size before relaxing)
 .debug_str     0x0000000000000c23       0x14 0x1 /usr/local/popcorn/aarch64/lib/libc.a(sprintf.o)
                                        0x127 (size before relaxing)
 .debug_str     0x0000000000000c37       0x28 0x1 /usr/local/popcorn/aarch64/lib/libc.a(stdout.o)
                                        0x24e (size before relaxing)
 .debug_str     0x0000000000000c5f      0x11a 0x1 /usr/local/popcorn/aarch64/lib/libc.a(vfprintf.o)
                                        0x426 (size before relaxing)
 .debug_str     0x0000000000000d79       0xc7 0x1 /usr/local/popcorn/aarch64/lib/libc.a(vfscanf.o)
                                        0x3cf (size before relaxing)
 .debug_str     0x0000000000000e40       0x1e 0x1 /usr/local/popcorn/aarch64/lib/libc.a(vsprintf.o)
                                        0x125 (size before relaxing)
 .debug_str     0x0000000000000e5e       0x27 0x1 /usr/local/popcorn/aarch64/lib/libc.a(memset.o)
                                        0x12f (size before relaxing)
 .debug_str     0x0000000000000e85       0x1b 0x1 /usr/local/popcorn/aarch64/lib/libc.a(strchr.o)
                                         0xdb (size before relaxing)
 .debug_str     0x0000000000000ea0       0x23 0x1 /usr/local/popcorn/aarch64/lib/libc.a(strchrnul.o)
                                        0x108 (size before relaxing)
 .debug_str     0x0000000000000ec3       0x1b 0x1 /usr/local/popcorn/aarch64/lib/libc.a(strlen.o)
                                         0xec (size before relaxing)
 .debug_str     0x0000000000000ede       0x1d 0x1 /usr/local/popcorn/aarch64/lib/libc.a(strnlen.o)
                                         0xe4 (size before relaxing)
 .debug_str     0x0000000000000efb       0x57 0x1 /usr/local/popcorn/aarch64/lib/libc.a(__lock.o)
                                        0x137 (size before relaxing)
 .debug_str     0x0000000000000f52       0x39 0x1 /usr/local/popcorn/aarch64/lib/libc.a(__wait.o)
                                        0x14e (size before relaxing)
 .debug_str     0x0000000000000f8b       0x36 0x1 /usr/local/popcorn/aarch64/lib/libc.a(gettimeofday.o)
                                        0x119 (size before relaxing)
 .debug_str     0x0000000000000fc1       0x1e 0x1 /usr/local/popcorn/aarch64/lib/libc.a(__environ.o)
                                         0xc6 (size before relaxing)
 .debug_str     0x0000000000000fdf      0x252 0x1 /usr/local/popcorn/aarch64/lib/libc.a(__init_tls.o)
                                        0x44c (size before relaxing)
 .debug_str     0x0000000000001231       0x3d 0x1 /usr/local/popcorn/aarch64/lib/libc.a(__errno_location.o)
                                        0x2fa (size before relaxing)
 .debug_str     0x000000000000126e       0x38 0x1 /usr/local/popcorn/aarch64/lib/libc.a(strerror.o)
                                        0x31c (size before relaxing)
 .debug_str     0x00000000000012a6       0x17 0x1 /usr/local/popcorn/aarch64/lib/libc.a(_Exit.o)
                                         0xdf (size before relaxing)
 .debug_str     0x00000000000012bd       0xb0 0x1 /usr/local/popcorn/aarch64/lib/libc.a(floatscan.o)
                                        0x33e (size before relaxing)
 .debug_str     0x000000000000136d       0x2e 0x1 /usr/local/popcorn/aarch64/lib/libc.a(intscan.o)
                                        0x296 (size before relaxing)
 .debug_str     0x000000000000139b       0x29 0x1 /usr/local/popcorn/aarch64/lib/libc.a(shgetc.o)
                                        0x255 (size before relaxing)
 .debug_str     0x00000000000013c4       0x2b 0x1 /usr/local/popcorn/aarch64/lib/libc.a(syscall_ret.o)
                                         0xeb (size before relaxing)
 .debug_str     0x00000000000013ef       0x32 0x1 /usr/local/popcorn/aarch64/lib/libc.a(__lctrans.o)
                                        0x316 (size before relaxing)
 .debug_str     0x0000000000001421       0x2d 0x1 /usr/local/popcorn/aarch64/lib/libc.a(lite_malloc.o)
                                        0x12d (size before relaxing)
 .debug_str     0x000000000000144e      0x142 0x1 /usr/local/popcorn/aarch64/lib/libc.a(malloc.o)
                                        0x34e (size before relaxing)
 .debug_str     0x0000000000001590       0xb1 0x1 /usr/local/popcorn/aarch64/lib/libc.a(popcorn_malloc.o)
                                        0x3d1 (size before relaxing)
 .debug_str     0x0000000000001641       0x3c 0x1 /usr/local/popcorn/aarch64/lib/libc.a(__fpclassifyl.o)
                                        0x149 (size before relaxing)
 .debug_str     0x000000000000167d       0x21 0x1 /usr/local/popcorn/aarch64/lib/libc.a(__signbitl.o)
                                        0x141 (size before relaxing)
 .debug_str     0x000000000000169e       0x1d 0x1 /usr/local/popcorn/aarch64/lib/libc.a(fabs.o)
                                         0xc9 (size before relaxing)
 .debug_str     0x00000000000016bb       0x22 0x1 /usr/local/popcorn/aarch64/lib/libc.a(copysignl.o)
                                        0x141 (size before relaxing)
 .debug_str     0x00000000000016dd       0x2a 0x1 /usr/local/popcorn/aarch64/lib/libc.a(fmodl.o)
                                        0x156 (size before relaxing)
 .debug_str     0x0000000000001707       0x19 0x1 /usr/local/popcorn/aarch64/lib/libc.a(frexpl.o)
                                        0x13e (size before relaxing)
 .debug_str     0x0000000000001720       0x1b 0x1 /usr/local/popcorn/aarch64/lib/libc.a(scalbnl.o)
                                        0x13d (size before relaxing)
 .debug_str     0x000000000000173b       0x24 0x1 /usr/local/popcorn/aarch64/lib/libc.a(madvise.o)
                                        0x115 (size before relaxing)
 .debug_str     0x000000000000175f       0x1c 0x1 /usr/local/popcorn/aarch64/lib/libc.a(mmap.o)
                                        0x13a (size before relaxing)
 .debug_str     0x000000000000177b       0x3d 0x1 /usr/local/popcorn/aarch64/lib/libc.a(mremap.o)
                                        0x190 (size before relaxing)
 .debug_str     0x00000000000017b8       0x26 0x1 /usr/local/popcorn/aarch64/lib/libc.a(munmap.o)
                                        0x10e (size before relaxing)
 .debug_str     0x00000000000017de       0x3a 0x1 /usr/local/popcorn/aarch64/lib/libc.a(mbrtowc.o)
                                        0x37f (size before relaxing)
 .debug_str     0x0000000000001818       0x20 0x1 /usr/local/popcorn/aarch64/lib/libc.a(mbsinit.o)
                                        0x101 (size before relaxing)
 .debug_str     0x0000000000001838       0x1e 0x1 /usr/local/popcorn/aarch64/lib/libc.a(wctomb.o)
                                         0xe4 (size before relaxing)
 .debug_str     0x0000000000001856       0x4c 0x1 /usr/local/popcorn/aarch64/lib/libc.a(__fdopen.o)
                                        0x2ab (size before relaxing)
 .debug_str     0x00000000000018a2       0x26 0x1 /usr/local/popcorn/aarch64/lib/libc.a(__fmodeflags.o)
                                         0xdd (size before relaxing)
 .debug_str     0x00000000000018c8       0x3b 0x1 /usr/local/popcorn/aarch64/lib/libc.a(__lockfile.o)
                                        0x46f (size before relaxing)
 .debug_str     0x0000000000001903       0x28 0x1 /usr/local/popcorn/aarch64/lib/libc.a(__stdio_close.o)
                                        0x269 (size before relaxing)
 .debug_str     0x000000000000192b       0x49 0x1 /usr/local/popcorn/aarch64/lib/libc.a(__stdio_read.o)
                                        0x296 (size before relaxing)
 .debug_str     0x0000000000001974       0x2d 0x1 /usr/local/popcorn/aarch64/lib/libc.a(__stdio_seek.o)
                                        0x276 (size before relaxing)
 .debug_str     0x00000000000019a1       0x38 0x1 /usr/local/popcorn/aarch64/lib/libc.a(__stdio_write.o)
                                        0x2a8 (size before relaxing)
 .debug_str     0x00000000000019d9       0x2a 0x1 /usr/local/popcorn/aarch64/lib/libc.a(__stdout_write.o)
                                        0x2b0 (size before relaxing)
 .debug_str     0x0000000000001a03       0x1c 0x1 /usr/local/popcorn/aarch64/lib/libc.a(__uflow.o)
                                        0x244 (size before relaxing)
 .debug_str     0x0000000000001a1f       0x2a 0x1 /usr/local/popcorn/aarch64/lib/libc.a(fwrite.o)
                                        0x271 (size before relaxing)
 .debug_str     0x0000000000001a49       0x1e 0x1 /usr/local/popcorn/aarch64/lib/libc.a(ofl_add.o)
                                        0x249 (size before relaxing)
 .debug_str     0x0000000000001a67       0x29 0x1 /usr/local/popcorn/aarch64/lib/libc.a(vsnprintf.o)
                                        0x2b8 (size before relaxing)
 .debug_str     0x0000000000001a90       0x1b 0x1 /usr/local/popcorn/aarch64/lib/libc.a(memchr.o)
                                        0x101 (size before relaxing)
 .debug_str     0x0000000000001aab       0x1b 0x1 /usr/local/popcorn/aarch64/lib/libc.a(memcpy.o)
                                        0x11c (size before relaxing)
 .debug_str     0x0000000000001ac6       0x37 0x1 /usr/local/popcorn/aarch64/lib/libc.a(clock_gettime.o)
                                        0x125 (size before relaxing)
 .debug_str     0x0000000000001afd       0xb1 0x1 /usr/local/popcorn/aarch64/lib/libc.a(platform.o)
                                        0x1a5 (size before relaxing)
 .debug_str     0x0000000000001bae       0x98 0x1 /usr/local/popcorn/aarch64/lib/libc.a(expand_heap.o)
                                        0x226 (size before relaxing)
 .debug_str     0x0000000000001c46       0x21 0x1 /usr/local/popcorn/aarch64/lib/libc.a(internal.o)
                                         0xee (size before relaxing)
 .debug_str     0x0000000000001c67       0x20 0x1 /usr/local/popcorn/aarch64/lib/libc.a(wcrtomb.o)
                                        0x341 (size before relaxing)
 .debug_str     0x0000000000001c87       0x38 0x1 /usr/local/popcorn/aarch64/lib/libc.a(__toread.o)
                                        0x25e (size before relaxing)
 .debug_str     0x0000000000001cbf       0x3b 0x1 /usr/local/popcorn/aarch64/lib/libc.a(__towrite.o)
                                        0x261 (size before relaxing)
 .debug_str     0x0000000000001cfa       0x3c 0x1 /usr/local/popcorn/aarch64/lib/libc.a(__stdio_exit.o)
                                        0x262 (size before relaxing)
 .debug_str     0x0000000000001d36      0x25c 0x1 /usr/local/popcorn/aarch64/lib/libmigrate.a(migrate.o)
                                        0x3e0 (size before relaxing)
 .debug_str     0x0000000000001f92       0x95 0x1 /usr/local/popcorn/aarch64/lib/libmigrate.a(mapping.o)
                                        0x1b1 (size before relaxing)
 .debug_str     0x0000000000002027      0x52f 0x1 /usr/local/popcorn/aarch64/lib/libstack-transform.a(userspace.o)
                                        0x7df (size before relaxing)
 .debug_str     0x0000000000002556       0xee 0x1 /usr/local/popcorn/aarch64/lib/libstack-transform.a(init.o)
                                        0x606 (size before relaxing)
 .debug_str     0x0000000000002644      0x239 0x1 /usr/local/popcorn/aarch64/lib/libstack-transform.a(rewrite.o)
                                        0x7ca (size before relaxing)
 .debug_str     0x000000000000287d      0x12b 0x1 /usr/local/popcorn/aarch64/lib/libstack-transform.a(unwind.o)
                                        0x719 (size before relaxing)
 .debug_str     0x00000000000029a8      0x253 0x1 /usr/local/popcorn/aarch64/lib/libstack-transform.a(util.o)
                                        0x798 (size before relaxing)
 .debug_str     0x0000000000002bfb       0x8c 0x1 /usr/local/popcorn/aarch64/lib/libstack-transform.a(properties.o)
                                        0x239 (size before relaxing)
 .debug_str     0x0000000000002c87      0x10a 0x1 /usr/local/popcorn/aarch64/lib/libstack-transform.a(regs.o)
                                        0x379 (size before relaxing)
 .debug_str     0x0000000000002d91       0xa2 0x1 /usr/local/popcorn/aarch64/lib/libstack-transform.a(properties.o)
                                        0x251 (size before relaxing)
 .debug_str     0x0000000000002e33      0x113 0x1 /usr/local/popcorn/aarch64/lib/libstack-transform.a(regs.o)
                                        0x396 (size before relaxing)
 .debug_str     0x0000000000002f46       0x8c 0x1 /usr/local/popcorn/aarch64/lib/libstack-transform.a(properties.o)
                                        0x239 (size before relaxing)
 .debug_str     0x0000000000002fd2       0xf9 0x1 /usr/local/popcorn/aarch64/lib/libstack-transform.a(regs.o)
                                        0x367 (size before relaxing)
 .debug_str     0x00000000000030cb       0x86 0x1 /usr/local/popcorn/aarch64/lib/libstack-transform.a(properties.o)
                                        0x232 (size before relaxing)
 .debug_str     0x0000000000003151       0xec 0x1 /usr/local/popcorn/aarch64/lib/libstack-transform.a(regs.o)
                                        0x3e7 (size before relaxing)
 .debug_str     0x000000000000323d      0x13c 0x1 /usr/local/popcorn/aarch64/lib/libstack-transform.a(data.o)
                                        0x770 (size before relaxing)
 .debug_str     0x0000000000003379       0x60 0x1 /usr/local/popcorn/aarch64/lib/libc.a(arch_crash.o)
                                        0x11a (size before relaxing)
 .debug_str     0x00000000000033d9       0x18 0x1 /usr/local/popcorn/aarch64/lib/libc.a(getenv.o)
                                         0xe2 (size before relaxing)
 .debug_str     0x00000000000033f1       0x2a 0x1 /usr/local/popcorn/aarch64/lib/libc.a(assert.o)
                                         0xe0 (size before relaxing)
 .debug_str     0x000000000000341b       0x18 0x1 /usr/local/popcorn/aarch64/lib/libc.a(open.o)
                                        0x16a (size before relaxing)
 .debug_str     0x0000000000003433       0x36 0x1 /usr/local/popcorn/aarch64/lib/libc.a(calloc.o)
                                        0x105 (size before relaxing)
 .debug_str     0x0000000000003469       0x2f 0x1 /usr/local/popcorn/aarch64/lib/libc.a(getrlimit.o)
                                        0x174 (size before relaxing)
 .debug_str     0x0000000000003498       0x14 0x1 /usr/local/popcorn/aarch64/lib/libc.a(fprintf.o)
                                        0x135 (size before relaxing)
 .debug_str     0x00000000000034ac       0x33 0x1 /usr/local/popcorn/aarch64/lib/libc.a(fseek.o)
                                        0x275 (size before relaxing)
 .debug_str     0x00000000000034df       0x11 0x1 /usr/local/popcorn/aarch64/lib/libc.a(getc.o)
                                        0x23e (size before relaxing)
 .debug_str     0x00000000000034f0       0x1c 0x1 /usr/local/popcorn/aarch64/lib/libc.a(getline.o)
                                        0x102 (size before relaxing)
 .debug_str     0x000000000000350c       0x21 0x1 /usr/local/popcorn/aarch64/lib/libc.a(perror.o)
                                        0x259 (size before relaxing)
 .debug_str     0x000000000000352d       0x15 0x1 /usr/local/popcorn/aarch64/lib/libc.a(snprintf.o)
                                        0x144 (size before relaxing)
 .debug_str     0x0000000000003542       0x13 0x1 /usr/local/popcorn/aarch64/lib/libc.a(sscanf.o)
                                        0x125 (size before relaxing)
 .debug_str     0x0000000000003555       0x28 0x1 /usr/local/popcorn/aarch64/lib/libc.a(stderr.o)
                                        0x24e (size before relaxing)
 .debug_str     0x000000000000357d       0x24 0x1 /usr/local/popcorn/aarch64/lib/libc.a(vsscanf.o)
                                        0x2a9 (size before relaxing)
 .debug_str     0x00000000000035a1       0x21 0x1 /usr/local/popcorn/aarch64/lib/libc.a(bsearch.o)
                                        0x102 (size before relaxing)
 .debug_str     0x00000000000035c2       0x72 0x1 /usr/local/popcorn/aarch64/lib/libc.a(qsort.o)
                                        0x1a9 (size before relaxing)
 .debug_str     0x0000000000003634       0x4f 0x1 /usr/local/popcorn/aarch64/lib/libc.a(strtol.o)
                                        0x2c0 (size before relaxing)
 .debug_str     0x0000000000003683       0x1b 0x1 /usr/local/popcorn/aarch64/lib/libc.a(strcmp.o)
                                         0xd9 (size before relaxing)
 .debug_str     0x000000000000369e       0x20 0x1 /usr/local/popcorn/aarch64/lib/libc.a(strncmp.o)
                                         0xfc (size before relaxing)
 .debug_str     0x00000000000036be       0x3d 0x1 /usr/local/popcorn/aarch64/lib/libc.a(__syscall_cp.o)
                                         0xf5 (size before relaxing)
 .debug_str     0x00000000000036fb      0x2a0 0x1 /usr/local/popcorn/aarch64/lib/libc.a(pthread_attr_get.o)
                                        0x419 (size before relaxing)
 .debug_str     0x000000000000399b       0x33 0x1 /usr/local/popcorn/aarch64/lib/libc.a(pthread_getattr_np.o)
                                        0x322 (size before relaxing)
 .debug_str     0x00000000000039ce       0x4f 0x1 /usr/local/popcorn/aarch64/lib/libc.a(pthread_migrate.o)
                                        0x320 (size before relaxing)
 .debug_str     0x0000000000003a1d       0x32 0x1 /usr/local/popcorn/aarch64/lib/libc.a(pthread_self.o)
                                        0x308 (size before relaxing)
 .debug_str     0x0000000000003a4f       0x13 0x1 /usr/local/popcorn/aarch64/lib/libc.a(close.o)
                                         0xd4 (size before relaxing)
 .debug_str     0x0000000000003a62       0x26 0x1 /usr/local/popcorn/aarch64/lib/libc.a(getpid.o)
                                         0xe4 (size before relaxing)
 .debug_str     0x0000000000003a88       0x19 0x1 /usr/local/popcorn/aarch64/lib/libc.a(lseek.o)
                                         0xff (size before relaxing)
 .debug_str     0x0000000000003aa1       0x12 0x1 /usr/local/popcorn/aarch64/lib/libc.a(read.o)
                                         0xf5 (size before relaxing)
 .debug_str     0x0000000000003ab3       0x17 0x1 /usr/local/popcorn/aarch64/lib/libc.a(abort.o)
                                         0xc7 (size before relaxing)
 .debug_str     0x0000000000003aca       0x56 0x1 /usr/local/popcorn/aarch64/lib/libc.a(block.o)
                                        0x150 (size before relaxing)
 .debug_str     0x0000000000003b20       0x2f 0x1 /usr/local/popcorn/aarch64/lib/libc.a(raise.o)
                                        0x13f (size before relaxing)
 .debug_str     0x0000000000003b4f       0x28 0x1 /usr/local/popcorn/aarch64/lib/libc.a(__string_read.o)
                                        0x25c (size before relaxing)
 .debug_str     0x0000000000003b77       0x18 0x1 /usr/local/popcorn/aarch64/lib/libc.a(fputc.o)
                                        0x240 (size before relaxing)
 .debug_str     0x0000000000003b8f       0x22 0x1 /usr/local/popcorn/aarch64/lib/libc.a(getdelim.o)
                                        0x276 (size before relaxing)
 .debug_str     0x0000000000003bb1       0x22 0x1 /usr/local/popcorn/aarch64/lib/libc.a(__overflow.o)
                                        0x24d (size before relaxing)

.debug_loc      0x0000000000000000    0x253a9
 *(.debug_loc)
 .debug_loc     0x0000000000000000       0x7c 0x1 /usr/local/popcorn/aarch64/lib/crt1.o
 .debug_loc     0x000000000000007c      0x566 0x1 /usr/local/popcorn/aarch64/lib/libc.a(__libc_start_main.o)
 .debug_loc     0x00000000000005e2       0x7f 0x1 /usr/local/popcorn/aarch64/lib/libc.a(exit.o)
 .debug_loc     0x0000000000000661     0x11a0 0x1 /usr/local/popcorn/aarch64/lib/libc.a(pow.o)
 .debug_loc     0x0000000000001801      0x168 0x1 /usr/local/popcorn/aarch64/lib/libc.a(scalbn.o)
 .debug_loc     0x0000000000001969       0xc2 0x1 /usr/local/popcorn/aarch64/lib/libc.a(fclose.o)
 .debug_loc     0x0000000000001a2b      0x111 0x1 /usr/local/popcorn/aarch64/lib/libc.a(fflush.o)
 .debug_loc     0x0000000000001b3c       0x59 0x1 /usr/local/popcorn/aarch64/lib/libc.a(fgetc.o)
 .debug_loc     0x0000000000001b95      0x41d 0x1 /usr/local/popcorn/aarch64/lib/libc.a(fopen.o)
 .debug_loc     0x0000000000001fb2       0x69 0x1 /usr/local/popcorn/aarch64/lib/libc.a(fscanf.o)
 .debug_loc     0x000000000000201b       0x6c 0x1 /usr/local/popcorn/aarch64/lib/libc.a(printf.o)
 .debug_loc     0x0000000000002087       0x69 0x1 /usr/local/popcorn/aarch64/lib/libc.a(sprintf.o)
 .debug_loc     0x00000000000020f0     0x3d72 0x1 /usr/local/popcorn/aarch64/lib/libc.a(vfprintf.o)
 .debug_loc     0x0000000000005e62     0x1413 0x1 /usr/local/popcorn/aarch64/lib/libc.a(vfscanf.o)
 .debug_loc     0x0000000000007275       0x90 0x1 /usr/local/popcorn/aarch64/lib/libc.a(vsprintf.o)
 .debug_loc     0x0000000000007305      0x15a 0x1 /usr/local/popcorn/aarch64/lib/libc.a(memset.o)
 .debug_loc     0x000000000000745f       0x7c 0x1 /usr/local/popcorn/aarch64/lib/libc.a(strchr.o)
 .debug_loc     0x00000000000074db      0x14a 0x1 /usr/local/popcorn/aarch64/lib/libc.a(strchrnul.o)
 .debug_loc     0x0000000000007625      0x129 0x1 /usr/local/popcorn/aarch64/lib/libc.a(strlen.o)
 .debug_loc     0x000000000000774e       0x8f 0x1 /usr/local/popcorn/aarch64/lib/libc.a(strnlen.o)
 .debug_loc     0x00000000000077dd      0x457 0x1 /usr/local/popcorn/aarch64/lib/libc.a(__lock.o)
 .debug_loc     0x0000000000007c34      0x5cb 0x1 /usr/local/popcorn/aarch64/lib/libc.a(__wait.o)
 .debug_loc     0x00000000000081ff       0x7d 0x1 /usr/local/popcorn/aarch64/lib/libc.a(gettimeofday.o)
 .debug_loc     0x000000000000827c      0x5c3 0x1 /usr/local/popcorn/aarch64/lib/libc.a(__init_tls.o)
 .debug_loc     0x000000000000883f       0x23 0x1 /usr/local/popcorn/aarch64/lib/libc.a(__errno_location.o)
 .debug_loc     0x0000000000008862      0x159 0x1 /usr/local/popcorn/aarch64/lib/libc.a(strerror.o)
 .debug_loc     0x00000000000089bb       0x8c 0x1 /usr/local/popcorn/aarch64/lib/libc.a(_Exit.o)
 .debug_loc     0x0000000000008a47     0x34e8 0x1 /usr/local/popcorn/aarch64/lib/libc.a(floatscan.o)
 .debug_loc     0x000000000000bf2f      0x732 0x1 /usr/local/popcorn/aarch64/lib/libc.a(intscan.o)
 .debug_loc     0x000000000000c661       0x92 0x1 /usr/local/popcorn/aarch64/lib/libc.a(shgetc.o)
 .debug_loc     0x000000000000c6f3       0x23 0x1 /usr/local/popcorn/aarch64/lib/libc.a(syscall_ret.o)
 .debug_loc     0x000000000000c716       0x8c 0x1 /usr/local/popcorn/aarch64/lib/libc.a(__lctrans.o)
 .debug_loc     0x000000000000c7a2      0x193 0x1 /usr/local/popcorn/aarch64/lib/libc.a(lite_malloc.o)
 .debug_loc     0x000000000000c935     0x37b6 0x1 /usr/local/popcorn/aarch64/lib/libc.a(malloc.o)
 .debug_loc     0x00000000000100eb     0x607f 0x1 /usr/local/popcorn/aarch64/lib/libc.a(popcorn_malloc.o)
 .debug_loc     0x000000000001616a       0x88 0x1 /usr/local/popcorn/aarch64/lib/libc.a(__fpclassifyl.o)
 .debug_loc     0x00000000000161f2       0x24 0x1 /usr/local/popcorn/aarch64/lib/libc.a(copysignl.o)
 .debug_loc     0x0000000000016216      0x5da 0x1 /usr/local/popcorn/aarch64/lib/libc.a(fmodl.o)
 .debug_loc     0x00000000000167f0      0x104 0x1 /usr/local/popcorn/aarch64/lib/libc.a(frexpl.o)
 .debug_loc     0x00000000000168f4      0x16b 0x1 /usr/local/popcorn/aarch64/lib/libc.a(scalbnl.o)
 .debug_loc     0x0000000000016a5f      0x187 0x1 /usr/local/popcorn/aarch64/lib/libc.a(madvise.o)
 .debug_loc     0x0000000000016be6      0x44e 0x1 /usr/local/popcorn/aarch64/lib/libc.a(mmap.o)
 .debug_loc     0x0000000000017034      0x32d 0x1 /usr/local/popcorn/aarch64/lib/libc.a(mremap.o)
 .debug_loc     0x0000000000017361      0x131 0x1 /usr/local/popcorn/aarch64/lib/libc.a(munmap.o)
 .debug_loc     0x0000000000017492      0x2e3 0x1 /usr/local/popcorn/aarch64/lib/libc.a(mbrtowc.o)
 .debug_loc     0x0000000000017775       0x36 0x1 /usr/local/popcorn/aarch64/lib/libc.a(mbsinit.o)
 .debug_loc     0x00000000000177ab       0x46 0x1 /usr/local/popcorn/aarch64/lib/libc.a(wctomb.o)
 .debug_loc     0x00000000000177f1      0x4fb 0x1 /usr/local/popcorn/aarch64/lib/libc.a(__fdopen.o)
 .debug_loc     0x0000000000017cec       0x7f 0x1 /usr/local/popcorn/aarch64/lib/libc.a(__fmodeflags.o)
 .debug_loc     0x0000000000017d6b      0x4bf 0x1 /usr/local/popcorn/aarch64/lib/libc.a(__lockfile.o)
 .debug_loc     0x000000000001822a       0xb3 0x1 /usr/local/popcorn/aarch64/lib/libc.a(__stdio_close.o)
 .debug_loc     0x00000000000182dd      0x220 0x1 /usr/local/popcorn/aarch64/lib/libc.a(__stdio_read.o)
 .debug_loc     0x00000000000184fd      0x13b 0x1 /usr/local/popcorn/aarch64/lib/libc.a(__stdio_seek.o)
 .debug_loc     0x0000000000018638      0x3c1 0x1 /usr/local/popcorn/aarch64/lib/libc.a(__stdio_write.o)
 .debug_loc     0x00000000000189f9      0x1ca 0x1 /usr/local/popcorn/aarch64/lib/libc.a(__stdout_write.o)
 .debug_loc     0x0000000000018bc3       0x6e 0x1 /usr/local/popcorn/aarch64/lib/libc.a(__uflow.o)
 .debug_loc     0x0000000000018c31      0x2da 0x1 /usr/local/popcorn/aarch64/lib/libc.a(fwrite.o)
 .debug_loc     0x0000000000018f0b       0x59 0x1 /usr/local/popcorn/aarch64/lib/libc.a(ofl_add.o)
 .debug_loc     0x0000000000018f64      0x1d3 0x1 /usr/local/popcorn/aarch64/lib/libc.a(vsnprintf.o)
 .debug_loc     0x0000000000019137      0x131 0x1 /usr/local/popcorn/aarch64/lib/libc.a(memchr.o)
 .debug_loc     0x0000000000019268      0x9a3 0x1 /usr/local/popcorn/aarch64/lib/libc.a(memcpy.o)
 .debug_loc     0x0000000000019c0b      0x230 0x1 /usr/local/popcorn/aarch64/lib/libc.a(clock_gettime.o)
 .debug_loc     0x0000000000019e3b      0x24f 0x1 /usr/local/popcorn/aarch64/lib/libc.a(platform.o)
 .debug_loc     0x000000000001a08a      0xced 0x1 /usr/local/popcorn/aarch64/lib/libc.a(expand_heap.o)
 .debug_loc     0x000000000001ad77      0x1a2 0x1 /usr/local/popcorn/aarch64/lib/libc.a(wcrtomb.o)
 .debug_loc     0x000000000001af19       0x36 0x1 /usr/local/popcorn/aarch64/lib/libc.a(__toread.o)
 .debug_loc     0x000000000001af4f       0x23 0x1 /usr/local/popcorn/aarch64/lib/libc.a(__towrite.o)
 .debug_loc     0x000000000001af72       0x59 0x1 /usr/local/popcorn/aarch64/lib/libc.a(__stdio_exit.o)
 .debug_loc     0x000000000001afcb      0x995 0x1 /usr/local/popcorn/aarch64/lib/libstack-transform.a(userspace.o)
 .debug_loc     0x000000000001b960       0xe8 0x1 /usr/local/popcorn/aarch64/lib/libstack-transform.a(init.o)
 .debug_loc     0x000000000001ba48      0xda7 0x1 /usr/local/popcorn/aarch64/lib/libstack-transform.a(rewrite.o)
 .debug_loc     0x000000000001c7ef      0x90e 0x1 /usr/local/popcorn/aarch64/lib/libstack-transform.a(unwind.o)
 .debug_loc     0x000000000001d0fd      0x926 0x1 /usr/local/popcorn/aarch64/lib/libstack-transform.a(util.o)
 .debug_loc     0x000000000001da23       0x8f 0x1 /usr/local/popcorn/aarch64/lib/libstack-transform.a(properties.o)
 .debug_loc     0x000000000001dab2      0xde2 0x1 /usr/local/popcorn/aarch64/lib/libstack-transform.a(regs.o)
 .debug_loc     0x000000000001e894       0xc5 0x1 /usr/local/popcorn/aarch64/lib/libstack-transform.a(properties.o)
 .debug_loc     0x000000000001e959      0xe1b 0x1 /usr/local/popcorn/aarch64/lib/libstack-transform.a(regs.o)
 .debug_loc     0x000000000001f774       0x8f 0x1 /usr/local/popcorn/aarch64/lib/libstack-transform.a(properties.o)
 .debug_loc     0x000000000001f803      0x49b 0x1 /usr/local/popcorn/aarch64/lib/libstack-transform.a(regs.o)
 .debug_loc     0x000000000001fc9e       0x8f 0x1 /usr/local/popcorn/aarch64/lib/libstack-transform.a(properties.o)
 .debug_loc     0x000000000001fd2d      0x96b 0x1 /usr/local/popcorn/aarch64/lib/libstack-transform.a(regs.o)
 .debug_loc     0x0000000000020698     0x147e 0x1 /usr/local/popcorn/aarch64/lib/libstack-transform.a(data.o)
 .debug_loc     0x0000000000021b16      0x288 0x1 /usr/local/popcorn/aarch64/lib/libc.a(arch_crash.o)
 .debug_loc     0x0000000000021d9e       0xb5 0x1 /usr/local/popcorn/aarch64/lib/libc.a(getenv.o)
 .debug_loc     0x0000000000021e53       0xd8 0x1 /usr/local/popcorn/aarch64/lib/libc.a(assert.o)
 .debug_loc     0x0000000000021f2b      0x211 0x1 /usr/local/popcorn/aarch64/lib/libc.a(open.o)
 .debug_loc     0x000000000002213c      0x20c 0x1 /usr/local/popcorn/aarch64/lib/libc.a(calloc.o)
 .debug_loc     0x0000000000022348      0x2dc 0x1 /usr/local/popcorn/aarch64/lib/libc.a(getrlimit.o)
 .debug_loc     0x0000000000022624       0x69 0x1 /usr/local/popcorn/aarch64/lib/libc.a(fprintf.o)
 .debug_loc     0x000000000002268d      0x1f6 0x1 /usr/local/popcorn/aarch64/lib/libc.a(fseek.o)
 .debug_loc     0x0000000000022883       0x59 0x1 /usr/local/popcorn/aarch64/lib/libc.a(getc.o)
 .debug_loc     0x00000000000228dc       0x7c 0x1 /usr/local/popcorn/aarch64/lib/libc.a(getline.o)
 .debug_loc     0x0000000000022958       0xb2 0x1 /usr/local/popcorn/aarch64/lib/libc.a(perror.o)
 .debug_loc     0x0000000000022a0a       0x8c 0x1 /usr/local/popcorn/aarch64/lib/libc.a(snprintf.o)
 .debug_loc     0x0000000000022a96       0x69 0x1 /usr/local/popcorn/aarch64/lib/libc.a(sscanf.o)
 .debug_loc     0x0000000000022aff      0x144 0x1 /usr/local/popcorn/aarch64/lib/libc.a(vsscanf.o)
 .debug_loc     0x0000000000022c43      0x131 0x1 /usr/local/popcorn/aarch64/lib/libc.a(bsearch.o)
 .debug_loc     0x0000000000022d74      0xfa5 0x1 /usr/local/popcorn/aarch64/lib/libc.a(qsort.o)
 .debug_loc     0x0000000000023d19      0x4b0 0x1 /usr/local/popcorn/aarch64/lib/libc.a(strtol.o)
 .debug_loc     0x00000000000241c9       0x46 0x1 /usr/local/popcorn/aarch64/lib/libc.a(strcmp.o)
 .debug_loc     0x000000000002420f      0x102 0x1 /usr/local/popcorn/aarch64/lib/libc.a(strncmp.o)
 .debug_loc     0x0000000000024311      0x1ea 0x1 /usr/local/popcorn/aarch64/lib/libc.a(__syscall_cp.o)
 .debug_loc     0x00000000000244fb      0x256 0x1 /usr/local/popcorn/aarch64/lib/libc.a(pthread_attr_get.o)
 .debug_loc     0x0000000000024751       0xb2 0x1 /usr/local/popcorn/aarch64/lib/libc.a(pthread_getattr_np.o)
 .debug_loc     0x0000000000024803       0x46 0x1 /usr/local/popcorn/aarch64/lib/libc.a(pthread_migrate.o)
 .debug_loc     0x0000000000024849       0x23 0x1 /usr/local/popcorn/aarch64/lib/libc.a(pthread_self.o)
 .debug_loc     0x000000000002486c       0x46 0x1 /usr/local/popcorn/aarch64/lib/libc.a(close.o)
 .debug_loc     0x00000000000248b2      0x185 0x1 /usr/local/popcorn/aarch64/lib/libc.a(lseek.o)
 .debug_loc     0x0000000000024a37       0x8f 0x1 /usr/local/popcorn/aarch64/lib/libc.a(read.o)
 .debug_loc     0x0000000000024ac6      0x19d 0x1 /usr/local/popcorn/aarch64/lib/libc.a(block.o)
 .debug_loc     0x0000000000024c63      0x108 0x1 /usr/local/popcorn/aarch64/lib/libc.a(raise.o)
 .debug_loc     0x0000000000024d6b      0x11e 0x1 /usr/local/popcorn/aarch64/lib/libc.a(__string_read.o)
 .debug_loc     0x0000000000024e89       0x7f 0x1 /usr/local/popcorn/aarch64/lib/libc.a(fputc.o)
 .debug_loc     0x0000000000024f08      0x39c 0x1 /usr/local/popcorn/aarch64/lib/libc.a(getdelim.o)
 .debug_loc     0x00000000000252a4      0x105 0x1 /usr/local/popcorn/aarch64/lib/libc.a(__overflow.o)

.debug_macinfo  0x0000000000000000       0x96
 *(.debug_macinfo)
 .debug_macinfo
                0x0000000000000000        0x1 0x1 add_aarch64.o
 .debug_macinfo
                0x0000000000000001        0x1 0x1 adi_aarch64.o
 .debug_macinfo
                0x0000000000000002        0x1 0x1 c_print_results_aarch64.o
 .debug_macinfo
                0x0000000000000003        0x1 0x1 c_timers_aarch64.o
 .debug_macinfo
                0x0000000000000004        0x1 0x1 error_aarch64.o
 .debug_macinfo
                0x0000000000000005        0x1 0x1 exact_rhs_aarch64.o
 .debug_macinfo
                0x0000000000000006        0x1 0x1 exact_solution_aarch64.o
 .debug_macinfo
                0x0000000000000007        0x1 0x1 initialize_aarch64.o
 .debug_macinfo
                0x0000000000000008        0x1 0x1 ninvr_aarch64.o
 .debug_macinfo
                0x0000000000000009        0x1 0x1 pinvr_aarch64.o
 .debug_macinfo
                0x000000000000000a        0x1 0x1 print_results_aarch64.o
 .debug_macinfo
                0x000000000000000b        0x1 0x1 randdp_aarch64.o
 .debug_macinfo
                0x000000000000000c        0x1 0x1 rhs_aarch64.o
 .debug_macinfo
                0x000000000000000d        0x1 0x1 set_constants_aarch64.o
 .debug_macinfo
                0x000000000000000e        0x1 0x1 sp_aarch64.o
 .debug_macinfo
                0x000000000000000f        0x1 0x1 txinvr_aarch64.o
 .debug_macinfo
                0x0000000000000010        0x1 0x1 tzetar_aarch64.o
 .debug_macinfo
                0x0000000000000011        0x1 0x1 verify_aarch64.o
 .debug_macinfo
                0x0000000000000012        0x1 0x1 wtime_aarch64.o
 .debug_macinfo
                0x0000000000000013        0x1 0x1 x_solve_aarch64.o
 .debug_macinfo
                0x0000000000000014        0x1 0x1 y_solve_aarch64.o
 .debug_macinfo
                0x0000000000000015        0x1 0x1 z_solve_aarch64.o
 .debug_macinfo
                0x0000000000000016        0x1 0x1 /usr/local/popcorn/aarch64/lib/crt1.o
 .debug_macinfo
                0x0000000000000017        0x1 0x1 /usr/local/popcorn/aarch64/lib/libc.a(__libc_start_main.o)
 .debug_macinfo
                0x0000000000000018        0x1 0x1 /usr/local/popcorn/aarch64/lib/libc.a(exit.o)
 .debug_macinfo
                0x0000000000000019        0x1 0x1 /usr/local/popcorn/aarch64/lib/libc.a(libc.o)
 .debug_macinfo
                0x000000000000001a        0x1 0x1 /usr/local/popcorn/aarch64/lib/libc.a(sqrt.o)
 .debug_macinfo
                0x000000000000001b        0x1 0x1 /usr/local/popcorn/aarch64/lib/libc.a(pow.o)
 .debug_macinfo
                0x000000000000001c        0x1 0x1 /usr/local/popcorn/aarch64/lib/libc.a(scalbn.o)
 .debug_macinfo
                0x000000000000001d        0x1 0x1 /usr/local/popcorn/aarch64/lib/libc.a(fclose.o)
 .debug_macinfo
                0x000000000000001e        0x1 0x1 /usr/local/popcorn/aarch64/lib/libc.a(fflush.o)
 .debug_macinfo
                0x000000000000001f        0x1 0x1 /usr/local/popcorn/aarch64/lib/libc.a(fgetc.o)
 .debug_macinfo
                0x0000000000000020        0x1 0x1 /usr/local/popcorn/aarch64/lib/libc.a(fopen.o)
 .debug_macinfo
                0x0000000000000021        0x1 0x1 /usr/local/popcorn/aarch64/lib/libc.a(fscanf.o)
 .debug_macinfo
                0x0000000000000022        0x1 0x1 /usr/local/popcorn/aarch64/lib/libc.a(ofl.o)
 .debug_macinfo
                0x0000000000000023        0x1 0x1 /usr/local/popcorn/aarch64/lib/libc.a(printf.o)
 .debug_macinfo
                0x0000000000000024        0x1 0x1 /usr/local/popcorn/aarch64/lib/libc.a(sprintf.o)
 .debug_macinfo
                0x0000000000000025        0x1 0x1 /usr/local/popcorn/aarch64/lib/libc.a(stdout.o)
 .debug_macinfo
                0x0000000000000026        0x1 0x1 /usr/local/popcorn/aarch64/lib/libc.a(vfprintf.o)
 .debug_macinfo
                0x0000000000000027        0x1 0x1 /usr/local/popcorn/aarch64/lib/libc.a(vfscanf.o)
 .debug_macinfo
                0x0000000000000028        0x1 0x1 /usr/local/popcorn/aarch64/lib/libc.a(vsprintf.o)
 .debug_macinfo
                0x0000000000000029        0x1 0x1 /usr/local/popcorn/aarch64/lib/libc.a(memset.o)
 .debug_macinfo
                0x000000000000002a        0x1 0x1 /usr/local/popcorn/aarch64/lib/libc.a(strchr.o)
 .debug_macinfo
                0x000000000000002b        0x1 0x1 /usr/local/popcorn/aarch64/lib/libc.a(strchrnul.o)
 .debug_macinfo
                0x000000000000002c        0x1 0x1 /usr/local/popcorn/aarch64/lib/libc.a(strlen.o)
 .debug_macinfo
                0x000000000000002d        0x1 0x1 /usr/local/popcorn/aarch64/lib/libc.a(strnlen.o)
 .debug_macinfo
                0x000000000000002e        0x1 0x1 /usr/local/popcorn/aarch64/lib/libc.a(__lock.o)
 .debug_macinfo
                0x000000000000002f        0x1 0x1 /usr/local/popcorn/aarch64/lib/libc.a(__wait.o)
 .debug_macinfo
                0x0000000000000030        0x1 0x1 /usr/local/popcorn/aarch64/lib/libc.a(gettimeofday.o)
 .debug_macinfo
                0x0000000000000031        0x1 0x1 /usr/local/popcorn/aarch64/lib/libc.a(__environ.o)
 .debug_macinfo
                0x0000000000000032        0x1 0x1 /usr/local/popcorn/aarch64/lib/libc.a(__init_tls.o)
 .debug_macinfo
                0x0000000000000033        0x1 0x1 /usr/local/popcorn/aarch64/lib/libc.a(__errno_location.o)
 .debug_macinfo
                0x0000000000000034        0x1 0x1 /usr/local/popcorn/aarch64/lib/libc.a(strerror.o)
 .debug_macinfo
                0x0000000000000035        0x1 0x1 /usr/local/popcorn/aarch64/lib/libc.a(_Exit.o)
 .debug_macinfo
                0x0000000000000036        0x1 0x1 /usr/local/popcorn/aarch64/lib/libc.a(floatscan.o)
 .debug_macinfo
                0x0000000000000037        0x1 0x1 /usr/local/popcorn/aarch64/lib/libc.a(intscan.o)
 .debug_macinfo
                0x0000000000000038        0x1 0x1 /usr/local/popcorn/aarch64/lib/libc.a(shgetc.o)
 .debug_macinfo
                0x0000000000000039        0x1 0x1 /usr/local/popcorn/aarch64/lib/libc.a(syscall_ret.o)
 .debug_macinfo
                0x000000000000003a        0x1 0x1 /usr/local/popcorn/aarch64/lib/libc.a(__lctrans.o)
 .debug_macinfo
                0x000000000000003b        0x1 0x1 /usr/local/popcorn/aarch64/lib/libc.a(lite_malloc.o)
 .debug_macinfo
                0x000000000000003c        0x1 0x1 /usr/local/popcorn/aarch64/lib/libc.a(malloc.o)
 .debug_macinfo
                0x000000000000003d        0x1 0x1 /usr/local/popcorn/aarch64/lib/libc.a(popcorn_malloc.o)
 .debug_macinfo
                0x000000000000003e        0x1 0x1 /usr/local/popcorn/aarch64/lib/libc.a(__fpclassifyl.o)
 .debug_macinfo
                0x000000000000003f        0x1 0x1 /usr/local/popcorn/aarch64/lib/libc.a(__signbitl.o)
 .debug_macinfo
                0x0000000000000040        0x1 0x1 /usr/local/popcorn/aarch64/lib/libc.a(fabs.o)
 .debug_macinfo
                0x0000000000000041        0x1 0x1 /usr/local/popcorn/aarch64/lib/libc.a(copysignl.o)
 .debug_macinfo
                0x0000000000000042        0x1 0x1 /usr/local/popcorn/aarch64/lib/libc.a(fmodl.o)
 .debug_macinfo
                0x0000000000000043        0x1 0x1 /usr/local/popcorn/aarch64/lib/libc.a(frexpl.o)
 .debug_macinfo
                0x0000000000000044        0x1 0x1 /usr/local/popcorn/aarch64/lib/libc.a(scalbnl.o)
 .debug_macinfo
                0x0000000000000045        0x1 0x1 /usr/local/popcorn/aarch64/lib/libc.a(madvise.o)
 .debug_macinfo
                0x0000000000000046        0x1 0x1 /usr/local/popcorn/aarch64/lib/libc.a(mmap.o)
 .debug_macinfo
                0x0000000000000047        0x1 0x1 /usr/local/popcorn/aarch64/lib/libc.a(mremap.o)
 .debug_macinfo
                0x0000000000000048        0x1 0x1 /usr/local/popcorn/aarch64/lib/libc.a(munmap.o)
 .debug_macinfo
                0x0000000000000049        0x1 0x1 /usr/local/popcorn/aarch64/lib/libc.a(mbrtowc.o)
 .debug_macinfo
                0x000000000000004a        0x1 0x1 /usr/local/popcorn/aarch64/lib/libc.a(mbsinit.o)
 .debug_macinfo
                0x000000000000004b        0x1 0x1 /usr/local/popcorn/aarch64/lib/libc.a(wctomb.o)
 .debug_macinfo
                0x000000000000004c        0x1 0x1 /usr/local/popcorn/aarch64/lib/libc.a(__fdopen.o)
 .debug_macinfo
                0x000000000000004d        0x1 0x1 /usr/local/popcorn/aarch64/lib/libc.a(__fmodeflags.o)
 .debug_macinfo
                0x000000000000004e        0x1 0x1 /usr/local/popcorn/aarch64/lib/libc.a(__lockfile.o)
 .debug_macinfo
                0x000000000000004f        0x1 0x1 /usr/local/popcorn/aarch64/lib/libc.a(__stdio_close.o)
 .debug_macinfo
                0x0000000000000050        0x1 0x1 /usr/local/popcorn/aarch64/lib/libc.a(__stdio_read.o)
 .debug_macinfo
                0x0000000000000051        0x1 0x1 /usr/local/popcorn/aarch64/lib/libc.a(__stdio_seek.o)
 .debug_macinfo
                0x0000000000000052        0x1 0x1 /usr/local/popcorn/aarch64/lib/libc.a(__stdio_write.o)
 .debug_macinfo
                0x0000000000000053        0x1 0x1 /usr/local/popcorn/aarch64/lib/libc.a(__stdout_write.o)
 .debug_macinfo
                0x0000000000000054        0x1 0x1 /usr/local/popcorn/aarch64/lib/libc.a(__uflow.o)
 .debug_macinfo
                0x0000000000000055        0x1 0x1 /usr/local/popcorn/aarch64/lib/libc.a(fwrite.o)
 .debug_macinfo
                0x0000000000000056        0x1 0x1 /usr/local/popcorn/aarch64/lib/libc.a(ofl_add.o)
 .debug_macinfo
                0x0000000000000057        0x1 0x1 /usr/local/popcorn/aarch64/lib/libc.a(vsnprintf.o)
 .debug_macinfo
                0x0000000000000058        0x1 0x1 /usr/local/popcorn/aarch64/lib/libc.a(memchr.o)
 .debug_macinfo
                0x0000000000000059        0x1 0x1 /usr/local/popcorn/aarch64/lib/libc.a(memcpy.o)
 .debug_macinfo
                0x000000000000005a        0x1 0x1 /usr/local/popcorn/aarch64/lib/libc.a(clock_gettime.o)
 .debug_macinfo
                0x000000000000005b        0x1 0x1 /usr/local/popcorn/aarch64/lib/libc.a(platform.o)
 .debug_macinfo
                0x000000000000005c        0x1 0x1 /usr/local/popcorn/aarch64/lib/libc.a(expand_heap.o)
 .debug_macinfo
                0x000000000000005d        0x1 0x1 /usr/local/popcorn/aarch64/lib/libc.a(internal.o)
 .debug_macinfo
                0x000000000000005e        0x1 0x1 /usr/local/popcorn/aarch64/lib/libc.a(wcrtomb.o)
 .debug_macinfo
                0x000000000000005f        0x1 0x1 /usr/local/popcorn/aarch64/lib/libc.a(__toread.o)
 .debug_macinfo
                0x0000000000000060        0x1 0x1 /usr/local/popcorn/aarch64/lib/libc.a(__towrite.o)
 .debug_macinfo
                0x0000000000000061        0x1 0x1 /usr/local/popcorn/aarch64/lib/libc.a(__stdio_exit.o)
 .debug_macinfo
                0x0000000000000062        0x1 0x1 /usr/local/popcorn/aarch64/lib/libmigrate.a(migrate.o)
 .debug_macinfo
                0x0000000000000063        0x1 0x1 /usr/local/popcorn/aarch64/lib/libmigrate.a(mapping.o)
 .debug_macinfo
                0x0000000000000064        0x1 0x1 /usr/local/popcorn/aarch64/lib/libstack-transform.a(userspace.o)
 .debug_macinfo
                0x0000000000000065        0x1 0x1 /usr/local/popcorn/aarch64/lib/libstack-transform.a(init.o)
 .debug_macinfo
                0x0000000000000066        0x1 0x1 /usr/local/popcorn/aarch64/lib/libstack-transform.a(rewrite.o)
 .debug_macinfo
                0x0000000000000067        0x1 0x1 /usr/local/popcorn/aarch64/lib/libstack-transform.a(unwind.o)
 .debug_macinfo
                0x0000000000000068        0x1 0x1 /usr/local/popcorn/aarch64/lib/libstack-transform.a(util.o)
 .debug_macinfo
                0x0000000000000069        0x1 0x1 /usr/local/popcorn/aarch64/lib/libstack-transform.a(properties.o)
 .debug_macinfo
                0x000000000000006a        0x1 0x1 /usr/local/popcorn/aarch64/lib/libstack-transform.a(regs.o)
 .debug_macinfo
                0x000000000000006b        0x1 0x1 /usr/local/popcorn/aarch64/lib/libstack-transform.a(properties.o)
 .debug_macinfo
                0x000000000000006c        0x1 0x1 /usr/local/popcorn/aarch64/lib/libstack-transform.a(regs.o)
 .debug_macinfo
                0x000000000000006d        0x1 0x1 /usr/local/popcorn/aarch64/lib/libstack-transform.a(properties.o)
 .debug_macinfo
                0x000000000000006e        0x1 0x1 /usr/local/popcorn/aarch64/lib/libstack-transform.a(regs.o)
 .debug_macinfo
                0x000000000000006f        0x1 0x1 /usr/local/popcorn/aarch64/lib/libstack-transform.a(properties.o)
 .debug_macinfo
                0x0000000000000070        0x1 0x1 /usr/local/popcorn/aarch64/lib/libstack-transform.a(regs.o)
 .debug_macinfo
                0x0000000000000071        0x1 0x1 /usr/local/popcorn/aarch64/lib/libstack-transform.a(data.o)
 .debug_macinfo
                0x0000000000000072        0x1 0x1 /usr/local/popcorn/aarch64/lib/libc.a(arch_crash.o)
 .debug_macinfo
                0x0000000000000073        0x1 0x1 /usr/local/popcorn/aarch64/lib/libc.a(getenv.o)
 .debug_macinfo
                0x0000000000000074        0x1 0x1 /usr/local/popcorn/aarch64/lib/libc.a(assert.o)
 .debug_macinfo
                0x0000000000000075        0x1 0x1 /usr/local/popcorn/aarch64/lib/libc.a(open.o)
 .debug_macinfo
                0x0000000000000076        0x1 0x1 /usr/local/popcorn/aarch64/lib/libc.a(calloc.o)
 .debug_macinfo
                0x0000000000000077        0x1 0x1 /usr/local/popcorn/aarch64/lib/libc.a(getrlimit.o)
 .debug_macinfo
                0x0000000000000078        0x1 0x1 /usr/local/popcorn/aarch64/lib/libc.a(fprintf.o)
 .debug_macinfo
                0x0000000000000079        0x1 0x1 /usr/local/popcorn/aarch64/lib/libc.a(fseek.o)
 .debug_macinfo
                0x000000000000007a        0x1 0x1 /usr/local/popcorn/aarch64/lib/libc.a(getc.o)
 .debug_macinfo
                0x000000000000007b        0x1 0x1 /usr/local/popcorn/aarch64/lib/libc.a(getline.o)
 .debug_macinfo
                0x000000000000007c        0x1 0x1 /usr/local/popcorn/aarch64/lib/libc.a(perror.o)
 .debug_macinfo
                0x000000000000007d        0x1 0x1 /usr/local/popcorn/aarch64/lib/libc.a(snprintf.o)
 .debug_macinfo
                0x000000000000007e        0x1 0x1 /usr/local/popcorn/aarch64/lib/libc.a(sscanf.o)
 .debug_macinfo
                0x000000000000007f        0x1 0x1 /usr/local/popcorn/aarch64/lib/libc.a(stderr.o)
 .debug_macinfo
                0x0000000000000080        0x1 0x1 /usr/local/popcorn/aarch64/lib/libc.a(vsscanf.o)
 .debug_macinfo
                0x0000000000000081        0x1 0x1 /usr/local/popcorn/aarch64/lib/libc.a(bsearch.o)
 .debug_macinfo
                0x0000000000000082        0x1 0x1 /usr/local/popcorn/aarch64/lib/libc.a(qsort.o)
 .debug_macinfo
                0x0000000000000083        0x1 0x1 /usr/local/popcorn/aarch64/lib/libc.a(strtol.o)
 .debug_macinfo
                0x0000000000000084        0x1 0x1 /usr/local/popcorn/aarch64/lib/libc.a(strcmp.o)
 .debug_macinfo
                0x0000000000000085        0x1 0x1 /usr/local/popcorn/aarch64/lib/libc.a(strncmp.o)
 .debug_macinfo
                0x0000000000000086        0x1 0x1 /usr/local/popcorn/aarch64/lib/libc.a(__syscall_cp.o)
 .debug_macinfo
                0x0000000000000087        0x1 0x1 /usr/local/popcorn/aarch64/lib/libc.a(pthread_attr_get.o)
 .debug_macinfo
                0x0000000000000088        0x1 0x1 /usr/local/popcorn/aarch64/lib/libc.a(pthread_getattr_np.o)
 .debug_macinfo
                0x0000000000000089        0x1 0x1 /usr/local/popcorn/aarch64/lib/libc.a(pthread_migrate.o)
 .debug_macinfo
                0x000000000000008a        0x1 0x1 /usr/local/popcorn/aarch64/lib/libc.a(pthread_self.o)
 .debug_macinfo
                0x000000000000008b        0x1 0x1 /usr/local/popcorn/aarch64/lib/libc.a(close.o)
 .debug_macinfo
                0x000000000000008c        0x1 0x1 /usr/local/popcorn/aarch64/lib/libc.a(getpid.o)
 .debug_macinfo
                0x000000000000008d        0x1 0x1 /usr/local/popcorn/aarch64/lib/libc.a(lseek.o)
 .debug_macinfo
                0x000000000000008e        0x1 0x1 /usr/local/popcorn/aarch64/lib/libc.a(read.o)
 .debug_macinfo
                0x000000000000008f        0x1 0x1 /usr/local/popcorn/aarch64/lib/libc.a(abort.o)
 .debug_macinfo
                0x0000000000000090        0x1 0x1 /usr/local/popcorn/aarch64/lib/libc.a(block.o)
 .debug_macinfo
                0x0000000000000091        0x1 0x1 /usr/local/popcorn/aarch64/lib/libc.a(raise.o)
 .debug_macinfo
                0x0000000000000092        0x1 0x1 /usr/local/popcorn/aarch64/lib/libc.a(__string_read.o)
 .debug_macinfo
                0x0000000000000093        0x1 0x1 /usr/local/popcorn/aarch64/lib/libc.a(fputc.o)
 .debug_macinfo
                0x0000000000000094        0x1 0x1 /usr/local/popcorn/aarch64/lib/libc.a(getdelim.o)
 .debug_macinfo
                0x0000000000000095        0x1 0x1 /usr/local/popcorn/aarch64/lib/libc.a(__overflow.o)

.debug_weaknames
 *(.debug_weaknames)

.debug_funcnames
 *(.debug_funcnames)

.debug_typenames
 *(.debug_typenames)

.debug_varnames
 *(.debug_varnames)

.debug_pubtypes
 *(.debug_pubtypes)

.debug_ranges   0x0000000000000000     0x3df0
 *(.debug_ranges)
 .debug_ranges  0x0000000000000000       0x60 0x1 c_timers_aarch64.o
 .debug_ranges  0x0000000000000060       0x30 0x1 error_aarch64.o
 .debug_ranges  0x0000000000000090       0x40 0x1 initialize_aarch64.o
 .debug_ranges  0x00000000000000d0       0x30 0x1 randdp_aarch64.o
 .debug_ranges  0x0000000000000100       0x90 0x1 /usr/local/popcorn/aarch64/lib/libc.a(__libc_start_main.o)
 .debug_ranges  0x0000000000000190       0x40 0x1 /usr/local/popcorn/aarch64/lib/libc.a(exit.o)
 .debug_ranges  0x00000000000001d0      0x1e0 0x1 /usr/local/popcorn/aarch64/lib/libc.a(pow.o)
 .debug_ranges  0x00000000000003b0       0x30 0x1 /usr/local/popcorn/aarch64/lib/libc.a(fclose.o)
 .debug_ranges  0x00000000000003e0       0x30 0x1 /usr/local/popcorn/aarch64/lib/libc.a(fflush.o)
 .debug_ranges  0x0000000000000410       0x30 0x1 /usr/local/popcorn/aarch64/lib/libc.a(fopen.o)
 .debug_ranges  0x0000000000000440       0x30 0x1 /usr/local/popcorn/aarch64/lib/libc.a(ofl.o)
 .debug_ranges  0x0000000000000470      0x5e0 0x1 /usr/local/popcorn/aarch64/lib/libc.a(vfprintf.o)
 .debug_ranges  0x0000000000000a50      0x140 0x1 /usr/local/popcorn/aarch64/lib/libc.a(vfscanf.o)
 .debug_ranges  0x0000000000000b90       0x30 0x1 /usr/local/popcorn/aarch64/lib/libc.a(__lock.o)
 .debug_ranges  0x0000000000000bc0       0x40 0x1 /usr/local/popcorn/aarch64/lib/libc.a(__init_tls.o)
 .debug_ranges  0x0000000000000c00       0x30 0x1 /usr/local/popcorn/aarch64/lib/libc.a(strerror.o)
 .debug_ranges  0x0000000000000c30      0x370 0x1 /usr/local/popcorn/aarch64/lib/libc.a(floatscan.o)
 .debug_ranges  0x0000000000000fa0       0x80 0x1 /usr/local/popcorn/aarch64/lib/libc.a(intscan.o)
 .debug_ranges  0x0000000000001020       0x30 0x1 /usr/local/popcorn/aarch64/lib/libc.a(shgetc.o)
 .debug_ranges  0x0000000000001050       0x40 0x1 /usr/local/popcorn/aarch64/lib/libc.a(__lctrans.o)
 .debug_ranges  0x0000000000001090       0x40 0x1 /usr/local/popcorn/aarch64/lib/libc.a(lite_malloc.o)
 .debug_ranges  0x00000000000010d0      0x610 0x1 /usr/local/popcorn/aarch64/lib/libc.a(malloc.o)
 .debug_ranges  0x00000000000016e0      0x830 0x1 /usr/local/popcorn/aarch64/lib/libc.a(popcorn_malloc.o)
 .debug_ranges  0x0000000000001f10       0x30 0x1 /usr/local/popcorn/aarch64/lib/libc.a(madvise.o)
 .debug_ranges  0x0000000000001f40       0x60 0x1 /usr/local/popcorn/aarch64/lib/libc.a(mmap.o)
 .debug_ranges  0x0000000000001fa0       0x60 0x1 /usr/local/popcorn/aarch64/lib/libc.a(mremap.o)
 .debug_ranges  0x0000000000002000       0x30 0x1 /usr/local/popcorn/aarch64/lib/libc.a(munmap.o)
 .debug_ranges  0x0000000000002030       0x30 0x1 /usr/local/popcorn/aarch64/lib/libc.a(__fdopen.o)
 .debug_ranges  0x0000000000002060       0x60 0x1 /usr/local/popcorn/aarch64/lib/libc.a(__lockfile.o)
 .debug_ranges  0x00000000000020c0       0x60 0x1 /usr/local/popcorn/aarch64/lib/libc.a(__stdio_close.o)
 .debug_ranges  0x0000000000002120       0x30 0x1 /usr/local/popcorn/aarch64/lib/libc.a(__stdio_read.o)
 .debug_ranges  0x0000000000002150       0x50 0x1 /usr/local/popcorn/aarch64/lib/libc.a(__stdio_write.o)
 .debug_ranges  0x00000000000021a0       0x60 0x1 /usr/local/popcorn/aarch64/lib/libc.a(fwrite.o)
 .debug_ranges  0x0000000000002200       0x30 0x1 /usr/local/popcorn/aarch64/lib/libc.a(vsnprintf.o)
 .debug_ranges  0x0000000000002230       0x40 0x1 /usr/local/popcorn/aarch64/lib/libc.a(platform.o)
 .debug_ranges  0x0000000000002270      0x130 0x1 /usr/local/popcorn/aarch64/lib/libc.a(expand_heap.o)
 .debug_ranges  0x00000000000023a0       0x30 0x1 /usr/local/popcorn/aarch64/lib/libc.a(__toread.o)
 .debug_ranges  0x00000000000023d0       0x30 0x1 /usr/local/popcorn/aarch64/lib/libc.a(__towrite.o)
 .debug_ranges  0x0000000000002400       0x30 0x1 /usr/local/popcorn/aarch64/lib/libc.a(__stdio_exit.o)
 .debug_ranges  0x0000000000002430       0xc0 0x1 /usr/local/popcorn/aarch64/lib/libmigrate.a(migrate.o)
 .debug_ranges  0x00000000000024f0       0x70 0x1 /usr/local/popcorn/aarch64/lib/libmigrate.a(mapping.o)
 .debug_ranges  0x0000000000002560      0x160 0x1 /usr/local/popcorn/aarch64/lib/libstack-transform.a(userspace.o)
 .debug_ranges  0x00000000000026c0       0x50 0x1 /usr/local/popcorn/aarch64/lib/libstack-transform.a(init.o)
 .debug_ranges  0x0000000000002710      0x2a0 0x1 /usr/local/popcorn/aarch64/lib/libstack-transform.a(rewrite.o)
 .debug_ranges  0x00000000000029b0      0x290 0x1 /usr/local/popcorn/aarch64/lib/libstack-transform.a(unwind.o)
 .debug_ranges  0x0000000000002c40       0xe0 0x1 /usr/local/popcorn/aarch64/lib/libstack-transform.a(util.o)
 .debug_ranges  0x0000000000002d20       0x40 0x1 /usr/local/popcorn/aarch64/lib/libstack-transform.a(properties.o)
 .debug_ranges  0x0000000000002d60      0x120 0x1 /usr/local/popcorn/aarch64/lib/libstack-transform.a(regs.o)
 .debug_ranges  0x0000000000002e80       0x40 0x1 /usr/local/popcorn/aarch64/lib/libstack-transform.a(properties.o)
 .debug_ranges  0x0000000000002ec0      0x120 0x1 /usr/local/popcorn/aarch64/lib/libstack-transform.a(regs.o)
 .debug_ranges  0x0000000000002fe0       0x40 0x1 /usr/local/popcorn/aarch64/lib/libstack-transform.a(properties.o)
 .debug_ranges  0x0000000000003020      0x120 0x1 /usr/local/popcorn/aarch64/lib/libstack-transform.a(regs.o)
 .debug_ranges  0x0000000000003140       0x40 0x1 /usr/local/popcorn/aarch64/lib/libstack-transform.a(properties.o)
 .debug_ranges  0x0000000000003180      0x120 0x1 /usr/local/popcorn/aarch64/lib/libstack-transform.a(regs.o)
 .debug_ranges  0x00000000000032a0      0x5a0 0x1 /usr/local/popcorn/aarch64/lib/libstack-transform.a(data.o)
 .debug_ranges  0x0000000000003840       0x60 0x1 /usr/local/popcorn/aarch64/lib/libc.a(arch_crash.o)
 .debug_ranges  0x00000000000038a0       0x30 0x1 /usr/local/popcorn/aarch64/lib/libc.a(getenv.o)
 .debug_ranges  0x00000000000038d0       0x30 0x1 /usr/local/popcorn/aarch64/lib/libc.a(open.o)
 .debug_ranges  0x0000000000003900       0x70 0x1 /usr/local/popcorn/aarch64/lib/libc.a(calloc.o)
 .debug_ranges  0x0000000000003970       0x40 0x1 /usr/local/popcorn/aarch64/lib/libc.a(fseek.o)
 .debug_ranges  0x00000000000039b0       0x30 0x1 /usr/local/popcorn/aarch64/lib/libc.a(vsscanf.o)
 .debug_ranges  0x00000000000039e0      0x150 0x1 /usr/local/popcorn/aarch64/lib/libc.a(qsort.o)
 .debug_ranges  0x0000000000003b30       0x80 0x1 /usr/local/popcorn/aarch64/lib/libc.a(strtol.o)
 .debug_ranges  0x0000000000003bb0       0x30 0x1 /usr/local/popcorn/aarch64/lib/libc.a(__syscall_cp.o)
 .debug_ranges  0x0000000000003be0      0x110 0x1 /usr/local/popcorn/aarch64/lib/libc.a(pthread_attr_get.o)
 .debug_ranges  0x0000000000003cf0       0x30 0x1 /usr/local/popcorn/aarch64/lib/libc.a(pthread_migrate.o)
 .debug_ranges  0x0000000000003d20       0x30 0x1 /usr/local/popcorn/aarch64/lib/libc.a(close.o)
 .debug_ranges  0x0000000000003d50       0x30 0x1 /usr/local/popcorn/aarch64/lib/libc.a(lseek.o)
 .debug_ranges  0x0000000000003d80       0x40 0x1 /usr/local/popcorn/aarch64/lib/libc.a(block.o)
 .debug_ranges  0x0000000000003dc0       0x30 0x1 /usr/local/popcorn/aarch64/lib/libc.a(getdelim.o)

.debug_macro
 *(.debug_macro)

.debug_addr
 *(.debug_addr)

.ARM.attributes
 *(.ARM.attributes)
 *(.gnu.attributes)

.note.gnu.arm.ident
 *(.note.gnu.arm.ident)

/DISCARD/
 *(.note.GNU-stack)
 *(.gnu_debuglink)
 *(.gnu.lto_*)
OUTPUT(build_aarch64/sp_aarch64 elf64-littleaarch64)
