Archive member included to satisfy reference by file (symbol)

/usr/local/popcorn/x86_64/lib/libc.a(__libc_start_main.o)
                              /usr/local/popcorn/x86_64/lib/crt1.o (__libc_start_main)
/usr/local/popcorn/x86_64/lib/libc.a(exit.o)
                              /usr/local/popcorn/x86_64/lib/libc.a(__libc_start_main.o) (exit)
/usr/local/popcorn/x86_64/lib/libc.a(libc.o)
                              /usr/local/popcorn/x86_64/lib/libc.a(__libc_start_main.o) (__hwcap)
/usr/local/popcorn/x86_64/lib/libc.a(printf.o)
                              basic_x86_64.o (printf)
/usr/local/popcorn/x86_64/lib/libc.a(stdout.o)
                              /usr/local/popcorn/x86_64/lib/libc.a(printf.o) (stdout)
/usr/local/popcorn/x86_64/lib/libc.a(vfprintf.o)
                              /usr/local/popcorn/x86_64/lib/libc.a(printf.o) (vfprintf)
/usr/local/popcorn/x86_64/lib/libc.a(strnlen.o)
                              /usr/local/popcorn/x86_64/lib/libc.a(vfprintf.o) (strnlen)
/usr/local/popcorn/x86_64/lib/libc.a(memset.o)
                              /usr/local/popcorn/x86_64/lib/libc.a(__libc_start_main.o) (memset)
/usr/local/popcorn/x86_64/lib/libc.a(gettid.o)
                              basic_x86_64.o (gettid)
/usr/local/popcorn/x86_64/lib/libc.a(sleep.o)
                              basic_x86_64.o (sleep)
/usr/local/popcorn/x86_64/lib/libc.a(__environ.o)
                              /usr/local/popcorn/x86_64/lib/libc.a(__libc_start_main.o) (__environ)
/usr/local/popcorn/x86_64/lib/libc.a(__init_tls.o)
                              /usr/local/popcorn/x86_64/lib/libc.a(__libc_start_main.o) (__init_tls)
/usr/local/popcorn/x86_64/lib/libc.a(__errno_location.o)
                              /usr/local/popcorn/x86_64/lib/libc.a(vfprintf.o) (__errno_location)
/usr/local/popcorn/x86_64/lib/libc.a(strerror.o)
                              /usr/local/popcorn/x86_64/lib/libc.a(vfprintf.o) (strerror)
/usr/local/popcorn/x86_64/lib/libc.a(_Exit.o)
                              /usr/local/popcorn/x86_64/lib/libc.a(exit.o) (_Exit)
/usr/local/popcorn/x86_64/lib/libc.a(__lctrans.o)
                              /usr/local/popcorn/x86_64/lib/libc.a(strerror.o) (__lctrans)
/usr/local/popcorn/x86_64/lib/libc.a(__fpclassifyl.o)
                              /usr/local/popcorn/x86_64/lib/libc.a(vfprintf.o) (__fpclassifyl)
/usr/local/popcorn/x86_64/lib/libc.a(__signbitl.o)
                              /usr/local/popcorn/x86_64/lib/libc.a(vfprintf.o) (__signbitl)
/usr/local/popcorn/x86_64/lib/libc.a(frexpl.o)
                              /usr/local/popcorn/x86_64/lib/libc.a(vfprintf.o) (frexpl)
/usr/local/popcorn/x86_64/lib/libc.a(wctomb.o)
                              /usr/local/popcorn/x86_64/lib/libc.a(vfprintf.o) (wctomb)
/usr/local/popcorn/x86_64/lib/libc.a(__lockfile.o)
                              /usr/local/popcorn/x86_64/lib/libc.a(vfprintf.o) (__lockfile)
/usr/local/popcorn/x86_64/lib/libc.a(__stdio_close.o)
                              /usr/local/popcorn/x86_64/lib/libc.a(stdout.o) (__stdio_close)
/usr/local/popcorn/x86_64/lib/libc.a(__stdio_seek.o)
                              /usr/local/popcorn/x86_64/lib/libc.a(stdout.o) (__stdio_seek)
/usr/local/popcorn/x86_64/lib/libc.a(__stdout_write.o)
                              /usr/local/popcorn/x86_64/lib/libc.a(stdout.o) (__stdout_write)
/usr/local/popcorn/x86_64/lib/libc.a(fwrite.o)
                              /usr/local/popcorn/x86_64/lib/libc.a(vfprintf.o) (__fwritex)
/usr/local/popcorn/x86_64/lib/libc.a(memchr.o)
                              /usr/local/popcorn/x86_64/lib/libc.a(strnlen.o) (memchr)
/usr/local/popcorn/x86_64/lib/libc.a(memcpy.o)
                              /usr/local/popcorn/x86_64/lib/libc.a(__init_tls.o) (memcpy)
/usr/local/popcorn/x86_64/lib/libc.a(__wait.o)
                              /usr/local/popcorn/x86_64/lib/libc.a(__lockfile.o) (__wait)
/usr/local/popcorn/x86_64/lib/libc.a(__set_thread_area.o)
                              /usr/local/popcorn/x86_64/lib/libc.a(__init_tls.o) (__set_thread_area)
/usr/local/popcorn/x86_64/lib/libc.a(nanosleep.o)
                              /usr/local/popcorn/x86_64/lib/libc.a(sleep.o) (nanosleep)
/usr/local/popcorn/x86_64/lib/libc.a(syscall_ret.o)
                              /usr/local/popcorn/x86_64/lib/libc.a(__stdio_close.o) (__syscall_ret)
/usr/local/popcorn/x86_64/lib/libc.a(wcrtomb.o)
                              /usr/local/popcorn/x86_64/lib/libc.a(wctomb.o) (wcrtomb)
/usr/local/popcorn/x86_64/lib/libc.a(__stdio_write.o)
                              /usr/local/popcorn/x86_64/lib/libc.a(__stdout_write.o) (__stdio_write)
/usr/local/popcorn/x86_64/lib/libc.a(__towrite.o)
                              /usr/local/popcorn/x86_64/lib/libc.a(fwrite.o) (__towrite)
/usr/local/popcorn/x86_64/lib/libc.a(__syscall_cp.o)
                              /usr/local/popcorn/x86_64/lib/libc.a(nanosleep.o) (__syscall_cp)
/usr/local/popcorn/x86_64/lib/libc.a(syscall.o)
                              /usr/local/popcorn/x86_64/lib/libc.a(__syscall_cp.o) (__syscall)
/usr/local/popcorn/x86_64/lib/libc.a(__stdio_exit.o)
                              /usr/local/popcorn/x86_64/lib/libc.a(__towrite.o) (__stdio_exit_needed)
/usr/local/popcorn/x86_64/lib/libc.a(ofl.o)
                              /usr/local/popcorn/x86_64/lib/libc.a(__stdio_exit.o) (__ofl_lock)
/usr/local/popcorn/x86_64/lib/libc.a(__lock.o)
                              /usr/local/popcorn/x86_64/lib/libc.a(ofl.o) (__lock)
/usr/local/popcorn/x86_64/lib/libmigrate.a(migrate.o)
                              basic_x86_64.o (check_migrate)
/usr/local/popcorn/x86_64/lib/libmigrate.a(migrate_powerpc64.o)
                              /usr/local/popcorn/x86_64/lib/libmigrate.a(migrate.o) (__migrate_fixup_powerpc64)
/usr/local/popcorn/x86_64/lib/libmigrate.a(migrate_aarch64.o)
                              /usr/local/popcorn/x86_64/lib/libmigrate.a(migrate.o) (__migrate_fixup_aarch64)
/usr/local/popcorn/x86_64/lib/libmigrate.a(migrate_x86_64.o)
                              /usr/local/popcorn/x86_64/lib/libmigrate.a(migrate.o) (__migrate_fixup_x86_64)
/usr/local/popcorn/x86_64/lib/libmigrate.a(migrate_riscv64.o)
                              /usr/local/popcorn/x86_64/lib/libmigrate.a(migrate.o) (__migrate_fixup_riscv64)
/usr/local/popcorn/x86_64/lib/libmigrate.a(mapping.o)
                              /usr/local/popcorn/x86_64/lib/libmigrate.a(migrate.o) (get_node_mapping)
/usr/local/popcorn/x86_64/lib/libstack-transform.a(userspace.o)
                              /usr/local/popcorn/x86_64/lib/libmigrate.a(migrate.o) (st_userspace_rewrite)
/usr/local/popcorn/x86_64/lib/libstack-transform.a(init.o)
                              /usr/local/popcorn/x86_64/lib/libstack-transform.a(userspace.o) (st_destroy)
/usr/local/popcorn/x86_64/lib/libstack-transform.a(rewrite.o)
                              /usr/local/popcorn/x86_64/lib/libstack-transform.a(userspace.o) (st_rewrite_stack)
/usr/local/popcorn/x86_64/lib/libstack-transform.a(unwind.o)
                              /usr/local/popcorn/x86_64/lib/libstack-transform.a(rewrite.o) (bootstrap_first_frame)
/usr/local/popcorn/x86_64/lib/libstack-transform.a(util.o)
                              /usr/local/popcorn/x86_64/lib/libstack-transform.a(rewrite.o) (get_function_address)
/usr/local/popcorn/x86_64/lib/libstack-transform.a(properties.o)
                              /usr/local/popcorn/x86_64/lib/libstack-transform.a(util.o) (properties_aarch64)
/usr/local/popcorn/x86_64/lib/libstack-transform.a(regs.o)
                              /usr/local/popcorn/x86_64/lib/libstack-transform.a(util.o) (regs_aarch64)
/usr/local/popcorn/x86_64/lib/libstack-transform.a(properties.o)
                              /usr/local/popcorn/x86_64/lib/libstack-transform.a(util.o) (properties_powerpc64)
/usr/local/popcorn/x86_64/lib/libstack-transform.a(regs.o)
                              /usr/local/popcorn/x86_64/lib/libstack-transform.a(util.o) (regs_powerpc64)
/usr/local/popcorn/x86_64/lib/libstack-transform.a(properties.o)
                              /usr/local/popcorn/x86_64/lib/libstack-transform.a(util.o) (properties_riscv64)
/usr/local/popcorn/x86_64/lib/libstack-transform.a(regs.o)
                              /usr/local/popcorn/x86_64/lib/libstack-transform.a(util.o) (regs_riscv64)
/usr/local/popcorn/x86_64/lib/libstack-transform.a(properties.o)
                              /usr/local/popcorn/x86_64/lib/libstack-transform.a(util.o) (properties_x86_64)
/usr/local/popcorn/x86_64/lib/libstack-transform.a(regs.o)
                              /usr/local/popcorn/x86_64/lib/libstack-transform.a(util.o) (regs_x86_64)
/usr/local/popcorn/x86_64/lib/libstack-transform.a(data.o)
                              /usr/local/popcorn/x86_64/lib/libstack-transform.a(rewrite.o) (get_savedfbp_loc)
/usr/local/popcorn/x86_64/lib/libelf.a(begin.o)
                              /usr/local/popcorn/x86_64/lib/libstack-transform.a(init.o) (elf_begin)
/usr/local/popcorn/x86_64/lib/libelf.a(end.o)
                              /usr/local/popcorn/x86_64/lib/libstack-transform.a(init.o) (elf_end)
/usr/local/popcorn/x86_64/lib/libelf.a(getdata.o)
                              /usr/local/popcorn/x86_64/lib/libstack-transform.a(util.o) (elf_getdata)
/usr/local/popcorn/x86_64/lib/libelf.a(getident.o)
                              /usr/local/popcorn/x86_64/lib/libstack-transform.a(init.o) (elf_getident)
/usr/local/popcorn/x86_64/lib/libelf.a(nextscn.o)
                              /usr/local/popcorn/x86_64/lib/libstack-transform.a(util.o) (elf_nextscn)
/usr/local/popcorn/x86_64/lib/libelf.a(strptr.o)
                              /usr/local/popcorn/x86_64/lib/libstack-transform.a(util.o) (elf_strptr)
/usr/local/popcorn/x86_64/lib/libelf.a(version.o)
                              /usr/local/popcorn/x86_64/lib/libstack-transform.a(userspace.o) (elf_version)
/usr/local/popcorn/x86_64/lib/libelf.a(32.getehdr.o)
                              /usr/local/popcorn/x86_64/lib/libstack-transform.a(init.o) (elf64_getehdr)
/usr/local/popcorn/x86_64/lib/libelf.a(32.xlatetof.o)
                              /usr/local/popcorn/x86_64/lib/libelf.a(getdata.o) (_elf32_xltsize)
/usr/local/popcorn/x86_64/lib/libelf.a(cook.o)
                              /usr/local/popcorn/x86_64/lib/libelf.a(getident.o) (_elf_cook)
/usr/local/popcorn/x86_64/lib/libelf.a(data.o)
                              /usr/local/popcorn/x86_64/lib/libelf.a(begin.o) (_elf_errno)
/usr/local/popcorn/x86_64/lib/libelf.a(input.o)
                              /usr/local/popcorn/x86_64/lib/libelf.a(begin.o) (_elf_mmap)
/usr/local/popcorn/x86_64/lib/libelf.a(x.elfext.o)
                              /usr/local/popcorn/x86_64/lib/libstack-transform.a(util.o) (elf_getshdrstrndx)
/usr/local/popcorn/x86_64/lib/libelf.a(64.xlatetof.o)
                              /usr/local/popcorn/x86_64/lib/libelf.a(getdata.o) (_elf64_xltsize)
/usr/local/popcorn/x86_64/lib/libelf.a(gelfshdr.o)
                              /usr/local/popcorn/x86_64/lib/libstack-transform.a(util.o) (gelf_getshdr)
/usr/local/popcorn/x86_64/lib/libelf.a(swap64.o)
                              /usr/local/popcorn/x86_64/lib/libelf.a(64.xlatetof.o) (_elf_load_i64L)
/usr/local/popcorn/x86_64/lib/libelf.a(verdef_32_tof.o)
                              /usr/local/popcorn/x86_64/lib/libelf.a(32.xlatetof.o) (_elf_verdef_32L11_tof)
/usr/local/popcorn/x86_64/lib/libelf.a(verdef_32_tom.o)
                              /usr/local/popcorn/x86_64/lib/libelf.a(32.xlatetof.o) (_elf_verdef_32L11_tom)
/usr/local/popcorn/x86_64/lib/libelf.a(verdef_64_tof.o)
                              /usr/local/popcorn/x86_64/lib/libelf.a(64.xlatetof.o) (_elf_verdef_64L11_tof)
/usr/local/popcorn/x86_64/lib/libelf.a(verdef_64_tom.o)
                              /usr/local/popcorn/x86_64/lib/libelf.a(64.xlatetof.o) (_elf_verdef_64L11_tom)
/usr/local/popcorn/x86_64/lib/libelf.a(getscn.o)
                              /usr/local/popcorn/x86_64/lib/libelf.a(strptr.o) (elf_getscn)
/usr/local/popcorn/x86_64/lib/libelf.a(newscn.o)
                              /usr/local/popcorn/x86_64/lib/libelf.a(x.elfext.o) (_elf_first_scn)
/usr/local/popcorn/x86_64/lib/libelf.a(32.fsize.o)
                              /usr/local/popcorn/x86_64/lib/libelf.a(cook.o) (_elf_fmsize)
/usr/local/popcorn/x86_64/lib/libc.a(arch_crash.o)
                              /usr/local/popcorn/x86_64/lib/libmigrate.a(migrate_x86_64.o) (crash_x86_64)
/usr/local/popcorn/x86_64/lib/libc.a(getenv.o)
                              /usr/local/popcorn/x86_64/lib/libmigrate.a(mapping.o) (getenv)
/usr/local/popcorn/x86_64/lib/libc.a(platform.o)
                              /usr/local/popcorn/x86_64/lib/libmigrate.a(migrate.o) (popcorn_getnid)
/usr/local/popcorn/x86_64/lib/libc.a(assert.o)
                              /usr/local/popcorn/x86_64/lib/libmigrate.a(migrate.o) (__assert_fail)
/usr/local/popcorn/x86_64/lib/libc.a(open.o)
                              /usr/local/popcorn/x86_64/lib/libstack-transform.a(init.o) (open)
/usr/local/popcorn/x86_64/lib/libc.a(calloc.o)
                              /usr/local/popcorn/x86_64/lib/libmigrate.a(mapping.o) (calloc)
/usr/local/popcorn/x86_64/lib/libc.a(lite_malloc.o)
                              /usr/local/popcorn/x86_64/lib/libc.a(calloc.o) (__malloc0)
/usr/local/popcorn/x86_64/lib/libc.a(malloc.o)
                              /usr/local/popcorn/x86_64/lib/libmigrate.a(mapping.o) (free)
/usr/local/popcorn/x86_64/lib/libc.a(popcorn_malloc.o)
                              /usr/local/popcorn/x86_64/lib/libc.a(calloc.o) (__popcorn_malloc0)
/usr/local/popcorn/x86_64/lib/libc.a(getrlimit.o)
                              /usr/local/popcorn/x86_64/lib/libstack-transform.a(userspace.o) (getrlimit)
/usr/local/popcorn/x86_64/lib/libc.a(madvise.o)
                              /usr/local/popcorn/x86_64/lib/libc.a(malloc.o) (__madvise)
/usr/local/popcorn/x86_64/lib/libc.a(mmap.o)
                              /usr/local/popcorn/x86_64/lib/libc.a(malloc.o) (__mmap)
/usr/local/popcorn/x86_64/lib/libc.a(mremap.o)
                              /usr/local/popcorn/x86_64/lib/libc.a(malloc.o) (__mremap)
/usr/local/popcorn/x86_64/lib/libc.a(munmap.o)
                              /usr/local/popcorn/x86_64/lib/libc.a(malloc.o) (__munmap)
/usr/local/popcorn/x86_64/lib/libc.a(fclose.o)
                              /usr/local/popcorn/x86_64/lib/libmigrate.a(mapping.o) (fclose)
/usr/local/popcorn/x86_64/lib/libc.a(fflush.o)
                              /usr/local/popcorn/x86_64/lib/libc.a(assert.o) (fflush)
/usr/local/popcorn/x86_64/lib/libc.a(fopen.o)
                              /usr/local/popcorn/x86_64/lib/libmigrate.a(mapping.o) (fopen)
/usr/local/popcorn/x86_64/lib/libc.a(fprintf.o)
                              /usr/local/popcorn/x86_64/lib/libmigrate.a(migrate.o) (fprintf)
/usr/local/popcorn/x86_64/lib/libc.a(fscanf.o)
                              /usr/local/popcorn/x86_64/lib/libmigrate.a(mapping.o) (fscanf)
/usr/local/popcorn/x86_64/lib/libc.a(fseek.o)
                              /usr/local/popcorn/x86_64/lib/libmigrate.a(mapping.o) (fseek)
/usr/local/popcorn/x86_64/lib/libc.a(getc.o)
                              /usr/local/popcorn/x86_64/lib/libmigrate.a(mapping.o) (getc)
/usr/local/popcorn/x86_64/lib/libc.a(getline.o)
                              /usr/local/popcorn/x86_64/lib/libstack-transform.a(userspace.o) (getline)
/usr/local/popcorn/x86_64/lib/libc.a(perror.o)
                              /usr/local/popcorn/x86_64/lib/libmigrate.a(migrate.o) (perror)
/usr/local/popcorn/x86_64/lib/libc.a(snprintf.o)
                              /usr/local/popcorn/x86_64/lib/libstack-transform.a(userspace.o) (snprintf)
/usr/local/popcorn/x86_64/lib/libc.a(sscanf.o)
                              /usr/local/popcorn/x86_64/lib/libstack-transform.a(userspace.o) (sscanf)
/usr/local/popcorn/x86_64/lib/libc.a(stderr.o)
                              /usr/local/popcorn/x86_64/lib/libmigrate.a(migrate.o) (stderr)
/usr/local/popcorn/x86_64/lib/libc.a(vfscanf.o)
                              /usr/local/popcorn/x86_64/lib/libc.a(fscanf.o) (vfscanf)
/usr/local/popcorn/x86_64/lib/libc.a(vsnprintf.o)
                              /usr/local/popcorn/x86_64/lib/libc.a(snprintf.o) (vsnprintf)
/usr/local/popcorn/x86_64/lib/libc.a(vsscanf.o)
                              /usr/local/popcorn/x86_64/lib/libc.a(sscanf.o) (vsscanf)
/usr/local/popcorn/x86_64/lib/libc.a(bsearch.o)
                              /usr/local/popcorn/x86_64/lib/libmigrate.a(mapping.o) (bsearch)
/usr/local/popcorn/x86_64/lib/libc.a(qsort.o)
                              /usr/local/popcorn/x86_64/lib/libmigrate.a(mapping.o) (qsort)
/usr/local/popcorn/x86_64/lib/libc.a(strtol.o)
                              /usr/local/popcorn/x86_64/lib/libelf.a(version.o) (strtol)
/usr/local/popcorn/x86_64/lib/libc.a(strchr.o)
                              /usr/local/popcorn/x86_64/lib/libc.a(fopen.o) (strchr)
/usr/local/popcorn/x86_64/lib/libc.a(strchrnul.o)
                              /usr/local/popcorn/x86_64/lib/libc.a(getenv.o) (__strchrnul)
/usr/local/popcorn/x86_64/lib/libc.a(strcmp.o)
                              /usr/local/popcorn/x86_64/lib/libstack-transform.a(util.o) (strcmp)
/usr/local/popcorn/x86_64/lib/libc.a(strlen.o)
                              /usr/local/popcorn/x86_64/lib/libc.a(perror.o) (strlen)
/usr/local/popcorn/x86_64/lib/libc.a(strncmp.o)
                              /usr/local/popcorn/x86_64/lib/libc.a(getenv.o) (strncmp)
/usr/local/popcorn/x86_64/lib/libc.a(memmove.o)
                              /usr/local/popcorn/x86_64/lib/libelf.a(32.xlatetof.o) (memmove)
/usr/local/popcorn/x86_64/lib/libc.a(pthread_attr_get.o)
                              /usr/local/popcorn/x86_64/lib/libstack-transform.a(userspace.o) (pthread_attr_getstack)
/usr/local/popcorn/x86_64/lib/libc.a(pthread_getattr_np.o)
                              /usr/local/popcorn/x86_64/lib/libstack-transform.a(userspace.o) (pthread_getattr_np)
/usr/local/popcorn/x86_64/lib/libc.a(pthread_migrate.o)
                              /usr/local/popcorn/x86_64/lib/libmigrate.a(migrate.o) (pthread_get_migrate_args)
/usr/local/popcorn/x86_64/lib/libc.a(pthread_self.o)
                              /usr/local/popcorn/x86_64/lib/libstack-transform.a(userspace.o) (pthread_self)
/usr/local/popcorn/x86_64/lib/libc.a(close.o)
                              /usr/local/popcorn/x86_64/lib/libstack-transform.a(init.o) (close)
/usr/local/popcorn/x86_64/lib/libc.a(getpid.o)
                              /usr/local/popcorn/x86_64/lib/libstack-transform.a(userspace.o) (getpid)
/usr/local/popcorn/x86_64/lib/libc.a(lseek.o)
                              /usr/local/popcorn/x86_64/lib/libelf.a(begin.o) (lseek)
/usr/local/popcorn/x86_64/lib/libc.a(read.o)
                              /usr/local/popcorn/x86_64/lib/libelf.a(input.o) (read)
/usr/local/popcorn/x86_64/lib/libc.a(abort.o)
                              /usr/local/popcorn/x86_64/lib/libc.a(assert.o) (abort)
/usr/local/popcorn/x86_64/lib/libc.a(floatscan.o)
                              /usr/local/popcorn/x86_64/lib/libc.a(vfscanf.o) (__floatscan)
/usr/local/popcorn/x86_64/lib/libc.a(intscan.o)
                              /usr/local/popcorn/x86_64/lib/libc.a(vfscanf.o) (__intscan)
/usr/local/popcorn/x86_64/lib/libc.a(shgetc.o)
                              /usr/local/popcorn/x86_64/lib/libc.a(vfscanf.o) (__shgetc)
/usr/local/popcorn/x86_64/lib/libc.a(expand_heap.o)
                              /usr/local/popcorn/x86_64/lib/libc.a(lite_malloc.o) (__expand_heap)
/usr/local/popcorn/x86_64/lib/libc.a(copysignl.o)
                              /usr/local/popcorn/x86_64/lib/libc.a(floatscan.o) (copysignl)
/usr/local/popcorn/x86_64/lib/libc.a(scalbn.o)
                              /usr/local/popcorn/x86_64/lib/libc.a(floatscan.o) (scalbn)
/usr/local/popcorn/x86_64/lib/libc.a(scalbnl.o)
                              /usr/local/popcorn/x86_64/lib/libc.a(floatscan.o) (scalbnl)
/usr/local/popcorn/x86_64/lib/libc.a(fabs.o)
                              /usr/local/popcorn/x86_64/lib/libc.a(floatscan.o) (fabs)
/usr/local/popcorn/x86_64/lib/libc.a(fmodl.o)
                              /usr/local/popcorn/x86_64/lib/libc.a(floatscan.o) (fmodl)
/usr/local/popcorn/x86_64/lib/libc.a(mbrtowc.o)
                              /usr/local/popcorn/x86_64/lib/libc.a(vfscanf.o) (mbrtowc)
/usr/local/popcorn/x86_64/lib/libc.a(mbsinit.o)
                              /usr/local/popcorn/x86_64/lib/libc.a(vfscanf.o) (mbsinit)
/usr/local/popcorn/x86_64/lib/libc.a(block.o)
                              /usr/local/popcorn/x86_64/lib/libc.a(abort.o) (__block_all_sigs)
/usr/local/popcorn/x86_64/lib/libc.a(raise.o)
                              /usr/local/popcorn/x86_64/lib/libc.a(abort.o) (raise)
/usr/local/popcorn/x86_64/lib/libc.a(__fdopen.o)
                              /usr/local/popcorn/x86_64/lib/libc.a(fopen.o) (__fdopen)
/usr/local/popcorn/x86_64/lib/libc.a(__fmodeflags.o)
                              /usr/local/popcorn/x86_64/lib/libc.a(fopen.o) (__fmodeflags)
/usr/local/popcorn/x86_64/lib/libc.a(__stdio_read.o)
                              /usr/local/popcorn/x86_64/lib/libc.a(__fdopen.o) (__stdio_read)
/usr/local/popcorn/x86_64/lib/libc.a(__string_read.o)
                              /usr/local/popcorn/x86_64/lib/libc.a(vsscanf.o) (__string_read)
/usr/local/popcorn/x86_64/lib/libc.a(__uflow.o)
                              /usr/local/popcorn/x86_64/lib/libc.a(getc.o) (__uflow)
/usr/local/popcorn/x86_64/lib/libc.a(fputc.o)
                              /usr/local/popcorn/x86_64/lib/libc.a(perror.o) (fputc)
/usr/local/popcorn/x86_64/lib/libc.a(getdelim.o)
                              /usr/local/popcorn/x86_64/lib/libc.a(getline.o) (getdelim)
/usr/local/popcorn/x86_64/lib/libc.a(ofl_add.o)
                              /usr/local/popcorn/x86_64/lib/libc.a(__fdopen.o) (__ofl_add)
/usr/local/popcorn/x86_64/lib/libc.a(internal.o)
                              /usr/local/popcorn/x86_64/lib/libc.a(mbrtowc.o) (__fsmu8)
/usr/local/popcorn/x86_64/lib/libc.a(__overflow.o)
                              /usr/local/popcorn/x86_64/lib/libc.a(fputc.o) (__overflow)
/usr/local/popcorn/x86_64/lib/libc.a(__toread.o)
                              /usr/local/popcorn/x86_64/lib/libc.a(__uflow.o) (__toread)

Allocating common symbols
Common symbol       size              file

__hwcap             0x8               /usr/local/popcorn/x86_64/lib/libc.a(libc.o)
__libc              0x70              /usr/local/popcorn/x86_64/lib/libc.a(libc.o)
mal                 0x20000           /usr/local/popcorn/x86_64/lib/libc.a(popcorn_malloc.o)
__sysinfo           0x8               /usr/local/popcorn/x86_64/lib/libc.a(libc.o)

Discarded input sections

 .note.GNU-stack
                0x0000000000000000        0x0 0x1 basic_x86_64.o
 .llvm_addrsig  0x0000000000000000       0x11 0x1 basic_x86_64.o
 .note.GNU-stack
                0x0000000000000000        0x0 0x1 /usr/local/popcorn/x86_64/lib/crt1.o
 .llvm_addrsig  0x0000000000000000        0x3 0x1 /usr/local/popcorn/x86_64/lib/crt1.o
 .note.GNU-stack
                0x0000000000000000        0x0 0x1 /usr/local/popcorn/x86_64/lib/libc.a(__libc_start_main.o)
 .llvm_addrsig  0x0000000000000000        0xb 0x1 /usr/local/popcorn/x86_64/lib/libc.a(__libc_start_main.o)
 .note.GNU-stack
                0x0000000000000000        0x0 0x1 /usr/local/popcorn/x86_64/lib/libc.a(exit.o)
 .llvm_addrsig  0x0000000000000000        0x8 0x1 /usr/local/popcorn/x86_64/lib/libc.a(exit.o)
 .note.GNU-stack
                0x0000000000000000        0x0 0x1 /usr/local/popcorn/x86_64/lib/libc.a(libc.o)
 .llvm_addrsig  0x0000000000000000        0x2 0x1 /usr/local/popcorn/x86_64/lib/libc.a(libc.o)
 .note.GNU-stack
                0x0000000000000000        0x0 0x1 /usr/local/popcorn/x86_64/lib/libc.a(printf.o)
 .llvm_addrsig  0x0000000000000000        0x0 0x1 /usr/local/popcorn/x86_64/lib/libc.a(printf.o)
 .note.GNU-stack
                0x0000000000000000        0x0 0x1 /usr/local/popcorn/x86_64/lib/libc.a(stdout.o)
 .llvm_addrsig  0x0000000000000000        0x5 0x1 /usr/local/popcorn/x86_64/lib/libc.a(stdout.o)
 .note.GNU-stack
                0x0000000000000000        0x0 0x1 /usr/local/popcorn/x86_64/lib/libc.a(vfprintf.o)
 .llvm_addrsig  0x0000000000000000        0x8 0x1 /usr/local/popcorn/x86_64/lib/libc.a(vfprintf.o)
 .note.GNU-stack
                0x0000000000000000        0x0 0x1 /usr/local/popcorn/x86_64/lib/libc.a(strnlen.o)
 .llvm_addrsig  0x0000000000000000        0x0 0x1 /usr/local/popcorn/x86_64/lib/libc.a(strnlen.o)
 .note.GNU-stack
                0x0000000000000000        0x0 0x1 /usr/local/popcorn/x86_64/lib/libc.a(memset.o)
 .note.GNU-stack
                0x0000000000000000        0x0 0x1 /usr/local/popcorn/x86_64/lib/libc.a(gettid.o)
 .llvm_addrsig  0x0000000000000000        0x0 0x1 /usr/local/popcorn/x86_64/lib/libc.a(gettid.o)
 .note.GNU-stack
                0x0000000000000000        0x0 0x1 /usr/local/popcorn/x86_64/lib/libc.a(sleep.o)
 .llvm_addrsig  0x0000000000000000        0x0 0x1 /usr/local/popcorn/x86_64/lib/libc.a(sleep.o)
 .note.GNU-stack
                0x0000000000000000        0x0 0x1 /usr/local/popcorn/x86_64/lib/libc.a(__environ.o)
 .llvm_addrsig  0x0000000000000000        0x1 0x1 /usr/local/popcorn/x86_64/lib/libc.a(__environ.o)
 .note.GNU-stack
                0x0000000000000000        0x0 0x1 /usr/local/popcorn/x86_64/lib/libc.a(__init_tls.o)
 .llvm_addrsig  0x0000000000000000        0x5 0x1 /usr/local/popcorn/x86_64/lib/libc.a(__init_tls.o)
 .note.GNU-stack
                0x0000000000000000        0x0 0x1 /usr/local/popcorn/x86_64/lib/libc.a(__errno_location.o)
 .llvm_addrsig  0x0000000000000000        0x0 0x1 /usr/local/popcorn/x86_64/lib/libc.a(__errno_location.o)
 .note.GNU-stack
                0x0000000000000000        0x0 0x1 /usr/local/popcorn/x86_64/lib/libc.a(strerror.o)
 .llvm_addrsig  0x0000000000000000        0x2 0x1 /usr/local/popcorn/x86_64/lib/libc.a(strerror.o)
 .note.GNU-stack
                0x0000000000000000        0x0 0x1 /usr/local/popcorn/x86_64/lib/libc.a(_Exit.o)
 .llvm_addrsig  0x0000000000000000        0x0 0x1 /usr/local/popcorn/x86_64/lib/libc.a(_Exit.o)
 .note.GNU-stack
                0x0000000000000000        0x0 0x1 /usr/local/popcorn/x86_64/lib/libc.a(__lctrans.o)
 .llvm_addrsig  0x0000000000000000        0x2 0x1 /usr/local/popcorn/x86_64/lib/libc.a(__lctrans.o)
 .note.GNU-stack
                0x0000000000000000        0x0 0x1 /usr/local/popcorn/x86_64/lib/libc.a(__fpclassifyl.o)
 .llvm_addrsig  0x0000000000000000        0x0 0x1 /usr/local/popcorn/x86_64/lib/libc.a(__fpclassifyl.o)
 .note.GNU-stack
                0x0000000000000000        0x0 0x1 /usr/local/popcorn/x86_64/lib/libc.a(__signbitl.o)
 .llvm_addrsig  0x0000000000000000        0x0 0x1 /usr/local/popcorn/x86_64/lib/libc.a(__signbitl.o)
 .note.GNU-stack
                0x0000000000000000        0x0 0x1 /usr/local/popcorn/x86_64/lib/libc.a(frexpl.o)
 .llvm_addrsig  0x0000000000000000        0x0 0x1 /usr/local/popcorn/x86_64/lib/libc.a(frexpl.o)
 .note.GNU-stack
                0x0000000000000000        0x0 0x1 /usr/local/popcorn/x86_64/lib/libc.a(wctomb.o)
 .llvm_addrsig  0x0000000000000000        0x0 0x1 /usr/local/popcorn/x86_64/lib/libc.a(wctomb.o)
 .note.GNU-stack
                0x0000000000000000        0x0 0x1 /usr/local/popcorn/x86_64/lib/libc.a(__lockfile.o)
 .llvm_addrsig  0x0000000000000000        0x0 0x1 /usr/local/popcorn/x86_64/lib/libc.a(__lockfile.o)
 .note.GNU-stack
                0x0000000000000000        0x0 0x1 /usr/local/popcorn/x86_64/lib/libc.a(__stdio_close.o)
 .llvm_addrsig  0x0000000000000000        0x2 0x1 /usr/local/popcorn/x86_64/lib/libc.a(__stdio_close.o)
 .note.GNU-stack
                0x0000000000000000        0x0 0x1 /usr/local/popcorn/x86_64/lib/libc.a(__stdio_seek.o)
 .llvm_addrsig  0x0000000000000000        0x0 0x1 /usr/local/popcorn/x86_64/lib/libc.a(__stdio_seek.o)
 .note.GNU-stack
                0x0000000000000000        0x0 0x1 /usr/local/popcorn/x86_64/lib/libc.a(__stdout_write.o)
 .llvm_addrsig  0x0000000000000000        0x1 0x1 /usr/local/popcorn/x86_64/lib/libc.a(__stdout_write.o)
 .note.GNU-stack
                0x0000000000000000        0x0 0x1 /usr/local/popcorn/x86_64/lib/libc.a(fwrite.o)
 .llvm_addrsig  0x0000000000000000        0x1 0x1 /usr/local/popcorn/x86_64/lib/libc.a(fwrite.o)
 .note.GNU-stack
                0x0000000000000000        0x0 0x1 /usr/local/popcorn/x86_64/lib/libc.a(memchr.o)
 .llvm_addrsig  0x0000000000000000        0x0 0x1 /usr/local/popcorn/x86_64/lib/libc.a(memchr.o)
 .note.GNU-stack
                0x0000000000000000        0x0 0x1 /usr/local/popcorn/x86_64/lib/libc.a(memcpy.o)
 .note.GNU-stack
                0x0000000000000000        0x0 0x1 /usr/local/popcorn/x86_64/lib/libc.a(__wait.o)
 .llvm_addrsig  0x0000000000000000        0x0 0x1 /usr/local/popcorn/x86_64/lib/libc.a(__wait.o)
 .note.GNU-stack
                0x0000000000000000        0x0 0x1 /usr/local/popcorn/x86_64/lib/libc.a(__set_thread_area.o)
 .note.GNU-stack
                0x0000000000000000        0x0 0x1 /usr/local/popcorn/x86_64/lib/libc.a(nanosleep.o)
 .llvm_addrsig  0x0000000000000000        0x0 0x1 /usr/local/popcorn/x86_64/lib/libc.a(nanosleep.o)
 .note.GNU-stack
                0x0000000000000000        0x0 0x1 /usr/local/popcorn/x86_64/lib/libc.a(syscall_ret.o)
 .llvm_addrsig  0x0000000000000000        0x0 0x1 /usr/local/popcorn/x86_64/lib/libc.a(syscall_ret.o)
 .note.GNU-stack
                0x0000000000000000        0x0 0x1 /usr/local/popcorn/x86_64/lib/libc.a(wcrtomb.o)
 .llvm_addrsig  0x0000000000000000        0x0 0x1 /usr/local/popcorn/x86_64/lib/libc.a(wcrtomb.o)
 .note.GNU-stack
                0x0000000000000000        0x0 0x1 /usr/local/popcorn/x86_64/lib/libc.a(__stdio_write.o)
 .llvm_addrsig  0x0000000000000000        0x0 0x1 /usr/local/popcorn/x86_64/lib/libc.a(__stdio_write.o)
 .note.GNU-stack
                0x0000000000000000        0x0 0x1 /usr/local/popcorn/x86_64/lib/libc.a(__towrite.o)
 .llvm_addrsig  0x0000000000000000        0x0 0x1 /usr/local/popcorn/x86_64/lib/libc.a(__towrite.o)
 .note.GNU-stack
                0x0000000000000000        0x0 0x1 /usr/local/popcorn/x86_64/lib/libc.a(__syscall_cp.o)
 .llvm_addrsig  0x0000000000000000        0x2 0x1 /usr/local/popcorn/x86_64/lib/libc.a(__syscall_cp.o)
 .note.GNU-stack
                0x0000000000000000        0x0 0x1 /usr/local/popcorn/x86_64/lib/libc.a(syscall.o)
 .note.GNU-stack
                0x0000000000000000        0x0 0x1 /usr/local/popcorn/x86_64/lib/libc.a(__stdio_exit.o)
 .llvm_addrsig  0x0000000000000000        0x4 0x1 /usr/local/popcorn/x86_64/lib/libc.a(__stdio_exit.o)
 .note.GNU-stack
                0x0000000000000000        0x0 0x1 /usr/local/popcorn/x86_64/lib/libc.a(ofl.o)
 .llvm_addrsig  0x0000000000000000        0x2 0x1 /usr/local/popcorn/x86_64/lib/libc.a(ofl.o)
 .note.GNU-stack
                0x0000000000000000        0x0 0x1 /usr/local/popcorn/x86_64/lib/libc.a(__lock.o)
 .llvm_addrsig  0x0000000000000000        0x1 0x1 /usr/local/popcorn/x86_64/lib/libc.a(__lock.o)
 .note.GNU-stack
                0x0000000000000000        0x0 0x1 /usr/local/popcorn/x86_64/lib/libmigrate.a(migrate.o)
 .llvm_addrsig  0x0000000000000000        0xf 0x1 /usr/local/popcorn/x86_64/lib/libmigrate.a(migrate.o)
 .note.GNU-stack
                0x0000000000000000        0x0 0x1 /usr/local/popcorn/x86_64/lib/libmigrate.a(mapping.o)
 .llvm_addrsig  0x0000000000000000        0x9 0x1 /usr/local/popcorn/x86_64/lib/libmigrate.a(mapping.o)
 .note.GNU-stack
                0x0000000000000000        0x0 0x1 /usr/local/popcorn/x86_64/lib/libstack-transform.a(userspace.o)
 .llvm_addrsig  0x0000000000000000        0xd 0x1 /usr/local/popcorn/x86_64/lib/libstack-transform.a(userspace.o)
 .note.GNU-stack
                0x0000000000000000        0x0 0x1 /usr/local/popcorn/x86_64/lib/libstack-transform.a(init.o)
 .llvm_addrsig  0x0000000000000000        0x7 0x1 /usr/local/popcorn/x86_64/lib/libstack-transform.a(init.o)
 .note.GNU-stack
                0x0000000000000000        0x0 0x1 /usr/local/popcorn/x86_64/lib/libstack-transform.a(rewrite.o)
 .llvm_addrsig  0x0000000000000000        0x4 0x1 /usr/local/popcorn/x86_64/lib/libstack-transform.a(rewrite.o)
 .note.GNU-stack
                0x0000000000000000        0x0 0x1 /usr/local/popcorn/x86_64/lib/libstack-transform.a(unwind.o)
 .llvm_addrsig  0x0000000000000000        0x0 0x1 /usr/local/popcorn/x86_64/lib/libstack-transform.a(unwind.o)
 .note.GNU-stack
                0x0000000000000000        0x0 0x1 /usr/local/popcorn/x86_64/lib/libstack-transform.a(util.o)
 .llvm_addrsig  0x0000000000000000        0xd 0x1 /usr/local/popcorn/x86_64/lib/libstack-transform.a(util.o)
 .note.GNU-stack
                0x0000000000000000        0x0 0x1 /usr/local/popcorn/x86_64/lib/libstack-transform.a(properties.o)
 .llvm_addrsig  0x0000000000000000        0x6 0x1 /usr/local/popcorn/x86_64/lib/libstack-transform.a(properties.o)
 .note.GNU-stack
                0x0000000000000000        0x0 0x1 /usr/local/popcorn/x86_64/lib/libstack-transform.a(regs.o)
 .llvm_addrsig  0x0000000000000000       0x13 0x1 /usr/local/popcorn/x86_64/lib/libstack-transform.a(regs.o)
 .note.GNU-stack
                0x0000000000000000        0x0 0x1 /usr/local/popcorn/x86_64/lib/libstack-transform.a(properties.o)
 .llvm_addrsig  0x0000000000000000        0x6 0x1 /usr/local/popcorn/x86_64/lib/libstack-transform.a(properties.o)
 .note.GNU-stack
                0x0000000000000000        0x0 0x1 /usr/local/popcorn/x86_64/lib/libstack-transform.a(regs.o)
 .llvm_addrsig  0x0000000000000000       0x13 0x1 /usr/local/popcorn/x86_64/lib/libstack-transform.a(regs.o)
 .note.GNU-stack
                0x0000000000000000        0x0 0x1 /usr/local/popcorn/x86_64/lib/libstack-transform.a(properties.o)
 .llvm_addrsig  0x0000000000000000        0x6 0x1 /usr/local/popcorn/x86_64/lib/libstack-transform.a(properties.o)
 .note.GNU-stack
                0x0000000000000000        0x0 0x1 /usr/local/popcorn/x86_64/lib/libstack-transform.a(regs.o)
 .llvm_addrsig  0x0000000000000000       0x13 0x1 /usr/local/popcorn/x86_64/lib/libstack-transform.a(regs.o)
 .note.GNU-stack
                0x0000000000000000        0x0 0x1 /usr/local/popcorn/x86_64/lib/libstack-transform.a(properties.o)
 .llvm_addrsig  0x0000000000000000        0x6 0x1 /usr/local/popcorn/x86_64/lib/libstack-transform.a(properties.o)
 .note.GNU-stack
                0x0000000000000000        0x0 0x1 /usr/local/popcorn/x86_64/lib/libstack-transform.a(regs.o)
 .llvm_addrsig  0x0000000000000000       0x16 0x1 /usr/local/popcorn/x86_64/lib/libstack-transform.a(regs.o)
 .note.GNU-stack
                0x0000000000000000        0x0 0x1 /usr/local/popcorn/x86_64/lib/libstack-transform.a(data.o)
 .llvm_addrsig  0x0000000000000000        0xb 0x1 /usr/local/popcorn/x86_64/lib/libstack-transform.a(data.o)
 .note.GNU-stack
                0x0000000000000000        0x0 0x1 /usr/local/popcorn/x86_64/lib/libelf.a(begin.o)
 .llvm_addrsig  0x0000000000000000        0x3 0x1 /usr/local/popcorn/x86_64/lib/libelf.a(begin.o)
 .note.GNU-stack
                0x0000000000000000        0x0 0x1 /usr/local/popcorn/x86_64/lib/libelf.a(end.o)
 .llvm_addrsig  0x0000000000000000        0x0 0x1 /usr/local/popcorn/x86_64/lib/libelf.a(end.o)
 .note.GNU-stack
                0x0000000000000000        0x0 0x1 /usr/local/popcorn/x86_64/lib/libelf.a(getdata.o)
 .llvm_addrsig  0x0000000000000000        0x0 0x1 /usr/local/popcorn/x86_64/lib/libelf.a(getdata.o)
 .note.GNU-stack
                0x0000000000000000        0x0 0x1 /usr/local/popcorn/x86_64/lib/libelf.a(getident.o)
 .llvm_addrsig  0x0000000000000000        0x0 0x1 /usr/local/popcorn/x86_64/lib/libelf.a(getident.o)
 .note.GNU-stack
                0x0000000000000000        0x0 0x1 /usr/local/popcorn/x86_64/lib/libelf.a(nextscn.o)
 .llvm_addrsig  0x0000000000000000        0x0 0x1 /usr/local/popcorn/x86_64/lib/libelf.a(nextscn.o)
 .note.GNU-stack
                0x0000000000000000        0x0 0x1 /usr/local/popcorn/x86_64/lib/libelf.a(strptr.o)
 .llvm_addrsig  0x0000000000000000        0x0 0x1 /usr/local/popcorn/x86_64/lib/libelf.a(strptr.o)
 .note.GNU-stack
                0x0000000000000000        0x0 0x1 /usr/local/popcorn/x86_64/lib/libelf.a(version.o)
 .llvm_addrsig  0x0000000000000000        0x1 0x1 /usr/local/popcorn/x86_64/lib/libelf.a(version.o)
 .note.GNU-stack
                0x0000000000000000        0x0 0x1 /usr/local/popcorn/x86_64/lib/libelf.a(32.getehdr.o)
 .llvm_addrsig  0x0000000000000000        0x0 0x1 /usr/local/popcorn/x86_64/lib/libelf.a(32.getehdr.o)
 .note.GNU-stack
                0x0000000000000000        0x0 0x1 /usr/local/popcorn/x86_64/lib/libelf.a(32.xlatetof.o)
 .llvm_addrsig  0x0000000000000000       0x39 0x1 /usr/local/popcorn/x86_64/lib/libelf.a(32.xlatetof.o)
 .note.GNU-stack
                0x0000000000000000        0x0 0x1 /usr/local/popcorn/x86_64/lib/libelf.a(cook.o)
 .llvm_addrsig  0x0000000000000000        0x0 0x1 /usr/local/popcorn/x86_64/lib/libelf.a(cook.o)
 .note.GNU-stack
                0x0000000000000000        0x0 0x1 /usr/local/popcorn/x86_64/lib/libelf.a(data.o)
 .llvm_addrsig  0x0000000000000000        0x0 0x1 /usr/local/popcorn/x86_64/lib/libelf.a(data.o)
 .note.GNU-stack
                0x0000000000000000        0x0 0x1 /usr/local/popcorn/x86_64/lib/libelf.a(input.o)
 .llvm_addrsig  0x0000000000000000        0x0 0x1 /usr/local/popcorn/x86_64/lib/libelf.a(input.o)
 .note.GNU-stack
                0x0000000000000000        0x0 0x1 /usr/local/popcorn/x86_64/lib/libelf.a(x.elfext.o)
 .llvm_addrsig  0x0000000000000000        0x0 0x1 /usr/local/popcorn/x86_64/lib/libelf.a(x.elfext.o)
 .note.GNU-stack
                0x0000000000000000        0x0 0x1 /usr/local/popcorn/x86_64/lib/libelf.a(64.xlatetof.o)
 .llvm_addrsig  0x0000000000000000       0x49 0x1 /usr/local/popcorn/x86_64/lib/libelf.a(64.xlatetof.o)
 .note.GNU-stack
                0x0000000000000000        0x0 0x1 /usr/local/popcorn/x86_64/lib/libelf.a(gelfshdr.o)
 .llvm_addrsig  0x0000000000000000        0x0 0x1 /usr/local/popcorn/x86_64/lib/libelf.a(gelfshdr.o)
 .note.GNU-stack
                0x0000000000000000        0x0 0x1 /usr/local/popcorn/x86_64/lib/libelf.a(swap64.o)
 .llvm_addrsig  0x0000000000000000        0x0 0x1 /usr/local/popcorn/x86_64/lib/libelf.a(swap64.o)
 .note.GNU-stack
                0x0000000000000000        0x0 0x1 /usr/local/popcorn/x86_64/lib/libelf.a(verdef_32_tof.o)
 .llvm_addrsig  0x0000000000000000        0x0 0x1 /usr/local/popcorn/x86_64/lib/libelf.a(verdef_32_tof.o)
 .note.GNU-stack
                0x0000000000000000        0x0 0x1 /usr/local/popcorn/x86_64/lib/libelf.a(verdef_32_tom.o)
 .llvm_addrsig  0x0000000000000000        0x0 0x1 /usr/local/popcorn/x86_64/lib/libelf.a(verdef_32_tom.o)
 .note.GNU-stack
                0x0000000000000000        0x0 0x1 /usr/local/popcorn/x86_64/lib/libelf.a(verdef_64_tof.o)
 .llvm_addrsig  0x0000000000000000        0x0 0x1 /usr/local/popcorn/x86_64/lib/libelf.a(verdef_64_tof.o)
 .note.GNU-stack
                0x0000000000000000        0x0 0x1 /usr/local/popcorn/x86_64/lib/libelf.a(verdef_64_tom.o)
 .llvm_addrsig  0x0000000000000000        0x0 0x1 /usr/local/popcorn/x86_64/lib/libelf.a(verdef_64_tom.o)
 .note.GNU-stack
                0x0000000000000000        0x0 0x1 /usr/local/popcorn/x86_64/lib/libelf.a(getscn.o)
 .llvm_addrsig  0x0000000000000000        0x0 0x1 /usr/local/popcorn/x86_64/lib/libelf.a(getscn.o)
 .note.GNU-stack
                0x0000000000000000        0x0 0x1 /usr/local/popcorn/x86_64/lib/libelf.a(newscn.o)
 .llvm_addrsig  0x0000000000000000        0x0 0x1 /usr/local/popcorn/x86_64/lib/libelf.a(newscn.o)
 .note.GNU-stack
                0x0000000000000000        0x0 0x1 /usr/local/popcorn/x86_64/lib/libelf.a(32.fsize.o)
 .llvm_addrsig  0x0000000000000000        0x0 0x1 /usr/local/popcorn/x86_64/lib/libelf.a(32.fsize.o)
 .note.GNU-stack
                0x0000000000000000        0x0 0x1 /usr/local/popcorn/x86_64/lib/libc.a(arch_crash.o)
 .llvm_addrsig  0x0000000000000000        0x5 0x1 /usr/local/popcorn/x86_64/lib/libc.a(arch_crash.o)
 .note.GNU-stack
                0x0000000000000000        0x0 0x1 /usr/local/popcorn/x86_64/lib/libc.a(getenv.o)
 .llvm_addrsig  0x0000000000000000        0x0 0x1 /usr/local/popcorn/x86_64/lib/libc.a(getenv.o)
 .note.GNU-stack
                0x0000000000000000        0x0 0x1 /usr/local/popcorn/x86_64/lib/libc.a(platform.o)
 .llvm_addrsig  0x0000000000000000        0x0 0x1 /usr/local/popcorn/x86_64/lib/libc.a(platform.o)
 .note.GNU-stack
                0x0000000000000000        0x0 0x1 /usr/local/popcorn/x86_64/lib/libc.a(assert.o)
 .llvm_addrsig  0x0000000000000000        0x1 0x1 /usr/local/popcorn/x86_64/lib/libc.a(assert.o)
 .note.GNU-stack
                0x0000000000000000        0x0 0x1 /usr/local/popcorn/x86_64/lib/libc.a(open.o)
 .llvm_addrsig  0x0000000000000000        0x1 0x1 /usr/local/popcorn/x86_64/lib/libc.a(open.o)
 .note.GNU-stack
                0x0000000000000000        0x0 0x1 /usr/local/popcorn/x86_64/lib/libc.a(calloc.o)
 .llvm_addrsig  0x0000000000000000        0x0 0x1 /usr/local/popcorn/x86_64/lib/libc.a(calloc.o)
 .note.GNU-stack
                0x0000000000000000        0x0 0x1 /usr/local/popcorn/x86_64/lib/libc.a(lite_malloc.o)
 .llvm_addrsig  0x0000000000000000        0x2 0x1 /usr/local/popcorn/x86_64/lib/libc.a(lite_malloc.o)
 .note.GNU-stack
                0x0000000000000000        0x0 0x1 /usr/local/popcorn/x86_64/lib/libc.a(malloc.o)
 .llvm_addrsig  0x0000000000000000        0x4 0x1 /usr/local/popcorn/x86_64/lib/libc.a(malloc.o)
 .note.GNU-stack
                0x0000000000000000        0x0 0x1 /usr/local/popcorn/x86_64/lib/libc.a(popcorn_malloc.o)
 .llvm_addrsig  0x0000000000000000        0x4 0x1 /usr/local/popcorn/x86_64/lib/libc.a(popcorn_malloc.o)
 .note.GNU-stack
                0x0000000000000000        0x0 0x1 /usr/local/popcorn/x86_64/lib/libc.a(getrlimit.o)
 .llvm_addrsig  0x0000000000000000        0x1 0x1 /usr/local/popcorn/x86_64/lib/libc.a(getrlimit.o)
 .note.GNU-stack
                0x0000000000000000        0x0 0x1 /usr/local/popcorn/x86_64/lib/libc.a(madvise.o)
 .llvm_addrsig  0x0000000000000000        0x1 0x1 /usr/local/popcorn/x86_64/lib/libc.a(madvise.o)
 .note.GNU-stack
                0x0000000000000000        0x0 0x1 /usr/local/popcorn/x86_64/lib/libc.a(mmap.o)
 .llvm_addrsig  0x0000000000000000        0x3 0x1 /usr/local/popcorn/x86_64/lib/libc.a(mmap.o)
 .note.GNU-stack
                0x0000000000000000        0x0 0x1 /usr/local/popcorn/x86_64/lib/libc.a(mremap.o)
 .llvm_addrsig  0x0000000000000000        0x3 0x1 /usr/local/popcorn/x86_64/lib/libc.a(mremap.o)
 .note.GNU-stack
                0x0000000000000000        0x0 0x1 /usr/local/popcorn/x86_64/lib/libc.a(munmap.o)
 .llvm_addrsig  0x0000000000000000        0x3 0x1 /usr/local/popcorn/x86_64/lib/libc.a(munmap.o)
 .note.GNU-stack
                0x0000000000000000        0x0 0x1 /usr/local/popcorn/x86_64/lib/libc.a(fclose.o)
 .llvm_addrsig  0x0000000000000000        0x2 0x1 /usr/local/popcorn/x86_64/lib/libc.a(fclose.o)
 .note.GNU-stack
                0x0000000000000000        0x0 0x1 /usr/local/popcorn/x86_64/lib/libc.a(fflush.o)
 .llvm_addrsig  0x0000000000000000        0x3 0x1 /usr/local/popcorn/x86_64/lib/libc.a(fflush.o)
 .note.GNU-stack
                0x0000000000000000        0x0 0x1 /usr/local/popcorn/x86_64/lib/libc.a(fopen.o)
 .llvm_addrsig  0x0000000000000000        0x2 0x1 /usr/local/popcorn/x86_64/lib/libc.a(fopen.o)
 .note.GNU-stack
                0x0000000000000000        0x0 0x1 /usr/local/popcorn/x86_64/lib/libc.a(fprintf.o)
 .llvm_addrsig  0x0000000000000000        0x0 0x1 /usr/local/popcorn/x86_64/lib/libc.a(fprintf.o)
 .note.GNU-stack
                0x0000000000000000        0x0 0x1 /usr/local/popcorn/x86_64/lib/libc.a(fscanf.o)
 .llvm_addrsig  0x0000000000000000        0x1 0x1 /usr/local/popcorn/x86_64/lib/libc.a(fscanf.o)
 .note.GNU-stack
                0x0000000000000000        0x0 0x1 /usr/local/popcorn/x86_64/lib/libc.a(fseek.o)
 .llvm_addrsig  0x0000000000000000        0x1 0x1 /usr/local/popcorn/x86_64/lib/libc.a(fseek.o)
 .note.GNU-stack
                0x0000000000000000        0x0 0x1 /usr/local/popcorn/x86_64/lib/libc.a(getc.o)
 .llvm_addrsig  0x0000000000000000        0x1 0x1 /usr/local/popcorn/x86_64/lib/libc.a(getc.o)
 .note.GNU-stack
                0x0000000000000000        0x0 0x1 /usr/local/popcorn/x86_64/lib/libc.a(getline.o)
 .llvm_addrsig  0x0000000000000000        0x0 0x1 /usr/local/popcorn/x86_64/lib/libc.a(getline.o)
 .note.GNU-stack
                0x0000000000000000        0x0 0x1 /usr/local/popcorn/x86_64/lib/libc.a(perror.o)
 .llvm_addrsig  0x0000000000000000        0x0 0x1 /usr/local/popcorn/x86_64/lib/libc.a(perror.o)
 .note.GNU-stack
                0x0000000000000000        0x0 0x1 /usr/local/popcorn/x86_64/lib/libc.a(snprintf.o)
 .llvm_addrsig  0x0000000000000000        0x0 0x1 /usr/local/popcorn/x86_64/lib/libc.a(snprintf.o)
 .note.GNU-stack
                0x0000000000000000        0x0 0x1 /usr/local/popcorn/x86_64/lib/libc.a(sscanf.o)
 .llvm_addrsig  0x0000000000000000        0x1 0x1 /usr/local/popcorn/x86_64/lib/libc.a(sscanf.o)
 .note.GNU-stack
                0x0000000000000000        0x0 0x1 /usr/local/popcorn/x86_64/lib/libc.a(stderr.o)
 .llvm_addrsig  0x0000000000000000        0x5 0x1 /usr/local/popcorn/x86_64/lib/libc.a(stderr.o)
 .note.GNU-stack
                0x0000000000000000        0x0 0x1 /usr/local/popcorn/x86_64/lib/libc.a(vfscanf.o)
 .llvm_addrsig  0x0000000000000000        0x1 0x1 /usr/local/popcorn/x86_64/lib/libc.a(vfscanf.o)
 .note.GNU-stack
                0x0000000000000000        0x0 0x1 /usr/local/popcorn/x86_64/lib/libc.a(vsnprintf.o)
 .llvm_addrsig  0x0000000000000000        0x1 0x1 /usr/local/popcorn/x86_64/lib/libc.a(vsnprintf.o)
 .note.GNU-stack
                0x0000000000000000        0x0 0x1 /usr/local/popcorn/x86_64/lib/libc.a(vsscanf.o)
 .llvm_addrsig  0x0000000000000000        0x2 0x1 /usr/local/popcorn/x86_64/lib/libc.a(vsscanf.o)
 .note.GNU-stack
                0x0000000000000000        0x0 0x1 /usr/local/popcorn/x86_64/lib/libc.a(bsearch.o)
 .llvm_addrsig  0x0000000000000000        0x0 0x1 /usr/local/popcorn/x86_64/lib/libc.a(bsearch.o)
 .note.GNU-stack
                0x0000000000000000        0x0 0x1 /usr/local/popcorn/x86_64/lib/libc.a(qsort.o)
 .llvm_addrsig  0x0000000000000000        0x1 0x1 /usr/local/popcorn/x86_64/lib/libc.a(qsort.o)
 .note.GNU-stack
                0x0000000000000000        0x0 0x1 /usr/local/popcorn/x86_64/lib/libc.a(strtol.o)
 .llvm_addrsig  0x0000000000000000        0x6 0x1 /usr/local/popcorn/x86_64/lib/libc.a(strtol.o)
 .note.GNU-stack
                0x0000000000000000        0x0 0x1 /usr/local/popcorn/x86_64/lib/libc.a(strchr.o)
 .llvm_addrsig  0x0000000000000000        0x0 0x1 /usr/local/popcorn/x86_64/lib/libc.a(strchr.o)
 .note.GNU-stack
                0x0000000000000000        0x0 0x1 /usr/local/popcorn/x86_64/lib/libc.a(strchrnul.o)
 .llvm_addrsig  0x0000000000000000        0x1 0x1 /usr/local/popcorn/x86_64/lib/libc.a(strchrnul.o)
 .note.GNU-stack
                0x0000000000000000        0x0 0x1 /usr/local/popcorn/x86_64/lib/libc.a(strcmp.o)
 .llvm_addrsig  0x0000000000000000        0x0 0x1 /usr/local/popcorn/x86_64/lib/libc.a(strcmp.o)
 .note.GNU-stack
                0x0000000000000000        0x0 0x1 /usr/local/popcorn/x86_64/lib/libc.a(strlen.o)
 .llvm_addrsig  0x0000000000000000        0x0 0x1 /usr/local/popcorn/x86_64/lib/libc.a(strlen.o)
 .note.GNU-stack
                0x0000000000000000        0x0 0x1 /usr/local/popcorn/x86_64/lib/libc.a(strncmp.o)
 .llvm_addrsig  0x0000000000000000        0x0 0x1 /usr/local/popcorn/x86_64/lib/libc.a(strncmp.o)
 .note.GNU-stack
                0x0000000000000000        0x0 0x1 /usr/local/popcorn/x86_64/lib/libc.a(memmove.o)
 .note.GNU-stack
                0x0000000000000000        0x0 0x1 /usr/local/popcorn/x86_64/lib/libc.a(pthread_attr_get.o)
 .llvm_addrsig  0x0000000000000000        0x0 0x1 /usr/local/popcorn/x86_64/lib/libc.a(pthread_attr_get.o)
 .note.GNU-stack
                0x0000000000000000        0x0 0x1 /usr/local/popcorn/x86_64/lib/libc.a(pthread_getattr_np.o)
 .llvm_addrsig  0x0000000000000000        0x0 0x1 /usr/local/popcorn/x86_64/lib/libc.a(pthread_getattr_np.o)
 .note.GNU-stack
                0x0000000000000000        0x0 0x1 /usr/local/popcorn/x86_64/lib/libc.a(pthread_migrate.o)
 .llvm_addrsig  0x0000000000000000        0x0 0x1 /usr/local/popcorn/x86_64/lib/libc.a(pthread_migrate.o)
 .note.GNU-stack
                0x0000000000000000        0x0 0x1 /usr/local/popcorn/x86_64/lib/libc.a(pthread_self.o)
 .llvm_addrsig  0x0000000000000000        0x1 0x1 /usr/local/popcorn/x86_64/lib/libc.a(pthread_self.o)
 .note.GNU-stack
                0x0000000000000000        0x0 0x1 /usr/local/popcorn/x86_64/lib/libc.a(close.o)
 .llvm_addrsig  0x0000000000000000        0x2 0x1 /usr/local/popcorn/x86_64/lib/libc.a(close.o)
 .note.GNU-stack
                0x0000000000000000        0x0 0x1 /usr/local/popcorn/x86_64/lib/libc.a(getpid.o)
 .llvm_addrsig  0x0000000000000000        0x0 0x1 /usr/local/popcorn/x86_64/lib/libc.a(getpid.o)
 .note.GNU-stack
                0x0000000000000000        0x0 0x1 /usr/local/popcorn/x86_64/lib/libc.a(lseek.o)
 .llvm_addrsig  0x0000000000000000        0x1 0x1 /usr/local/popcorn/x86_64/lib/libc.a(lseek.o)
 .note.GNU-stack
                0x0000000000000000        0x0 0x1 /usr/local/popcorn/x86_64/lib/libc.a(read.o)
 .llvm_addrsig  0x0000000000000000        0x0 0x1 /usr/local/popcorn/x86_64/lib/libc.a(read.o)
 .note.GNU-stack
                0x0000000000000000        0x0 0x1 /usr/local/popcorn/x86_64/lib/libc.a(abort.o)
 .llvm_addrsig  0x0000000000000000        0x0 0x1 /usr/local/popcorn/x86_64/lib/libc.a(abort.o)
 .note.GNU-stack
                0x0000000000000000        0x0 0x1 /usr/local/popcorn/x86_64/lib/libc.a(floatscan.o)
 .llvm_addrsig  0x0000000000000000        0x2 0x1 /usr/local/popcorn/x86_64/lib/libc.a(floatscan.o)
 .note.GNU-stack
                0x0000000000000000        0x0 0x1 /usr/local/popcorn/x86_64/lib/libc.a(intscan.o)
 .llvm_addrsig  0x0000000000000000        0x1 0x1 /usr/local/popcorn/x86_64/lib/libc.a(intscan.o)
 .note.GNU-stack
                0x0000000000000000        0x0 0x1 /usr/local/popcorn/x86_64/lib/libc.a(shgetc.o)
 .llvm_addrsig  0x0000000000000000        0x0 0x1 /usr/local/popcorn/x86_64/lib/libc.a(shgetc.o)
 .note.GNU-stack
                0x0000000000000000        0x0 0x1 /usr/local/popcorn/x86_64/lib/libc.a(expand_heap.o)
 .llvm_addrsig  0x0000000000000000        0x2 0x1 /usr/local/popcorn/x86_64/lib/libc.a(expand_heap.o)
 .note.GNU-stack
                0x0000000000000000        0x0 0x1 /usr/local/popcorn/x86_64/lib/libc.a(copysignl.o)
 .llvm_addrsig  0x0000000000000000        0x0 0x1 /usr/local/popcorn/x86_64/lib/libc.a(copysignl.o)
 .note.GNU-stack
                0x0000000000000000        0x0 0x1 /usr/local/popcorn/x86_64/lib/libc.a(scalbn.o)
 .llvm_addrsig  0x0000000000000000        0x0 0x1 /usr/local/popcorn/x86_64/lib/libc.a(scalbn.o)
 .note.GNU-stack
                0x0000000000000000        0x0 0x1 /usr/local/popcorn/x86_64/lib/libc.a(scalbnl.o)
 .llvm_addrsig  0x0000000000000000        0x0 0x1 /usr/local/popcorn/x86_64/lib/libc.a(scalbnl.o)
 .note.GNU-stack
                0x0000000000000000        0x0 0x1 /usr/local/popcorn/x86_64/lib/libc.a(fabs.o)
 .note.GNU-stack
                0x0000000000000000        0x0 0x1 /usr/local/popcorn/x86_64/lib/libc.a(fmodl.o)
 .note.GNU-stack
                0x0000000000000000        0x0 0x1 /usr/local/popcorn/x86_64/lib/libc.a(mbrtowc.o)
 .llvm_addrsig  0x0000000000000000        0x0 0x1 /usr/local/popcorn/x86_64/lib/libc.a(mbrtowc.o)
 .note.GNU-stack
                0x0000000000000000        0x0 0x1 /usr/local/popcorn/x86_64/lib/libc.a(mbsinit.o)
 .llvm_addrsig  0x0000000000000000        0x0 0x1 /usr/local/popcorn/x86_64/lib/libc.a(mbsinit.o)
 .note.GNU-stack
                0x0000000000000000        0x0 0x1 /usr/local/popcorn/x86_64/lib/libc.a(block.o)
 .llvm_addrsig  0x0000000000000000        0x2 0x1 /usr/local/popcorn/x86_64/lib/libc.a(block.o)
 .note.GNU-stack
                0x0000000000000000        0x0 0x1 /usr/local/popcorn/x86_64/lib/libc.a(raise.o)
 .llvm_addrsig  0x0000000000000000        0x0 0x1 /usr/local/popcorn/x86_64/lib/libc.a(raise.o)
 .note.GNU-stack
                0x0000000000000000        0x0 0x1 /usr/local/popcorn/x86_64/lib/libc.a(__fdopen.o)
 .llvm_addrsig  0x0000000000000000        0x6 0x1 /usr/local/popcorn/x86_64/lib/libc.a(__fdopen.o)
 .note.GNU-stack
                0x0000000000000000        0x0 0x1 /usr/local/popcorn/x86_64/lib/libc.a(__fmodeflags.o)
 .llvm_addrsig  0x0000000000000000        0x0 0x1 /usr/local/popcorn/x86_64/lib/libc.a(__fmodeflags.o)
 .note.GNU-stack
                0x0000000000000000        0x0 0x1 /usr/local/popcorn/x86_64/lib/libc.a(__stdio_read.o)
 .llvm_addrsig  0x0000000000000000        0x0 0x1 /usr/local/popcorn/x86_64/lib/libc.a(__stdio_read.o)
 .note.GNU-stack
                0x0000000000000000        0x0 0x1 /usr/local/popcorn/x86_64/lib/libc.a(__string_read.o)
 .llvm_addrsig  0x0000000000000000        0x0 0x1 /usr/local/popcorn/x86_64/lib/libc.a(__string_read.o)
 .note.GNU-stack
                0x0000000000000000        0x0 0x1 /usr/local/popcorn/x86_64/lib/libc.a(__uflow.o)
 .llvm_addrsig  0x0000000000000000        0x0 0x1 /usr/local/popcorn/x86_64/lib/libc.a(__uflow.o)
 .note.GNU-stack
                0x0000000000000000        0x0 0x1 /usr/local/popcorn/x86_64/lib/libc.a(fputc.o)
 .llvm_addrsig  0x0000000000000000        0x0 0x1 /usr/local/popcorn/x86_64/lib/libc.a(fputc.o)
 .note.GNU-stack
                0x0000000000000000        0x0 0x1 /usr/local/popcorn/x86_64/lib/libc.a(getdelim.o)
 .llvm_addrsig  0x0000000000000000        0x1 0x1 /usr/local/popcorn/x86_64/lib/libc.a(getdelim.o)
 .note.GNU-stack
                0x0000000000000000        0x0 0x1 /usr/local/popcorn/x86_64/lib/libc.a(ofl_add.o)
 .llvm_addrsig  0x0000000000000000        0x0 0x1 /usr/local/popcorn/x86_64/lib/libc.a(ofl_add.o)
 .note.GNU-stack
                0x0000000000000000        0x0 0x1 /usr/local/popcorn/x86_64/lib/libc.a(internal.o)
 .llvm_addrsig  0x0000000000000000        0x0 0x1 /usr/local/popcorn/x86_64/lib/libc.a(internal.o)
 .note.GNU-stack
                0x0000000000000000        0x0 0x1 /usr/local/popcorn/x86_64/lib/libc.a(__overflow.o)
 .llvm_addrsig  0x0000000000000000        0x0 0x1 /usr/local/popcorn/x86_64/lib/libc.a(__overflow.o)
 .note.GNU-stack
                0x0000000000000000        0x0 0x1 /usr/local/popcorn/x86_64/lib/libc.a(__toread.o)
 .llvm_addrsig  0x0000000000000000        0x0 0x1 /usr/local/popcorn/x86_64/lib/libc.a(__toread.o)

Memory Configuration

Name             Origin             Length             Attributes
*default*        0x0000000000000000 0xffffffffffffffff

Linker script and memory map

LOAD basic_x86_64.o
LOAD /usr/local/popcorn/x86_64/lib/crt1.o
LOAD /usr/local/popcorn/x86_64/lib/libc.a
LOAD /usr/local/popcorn/x86_64/lib/libmigrate.a
LOAD /usr/local/popcorn/x86_64/lib/libstack-transform.a
LOAD /usr/local/popcorn/x86_64/lib/libelf.a
LOAD /usr/local/popcorn/x86_64/lib/libpthread.a
LOAD /usr/local/popcorn/x86_64/lib/libc.a
LOAD /usr/local/popcorn/x86_64/lib/libm.a
START GROUP
END GROUP
                [!provide]                        PROVIDE (__executable_start = SEGMENT_START ("text-segment", 0x400000))
                0x0000000000400200                . = (SEGMENT_START ("text-segment", 0x400000) + SIZEOF_HEADERS)

.interp
 *(.interp)

.note.gnu.build-id
                0x0000000000400200       0x24
 *(.note.gnu.build-id)
 .note.gnu.build-id
                0x0000000000400200       0x24 0x4 basic_x86_64.o

.hash
 *(.hash)

.gnu.hash
 *(.gnu.hash)

.dynsym
 *(.dynsym)

.dynstr
 *(.dynstr)

.gnu.version
 *(.gnu.version)

.gnu.version_d
 *(.gnu.version_d)

.gnu.version_r
 *(.gnu.version_r)

.rela.dyn       0x0000000000400228        0x0
 *(.rela.init)
 *(.rela.text .rela.text.* .rela.gnu.linkonce.t.*)
 .rela.text     0x0000000000400228        0x0 0x8 basic_x86_64.o
 .rela.text._start_c
                0x0000000000400228        0x0 0x8 basic_x86_64.o
 .rela.text.__init_libc
                0x0000000000400228        0x0 0x8 basic_x86_64.o
 .rela.text.libc_start_init
                0x0000000000400228        0x0 0x8 basic_x86_64.o
 .rela.text.libc_exit_fini
                0x0000000000400228        0x0 0x8 basic_x86_64.o
 .rela.text.__init_tp
                0x0000000000400228        0x0 0x8 basic_x86_64.o
 .rela.text.__copy_tls
                0x0000000000400228        0x0 0x8 basic_x86_64.o
 .rela.text.static_init_tls
                0x0000000000400228        0x0 0x8 basic_x86_64.o
 .rela.text.__stdio_exit
                0x0000000000400228        0x0 0x8 basic_x86_64.o
 .rela.text.__lock
                0x0000000000400228        0x0 0x8 basic_x86_64.o
 .rela.text.__migrate_fixup_x86_64
                0x0000000000400228        0x0 0x8 basic_x86_64.o
 .rela.text.__st_userspace_ctor
                0x0000000000400228        0x0 0x8 basic_x86_64.o
 .rela.text.__st_userspace_dtor
                0x0000000000400228        0x0 0x8 basic_x86_64.o
 .rela.text.malloc
                0x0000000000400228        0x0 0x8 basic_x86_64.o
 .rela.text.lock_bin
                0x0000000000400228        0x0 0x8 basic_x86_64.o
 .rela.text.realloc
                0x0000000000400228        0x0 0x8 basic_x86_64.o
 .rela.text.free
                0x0000000000400228        0x0 0x8 basic_x86_64.o
 .rela.text.__init_malloc
                0x0000000000400228        0x0 0x8 basic_x86_64.o
 .rela.text.popcorn_malloc
                0x0000000000400228        0x0 0x8 basic_x86_64.o
 .rela.text.unbin
                0x0000000000400228        0x0 0x8 basic_x86_64.o
 .rela.text.unlock_bin
                0x0000000000400228        0x0 0x8 basic_x86_64.o
 .rela.text.popcorn_free
                0x0000000000400228        0x0 0x8 basic_x86_64.o
 .rela.text.pthread_getattr_np
                0x0000000000400228        0x0 0x8 basic_x86_64.o
 .rela.text.__expand_heap
                0x0000000000400228        0x0 0x8 basic_x86_64.o
 .rela.text.__expand_heap_node
                0x0000000000400228        0x0 0x8 basic_x86_64.o
 .rela.text.popcorn_get_arena
                0x0000000000400228        0x0 0x8 basic_x86_64.o
 .rela.text.__fdopen
                0x0000000000400228        0x0 0x8 basic_x86_64.o
 *(.rela.fini)
 *(.rela.rodata .rela.rodata.* .rela.gnu.linkonce.r.*)
 *(.rela.data .rela.data.* .rela.gnu.linkonce.d.*)
 *(.rela.tdata .rela.tdata.* .rela.gnu.linkonce.td.*)
 *(.rela.tbss .rela.tbss.* .rela.gnu.linkonce.tb.*)
 *(.rela.ctors)
 *(.rela.dtors)
 *(.rela.got)
 .rela.got      0x0000000000400228        0x0 0x8 basic_x86_64.o
 *(.rela.bss .rela.bss.* .rela.gnu.linkonce.b.*)
 *(.rela.ldata .rela.ldata.* .rela.gnu.linkonce.l.*)
 *(.rela.lbss .rela.lbss.* .rela.gnu.linkonce.lb.*)
 *(.rela.lrodata .rela.lrodata.* .rela.gnu.linkonce.lr.*)
 *(.rela.ifunc)

.rela.plt       0x0000000000400228        0x0
 *(.rela.plt)
                [!provide]                        PROVIDE (__rela_iplt_start = .)
 *(.rela.iplt)
 .rela.iplt     0x0000000000400228        0x0 0x8 basic_x86_64.o
                [!provide]                        PROVIDE (__rela_iplt_end = .)
                0x0000000000401000                . = ALIGN (CONSTANT (MAXPAGESIZE))

.init
 *(SORT_NONE(.init))

.plt            0x0000000000401000        0x0
 *(.plt)
 *(.iplt)
 .iplt          0x0000000000401000        0x0 0x1 basic_x86_64.o

.plt.got
 *(.plt.got)

.plt.sec
 *(.plt.sec)

.text           0x0000000000401000    0x1a10f
 *(.text.unlikely .text.*_unlikely .text.unlikely.*)
 *(.text.exit .text.exit.*)
 .text.exit     0x0000000000401000       0x1d 0x1 /usr/local/popcorn/x86_64/lib/libc.a(exit.o)
                0x0000000000401000                exit
 *(.text.startup .text.startup.*)
 *(.text.hot .text.hot.*)
 *(.text .stub .text.* .gnu.linkonce.t.*)
 *fill*         0x000000000040101d        0x3 
 .text          0x0000000000401020        0x0 0x4 basic_x86_64.o
 .text.func2    0x0000000000401020       0xa5 0x10 basic_x86_64.o
                0x0000000000401020                func2
 *fill*         0x00000000004010c5        0xb 
 .text.func1    0x00000000004010d0       0xb9 0x10 basic_x86_64.o
                0x00000000004010d0                func1
 *fill*         0x0000000000401189        0x7 
 .text.main     0x0000000000401190       0xd4 0x10 basic_x86_64.o
                0x0000000000401190                main
 .text          0x0000000000401264       0x16 0x4 /usr/local/popcorn/x86_64/lib/crt1.o
                0x0000000000401264                _start
 .text._start_c
                0x000000000040127a       0x1f 0x1 /usr/local/popcorn/x86_64/lib/crt1.o
                0x000000000040127a                _start_c
 *fill*         0x0000000000401299        0x3 
 .text          0x000000000040129c        0x0 0x4 /usr/local/popcorn/x86_64/lib/libc.a(__libc_start_main.o)
 .text.dummy    0x000000000040129c        0x1 0x1 /usr/local/popcorn/x86_64/lib/libc.a(__libc_start_main.o)
                0x000000000040129c                _init
 .text.dummy1   0x000000000040129d        0x1 0x1 /usr/local/popcorn/x86_64/lib/libc.a(__libc_start_main.o)
                0x000000000040129d                __init_ssp
 .text.__init_libc
                0x000000000040129e      0x19f 0x1 /usr/local/popcorn/x86_64/lib/libc.a(__libc_start_main.o)
                0x000000000040129e                __init_libc
 .text.libc_start_init
                0x000000000040143d       0x31 0x1 /usr/local/popcorn/x86_64/lib/libc.a(__libc_start_main.o)
                0x000000000040143d                __libc_start_init
 .text.__libc_start_main
                0x000000000040146e       0x43 0x1 /usr/local/popcorn/x86_64/lib/libc.a(__libc_start_main.o)
                0x000000000040146e                __libc_start_main
 *fill*         0x00000000004014b1        0x3 
 .text          0x00000000004014b4        0x0 0x4 /usr/local/popcorn/x86_64/lib/libc.a(exit.o)
 .text.libc_exit_fini
                0x00000000004014b4       0x35 0x1 /usr/local/popcorn/x86_64/lib/libc.a(exit.o)
                0x00000000004014b4                __libc_exit_fini
 .text.dummy    0x00000000004014e9        0x1 0x1 /usr/local/popcorn/x86_64/lib/libc.a(exit.o)
                0x00000000004014e9                __funcs_on_exit
                0x00000000004014e9                _fini
 *fill*         0x00000000004014ea        0x2 
 .text          0x00000000004014ec        0x0 0x4 /usr/local/popcorn/x86_64/lib/libc.a(libc.o)
 .text          0x00000000004014ec        0x0 0x4 /usr/local/popcorn/x86_64/lib/libc.a(printf.o)
 .text.printf   0x00000000004014ec       0x92 0x1 /usr/local/popcorn/x86_64/lib/libc.a(printf.o)
                0x00000000004014ec                printf
 *fill*         0x000000000040157e        0x2 
 .text          0x0000000000401580        0x0 0x4 /usr/local/popcorn/x86_64/lib/libc.a(stdout.o)
 .text          0x0000000000401580        0x0 0x4 /usr/local/popcorn/x86_64/lib/libc.a(vfprintf.o)
 .text.vfprintf
                0x0000000000401580      0x1ab 0x1 /usr/local/popcorn/x86_64/lib/libc.a(vfprintf.o)
                0x0000000000401580                vfprintf
 .text.printf_core
                0x000000000040172b     0x1bc3 0x1 /usr/local/popcorn/x86_64/lib/libc.a(vfprintf.o)
 .text.pop_arg  0x00000000004032ee      0x1cc 0x1 /usr/local/popcorn/x86_64/lib/libc.a(vfprintf.o)
 .text.pad      0x00000000004034ba       0xbc 0x1 /usr/local/popcorn/x86_64/lib/libc.a(vfprintf.o)
 *fill*         0x0000000000403576        0x2 
 .text          0x0000000000403578        0x0 0x4 /usr/local/popcorn/x86_64/lib/libc.a(strnlen.o)
 *fill*         0x0000000000403578        0x8 
 .text.strnlen  0x0000000000403580       0x2c 0x10 /usr/local/popcorn/x86_64/lib/libc.a(strnlen.o)
                0x0000000000403580                strnlen
 .text          0x00000000004035ac        0x0 0x4 /usr/local/popcorn/x86_64/lib/libc.a(memset.o)
 .text.memset   0x00000000004035ac       0xc4 0x1 /usr/local/popcorn/x86_64/lib/libc.a(memset.o)
                0x00000000004035ac                memset
 .text          0x0000000000403670        0x0 0x4 /usr/local/popcorn/x86_64/lib/libc.a(gettid.o)
 .text.gettid   0x0000000000403670        0x8 0x1 /usr/local/popcorn/x86_64/lib/libc.a(gettid.o)
                0x0000000000403670                gettid
 .text          0x0000000000403678        0x0 0x4 /usr/local/popcorn/x86_64/lib/libc.a(sleep.o)
 .text.sleep    0x0000000000403678       0x2b 0x1 /usr/local/popcorn/x86_64/lib/libc.a(sleep.o)
                0x0000000000403678                sleep
 *fill*         0x00000000004036a3        0x1 
 .text          0x00000000004036a4        0x0 0x4 /usr/local/popcorn/x86_64/lib/libc.a(__environ.o)
 .text          0x00000000004036a4        0x0 0x4 /usr/local/popcorn/x86_64/lib/libc.a(__init_tls.o)
 .text.__init_tp
                0x00000000004036a4       0x50 0x1 /usr/local/popcorn/x86_64/lib/libc.a(__init_tls.o)
                0x00000000004036a4                __init_tp
 .text.__copy_tls
                0x00000000004036f4       0xa5 0x1 /usr/local/popcorn/x86_64/lib/libc.a(__init_tls.o)
                0x00000000004036f4                __copy_tls
 .text.static_init_tls
                0x0000000000403799      0x142 0x1 /usr/local/popcorn/x86_64/lib/libc.a(__init_tls.o)
                0x0000000000403799                __init_tls
 *fill*         0x00000000004038db        0x1 
 .text          0x00000000004038dc        0x0 0x4 /usr/local/popcorn/x86_64/lib/libc.a(__errno_location.o)
 .text.__errno_location
                0x00000000004038dc        0xe 0x1 /usr/local/popcorn/x86_64/lib/libc.a(__errno_location.o)
                0x00000000004038dc                __errno_location
 *fill*         0x00000000004038ea        0x2 
 .text          0x00000000004038ec        0x0 0x4 /usr/local/popcorn/x86_64/lib/libc.a(strerror.o)
 .text.__strerror_l
                0x00000000004038ec       0x44 0x1 /usr/local/popcorn/x86_64/lib/libc.a(strerror.o)
                0x00000000004038ec                strerror_l
                0x00000000004038ec                __strerror_l
 .text.strerror
                0x0000000000403930       0x15 0x1 /usr/local/popcorn/x86_64/lib/libc.a(strerror.o)
                0x0000000000403930                strerror
 *fill*         0x0000000000403945        0x3 
 .text          0x0000000000403948        0x0 0x4 /usr/local/popcorn/x86_64/lib/libc.a(_Exit.o)
 .text._Exit    0x0000000000403948       0x13 0x1 /usr/local/popcorn/x86_64/lib/libc.a(_Exit.o)
                0x0000000000403948                _Exit
 *fill*         0x000000000040395b        0x1 
 .text          0x000000000040395c        0x0 0x4 /usr/local/popcorn/x86_64/lib/libc.a(__lctrans.o)
 .text.dummy    0x000000000040395c        0x4 0x1 /usr/local/popcorn/x86_64/lib/libc.a(__lctrans.o)
                0x000000000040395c                __lctrans_impl
 .text.__lctrans
                0x0000000000403960        0x5 0x1 /usr/local/popcorn/x86_64/lib/libc.a(__lctrans.o)
                0x0000000000403960                __lctrans
 .text.__lctrans_cur
                0x0000000000403965       0x19 0x1 /usr/local/popcorn/x86_64/lib/libc.a(__lctrans.o)
                0x0000000000403965                __lctrans_cur
 *fill*         0x000000000040397e        0x2 
 .text          0x0000000000403980        0x0 0x4 /usr/local/popcorn/x86_64/lib/libc.a(__fpclassifyl.o)
 .text.__fpclassifyl
                0x0000000000403980       0x4e 0x1 /usr/local/popcorn/x86_64/lib/libc.a(__fpclassifyl.o)
                0x0000000000403980                __fpclassifyl
 *fill*         0x00000000004039ce        0x2 
 .text          0x00000000004039d0        0x0 0x4 /usr/local/popcorn/x86_64/lib/libc.a(__signbitl.o)
 .text.__signbitl
                0x00000000004039d0        0xa 0x1 /usr/local/popcorn/x86_64/lib/libc.a(__signbitl.o)
                0x00000000004039d0                __signbitl
 *fill*         0x00000000004039da        0x2 
 .text          0x00000000004039dc        0x0 0x4 /usr/local/popcorn/x86_64/lib/libc.a(frexpl.o)
 .text.frexpl   0x00000000004039dc       0x7f 0x1 /usr/local/popcorn/x86_64/lib/libc.a(frexpl.o)
                0x00000000004039dc                frexpl
 *fill*         0x0000000000403a5b        0x1 
 .text          0x0000000000403a5c        0x0 0x4 /usr/local/popcorn/x86_64/lib/libc.a(wctomb.o)
 .text.wctomb   0x0000000000403a5c       0x15 0x1 /usr/local/popcorn/x86_64/lib/libc.a(wctomb.o)
                0x0000000000403a5c                wctomb
 *fill*         0x0000000000403a71        0x3 
 .text          0x0000000000403a74        0x0 0x4 /usr/local/popcorn/x86_64/lib/libc.a(__lockfile.o)
 .text.__lockfile
                0x0000000000403a74       0x73 0x1 /usr/local/popcorn/x86_64/lib/libc.a(__lockfile.o)
                0x0000000000403a74                __lockfile
 .text.__unlockfile
                0x0000000000403ae7       0x46 0x1 /usr/local/popcorn/x86_64/lib/libc.a(__lockfile.o)
                0x0000000000403ae7                __unlockfile
 *fill*         0x0000000000403b2d        0x3 
 .text          0x0000000000403b30        0x0 0x4 /usr/local/popcorn/x86_64/lib/libc.a(__stdio_close.o)
 .text.dummy    0x0000000000403b30        0x3 0x1 /usr/local/popcorn/x86_64/lib/libc.a(__stdio_close.o)
                0x0000000000403b30                __aio_close
 .text.__stdio_close
                0x0000000000403b33       0x1c 0x1 /usr/local/popcorn/x86_64/lib/libc.a(__stdio_close.o)
                0x0000000000403b33                __stdio_close
 *fill*         0x0000000000403b4f        0x1 
 .text          0x0000000000403b50        0x0 0x4 /usr/local/popcorn/x86_64/lib/libc.a(__stdio_seek.o)
 .text.__stdio_seek
                0x0000000000403b50       0x16 0x1 /usr/local/popcorn/x86_64/lib/libc.a(__stdio_seek.o)
                0x0000000000403b50                __stdio_seek
 *fill*         0x0000000000403b66        0x2 
 .text          0x0000000000403b68        0x0 0x4 /usr/local/popcorn/x86_64/lib/libc.a(__stdout_write.o)
 .text.__stdout_write
                0x0000000000403b68       0x47 0x1 /usr/local/popcorn/x86_64/lib/libc.a(__stdout_write.o)
                0x0000000000403b68                __stdout_write
 *fill*         0x0000000000403baf        0x1 
 .text          0x0000000000403bb0        0x0 0x4 /usr/local/popcorn/x86_64/lib/libc.a(fwrite.o)
 .text.__fwritex
                0x0000000000403bb0       0xbb 0x1 /usr/local/popcorn/x86_64/lib/libc.a(fwrite.o)
                0x0000000000403bb0                __fwritex
 .text.fwrite   0x0000000000403c6b       0x8a 0x1 /usr/local/popcorn/x86_64/lib/libc.a(fwrite.o)
                0x0000000000403c6b                fwrite_unlocked
                0x0000000000403c6b                fwrite
 *fill*         0x0000000000403cf5        0x3 
 .text          0x0000000000403cf8        0x0 0x4 /usr/local/popcorn/x86_64/lib/libc.a(memchr.o)
 *fill*         0x0000000000403cf8        0x8 
 .text.memchr   0x0000000000403d00       0xb2 0x10 /usr/local/popcorn/x86_64/lib/libc.a(memchr.o)
                0x0000000000403d00                memchr
 *fill*         0x0000000000403db2        0x2 
 .text          0x0000000000403db4        0x0 0x4 /usr/local/popcorn/x86_64/lib/libc.a(memcpy.o)
 .text.memcpy   0x0000000000403db4       0x32 0x1 /usr/local/popcorn/x86_64/lib/libc.a(memcpy.o)
                0x0000000000403db4                memcpy
                0x0000000000403db4                __memcpy_fwd
 *fill*         0x0000000000403de6        0x2 
 .text          0x0000000000403de8        0x0 0x4 /usr/local/popcorn/x86_64/lib/libc.a(__wait.o)
 .text.__wait   0x0000000000403de8       0x78 0x1 /usr/local/popcorn/x86_64/lib/libc.a(__wait.o)
                0x0000000000403de8                __wait
 .text          0x0000000000403e60        0x0 0x4 /usr/local/popcorn/x86_64/lib/libc.a(__set_thread_area.o)
 .text.__set_thread_area
                0x0000000000403e60       0x10 0x1 /usr/local/popcorn/x86_64/lib/libc.a(__set_thread_area.o)
                0x0000000000403e60                __set_thread_area
 .text          0x0000000000403e70        0x0 0x4 /usr/local/popcorn/x86_64/lib/libc.a(nanosleep.o)
 .text.nanosleep
                0x0000000000403e70       0x2a 0x1 /usr/local/popcorn/x86_64/lib/libc.a(nanosleep.o)
                0x0000000000403e70                nanosleep
 *fill*         0x0000000000403e9a        0x2 
 .text          0x0000000000403e9c        0x0 0x4 /usr/local/popcorn/x86_64/lib/libc.a(syscall_ret.o)
 *fill*         0x0000000000403e9c        0x4 
 .text.__syscall_ret
                0x0000000000403ea0       0x22 0x10 /usr/local/popcorn/x86_64/lib/libc.a(syscall_ret.o)
                0x0000000000403ea0                __syscall_ret
 *fill*         0x0000000000403ec2        0x2 
 .text          0x0000000000403ec4        0x0 0x4 /usr/local/popcorn/x86_64/lib/libc.a(wcrtomb.o)
 .text.wcrtomb  0x0000000000403ec4       0xfd 0x1 /usr/local/popcorn/x86_64/lib/libc.a(wcrtomb.o)
                0x0000000000403ec4                wcrtomb
 *fill*         0x0000000000403fc1        0x3 
 .text          0x0000000000403fc4        0x0 0x4 /usr/local/popcorn/x86_64/lib/libc.a(__stdio_write.o)
 .text.__stdio_write
                0x0000000000403fc4      0x117 0x1 /usr/local/popcorn/x86_64/lib/libc.a(__stdio_write.o)
                0x0000000000403fc4                __stdio_write
 *fill*         0x00000000004040db        0x1 
 .text          0x00000000004040dc        0x0 0x4 /usr/local/popcorn/x86_64/lib/libc.a(__towrite.o)
 .text.__towrite
                0x00000000004040dc       0x40 0x1 /usr/local/popcorn/x86_64/lib/libc.a(__towrite.o)
                0x00000000004040dc                __towrite
 .text.__towrite_needs_stdio_exit
                0x000000000040411c        0x5 0x1 /usr/local/popcorn/x86_64/lib/libc.a(__towrite.o)
                0x000000000040411c                __towrite_needs_stdio_exit
 *fill*         0x0000000000404121        0x3 
 .text          0x0000000000404124        0x0 0x4 /usr/local/popcorn/x86_64/lib/libc.a(__syscall_cp.o)
 .text.sccp     0x0000000000404124       0x13 0x1 /usr/local/popcorn/x86_64/lib/libc.a(__syscall_cp.o)
                0x0000000000404124                __syscall_cp_c
 .text.__syscall_cp
                0x0000000000404137        0x5 0x1 /usr/local/popcorn/x86_64/lib/libc.a(__syscall_cp.o)
                0x0000000000404137                __syscall_cp
 .text          0x000000000040413c        0x0 0x4 /usr/local/popcorn/x86_64/lib/libc.a(syscall.o)
 .text.__syscall
                0x000000000040413c       0x1a 0x1 /usr/local/popcorn/x86_64/lib/libc.a(syscall.o)
                0x000000000040413c                __syscall
 *fill*         0x0000000000404156        0x2 
 .text          0x0000000000404158        0x0 0x4 /usr/local/popcorn/x86_64/lib/libc.a(__stdio_exit.o)
 .text.__stdio_exit
                0x0000000000404158       0x35 0x1 /usr/local/popcorn/x86_64/lib/libc.a(__stdio_exit.o)
                0x0000000000404158                __stdio_exit
                0x0000000000404158                __stdio_exit_needed
 .text.close_file
                0x000000000040418d       0x4b 0x1 /usr/local/popcorn/x86_64/lib/libc.a(__stdio_exit.o)
 .text          0x00000000004041d8        0x0 0x4 /usr/local/popcorn/x86_64/lib/libc.a(ofl.o)
 .text.__ofl_lock
                0x00000000004041d8       0x12 0x1 /usr/local/popcorn/x86_64/lib/libc.a(ofl.o)
                0x00000000004041d8                __ofl_lock
 .text.__ofl_unlock
                0x00000000004041ea        0xa 0x1 /usr/local/popcorn/x86_64/lib/libc.a(ofl.o)
                0x00000000004041ea                __ofl_unlock
 .text          0x00000000004041f4        0x0 0x4 /usr/local/popcorn/x86_64/lib/libc.a(__lock.o)
 .text.__lock   0x00000000004041f4       0x47 0x1 /usr/local/popcorn/x86_64/lib/libc.a(__lock.o)
                0x00000000004041f4                __lock
 .text.__unlock
                0x000000000040423b       0x3d 0x1 /usr/local/popcorn/x86_64/lib/libc.a(__lock.o)
                0x000000000040423b                __unlock
 .text          0x0000000000404278        0x0 0x4 /usr/local/popcorn/x86_64/lib/libmigrate.a(migrate.o)
 *fill*         0x0000000000404278        0x8 
 .text.node_available
                0x0000000000404280       0x49 0x10 /usr/local/popcorn/x86_64/lib/libmigrate.a(migrate.o)
                0x0000000000404280                node_available
 *fill*         0x00000000004042c9        0x7 
 .text.current_arch
                0x00000000004042d0       0x59 0x10 /usr/local/popcorn/x86_64/lib/libmigrate.a(migrate.o)
                0x00000000004042d0                current_arch
 *fill*         0x0000000000404329        0x7 
 .text.current_nid
                0x0000000000404330        0xd 0x10 /usr/local/popcorn/x86_64/lib/libmigrate.a(migrate.o)
                0x0000000000404330                current_nid
 *fill*         0x000000000040433d        0x3 
 .text.__init_nodes_info
                0x0000000000404340       0x2b 0x10 /usr/local/popcorn/x86_64/lib/libmigrate.a(migrate.o)
                0x0000000000404340                __init_nodes_info
 *fill*         0x000000000040436b        0x5 
 .text.__migrate_shim_internal
                0x0000000000404370      0x682 0x10 /usr/local/popcorn/x86_64/lib/libmigrate.a(migrate.o)
                0x0000000000404370                __migrate_shim_internal
 *fill*         0x00000000004049f2        0xe 
 .text.get_thread_pointer
                0x0000000000404a00       0xa7 0x10 /usr/local/popcorn/x86_64/lib/libmigrate.a(migrate.o)
 *fill*         0x0000000000404aa7        0x9 
 .text.check_migrate
                0x0000000000404ab0       0x50 0x10 /usr/local/popcorn/x86_64/lib/libmigrate.a(migrate.o)
                0x0000000000404ab0                check_migrate
 .text.do_migrate
                0x0000000000404b00       0x3d 0x10 /usr/local/popcorn/x86_64/lib/libmigrate.a(migrate.o)
 *fill*         0x0000000000404b3d        0x3 
 .text.migrate  0x0000000000404b40       0x3d 0x10 /usr/local/popcorn/x86_64/lib/libmigrate.a(migrate.o)
                0x0000000000404b40                migrate
 *fill*         0x0000000000404b7d        0x3 
 .text.migrate_schedule
                0x0000000000404b80       0x50 0x10 /usr/local/popcorn/x86_64/lib/libmigrate.a(migrate.o)
                0x0000000000404b80                migrate_schedule
 .text.get_call_site
                0x0000000000404bd0        0xa 0x10 /usr/local/popcorn/x86_64/lib/libmigrate.a(migrate.o)
 .text          0x0000000000404bda        0x0 0x1 /usr/local/popcorn/x86_64/lib/libmigrate.a(migrate_powerpc64.o)
 *fill*         0x0000000000404bda        0x2 
 .text.__migrate_fixup_powerpc64
                0x0000000000404bdc        0x0 0x4 /usr/local/popcorn/x86_64/lib/libmigrate.a(migrate_powerpc64.o)
                0x0000000000404bdc                __migrate_fixup_powerpc64
 .text          0x0000000000404bdc        0x0 0x1 /usr/local/popcorn/x86_64/lib/libmigrate.a(migrate_aarch64.o)
 .text.__migrate_fixup_aarch64
                0x0000000000404bdc        0x0 0x4 /usr/local/popcorn/x86_64/lib/libmigrate.a(migrate_aarch64.o)
                0x0000000000404bdc                __migrate_fixup_aarch64
 .text          0x0000000000404bdc        0x0 0x1 /usr/local/popcorn/x86_64/lib/libmigrate.a(migrate_x86_64.o)
 .text.__migrate_fixup_x86_64
                0x0000000000404bdc       0x69 0x1 /usr/local/popcorn/x86_64/lib/libmigrate.a(migrate_x86_64.o)
                0x0000000000404bdc                __migrate_fixup_x86_64
 .text          0x0000000000404c45        0x0 0x1 /usr/local/popcorn/x86_64/lib/libmigrate.a(migrate_riscv64.o)
 *fill*         0x0000000000404c45        0x3 
 .text.__migrate_fixup_riscv64
                0x0000000000404c48        0x0 0x4 /usr/local/popcorn/x86_64/lib/libmigrate.a(migrate_riscv64.o)
                0x0000000000404c48                __migrate_fixup_riscv64
 .text          0x0000000000404c48        0x0 0x4 /usr/local/popcorn/x86_64/lib/libmigrate.a(mapping.o)
 *fill*         0x0000000000404c48        0x8 
 .text.set_default_node
                0x0000000000404c50       0x13 0x10 /usr/local/popcorn/x86_64/lib/libmigrate.a(mapping.o)
                0x0000000000404c50                set_default_node
 *fill*         0x0000000000404c63        0xd 
 .text.cleanup  0x0000000000404c70       0xae 0x10 /usr/local/popcorn/x86_64/lib/libmigrate.a(mapping.o)
 *fill*         0x0000000000404d1e        0x2 
 .text.region_compare
                0x0000000000404d20       0x68 0x10 /usr/local/popcorn/x86_64/lib/libmigrate.a(mapping.o)
                0x0000000000404d20                region_compare
 *fill*         0x0000000000404d88        0x8 
 .text.read_mapping_schedule
                0x0000000000404d90      0x27a 0x10 /usr/local/popcorn/x86_64/lib/libmigrate.a(mapping.o)
 *fill*         0x000000000040500a        0x6 
 .text.region_find
                0x0000000000405010       0x65 0x10 /usr/local/popcorn/x86_64/lib/libmigrate.a(mapping.o)
                0x0000000000405010                region_find
 *fill*         0x0000000000405075        0xb 
 .text.get_node_mapping
                0x0000000000405080       0xaa 0x10 /usr/local/popcorn/x86_64/lib/libmigrate.a(mapping.o)
                0x0000000000405080                get_node_mapping
 *fill*         0x000000000040512a        0x2 
 .text          0x000000000040512c        0x0 0x4 /usr/local/popcorn/x86_64/lib/libstack-transform.a(userspace.o)
 *fill*         0x000000000040512c        0x4 
 .text.__st_userspace_ctor
                0x0000000000405130      0x435 0x10 /usr/local/popcorn/x86_64/lib/libstack-transform.a(userspace.o)
                0x0000000000405130                __st_userspace_ctor
 *fill*         0x0000000000405565        0xb 
 .text.__st_userspace_dtor
                0x0000000000405570       0x9c 0x10 /usr/local/popcorn/x86_64/lib/libstack-transform.a(userspace.o)
                0x0000000000405570                __st_userspace_dtor
 *fill*         0x000000000040560c        0x4 
 .text.get_stack_bounds
                0x0000000000405610       0xc9 0x10 /usr/local/popcorn/x86_64/lib/libstack-transform.a(userspace.o)
                0x0000000000405610                get_stack_bounds
 *fill*         0x00000000004056d9        0x7 
 .text.st_userspace_rewrite
                0x00000000004056e0      0x176 0x10 /usr/local/popcorn/x86_64/lib/libstack-transform.a(userspace.o)
                0x00000000004056e0                st_userspace_rewrite
 *fill*         0x0000000000405856        0x2 
 .text          0x0000000000405858        0x0 0x4 /usr/local/popcorn/x86_64/lib/libstack-transform.a(init.o)
 *fill*         0x0000000000405858        0x8 
 .text.__st_ctor
                0x0000000000405860        0x5 0x10 /usr/local/popcorn/x86_64/lib/libstack-transform.a(init.o)
 *fill*         0x0000000000405865        0xb 
 .text.__st_dtor
                0x0000000000405870        0x5 0x10 /usr/local/popcorn/x86_64/lib/libstack-transform.a(init.o)
                0x0000000000405870                __st_dtor
 *fill*         0x0000000000405875        0xb 
 .text.st_init  0x0000000000405880      0x20c 0x10 /usr/local/popcorn/x86_64/lib/libstack-transform.a(init.o)
                0x0000000000405880                st_init
 *fill*         0x0000000000405a8c        0x4 
 .text.st_destroy
                0x0000000000405a90       0x23 0x10 /usr/local/popcorn/x86_64/lib/libstack-transform.a(init.o)
                0x0000000000405a90                st_destroy
 *fill*         0x0000000000405ab3        0x1 
 .text          0x0000000000405ab4        0x0 0x4 /usr/local/popcorn/x86_64/lib/libstack-transform.a(rewrite.o)
 *fill*         0x0000000000405ab4        0xc 
 .text.st_rewrite_stack
                0x0000000000405ac0      0x76b 0x10 /usr/local/popcorn/x86_64/lib/libstack-transform.a(rewrite.o)
                0x0000000000405ac0                st_rewrite_stack
 *fill*         0x000000000040622b        0x5 
 .text.rewrite_frame
                0x0000000000406230      0x45d 0x10 /usr/local/popcorn/x86_64/lib/libstack-transform.a(rewrite.o)
 *fill*         0x000000000040668d        0x3 
 .text.st_rewrite_ondemand
                0x0000000000406690       0x26 0x10 /usr/local/popcorn/x86_64/lib/libstack-transform.a(rewrite.o)
                0x0000000000406690                st_rewrite_ondemand
 *fill*         0x00000000004066b6        0xa 
 .text.rewrite_val
                0x00000000004066c0      0x2b4 0x10 /usr/local/popcorn/x86_64/lib/libstack-transform.a(rewrite.o)
 .text          0x0000000000406974        0x0 0x4 /usr/local/popcorn/x86_64/lib/libstack-transform.a(unwind.o)
 *fill*         0x0000000000406974        0xc 
 .text.first_frame
                0x0000000000406980        0x8 0x10 /usr/local/popcorn/x86_64/lib/libstack-transform.a(unwind.o)
                0x0000000000406980                first_frame
 *fill*         0x0000000000406988        0x8 
 .text.calculate_cfa
                0x0000000000406990       0x2d 0x10 /usr/local/popcorn/x86_64/lib/libstack-transform.a(unwind.o)
                0x0000000000406990                calculate_cfa
 *fill*         0x00000000004069bd        0x3 
 .text.bootstrap_first_frame
                0x00000000004069c0       0x2d 0x10 /usr/local/popcorn/x86_64/lib/libstack-transform.a(unwind.o)
                0x00000000004069c0                bootstrap_first_frame
 *fill*         0x00000000004069ed        0x3 
 .text.bootstrap_first_frame_funcentry
                0x00000000004069f0       0x4b 0x10 /usr/local/popcorn/x86_64/lib/libstack-transform.a(unwind.o)
                0x00000000004069f0                bootstrap_first_frame_funcentry
 *fill*         0x0000000000406a3b        0x5 
 .text.pop_frame
                0x0000000000406a40      0x21b 0x10 /usr/local/popcorn/x86_64/lib/libstack-transform.a(unwind.o)
                0x0000000000406a40                pop_frame
 *fill*         0x0000000000406c5b        0x5 
 .text.pop_frame_funcentry
                0x0000000000406c60      0x14b 0x10 /usr/local/popcorn/x86_64/lib/libstack-transform.a(unwind.o)
                0x0000000000406c60                pop_frame_funcentry
 *fill*         0x0000000000406dab        0x5 
 .text.get_register_save_loc
                0x0000000000406db0       0x63 0x10 /usr/local/popcorn/x86_64/lib/libstack-transform.a(unwind.o)
                0x0000000000406db0                get_register_save_loc
 *fill*         0x0000000000406e13        0xd 
 .text.clear_activation
                0x0000000000406e20       0x48 0x10 /usr/local/popcorn/x86_64/lib/libstack-transform.a(unwind.o)
                0x0000000000406e20                clear_activation
 .text          0x0000000000406e68        0x0 0x4 /usr/local/popcorn/x86_64/lib/libstack-transform.a(util.o)
 *fill*         0x0000000000406e68        0x8 
 .text.arch_name
                0x0000000000406e70       0x48 0x10 /usr/local/popcorn/x86_64/lib/libstack-transform.a(util.o)
                0x0000000000406e70                arch_name
 *fill*         0x0000000000406eb8        0x8 
 .text.get_regops
                0x0000000000406ec0       0x45 0x10 /usr/local/popcorn/x86_64/lib/libstack-transform.a(util.o)
                0x0000000000406ec0                get_regops
 *fill*         0x0000000000406f05        0xb 
 .text.get_properties
                0x0000000000406f10       0x45 0x10 /usr/local/popcorn/x86_64/lib/libstack-transform.a(util.o)
                0x0000000000406f10                get_properties
 *fill*         0x0000000000406f55        0xb 
 .text.get_section
                0x0000000000406f60       0xac 0x10 /usr/local/popcorn/x86_64/lib/libstack-transform.a(util.o)
                0x0000000000406f60                get_section
 *fill*         0x000000000040700c        0x4 
 .text.get_num_entries
                0x0000000000407010       0x59 0x10 /usr/local/popcorn/x86_64/lib/libstack-transform.a(util.o)
                0x0000000000407010                get_num_entries
 *fill*         0x0000000000407069        0x7 
 .text.get_section_data
                0x0000000000407070       0x24 0x10 /usr/local/popcorn/x86_64/lib/libstack-transform.a(util.o)
                0x0000000000407070                get_section_data
 *fill*         0x0000000000407094        0xc 
 .text.get_site_by_addr
                0x00000000004070a0       0x8a 0x10 /usr/local/popcorn/x86_64/lib/libstack-transform.a(util.o)
                0x00000000004070a0                get_site_by_addr
 *fill*         0x000000000040712a        0x6 
 .text.get_site_by_id
                0x0000000000407130       0x84 0x10 /usr/local/popcorn/x86_64/lib/libstack-transform.a(util.o)
                0x0000000000407130                get_site_by_id
 *fill*         0x00000000004071b4        0xc 
 .text.get_unwind_offset_by_addr
                0x00000000004071c0       0x8c 0x10 /usr/local/popcorn/x86_64/lib/libstack-transform.a(util.o)
                0x00000000004071c0                get_unwind_offset_by_addr
 *fill*         0x000000000040724c        0x4 
 .text.get_function_address
                0x0000000000407250       0x84 0x10 /usr/local/popcorn/x86_64/lib/libstack-transform.a(util.o)
                0x0000000000407250                get_function_address
 .text          0x00000000004072d4        0x0 0x4 /usr/local/popcorn/x86_64/lib/libstack-transform.a(properties.o)
 *fill*         0x00000000004072d4        0xc 
 .text.align_sp_aarch64
                0x00000000004072e0        0xb 0x10 /usr/local/popcorn/x86_64/lib/libstack-transform.a(properties.o)
 *fill*         0x00000000004072eb        0x5 
 .text.is_callee_saved_aarch64
                0x00000000004072f0       0x1e 0x10 /usr/local/popcorn/x86_64/lib/libstack-transform.a(properties.o)
 *fill*         0x000000000040730e        0x2 
 .text.callee_reg_size_aarch64
                0x0000000000407310       0x42 0x10 /usr/local/popcorn/x86_64/lib/libstack-transform.a(properties.o)
 *fill*         0x0000000000407352        0x2 
 .text          0x0000000000407354        0x0 0x4 /usr/local/popcorn/x86_64/lib/libstack-transform.a(regs.o)
 *fill*         0x0000000000407354        0xc 
 .text.regset_default_aarch64
                0x0000000000407360        0xf 0x10 /usr/local/popcorn/x86_64/lib/libstack-transform.a(regs.o)
 *fill*         0x000000000040736f        0x1 
 .text.regset_init_aarch64
                0x0000000000407370       0x1f 0x10 /usr/local/popcorn/x86_64/lib/libstack-transform.a(regs.o)
 *fill*         0x000000000040738f        0x1 
 .text.regset_free_aarch64
                0x0000000000407390        0x5 0x10 /usr/local/popcorn/x86_64/lib/libstack-transform.a(regs.o)
 *fill*         0x0000000000407395        0xb 
 .text.regset_clone_aarch64
                0x00000000004073a0       0x13 0x10 /usr/local/popcorn/x86_64/lib/libstack-transform.a(regs.o)
 *fill*         0x00000000004073b3        0xd 
 .text.regset_copyin_aarch64
                0x00000000004073c0        0xa 0x10 /usr/local/popcorn/x86_64/lib/libstack-transform.a(regs.o)
 *fill*         0x00000000004073ca        0x6 
 .text.regset_copyout_aarch64
                0x00000000004073d0       0x13 0x10 /usr/local/popcorn/x86_64/lib/libstack-transform.a(regs.o)
 *fill*         0x00000000004073e3        0xd 
 .text.pc_aarch64
                0x00000000004073f0        0x5 0x10 /usr/local/popcorn/x86_64/lib/libstack-transform.a(regs.o)
 *fill*         0x00000000004073f5        0xb 
 .text.sp_aarch64
                0x0000000000407400        0x4 0x10 /usr/local/popcorn/x86_64/lib/libstack-transform.a(regs.o)
 *fill*         0x0000000000407404        0xc 
 .text.fbp_aarch64
                0x0000000000407410        0x8 0x10 /usr/local/popcorn/x86_64/lib/libstack-transform.a(regs.o)
 *fill*         0x0000000000407418        0x8 
 .text.ra_reg_aarch64
                0x0000000000407420        0x8 0x10 /usr/local/popcorn/x86_64/lib/libstack-transform.a(regs.o)
 *fill*         0x0000000000407428        0x8 
 .text.set_pc_aarch64
                0x0000000000407430        0x5 0x10 /usr/local/popcorn/x86_64/lib/libstack-transform.a(regs.o)
 *fill*         0x0000000000407435        0xb 
 .text.set_sp_aarch64
                0x0000000000407440        0x4 0x10 /usr/local/popcorn/x86_64/lib/libstack-transform.a(regs.o)
 *fill*         0x0000000000407444        0xc 
 .text.set_fbp_aarch64
                0x0000000000407450        0x8 0x10 /usr/local/popcorn/x86_64/lib/libstack-transform.a(regs.o)
 *fill*         0x0000000000407458        0x8 
 .text.set_ra_reg_aarch64
                0x0000000000407460        0x8 0x10 /usr/local/popcorn/x86_64/lib/libstack-transform.a(regs.o)
 *fill*         0x0000000000407468        0x8 
 .text.setup_fbp_aarch64
                0x0000000000407470        0xc 0x10 /usr/local/popcorn/x86_64/lib/libstack-transform.a(regs.o)
 *fill*         0x000000000040747c        0x4 
 .text.reg_size_aarch64
                0x0000000000407480       0x39 0x10 /usr/local/popcorn/x86_64/lib/libstack-transform.a(regs.o)
 *fill*         0x00000000004074b9        0x7 
 .text.reg_aarch64
                0x00000000004074c0      0x211 0x10 /usr/local/popcorn/x86_64/lib/libstack-transform.a(regs.o)
 *fill*         0x00000000004076d1        0x3 
 .text          0x00000000004076d4        0x0 0x4 /usr/local/popcorn/x86_64/lib/libstack-transform.a(properties.o)
 *fill*         0x00000000004076d4        0xc 
 .text.align_sp_powerpc64
                0x00000000004076e0       0x14 0x10 /usr/local/popcorn/x86_64/lib/libstack-transform.a(properties.o)
 *fill*         0x00000000004076f4        0xc 
 .text.is_callee_saved_powerpc64
                0x0000000000407700       0x19 0x10 /usr/local/popcorn/x86_64/lib/libstack-transform.a(properties.o)
 *fill*         0x0000000000407719        0x7 
 .text.callee_reg_size_powerpc64
                0x0000000000407720       0x3a 0x10 /usr/local/popcorn/x86_64/lib/libstack-transform.a(properties.o)
 *fill*         0x000000000040775a        0x2 
 .text          0x000000000040775c        0x0 0x4 /usr/local/popcorn/x86_64/lib/libstack-transform.a(regs.o)
 *fill*         0x000000000040775c        0x4 
 .text.regset_default_powerpc64
                0x0000000000407760        0xf 0x10 /usr/local/popcorn/x86_64/lib/libstack-transform.a(regs.o)
 *fill*         0x000000000040776f        0x1 
 .text.regset_init_powerpc64
                0x0000000000407770       0x1f 0x10 /usr/local/popcorn/x86_64/lib/libstack-transform.a(regs.o)
 *fill*         0x000000000040778f        0x1 
 .text.regset_free_powerpc64
                0x0000000000407790        0x5 0x10 /usr/local/popcorn/x86_64/lib/libstack-transform.a(regs.o)
 *fill*         0x0000000000407795        0xb 
 .text.regset_clone_powerpc64
                0x00000000004077a0       0x13 0x10 /usr/local/popcorn/x86_64/lib/libstack-transform.a(regs.o)
 *fill*         0x00000000004077b3        0xd 
 .text.regset_copyin_powerpc64
                0x00000000004077c0        0xa 0x10 /usr/local/popcorn/x86_64/lib/libstack-transform.a(regs.o)
 *fill*         0x00000000004077ca        0x6 
 .text.regset_copyout_powerpc64
                0x00000000004077d0       0x13 0x10 /usr/local/popcorn/x86_64/lib/libstack-transform.a(regs.o)
 *fill*         0x00000000004077e3        0xd 
 .text.pc_powerpc64
                0x00000000004077f0        0x4 0x10 /usr/local/popcorn/x86_64/lib/libstack-transform.a(regs.o)
 *fill*         0x00000000004077f4        0xc 
 .text.sp_powerpc64
                0x0000000000407800        0x5 0x10 /usr/local/popcorn/x86_64/lib/libstack-transform.a(regs.o)
 *fill*         0x0000000000407805        0xb 
 .text.fbp_powerpc64
                0x0000000000407810        0x8 0x10 /usr/local/popcorn/x86_64/lib/libstack-transform.a(regs.o)
 *fill*         0x0000000000407818        0x8 
 .text.ra_reg_powerpc64
                0x0000000000407820        0x5 0x10 /usr/local/popcorn/x86_64/lib/libstack-transform.a(regs.o)
 *fill*         0x0000000000407825        0xb 
 .text.set_pc_powerpc64
                0x0000000000407830        0x4 0x10 /usr/local/popcorn/x86_64/lib/libstack-transform.a(regs.o)
 *fill*         0x0000000000407834        0xc 
 .text.set_sp_powerpc64
                0x0000000000407840        0x5 0x10 /usr/local/popcorn/x86_64/lib/libstack-transform.a(regs.o)
 *fill*         0x0000000000407845        0xb 
 .text.set_fbp_powerpc64
                0x0000000000407850        0x8 0x10 /usr/local/popcorn/x86_64/lib/libstack-transform.a(regs.o)
 *fill*         0x0000000000407858        0x8 
 .text.set_ra_reg_powerpc64
                0x0000000000407860        0x5 0x10 /usr/local/popcorn/x86_64/lib/libstack-transform.a(regs.o)
 *fill*         0x0000000000407865        0xb 
 .text.setup_fbp_powerpc64
                0x0000000000407870        0xc 0x10 /usr/local/popcorn/x86_64/lib/libstack-transform.a(regs.o)
 *fill*         0x000000000040787c        0x4 
 .text.reg_size_powerpc64
                0x0000000000407880       0x42 0x10 /usr/local/popcorn/x86_64/lib/libstack-transform.a(regs.o)
 *fill*         0x00000000004078c2        0xe 
 .text.reg_powerpc64
                0x00000000004078d0      0x2c6 0x10 /usr/local/popcorn/x86_64/lib/libstack-transform.a(regs.o)
 *fill*         0x0000000000407b96        0x2 
 .text          0x0000000000407b98        0x0 0x4 /usr/local/popcorn/x86_64/lib/libstack-transform.a(properties.o)
 *fill*         0x0000000000407b98        0x8 
 .text.align_sp_riscv64
                0x0000000000407ba0        0xb 0x10 /usr/local/popcorn/x86_64/lib/libstack-transform.a(properties.o)
 *fill*         0x0000000000407bab        0x5 
 .text.is_callee_saved_riscv64
                0x0000000000407bb0       0x1e 0x10 /usr/local/popcorn/x86_64/lib/libstack-transform.a(properties.o)
 *fill*         0x0000000000407bce        0x2 
 .text.callee_reg_size_riscv64
                0x0000000000407bd0       0x3e 0x10 /usr/local/popcorn/x86_64/lib/libstack-transform.a(properties.o)
 *fill*         0x0000000000407c0e        0x2 
 .text          0x0000000000407c10        0x0 0x4 /usr/local/popcorn/x86_64/lib/libstack-transform.a(regs.o)
 .text.regset_default_riscv64
                0x0000000000407c10        0xf 0x10 /usr/local/popcorn/x86_64/lib/libstack-transform.a(regs.o)
 *fill*         0x0000000000407c1f        0x1 
 .text.regset_init_riscv64
                0x0000000000407c20       0x1f 0x10 /usr/local/popcorn/x86_64/lib/libstack-transform.a(regs.o)
 *fill*         0x0000000000407c3f        0x1 
 .text.regset_free_riscv64
                0x0000000000407c40        0x5 0x10 /usr/local/popcorn/x86_64/lib/libstack-transform.a(regs.o)
 *fill*         0x0000000000407c45        0xb 
 .text.regset_clone_riscv64
                0x0000000000407c50       0x13 0x10 /usr/local/popcorn/x86_64/lib/libstack-transform.a(regs.o)
 *fill*         0x0000000000407c63        0xd 
 .text.regset_copyin_riscv64
                0x0000000000407c70        0xa 0x10 /usr/local/popcorn/x86_64/lib/libstack-transform.a(regs.o)
 *fill*         0x0000000000407c7a        0x6 
 .text.regset_copyout_riscv64
                0x0000000000407c80       0x13 0x10 /usr/local/popcorn/x86_64/lib/libstack-transform.a(regs.o)
 *fill*         0x0000000000407c93        0xd 
 .text.pc_riscv64
                0x0000000000407ca0        0x4 0x10 /usr/local/popcorn/x86_64/lib/libstack-transform.a(regs.o)
 *fill*         0x0000000000407ca4        0xc 
 .text.sp_riscv64
                0x0000000000407cb0        0x5 0x10 /usr/local/popcorn/x86_64/lib/libstack-transform.a(regs.o)
 *fill*         0x0000000000407cb5        0xb 
 .text.fbp_riscv64
                0x0000000000407cc0        0x5 0x10 /usr/local/popcorn/x86_64/lib/libstack-transform.a(regs.o)
 *fill*         0x0000000000407cc5        0xb 
 .text.ra_reg_riscv64
                0x0000000000407cd0        0x5 0x10 /usr/local/popcorn/x86_64/lib/libstack-transform.a(regs.o)
 *fill*         0x0000000000407cd5        0xb 
 .text.set_pc_riscv64
                0x0000000000407ce0        0x4 0x10 /usr/local/popcorn/x86_64/lib/libstack-transform.a(regs.o)
 *fill*         0x0000000000407ce4        0xc 
 .text.set_sp_riscv64
                0x0000000000407cf0        0x5 0x10 /usr/local/popcorn/x86_64/lib/libstack-transform.a(regs.o)
 *fill*         0x0000000000407cf5        0xb 
 .text.set_fbp_riscv64
                0x0000000000407d00        0x5 0x10 /usr/local/popcorn/x86_64/lib/libstack-transform.a(regs.o)
 *fill*         0x0000000000407d05        0xb 
 .text.set_ra_reg_riscv64
                0x0000000000407d10        0x5 0x10 /usr/local/popcorn/x86_64/lib/libstack-transform.a(regs.o)
 *fill*         0x0000000000407d15        0xb 
 .text.setup_fbp_riscv64
                0x0000000000407d20        0x9 0x10 /usr/local/popcorn/x86_64/lib/libstack-transform.a(regs.o)
 *fill*         0x0000000000407d29        0x7 
 .text.reg_size_riscv64
                0x0000000000407d30       0x2c 0x10 /usr/local/popcorn/x86_64/lib/libstack-transform.a(regs.o)
 *fill*         0x0000000000407d5c        0x4 
 .text.reg_riscv64
                0x0000000000407d60       0x33 0x10 /usr/local/popcorn/x86_64/lib/libstack-transform.a(regs.o)
 *fill*         0x0000000000407d93        0x1 
 .text          0x0000000000407d94        0x0 0x4 /usr/local/popcorn/x86_64/lib/libstack-transform.a(properties.o)
 *fill*         0x0000000000407d94        0xc 
 .text.align_sp_x86_64
                0x0000000000407da0        0xf 0x10 /usr/local/popcorn/x86_64/lib/libstack-transform.a(properties.o)
 *fill*         0x0000000000407daf        0x1 
 .text.is_callee_saved_x86_64
                0x0000000000407db0       0x18 0x10 /usr/local/popcorn/x86_64/lib/libstack-transform.a(properties.o)
 *fill*         0x0000000000407dc8        0x8 
 .text.callee_reg_size_x86_64
                0x0000000000407dd0       0x3b 0x10 /usr/local/popcorn/x86_64/lib/libstack-transform.a(properties.o)
 *fill*         0x0000000000407e0b        0x1 
 .text          0x0000000000407e0c        0x0 0x4 /usr/local/popcorn/x86_64/lib/libstack-transform.a(regs.o)
 *fill*         0x0000000000407e0c        0x4 
 .text.regset_default_x86_64
                0x0000000000407e10        0xf 0x10 /usr/local/popcorn/x86_64/lib/libstack-transform.a(regs.o)
 *fill*         0x0000000000407e1f        0x1 
 .text.regset_init_x86_64
                0x0000000000407e20       0x1f 0x10 /usr/local/popcorn/x86_64/lib/libstack-transform.a(regs.o)
 *fill*         0x0000000000407e3f        0x1 
 .text.regset_free_x86_64
                0x0000000000407e40        0x5 0x10 /usr/local/popcorn/x86_64/lib/libstack-transform.a(regs.o)
 *fill*         0x0000000000407e45        0xb 
 .text.regset_clone_x86_64
                0x0000000000407e50       0x13 0x10 /usr/local/popcorn/x86_64/lib/libstack-transform.a(regs.o)
 *fill*         0x0000000000407e63        0xd 
 .text.regset_copyin_x86_64
                0x0000000000407e70        0xa 0x10 /usr/local/popcorn/x86_64/lib/libstack-transform.a(regs.o)
 *fill*         0x0000000000407e7a        0x6 
 .text.regset_copyout_x86_64
                0x0000000000407e80       0x13 0x10 /usr/local/popcorn/x86_64/lib/libstack-transform.a(regs.o)
 *fill*         0x0000000000407e93        0xd 
 .text.pc_x86_64
                0x0000000000407ea0        0x4 0x10 /usr/local/popcorn/x86_64/lib/libstack-transform.a(regs.o)
 *fill*         0x0000000000407ea4        0xc 
 .text.sp_x86_64
                0x0000000000407eb0        0x5 0x10 /usr/local/popcorn/x86_64/lib/libstack-transform.a(regs.o)
 *fill*         0x0000000000407eb5        0xb 
 .text.fbp_x86_64
                0x0000000000407ec0        0x5 0x10 /usr/local/popcorn/x86_64/lib/libstack-transform.a(regs.o)
 *fill*         0x0000000000407ec5        0xb 
 .text.ra_reg_x86_64
                0x0000000000407ed0       0x26 0x10 /usr/local/popcorn/x86_64/lib/libstack-transform.a(regs.o)
 *fill*         0x0000000000407ef6        0xa 
 .text.set_pc_x86_64
                0x0000000000407f00        0x4 0x10 /usr/local/popcorn/x86_64/lib/libstack-transform.a(regs.o)
 *fill*         0x0000000000407f04        0xc 
 .text.set_sp_x86_64
                0x0000000000407f10        0x5 0x10 /usr/local/popcorn/x86_64/lib/libstack-transform.a(regs.o)
 *fill*         0x0000000000407f15        0xb 
 .text.set_fbp_x86_64
                0x0000000000407f20        0x5 0x10 /usr/local/popcorn/x86_64/lib/libstack-transform.a(regs.o)
 *fill*         0x0000000000407f25        0xb 
 .text.set_ra_reg_x86_64
                0x0000000000407f30       0x26 0x10 /usr/local/popcorn/x86_64/lib/libstack-transform.a(regs.o)
 *fill*         0x0000000000407f56        0xa 
 .text.setup_fbp_x86_64
                0x0000000000407f60        0x9 0x10 /usr/local/popcorn/x86_64/lib/libstack-transform.a(regs.o)
 *fill*         0x0000000000407f69        0x7 
 .text.reg_size_x86_64
                0x0000000000407f70       0x35 0x10 /usr/local/popcorn/x86_64/lib/libstack-transform.a(regs.o)
 *fill*         0x0000000000407fa5        0xb 
 .text.reg_x86_64
                0x0000000000407fb0      0x117 0x10 /usr/local/popcorn/x86_64/lib/libstack-transform.a(regs.o)
 *fill*         0x00000000004080c7        0x1 
 .text          0x00000000004080c8        0x0 0x4 /usr/local/popcorn/x86_64/lib/libstack-transform.a(data.o)
 *fill*         0x00000000004080c8        0x8 
 .text.put_val  0x00000000004080d0      0x22f 0x10 /usr/local/popcorn/x86_64/lib/libstack-transform.a(data.o)
                0x00000000004080d0                put_val
 *fill*         0x00000000004082ff        0x1 
 .text.get_dest_loc
                0x0000000000408300       0xa8 0x10 /usr/local/popcorn/x86_64/lib/libstack-transform.a(data.o)
 *fill*         0x00000000004083a8        0x8 
 .text.put_val_arch
                0x00000000004083b0      0x42f 0x10 /usr/local/popcorn/x86_64/lib/libstack-transform.a(data.o)
                0x00000000004083b0                put_val_arch
 *fill*         0x00000000004087df        0x1 
 .text.put_val_data
                0x00000000004087e0       0xd7 0x10 /usr/local/popcorn/x86_64/lib/libstack-transform.a(data.o)
                0x00000000004087e0                put_val_data
 *fill*         0x00000000004088b7        0x9 
 .text.points_to_stack
                0x00000000004088c0      0x123 0x10 /usr/local/popcorn/x86_64/lib/libstack-transform.a(data.o)
                0x00000000004088c0                points_to_stack
 *fill*         0x00000000004089e3        0xd 
 .text.points_to_data
                0x00000000004089f0      0x142 0x10 /usr/local/popcorn/x86_64/lib/libstack-transform.a(data.o)
                0x00000000004089f0                points_to_data
 *fill*         0x0000000000408b32        0xe 
 .text.set_return_address
                0x0000000000408b40       0x1d 0x10 /usr/local/popcorn/x86_64/lib/libstack-transform.a(data.o)
                0x0000000000408b40                set_return_address
 *fill*         0x0000000000408b5d        0x3 
 .text.set_return_address_funcentry
                0x0000000000408b60       0x3d 0x10 /usr/local/popcorn/x86_64/lib/libstack-transform.a(data.o)
                0x0000000000408b60                set_return_address_funcentry
 *fill*         0x0000000000408b9d        0x3 
 .text.get_savedfbp_loc
                0x0000000000408ba0       0x6f 0x10 /usr/local/popcorn/x86_64/lib/libstack-transform.a(data.o)
                0x0000000000408ba0                get_savedfbp_loc
 *fill*         0x0000000000408c0f        0x1 
 .text          0x0000000000408c10        0x0 0x4 /usr/local/popcorn/x86_64/lib/libelf.a(begin.o)
 .text.elf_begin
                0x0000000000408c10      0xda5 0x10 /usr/local/popcorn/x86_64/lib/libelf.a(begin.o)
                0x0000000000408c10                elf_begin
 *fill*         0x00000000004099b5        0xb 
 .text._elf_check_type
                0x00000000004099c0      0x260 0x10 /usr/local/popcorn/x86_64/lib/libelf.a(begin.o)
 .text.elf_memory
                0x0000000000409c20       0x88 0x10 /usr/local/popcorn/x86_64/lib/libelf.a(begin.o)
                0x0000000000409c20                elf_memory
 *fill*         0x0000000000409ca8        0x8 
 .text.gelf_getclass
                0x0000000000409cb0       0x1c 0x10 /usr/local/popcorn/x86_64/lib/libelf.a(begin.o)
                0x0000000000409cb0                gelf_getclass
 .text          0x0000000000409ccc        0x0 0x4 /usr/local/popcorn/x86_64/lib/libelf.a(end.o)
 *fill*         0x0000000000409ccc        0x4 
 .text.elf_end  0x0000000000409cd0      0x200 0x10 /usr/local/popcorn/x86_64/lib/libelf.a(end.o)
                0x0000000000409cd0                elf_end
 .text          0x0000000000409ed0        0x0 0x4 /usr/local/popcorn/x86_64/lib/libelf.a(getdata.o)
 .text.elf_getdata
                0x0000000000409ed0      0x24a 0x10 /usr/local/popcorn/x86_64/lib/libelf.a(getdata.o)
                0x0000000000409ed0                elf_getdata
 *fill*         0x000000000040a11a        0x2 
 .text          0x000000000040a11c        0x0 0x4 /usr/local/popcorn/x86_64/lib/libelf.a(getident.o)
 *fill*         0x000000000040a11c        0x4 
 .text.elf_getident
                0x000000000040a120       0x6e 0x10 /usr/local/popcorn/x86_64/lib/libelf.a(getident.o)
                0x000000000040a120                elf_getident
 *fill*         0x000000000040a18e        0x2 
 .text          0x000000000040a190        0x0 0x4 /usr/local/popcorn/x86_64/lib/libelf.a(nextscn.o)
 .text.elf_nextscn
                0x000000000040a190       0x7e 0x10 /usr/local/popcorn/x86_64/lib/libelf.a(nextscn.o)
                0x000000000040a190                elf_nextscn
 *fill*         0x000000000040a20e        0x2 
 .text          0x000000000040a210        0x0 0x4 /usr/local/popcorn/x86_64/lib/libelf.a(strptr.o)
 .text.elf_strptr
                0x000000000040a210      0x166 0x10 /usr/local/popcorn/x86_64/lib/libelf.a(strptr.o)
                0x000000000040a210                elf_strptr
 *fill*         0x000000000040a376        0x2 
 .text          0x000000000040a378        0x0 0x4 /usr/local/popcorn/x86_64/lib/libelf.a(version.o)
 *fill*         0x000000000040a378        0x8 
 .text.elf_version
                0x000000000040a380       0x5e 0x10 /usr/local/popcorn/x86_64/lib/libelf.a(version.o)
                0x000000000040a380                elf_version
 *fill*         0x000000000040a3de        0x2 
 .text          0x000000000040a3e0        0x0 0x4 /usr/local/popcorn/x86_64/lib/libelf.a(32.getehdr.o)
 .text._elf_getehdr
                0x000000000040a3e0       0x5a 0x10 /usr/local/popcorn/x86_64/lib/libelf.a(32.getehdr.o)
                0x000000000040a3e0                _elf_getehdr
 *fill*         0x000000000040a43a        0x6 
 .text.elf32_getehdr
                0x000000000040a440       0x5b 0x10 /usr/local/popcorn/x86_64/lib/libelf.a(32.getehdr.o)
                0x000000000040a440                elf32_getehdr
 *fill*         0x000000000040a49b        0x5 
 .text.elf64_getehdr
                0x000000000040a4a0       0x5b 0x10 /usr/local/popcorn/x86_64/lib/libelf.a(32.getehdr.o)
                0x000000000040a4a0                elf64_getehdr
 *fill*         0x000000000040a4fb        0x1 
 .text          0x000000000040a4fc        0x0 0x4 /usr/local/popcorn/x86_64/lib/libelf.a(32.xlatetof.o)
 *fill*         0x000000000040a4fc        0x4 
 .text._elf32_xltsize
                0x000000000040a500       0x8a 0x10 /usr/local/popcorn/x86_64/lib/libelf.a(32.xlatetof.o)
                0x000000000040a500                _elf32_xltsize
 *fill*         0x000000000040a58a        0x6 
 .text.elf32_xlatetom
                0x000000000040a590       0xfb 0x10 /usr/local/popcorn/x86_64/lib/libelf.a(32.xlatetof.o)
                0x000000000040a590                elf32_xlatetom
 *fill*         0x000000000040a68b        0x5 
 .text.elf32_xlatetof
                0x000000000040a690       0xfb 0x10 /usr/local/popcorn/x86_64/lib/libelf.a(32.xlatetof.o)
                0x000000000040a690                elf32_xlatetof
 *fill*         0x000000000040a78b        0x5 
 .text.byte_copy
                0x000000000040a790       0x20 0x10 /usr/local/popcorn/x86_64/lib/libelf.a(32.xlatetof.o)
 .text.addr_32L__tom
                0x000000000040a7b0       0xcf 0x10 /usr/local/popcorn/x86_64/lib/libelf.a(32.xlatetof.o)
 *fill*         0x000000000040a87f        0x1 
 .text.addr_32L__tof
                0x000000000040a880       0xa9 0x10 /usr/local/popcorn/x86_64/lib/libelf.a(32.xlatetof.o)
 *fill*         0x000000000040a929        0x7 
 .text.dyn_32L11_tom
                0x000000000040a930       0x3c 0x10 /usr/local/popcorn/x86_64/lib/libelf.a(32.xlatetof.o)
 *fill*         0x000000000040a96c        0x4 
 .text.dyn_32L11_tof
                0x000000000040a970       0x74 0x10 /usr/local/popcorn/x86_64/lib/libelf.a(32.xlatetof.o)
 *fill*         0x000000000040a9e4        0xc 
 .text.ehdr_32L11_tom
                0x000000000040a9f0       0xc1 0x10 /usr/local/popcorn/x86_64/lib/libelf.a(32.xlatetof.o)
 *fill*         0x000000000040aab1        0xf 
 .text.ehdr_32L11_tof
                0x000000000040aac0      0x166 0x10 /usr/local/popcorn/x86_64/lib/libelf.a(32.xlatetof.o)
 *fill*         0x000000000040ac26        0xa 
 .text.half_32L__tom
                0x000000000040ac30      0x139 0x10 /usr/local/popcorn/x86_64/lib/libelf.a(32.xlatetof.o)
 *fill*         0x000000000040ad69        0x7 
 .text.half_32L__tof
                0x000000000040ad70      0x159 0x10 /usr/local/popcorn/x86_64/lib/libelf.a(32.xlatetof.o)
 *fill*         0x000000000040aec9        0x7 
 .text.off_32L__tom
                0x000000000040aed0       0xcf 0x10 /usr/local/popcorn/x86_64/lib/libelf.a(32.xlatetof.o)
 *fill*         0x000000000040af9f        0x1 
 .text.off_32L__tof
                0x000000000040afa0       0xa9 0x10 /usr/local/popcorn/x86_64/lib/libelf.a(32.xlatetof.o)
 *fill*         0x000000000040b049        0x7 
 .text.phdr_32L11_tom
                0x000000000040b050       0x6e 0x10 /usr/local/popcorn/x86_64/lib/libelf.a(32.xlatetof.o)
 *fill*         0x000000000040b0be        0x2 
 .text.phdr_32L11_tof
                0x000000000040b0c0      0x151 0x10 /usr/local/popcorn/x86_64/lib/libelf.a(32.xlatetof.o)
 *fill*         0x000000000040b211        0xf 
 .text.rela_32L11_tom
                0x000000000040b220       0x5c 0x10 /usr/local/popcorn/x86_64/lib/libelf.a(32.xlatetof.o)
 *fill*         0x000000000040b27c        0x4 
 .text.rela_32L11_tof
                0x000000000040b280       0xb0 0x10 /usr/local/popcorn/x86_64/lib/libelf.a(32.xlatetof.o)
 .text.rel_32L11_tom
                0x000000000040b330       0x3c 0x10 /usr/local/popcorn/x86_64/lib/libelf.a(32.xlatetof.o)
 *fill*         0x000000000040b36c        0x4 
 .text.rel_32L11_tof
                0x000000000040b370       0x74 0x10 /usr/local/popcorn/x86_64/lib/libelf.a(32.xlatetof.o)
 *fill*         0x000000000040b3e4        0xc 
 .text.shdr_32L11_tom
                0x000000000040b3f0       0x95 0x10 /usr/local/popcorn/x86_64/lib/libelf.a(32.xlatetof.o)
 *fill*         0x000000000040b485        0xb 
 .text.shdr_32L11_tof
                0x000000000040b490      0x1c0 0x10 /usr/local/popcorn/x86_64/lib/libelf.a(32.xlatetof.o)
 .text.sword_32L__tom
                0x000000000040b650       0xcf 0x10 /usr/local/popcorn/x86_64/lib/libelf.a(32.xlatetof.o)
 *fill*         0x000000000040b71f        0x1 
 .text.sword_32L__tof
                0x000000000040b720       0xa9 0x10 /usr/local/popcorn/x86_64/lib/libelf.a(32.xlatetof.o)
 *fill*         0x000000000040b7c9        0x7 
 .text.sym_32L11_tom
                0x000000000040b7d0       0x61 0x10 /usr/local/popcorn/x86_64/lib/libelf.a(32.xlatetof.o)
 *fill*         0x000000000040b831        0xf 
 .text.sym_32L11_tof
                0x000000000040b840       0xc1 0x10 /usr/local/popcorn/x86_64/lib/libelf.a(32.xlatetof.o)
 *fill*         0x000000000040b901        0xf 
 .text.word_32L__tom
                0x000000000040b910       0xcf 0x10 /usr/local/popcorn/x86_64/lib/libelf.a(32.xlatetof.o)
 *fill*         0x000000000040b9df        0x1 
 .text.word_32L__tof
                0x000000000040b9e0       0xa9 0x10 /usr/local/popcorn/x86_64/lib/libelf.a(32.xlatetof.o)
 *fill*         0x000000000040ba89        0x7 
 .text.addr_32M__tom
                0x000000000040ba90      0x11f 0x10 /usr/local/popcorn/x86_64/lib/libelf.a(32.xlatetof.o)
 *fill*         0x000000000040bbaf        0x1 
 .text.addr_32M__tof
                0x000000000040bbb0       0xa9 0x10 /usr/local/popcorn/x86_64/lib/libelf.a(32.xlatetof.o)
 *fill*         0x000000000040bc59        0x7 
 .text.dyn_32M11_tom
                0x000000000040bc60       0x40 0x10 /usr/local/popcorn/x86_64/lib/libelf.a(32.xlatetof.o)
 .text.dyn_32M11_tof
                0x000000000040bca0       0x74 0x10 /usr/local/popcorn/x86_64/lib/libelf.a(32.xlatetof.o)
 *fill*         0x000000000040bd14        0xc 
 .text.ehdr_32M11_tom
                0x000000000040bd20       0xf2 0x10 /usr/local/popcorn/x86_64/lib/libelf.a(32.xlatetof.o)
 *fill*         0x000000000040be12        0xe 
 .text.ehdr_32M11_tof
                0x000000000040be20      0x166 0x10 /usr/local/popcorn/x86_64/lib/libelf.a(32.xlatetof.o)
 *fill*         0x000000000040bf86        0xa 
 .text.half_32M__tom
                0x000000000040bf90      0x185 0x10 /usr/local/popcorn/x86_64/lib/libelf.a(32.xlatetof.o)
 *fill*         0x000000000040c115        0xb 
 .text.half_32M__tof
                0x000000000040c120      0x195 0x10 /usr/local/popcorn/x86_64/lib/libelf.a(32.xlatetof.o)
 *fill*         0x000000000040c2b5        0xb 
 .text.off_32M__tom
                0x000000000040c2c0      0x11f 0x10 /usr/local/popcorn/x86_64/lib/libelf.a(32.xlatetof.o)
 *fill*         0x000000000040c3df        0x1 
 .text.off_32M__tof
                0x000000000040c3e0       0xa9 0x10 /usr/local/popcorn/x86_64/lib/libelf.a(32.xlatetof.o)
 *fill*         0x000000000040c489        0x7 
 .text.phdr_32M11_tom
                0x000000000040c490       0x7d 0x10 /usr/local/popcorn/x86_64/lib/libelf.a(32.xlatetof.o)
 *fill*         0x000000000040c50d        0x3 
 .text.phdr_32M11_tof
                0x000000000040c510      0x151 0x10 /usr/local/popcorn/x86_64/lib/libelf.a(32.xlatetof.o)
 *fill*         0x000000000040c661        0xf 
 .text.rela_32M11_tom
                0x000000000040c670       0x62 0x10 /usr/local/popcorn/x86_64/lib/libelf.a(32.xlatetof.o)
 *fill*         0x000000000040c6d2        0xe 
 .text.rela_32M11_tof
                0x000000000040c6e0       0xb0 0x10 /usr/local/popcorn/x86_64/lib/libelf.a(32.xlatetof.o)
 .text.rel_32M11_tom
                0x000000000040c790       0x40 0x10 /usr/local/popcorn/x86_64/lib/libelf.a(32.xlatetof.o)
 .text.rel_32M11_tof
                0x000000000040c7d0       0x74 0x10 /usr/local/popcorn/x86_64/lib/libelf.a(32.xlatetof.o)
 *fill*         0x000000000040c844        0xc 
 .text.shdr_32M11_tom
                0x000000000040c850       0xa8 0x10 /usr/local/popcorn/x86_64/lib/libelf.a(32.xlatetof.o)
 *fill*         0x000000000040c8f8        0x8 
 .text.shdr_32M11_tof
                0x000000000040c900      0x1b0 0x10 /usr/local/popcorn/x86_64/lib/libelf.a(32.xlatetof.o)
 .text.sword_32M__tom
                0x000000000040cab0      0x11f 0x10 /usr/local/popcorn/x86_64/lib/libelf.a(32.xlatetof.o)
 *fill*         0x000000000040cbcf        0x1 
 .text.sword_32M__tof
                0x000000000040cbd0       0xa9 0x10 /usr/local/popcorn/x86_64/lib/libelf.a(32.xlatetof.o)
 *fill*         0x000000000040cc79        0x7 
 .text.sym_32M11_tom
                0x000000000040cc80       0x6b 0x10 /usr/local/popcorn/x86_64/lib/libelf.a(32.xlatetof.o)
 *fill*         0x000000000040cceb        0x5 
 .text.sym_32M11_tof
                0x000000000040ccf0       0xc1 0x10 /usr/local/popcorn/x86_64/lib/libelf.a(32.xlatetof.o)
 *fill*         0x000000000040cdb1        0xf 
 .text.word_32M__tom
                0x000000000040cdc0      0x11f 0x10 /usr/local/popcorn/x86_64/lib/libelf.a(32.xlatetof.o)
 *fill*         0x000000000040cedf        0x1 
 .text.word_32M__tof
                0x000000000040cee0       0xa9 0x10 /usr/local/popcorn/x86_64/lib/libelf.a(32.xlatetof.o)
 *fill*         0x000000000040cf89        0x3 
 .text          0x000000000040cf8c        0x0 0x4 /usr/local/popcorn/x86_64/lib/libelf.a(cook.o)
 *fill*         0x000000000040cf8c        0x4 
 .text._elf_scn_type
                0x000000000040cf90       0x61 0x10 /usr/local/popcorn/x86_64/lib/libelf.a(cook.o)
                0x000000000040cf90                _elf_scn_type
 *fill*         0x000000000040cff1        0xf 
 .text._elf_xlatetom
                0x000000000040d000       0x43 0x10 /usr/local/popcorn/x86_64/lib/libelf.a(cook.o)
                0x000000000040d000                _elf_xlatetom
 *fill*         0x000000000040d043        0xd 
 .text._elf_cook
                0x000000000040d050      0x769 0x10 /usr/local/popcorn/x86_64/lib/libelf.a(cook.o)
                0x000000000040d050                _elf_cook
 *fill*         0x000000000040d7b9        0x7 
 .text._elf_item
                0x000000000040d7c0      0x1a1 0x10 /usr/local/popcorn/x86_64/lib/libelf.a(cook.o)
 *fill*         0x000000000040d961        0x3 
 .text          0x000000000040d964        0x0 0x4 /usr/local/popcorn/x86_64/lib/libelf.a(data.o)
 .text          0x000000000040d964        0x0 0x4 /usr/local/popcorn/x86_64/lib/libelf.a(input.o)
 *fill*         0x000000000040d964        0xc 
 .text._elf_read
                0x000000000040d970       0xfe 0x10 /usr/local/popcorn/x86_64/lib/libelf.a(input.o)
                0x000000000040d970                _elf_read
 *fill*         0x000000000040da6e        0x2 
 .text._elf_mmap
                0x000000000040da70       0x44 0x10 /usr/local/popcorn/x86_64/lib/libelf.a(input.o)
                0x000000000040da70                _elf_mmap
 .text          0x000000000040dab4        0x0 0x4 /usr/local/popcorn/x86_64/lib/libelf.a(x.elfext.o)
 *fill*         0x000000000040dab4        0xc 
 .text.elf_getphdrnum
                0x000000000040dac0       0x5b 0x10 /usr/local/popcorn/x86_64/lib/libelf.a(x.elfext.o)
                0x000000000040dac0                elf_getphdrnum
 *fill*         0x000000000040db1b        0x5 
 .text.elf_getshdrnum
                0x000000000040db20       0x71 0x10 /usr/local/popcorn/x86_64/lib/libelf.a(x.elfext.o)
                0x000000000040db20                elf_getshdrnum
 *fill*         0x000000000040db91        0xf 
 .text.elf_getshdrstrndx
                0x000000000040dba0       0xd1 0x10 /usr/local/popcorn/x86_64/lib/libelf.a(x.elfext.o)
                0x000000000040dba0                elf_getshdrstrndx
 *fill*         0x000000000040dc71        0xf 
 .text.elf_getphnum
                0x000000000040dc80       0x5b 0x10 /usr/local/popcorn/x86_64/lib/libelf.a(x.elfext.o)
                0x000000000040dc80                elf_getphnum
 *fill*         0x000000000040dcdb        0x5 
 .text.elf_getshnum
                0x000000000040dce0       0x71 0x10 /usr/local/popcorn/x86_64/lib/libelf.a(x.elfext.o)
                0x000000000040dce0                elf_getshnum
 *fill*         0x000000000040dd51        0xf 
 .text.elf_getshstrndx
                0x000000000040dd60       0xd1 0x10 /usr/local/popcorn/x86_64/lib/libelf.a(x.elfext.o)
                0x000000000040dd60                elf_getshstrndx
 *fill*         0x000000000040de31        0xf 
 .text.elfx_update_shstrndx
                0x000000000040de40       0xbc 0x10 /usr/local/popcorn/x86_64/lib/libelf.a(x.elfext.o)
                0x000000000040de40                elfx_update_shstrndx
 .text          0x000000000040defc        0x0 0x4 /usr/local/popcorn/x86_64/lib/libelf.a(64.xlatetof.o)
 *fill*         0x000000000040defc        0x4 
 .text._elf64_xltsize
                0x000000000040df00       0x8a 0x10 /usr/local/popcorn/x86_64/lib/libelf.a(64.xlatetof.o)
                0x000000000040df00                _elf64_xltsize
 *fill*         0x000000000040df8a        0x6 
 .text.elf64_xlatetom
                0x000000000040df90       0xfb 0x10 /usr/local/popcorn/x86_64/lib/libelf.a(64.xlatetof.o)
                0x000000000040df90                elf64_xlatetom
 *fill*         0x000000000040e08b        0x5 
 .text.elf64_xlatetof
                0x000000000040e090       0xfb 0x10 /usr/local/popcorn/x86_64/lib/libelf.a(64.xlatetof.o)
                0x000000000040e090                elf64_xlatetof
 *fill*         0x000000000040e18b        0x5 
 .text.gelf_xlatetom
                0x000000000040e190      0x154 0x10 /usr/local/popcorn/x86_64/lib/libelf.a(64.xlatetof.o)
                0x000000000040e190                gelf_xlatetom
 *fill*         0x000000000040e2e4        0xc 
 .text.gelf_xlatetof
                0x000000000040e2f0      0x154 0x10 /usr/local/popcorn/x86_64/lib/libelf.a(64.xlatetof.o)
                0x000000000040e2f0                gelf_xlatetof
 *fill*         0x000000000040e444        0xc 
 .text.byte_copy
                0x000000000040e450       0x20 0x10 /usr/local/popcorn/x86_64/lib/libelf.a(64.xlatetof.o)
 .text.addr_64L__tom
                0x000000000040e470       0x5a 0x10 /usr/local/popcorn/x86_64/lib/libelf.a(64.xlatetof.o)
 *fill*         0x000000000040e4ca        0x6 
 .text.addr_64L__tof
                0x000000000040e4d0       0x5a 0x10 /usr/local/popcorn/x86_64/lib/libelf.a(64.xlatetof.o)
 *fill*         0x000000000040e52a        0x6 
 .text.dyn_64L11_tom
                0x000000000040e530       0x59 0x10 /usr/local/popcorn/x86_64/lib/libelf.a(64.xlatetof.o)
 *fill*         0x000000000040e589        0x7 
 .text.dyn_64L11_tof
                0x000000000040e590       0x59 0x10 /usr/local/popcorn/x86_64/lib/libelf.a(64.xlatetof.o)
 *fill*         0x000000000040e5e9        0x7 
 .text.ehdr_64L11_tom
                0x000000000040e5f0      0x121 0x10 /usr/local/popcorn/x86_64/lib/libelf.a(64.xlatetof.o)
 *fill*         0x000000000040e711        0xf 
 .text.ehdr_64L11_tof
                0x000000000040e720      0x1b5 0x10 /usr/local/popcorn/x86_64/lib/libelf.a(64.xlatetof.o)
 *fill*         0x000000000040e8d5        0xb 
 .text.half_64L__tom
                0x000000000040e8e0      0x139 0x10 /usr/local/popcorn/x86_64/lib/libelf.a(64.xlatetof.o)
 *fill*         0x000000000040ea19        0x7 
 .text.half_64L__tof
                0x000000000040ea20      0x159 0x10 /usr/local/popcorn/x86_64/lib/libelf.a(64.xlatetof.o)
 *fill*         0x000000000040eb79        0x7 
 .text.off_64L__tom
                0x000000000040eb80       0x5a 0x10 /usr/local/popcorn/x86_64/lib/libelf.a(64.xlatetof.o)
 *fill*         0x000000000040ebda        0x6 
 .text.off_64L__tof
                0x000000000040ebe0       0x5a 0x10 /usr/local/popcorn/x86_64/lib/libelf.a(64.xlatetof.o)
 *fill*         0x000000000040ec3a        0x6 
 .text.phdr_64L11_tom
                0x000000000040ec40       0xed 0x10 /usr/local/popcorn/x86_64/lib/libelf.a(64.xlatetof.o)
 *fill*         0x000000000040ed2d        0x3 
 .text.phdr_64L11_tof
                0x000000000040ed30      0x131 0x10 /usr/local/popcorn/x86_64/lib/libelf.a(64.xlatetof.o)
 *fill*         0x000000000040ee61        0xf 
 .text.rela_64L11_tom
                0x000000000040ee70       0x8a 0x10 /usr/local/popcorn/x86_64/lib/libelf.a(64.xlatetof.o)
 *fill*         0x000000000040eefa        0x6 
 .text.rela_64L11_tof
                0x000000000040ef00       0x8a 0x10 /usr/local/popcorn/x86_64/lib/libelf.a(64.xlatetof.o)
 *fill*         0x000000000040ef8a        0x6 
 .text.rel_64L11_tom
                0x000000000040ef90       0x59 0x10 /usr/local/popcorn/x86_64/lib/libelf.a(64.xlatetof.o)
 *fill*         0x000000000040efe9        0x7 
 .text.rel_64L11_tof
                0x000000000040eff0       0x59 0x10 /usr/local/popcorn/x86_64/lib/libelf.a(64.xlatetof.o)
 *fill*         0x000000000040f049        0x7 
 .text.shdr_64L11_tom
                0x000000000040f050       0xe2 0x10 /usr/local/popcorn/x86_64/lib/libelf.a(64.xlatetof.o)
 *fill*         0x000000000040f132        0xe 
 .text.shdr_64L11_tof
                0x000000000040f140      0x16a 0x10 /usr/local/popcorn/x86_64/lib/libelf.a(64.xlatetof.o)
 *fill*         0x000000000040f2aa        0x6 
 .text.sword_64L__tom
                0x000000000040f2b0       0xcf 0x10 /usr/local/popcorn/x86_64/lib/libelf.a(64.xlatetof.o)
 *fill*         0x000000000040f37f        0x1 
 .text.sword_64L__tof
                0x000000000040f380       0xa9 0x10 /usr/local/popcorn/x86_64/lib/libelf.a(64.xlatetof.o)
 *fill*         0x000000000040f429        0x7 
 .text.sym_64L11_tom
                0x000000000040f430       0x9d 0x10 /usr/local/popcorn/x86_64/lib/libelf.a(64.xlatetof.o)
 *fill*         0x000000000040f4cd        0x3 
 .text.sym_64L11_tof
                0x000000000040f4d0       0xbd 0x10 /usr/local/popcorn/x86_64/lib/libelf.a(64.xlatetof.o)
 *fill*         0x000000000040f58d        0x3 
 .text.word_64L__tom
                0x000000000040f590       0xcf 0x10 /usr/local/popcorn/x86_64/lib/libelf.a(64.xlatetof.o)
 *fill*         0x000000000040f65f        0x1 
 .text.word_64L__tof
                0x000000000040f660       0xa9 0x10 /usr/local/popcorn/x86_64/lib/libelf.a(64.xlatetof.o)
 *fill*         0x000000000040f709        0x7 
 .text.sxword_64L__tom
                0x000000000040f710       0x5a 0x10 /usr/local/popcorn/x86_64/lib/libelf.a(64.xlatetof.o)
 *fill*         0x000000000040f76a        0x6 
 .text.sxword_64L__tof
                0x000000000040f770       0x5a 0x10 /usr/local/popcorn/x86_64/lib/libelf.a(64.xlatetof.o)
 *fill*         0x000000000040f7ca        0x6 
 .text.xword_64L__tom
                0x000000000040f7d0       0x5a 0x10 /usr/local/popcorn/x86_64/lib/libelf.a(64.xlatetof.o)
 *fill*         0x000000000040f82a        0x6 
 .text.xword_64L__tof
                0x000000000040f830       0x5a 0x10 /usr/local/popcorn/x86_64/lib/libelf.a(64.xlatetof.o)
 *fill*         0x000000000040f88a        0x6 
 .text.addr_64M__tom
                0x000000000040f890       0x5a 0x10 /usr/local/popcorn/x86_64/lib/libelf.a(64.xlatetof.o)
 *fill*         0x000000000040f8ea        0x6 
 .text.addr_64M__tof
                0x000000000040f8f0       0x5a 0x10 /usr/local/popcorn/x86_64/lib/libelf.a(64.xlatetof.o)
 *fill*         0x000000000040f94a        0x6 
 .text.dyn_64M11_tom
                0x000000000040f950       0x59 0x10 /usr/local/popcorn/x86_64/lib/libelf.a(64.xlatetof.o)
 *fill*         0x000000000040f9a9        0x7 
 .text.dyn_64M11_tof
                0x000000000040f9b0       0x59 0x10 /usr/local/popcorn/x86_64/lib/libelf.a(64.xlatetof.o)
 *fill*         0x000000000040fa09        0x7 
 .text.ehdr_64M11_tom
                0x000000000040fa10      0x145 0x10 /usr/local/popcorn/x86_64/lib/libelf.a(64.xlatetof.o)
 *fill*         0x000000000040fb55        0xb 
 .text.ehdr_64M11_tof
                0x000000000040fb60      0x1b5 0x10 /usr/local/popcorn/x86_64/lib/libelf.a(64.xlatetof.o)
 *fill*         0x000000000040fd15        0xb 
 .text.half_64M__tom
                0x000000000040fd20      0x185 0x10 /usr/local/popcorn/x86_64/lib/libelf.a(64.xlatetof.o)
 *fill*         0x000000000040fea5        0xb 
 .text.half_64M__tof
                0x000000000040feb0      0x195 0x10 /usr/local/popcorn/x86_64/lib/libelf.a(64.xlatetof.o)
 *fill*         0x0000000000410045        0xb 
 .text.off_64M__tom
                0x0000000000410050       0x5a 0x10 /usr/local/popcorn/x86_64/lib/libelf.a(64.xlatetof.o)
 *fill*         0x00000000004100aa        0x6 
 .text.off_64M__tof
                0x00000000004100b0       0x5a 0x10 /usr/local/popcorn/x86_64/lib/libelf.a(64.xlatetof.o)
 *fill*         0x000000000041010a        0x6 
 .text.phdr_64M11_tom
                0x0000000000410110       0xf1 0x10 /usr/local/popcorn/x86_64/lib/libelf.a(64.xlatetof.o)
 *fill*         0x0000000000410201        0xf 
 .text.phdr_64M11_tof
                0x0000000000410210      0x131 0x10 /usr/local/popcorn/x86_64/lib/libelf.a(64.xlatetof.o)
 *fill*         0x0000000000410341        0xf 
 .text.rela_64M11_tom
                0x0000000000410350       0x8a 0x10 /usr/local/popcorn/x86_64/lib/libelf.a(64.xlatetof.o)
 *fill*         0x00000000004103da        0x6 
 .text.rela_64M11_tof
                0x00000000004103e0       0x8a 0x10 /usr/local/popcorn/x86_64/lib/libelf.a(64.xlatetof.o)
 *fill*         0x000000000041046a        0x6 
 .text.rel_64M11_tom
                0x0000000000410470       0x59 0x10 /usr/local/popcorn/x86_64/lib/libelf.a(64.xlatetof.o)
 *fill*         0x00000000004104c9        0x7 
 .text.rel_64M11_tof
                0x00000000004104d0       0x59 0x10 /usr/local/popcorn/x86_64/lib/libelf.a(64.xlatetof.o)
 *fill*         0x0000000000410529        0x7 
 .text.shdr_64M11_tom
                0x0000000000410530       0xea 0x10 /usr/local/popcorn/x86_64/lib/libelf.a(64.xlatetof.o)
 *fill*         0x000000000041061a        0x6 
 .text.shdr_64M11_tof
                0x0000000000410620      0x16a 0x10 /usr/local/popcorn/x86_64/lib/libelf.a(64.xlatetof.o)
 *fill*         0x000000000041078a        0x6 
 .text.sword_64M__tom
                0x0000000000410790      0x11f 0x10 /usr/local/popcorn/x86_64/lib/libelf.a(64.xlatetof.o)
 *fill*         0x00000000004108af        0x1 
 .text.sword_64M__tof
                0x00000000004108b0       0xa9 0x10 /usr/local/popcorn/x86_64/lib/libelf.a(64.xlatetof.o)
 *fill*         0x0000000000410959        0x7 
 .text.sym_64M11_tom
                0x0000000000410960       0xb3 0x10 /usr/local/popcorn/x86_64/lib/libelf.a(64.xlatetof.o)
 *fill*         0x0000000000410a13        0xd 
 .text.sym_64M11_tof
                0x0000000000410a20       0xed 0x10 /usr/local/popcorn/x86_64/lib/libelf.a(64.xlatetof.o)
 *fill*         0x0000000000410b0d        0x3 
 .text.word_64M__tom
                0x0000000000410b10      0x11f 0x10 /usr/local/popcorn/x86_64/lib/libelf.a(64.xlatetof.o)
 *fill*         0x0000000000410c2f        0x1 
 .text.word_64M__tof
                0x0000000000410c30       0xa9 0x10 /usr/local/popcorn/x86_64/lib/libelf.a(64.xlatetof.o)
 *fill*         0x0000000000410cd9        0x7 
 .text.sxword_64M__tom
                0x0000000000410ce0       0x5a 0x10 /usr/local/popcorn/x86_64/lib/libelf.a(64.xlatetof.o)
 *fill*         0x0000000000410d3a        0x6 
 .text.sxword_64M__tof
                0x0000000000410d40       0x5a 0x10 /usr/local/popcorn/x86_64/lib/libelf.a(64.xlatetof.o)
 *fill*         0x0000000000410d9a        0x6 
 .text.xword_64M__tom
                0x0000000000410da0       0x5a 0x10 /usr/local/popcorn/x86_64/lib/libelf.a(64.xlatetof.o)
 *fill*         0x0000000000410dfa        0x6 
 .text.xword_64M__tof
                0x0000000000410e00       0x5a 0x10 /usr/local/popcorn/x86_64/lib/libelf.a(64.xlatetof.o)
 *fill*         0x0000000000410e5a        0x2 
 .text          0x0000000000410e5c        0x0 0x4 /usr/local/popcorn/x86_64/lib/libelf.a(gelfshdr.o)
 *fill*         0x0000000000410e5c        0x4 
 .text.gelf_getshdr
                0x0000000000410e60      0x106 0x10 /usr/local/popcorn/x86_64/lib/libelf.a(gelfshdr.o)
                0x0000000000410e60                gelf_getshdr
 *fill*         0x0000000000410f66        0xa 
 .text.gelf_update_shdr
                0x0000000000410f70       0xea 0x10 /usr/local/popcorn/x86_64/lib/libelf.a(gelfshdr.o)
                0x0000000000410f70                gelf_update_shdr
 *fill*         0x000000000041105a        0x2 
 .text          0x000000000041105c        0x0 0x4 /usr/local/popcorn/x86_64/lib/libelf.a(swap64.o)
 *fill*         0x000000000041105c        0x4 
 .text._elf_load_u64L
                0x0000000000411060        0x4 0x10 /usr/local/popcorn/x86_64/lib/libelf.a(swap64.o)
                0x0000000000411060                _elf_load_u64L
 *fill*         0x0000000000411064        0xc 
 .text._elf_load_u64M
                0x0000000000411070        0x7 0x10 /usr/local/popcorn/x86_64/lib/libelf.a(swap64.o)
                0x0000000000411070                _elf_load_u64M
 *fill*         0x0000000000411077        0x9 
 .text._elf_load_i64L
                0x0000000000411080        0x4 0x10 /usr/local/popcorn/x86_64/lib/libelf.a(swap64.o)
                0x0000000000411080                _elf_load_i64L
 *fill*         0x0000000000411084        0xc 
 .text._elf_load_i64M
                0x0000000000411090        0x7 0x10 /usr/local/popcorn/x86_64/lib/libelf.a(swap64.o)
                0x0000000000411090                _elf_load_i64M
 *fill*         0x0000000000411097        0x9 
 .text._elf_store_u64L
                0x00000000004110a0        0x4 0x10 /usr/local/popcorn/x86_64/lib/libelf.a(swap64.o)
                0x00000000004110a0                _elf_store_u64L
 *fill*         0x00000000004110a4        0xc 
 .text._elf_store_u64M
                0x00000000004110b0        0x7 0x10 /usr/local/popcorn/x86_64/lib/libelf.a(swap64.o)
                0x00000000004110b0                _elf_store_u64M
 *fill*         0x00000000004110b7        0x9 
 .text._elf_store_i64L
                0x00000000004110c0        0x4 0x10 /usr/local/popcorn/x86_64/lib/libelf.a(swap64.o)
                0x00000000004110c0                _elf_store_i64L
 *fill*         0x00000000004110c4        0xc 
 .text._elf_store_i64M
                0x00000000004110d0        0x7 0x10 /usr/local/popcorn/x86_64/lib/libelf.a(swap64.o)
                0x00000000004110d0                _elf_store_i64M
 *fill*         0x00000000004110d7        0x1 
 .text          0x00000000004110d8        0x0 0x4 /usr/local/popcorn/x86_64/lib/libelf.a(verdef_32_tof.o)
 *fill*         0x00000000004110d8        0x8 
 .text._elf_verdef_32L11_tof
                0x00000000004110e0        0xa 0x10 /usr/local/popcorn/x86_64/lib/libelf.a(verdef_32_tof.o)
                0x00000000004110e0                _elf_verdef_32L11_tof
 *fill*         0x00000000004110ea        0x6 
 .text.xlt_verdef
                0x00000000004110f0      0x27f 0x10 /usr/local/popcorn/x86_64/lib/libelf.a(verdef_32_tof.o)
 *fill*         0x000000000041136f        0x1 
 .text._elf_verdef_32M11_tof
                0x0000000000411370        0xa 0x10 /usr/local/popcorn/x86_64/lib/libelf.a(verdef_32_tof.o)
                0x0000000000411370                _elf_verdef_32M11_tof
 *fill*         0x000000000041137a        0x6 
 .text._elf_verneed_32L11_tof
                0x0000000000411380        0xa 0x10 /usr/local/popcorn/x86_64/lib/libelf.a(verdef_32_tof.o)
                0x0000000000411380                _elf_verneed_32L11_tof
 *fill*         0x000000000041138a        0x6 
 .text.xlt_verneed
                0x0000000000411390      0x330 0x10 /usr/local/popcorn/x86_64/lib/libelf.a(verdef_32_tof.o)
 .text._elf_verneed_32M11_tof
                0x00000000004116c0        0xa 0x10 /usr/local/popcorn/x86_64/lib/libelf.a(verdef_32_tof.o)
                0x00000000004116c0                _elf_verneed_32M11_tof
 *fill*         0x00000000004116ca        0x2 
 .text          0x00000000004116cc        0x0 0x4 /usr/local/popcorn/x86_64/lib/libelf.a(verdef_32_tom.o)
 *fill*         0x00000000004116cc        0x4 
 .text._elf_verdef_32L11_tom
                0x00000000004116d0        0xa 0x10 /usr/local/popcorn/x86_64/lib/libelf.a(verdef_32_tom.o)
                0x00000000004116d0                _elf_verdef_32L11_tom
 *fill*         0x00000000004116da        0x6 
 .text.xlt_verdef
                0x00000000004116e0      0x303 0x10 /usr/local/popcorn/x86_64/lib/libelf.a(verdef_32_tom.o)
 *fill*         0x00000000004119e3        0xd 
 .text._elf_verdef_32M11_tom
                0x00000000004119f0        0xa 0x10 /usr/local/popcorn/x86_64/lib/libelf.a(verdef_32_tom.o)
                0x00000000004119f0                _elf_verdef_32M11_tom
 *fill*         0x00000000004119fa        0x6 
 .text._elf_verneed_32L11_tom
                0x0000000000411a00        0xa 0x10 /usr/local/popcorn/x86_64/lib/libelf.a(verdef_32_tom.o)
                0x0000000000411a00                _elf_verneed_32L11_tom
 *fill*         0x0000000000411a0a        0x6 
 .text.xlt_verneed
                0x0000000000411a10      0x2b3 0x10 /usr/local/popcorn/x86_64/lib/libelf.a(verdef_32_tom.o)
 *fill*         0x0000000000411cc3        0xd 
 .text._elf_verneed_32M11_tom
                0x0000000000411cd0        0xa 0x10 /usr/local/popcorn/x86_64/lib/libelf.a(verdef_32_tom.o)
                0x0000000000411cd0                _elf_verneed_32M11_tom
 *fill*         0x0000000000411cda        0x2 
 .text          0x0000000000411cdc        0x0 0x4 /usr/local/popcorn/x86_64/lib/libelf.a(verdef_64_tof.o)
 *fill*         0x0000000000411cdc        0x4 
 .text._elf_verdef_64L11_tof
                0x0000000000411ce0        0xa 0x10 /usr/local/popcorn/x86_64/lib/libelf.a(verdef_64_tof.o)
                0x0000000000411ce0                _elf_verdef_64L11_tof
 *fill*         0x0000000000411cea        0x6 
 .text.xlt_verdef
                0x0000000000411cf0      0x27f 0x10 /usr/local/popcorn/x86_64/lib/libelf.a(verdef_64_tof.o)
 *fill*         0x0000000000411f6f        0x1 
 .text._elf_verdef_64M11_tof
                0x0000000000411f70        0xa 0x10 /usr/local/popcorn/x86_64/lib/libelf.a(verdef_64_tof.o)
                0x0000000000411f70                _elf_verdef_64M11_tof
 *fill*         0x0000000000411f7a        0x6 
 .text._elf_verneed_64L11_tof
                0x0000000000411f80        0xa 0x10 /usr/local/popcorn/x86_64/lib/libelf.a(verdef_64_tof.o)
                0x0000000000411f80                _elf_verneed_64L11_tof
 *fill*         0x0000000000411f8a        0x6 
 .text.xlt_verneed
                0x0000000000411f90      0x330 0x10 /usr/local/popcorn/x86_64/lib/libelf.a(verdef_64_tof.o)
 .text._elf_verneed_64M11_tof
                0x00000000004122c0        0xa 0x10 /usr/local/popcorn/x86_64/lib/libelf.a(verdef_64_tof.o)
                0x00000000004122c0                _elf_verneed_64M11_tof
 *fill*         0x00000000004122ca        0x2 
 .text          0x00000000004122cc        0x0 0x4 /usr/local/popcorn/x86_64/lib/libelf.a(verdef_64_tom.o)
 *fill*         0x00000000004122cc        0x4 
 .text._elf_verdef_64L11_tom
                0x00000000004122d0        0xa 0x10 /usr/local/popcorn/x86_64/lib/libelf.a(verdef_64_tom.o)
                0x00000000004122d0                _elf_verdef_64L11_tom
 *fill*         0x00000000004122da        0x6 
 .text.xlt_verdef
                0x00000000004122e0      0x303 0x10 /usr/local/popcorn/x86_64/lib/libelf.a(verdef_64_tom.o)
 *fill*         0x00000000004125e3        0xd 
 .text._elf_verdef_64M11_tom
                0x00000000004125f0        0xa 0x10 /usr/local/popcorn/x86_64/lib/libelf.a(verdef_64_tom.o)
                0x00000000004125f0                _elf_verdef_64M11_tom
 *fill*         0x00000000004125fa        0x6 
 .text._elf_verneed_64L11_tom
                0x0000000000412600        0xa 0x10 /usr/local/popcorn/x86_64/lib/libelf.a(verdef_64_tom.o)
                0x0000000000412600                _elf_verneed_64L11_tom
 *fill*         0x000000000041260a        0x6 
 .text.xlt_verneed
                0x0000000000412610      0x2b3 0x10 /usr/local/popcorn/x86_64/lib/libelf.a(verdef_64_tom.o)
 *fill*         0x00000000004128c3        0xd 
 .text._elf_verneed_64M11_tom
                0x00000000004128d0        0xa 0x10 /usr/local/popcorn/x86_64/lib/libelf.a(verdef_64_tom.o)
                0x00000000004128d0                _elf_verneed_64M11_tom
 *fill*         0x00000000004128da        0x2 
 .text          0x00000000004128dc        0x0 0x4 /usr/local/popcorn/x86_64/lib/libelf.a(getscn.o)
 *fill*         0x00000000004128dc        0x4 
 .text.elf_getscn
                0x00000000004128e0       0x6e 0x10 /usr/local/popcorn/x86_64/lib/libelf.a(getscn.o)
                0x00000000004128e0                elf_getscn
 *fill*         0x000000000041294e        0x2 
 .text          0x0000000000412950        0x0 0x4 /usr/local/popcorn/x86_64/lib/libelf.a(newscn.o)
 .text._elf_update_shnum
                0x0000000000412950       0x74 0x10 /usr/local/popcorn/x86_64/lib/libelf.a(newscn.o)
                0x0000000000412950                _elf_update_shnum
 *fill*         0x00000000004129c4        0xc 
 .text._elf_first_scn
                0x00000000004129d0       0xed 0x10 /usr/local/popcorn/x86_64/lib/libelf.a(newscn.o)
                0x00000000004129d0                _elf_first_scn
 *fill*         0x0000000000412abd        0x3 
 .text.elf_newscn
                0x0000000000412ac0      0x223 0x10 /usr/local/popcorn/x86_64/lib/libelf.a(newscn.o)
                0x0000000000412ac0                elf_newscn
 *fill*         0x0000000000412ce3        0x1 
 .text          0x0000000000412ce4        0x0 0x4 /usr/local/popcorn/x86_64/lib/libelf.a(32.fsize.o)
 *fill*         0x0000000000412ce4        0xc 
 .text.elf32_fsize
                0x0000000000412cf0       0x3d 0x10 /usr/local/popcorn/x86_64/lib/libelf.a(32.fsize.o)
                0x0000000000412cf0                elf32_fsize
 *fill*         0x0000000000412d2d        0x3 
 .text.elf64_fsize
                0x0000000000412d30       0x3d 0x10 /usr/local/popcorn/x86_64/lib/libelf.a(32.fsize.o)
                0x0000000000412d30                elf64_fsize
 *fill*         0x0000000000412d6d        0x3 
 .text.gelf_fsize
                0x0000000000412d70       0x75 0x10 /usr/local/popcorn/x86_64/lib/libelf.a(32.fsize.o)
                0x0000000000412d70                gelf_fsize
 *fill*         0x0000000000412de5        0xb 
 .text.gelf_msize
                0x0000000000412df0       0x7b 0x10 /usr/local/popcorn/x86_64/lib/libelf.a(32.fsize.o)
                0x0000000000412df0                gelf_msize
 *fill*         0x0000000000412e6b        0x1 
 .text          0x0000000000412e6c        0x0 0x4 /usr/local/popcorn/x86_64/lib/libc.a(arch_crash.o)
 .text.__crash_aarch64
                0x0000000000412e6c        0x3 0x1 /usr/local/popcorn/x86_64/lib/libc.a(arch_crash.o)
                0x0000000000412e6c                crash_aarch64
                0x0000000000412e6c                __crash_aarch64
 .text.__crash_powerpc64
                0x0000000000412e6f        0x3 0x1 /usr/local/popcorn/x86_64/lib/libc.a(arch_crash.o)
                0x0000000000412e6f                __crash_powerpc64
                0x0000000000412e6f                crash_powerpc64
 .text.__crash_riscv64
                0x0000000000412e72        0x3 0x1 /usr/local/popcorn/x86_64/lib/libc.a(arch_crash.o)
                0x0000000000412e72                crash_riscv64
                0x0000000000412e72                __crash_riscv64
 .text.__crash_x86_64
                0x0000000000412e75       0x18 0x1 /usr/local/popcorn/x86_64/lib/libc.a(arch_crash.o)
                0x0000000000412e75                crash_x86_64
                0x0000000000412e75                __crash_x86_64
 .text.__crash  0x0000000000412e8d       0x18 0x1 /usr/local/popcorn/x86_64/lib/libc.a(arch_crash.o)
                0x0000000000412e8d                crash
                0x0000000000412e8d                __crash
 *fill*         0x0000000000412ea5        0x3 
 .text          0x0000000000412ea8        0x0 0x4 /usr/local/popcorn/x86_64/lib/libc.a(getenv.o)
 .text.getenv   0x0000000000412ea8       0x80 0x1 /usr/local/popcorn/x86_64/lib/libc.a(getenv.o)
                0x0000000000412ea8                getenv
 .text          0x0000000000412f28        0x0 0x4 /usr/local/popcorn/x86_64/lib/libc.a(platform.o)
 .text.popcorn_getnid
                0x0000000000412f28       0x2e 0x1 /usr/local/popcorn/x86_64/lib/libc.a(platform.o)
                0x0000000000412f28                popcorn_getnid
 .text.popcorn_getthreadinfo
                0x0000000000412f56        0xf 0x1 /usr/local/popcorn/x86_64/lib/libc.a(platform.o)
                0x0000000000412f56                popcorn_getthreadinfo
 .text.popcorn_getnodeinfo
                0x0000000000412f65       0x74 0x1 /usr/local/popcorn/x86_64/lib/libc.a(platform.o)
                0x0000000000412f65                popcorn_getnodeinfo
 *fill*         0x0000000000412fd9        0x3 
 .text          0x0000000000412fdc        0x0 0x4 /usr/local/popcorn/x86_64/lib/libc.a(assert.o)
 .text.__assert_fail
                0x0000000000412fdc       0x2c 0x1 /usr/local/popcorn/x86_64/lib/libc.a(assert.o)
                0x0000000000412fdc                __assert_fail
 .text          0x0000000000413008        0x0 0x4 /usr/local/popcorn/x86_64/lib/libc.a(open.o)
 .text.open     0x0000000000413008      0x113 0x1 /usr/local/popcorn/x86_64/lib/libc.a(open.o)
                0x0000000000413008                open64
                0x0000000000413008                open
 *fill*         0x000000000041311b        0x1 
 .text          0x000000000041311c        0x0 0x4 /usr/local/popcorn/x86_64/lib/libc.a(calloc.o)
 *fill*         0x000000000041311c        0x4 
 .text.calloc   0x0000000000413120       0x34 0x10 /usr/local/popcorn/x86_64/lib/libc.a(calloc.o)
                0x0000000000413120                calloc
 *fill*         0x0000000000413154        0xc 
 .text.popcorn_calloc
                0x0000000000413160       0x38 0x10 /usr/local/popcorn/x86_64/lib/libc.a(calloc.o)
                0x0000000000413160                popcorn_calloc
 *fill*         0x0000000000413198        0x8 
 .text.popcorn_calloc_cur
                0x00000000004131a0       0x52 0x10 /usr/local/popcorn/x86_64/lib/libc.a(calloc.o)
                0x00000000004131a0                popcorn_calloc_cur
 *fill*         0x00000000004131f2        0x2 
 .text          0x00000000004131f4        0x0 0x4 /usr/local/popcorn/x86_64/lib/libc.a(lite_malloc.o)
 *fill*         0x00000000004131f4        0xc 
 .text.__simple_malloc
                0x0000000000413200       0xfc 0x10 /usr/local/popcorn/x86_64/lib/libc.a(lite_malloc.o)
 .text          0x00000000004132fc        0x0 0x4 /usr/local/popcorn/x86_64/lib/libc.a(malloc.o)
 *fill*         0x00000000004132fc        0x4 
 .text.__init_malloc
                0x0000000000413300       0x11 0x10 /usr/local/popcorn/x86_64/lib/libc.a(malloc.o)
 *fill*         0x0000000000413311        0xf 
 .text.malloc   0x0000000000413320      0x5ab 0x10 /usr/local/popcorn/x86_64/lib/libc.a(malloc.o)
                0x0000000000413320                malloc
 *fill*         0x00000000004138cb        0x5 
 .text.alloc_rev
                0x00000000004138d0       0xe8 0x10 /usr/local/popcorn/x86_64/lib/libc.a(malloc.o)
 *fill*         0x00000000004139b8        0x8 
 .text.lock_bin
                0x00000000004139c0       0x96 0x10 /usr/local/popcorn/x86_64/lib/libc.a(malloc.o)
 *fill*         0x0000000000413a56        0xa 
 .text.unbin    0x0000000000413a60       0x52 0x10 /usr/local/popcorn/x86_64/lib/libc.a(malloc.o)
 *fill*         0x0000000000413ab2        0xe 
 .text.unlock_bin
                0x0000000000413ac0       0x59 0x10 /usr/local/popcorn/x86_64/lib/libc.a(malloc.o)
 *fill*         0x0000000000413b19        0x7 
 .text.__malloc0
                0x0000000000413b20       0xaf 0x10 /usr/local/popcorn/x86_64/lib/libc.a(malloc.o)
                0x0000000000413b20                __malloc0
 *fill*         0x0000000000413bcf        0x1 
 .text.realloc  0x0000000000413bd0      0x49c 0x10 /usr/local/popcorn/x86_64/lib/libc.a(malloc.o)
                0x0000000000413bd0                realloc
 *fill*         0x000000000041406c        0x4 
 .text.free     0x0000000000414070      0x6b2 0x10 /usr/local/popcorn/x86_64/lib/libc.a(malloc.o)
                0x0000000000414070                free
 *fill*         0x0000000000414722        0x2 
 .text          0x0000000000414724        0x0 0x4 /usr/local/popcorn/x86_64/lib/libc.a(popcorn_malloc.o)
 *fill*         0x0000000000414724        0xc 
 .text.__init_malloc
                0x0000000000414730       0x11 0x10 /usr/local/popcorn/x86_64/lib/libc.a(popcorn_malloc.o)
 *fill*         0x0000000000414741        0xf 
 .text.popcorn_malloc
                0x0000000000414750      0x837 0x10 /usr/local/popcorn/x86_64/lib/libc.a(popcorn_malloc.o)
                0x0000000000414750                popcorn_malloc
 *fill*         0x0000000000414f87        0x9 
 .text.alloc_rev
                0x0000000000414f90       0xd7 0x10 /usr/local/popcorn/x86_64/lib/libc.a(popcorn_malloc.o)
 *fill*         0x0000000000415067        0x9 
 .text.lock_bin
                0x0000000000415070       0xb3 0x10 /usr/local/popcorn/x86_64/lib/libc.a(popcorn_malloc.o)
 *fill*         0x0000000000415123        0xd 
 .text.unbin    0x0000000000415130       0x59 0x10 /usr/local/popcorn/x86_64/lib/libc.a(popcorn_malloc.o)
 *fill*         0x0000000000415189        0x7 
 .text.unlock_bin
                0x0000000000415190       0x6a 0x10 /usr/local/popcorn/x86_64/lib/libc.a(popcorn_malloc.o)
 *fill*         0x00000000004151fa        0x6 
 .text.__popcorn_malloc0
                0x0000000000415200       0xaf 0x10 /usr/local/popcorn/x86_64/lib/libc.a(popcorn_malloc.o)
                0x0000000000415200                __popcorn_malloc0
 *fill*         0x00000000004152af        0x1 
 .text.popcorn_malloc_cur
                0x00000000004152b0       0x16 0x10 /usr/local/popcorn/x86_64/lib/libc.a(popcorn_malloc.o)
                0x00000000004152b0                popcorn_malloc_cur
 *fill*         0x00000000004152c6        0xa 
 .text.popcorn_realloc
                0x00000000004152d0      0x23e 0x10 /usr/local/popcorn/x86_64/lib/libc.a(popcorn_malloc.o)
                0x00000000004152d0                popcorn_realloc
 *fill*         0x000000000041550e        0x2 
 .text.popcorn_free
                0x0000000000415510      0x50e 0x10 /usr/local/popcorn/x86_64/lib/libc.a(popcorn_malloc.o)
                0x0000000000415510                popcorn_free
 *fill*         0x0000000000415a1e        0x2 
 .text.alloc_fwd
                0x0000000000415a20       0xe0 0x10 /usr/local/popcorn/x86_64/lib/libc.a(popcorn_malloc.o)
 .text.popcorn_realloc_cur
                0x0000000000415b00       0x25 0x10 /usr/local/popcorn/x86_64/lib/libc.a(popcorn_malloc.o)
                0x0000000000415b00                popcorn_realloc_cur
 *fill*         0x0000000000415b25        0x3 
 .text          0x0000000000415b28        0x0 0x4 /usr/local/popcorn/x86_64/lib/libc.a(getrlimit.o)
 .text.getrlimit
                0x0000000000415b28       0xb0 0x1 /usr/local/popcorn/x86_64/lib/libc.a(getrlimit.o)
                0x0000000000415b28                getrlimit
                0x0000000000415b28                getrlimit64
 .text          0x0000000000415bd8        0x0 0x4 /usr/local/popcorn/x86_64/lib/libc.a(madvise.o)
 .text.__madvise
                0x0000000000415bd8       0x12 0x1 /usr/local/popcorn/x86_64/lib/libc.a(madvise.o)
                0x0000000000415bd8                madvise
                0x0000000000415bd8                __madvise
 *fill*         0x0000000000415bea        0x2 
 .text          0x0000000000415bec        0x0 0x4 /usr/local/popcorn/x86_64/lib/libc.a(mmap.o)
 .text.dummy    0x0000000000415bec        0x1 0x1 /usr/local/popcorn/x86_64/lib/libc.a(mmap.o)
                0x0000000000415bec                __vm_wait
 .text.__mmap   0x0000000000415bed       0xb5 0x1 /usr/local/popcorn/x86_64/lib/libc.a(mmap.o)
                0x0000000000415bed                __mmap
                0x0000000000415bed                mmap
                0x0000000000415bed                mmap64
 *fill*         0x0000000000415ca2        0x2 
 .text          0x0000000000415ca4        0x0 0x4 /usr/local/popcorn/x86_64/lib/libc.a(mremap.o)
 .text.dummy    0x0000000000415ca4        0x1 0x1 /usr/local/popcorn/x86_64/lib/libc.a(mremap.o)
 .text.__mremap
                0x0000000000415ca5      0x117 0x1 /usr/local/popcorn/x86_64/lib/libc.a(mremap.o)
                0x0000000000415ca5                mremap
                0x0000000000415ca5                __mremap
 .text          0x0000000000415dbc        0x0 0x4 /usr/local/popcorn/x86_64/lib/libc.a(munmap.o)
 .text.dummy    0x0000000000415dbc        0x1 0x1 /usr/local/popcorn/x86_64/lib/libc.a(munmap.o)
 .text.__munmap
                0x0000000000415dbd       0x2b 0x1 /usr/local/popcorn/x86_64/lib/libc.a(munmap.o)
                0x0000000000415dbd                munmap
                0x0000000000415dbd                __munmap
 .text          0x0000000000415de8        0x0 0x4 /usr/local/popcorn/x86_64/lib/libc.a(fclose.o)
 .text.dummy    0x0000000000415de8        0x1 0x1 /usr/local/popcorn/x86_64/lib/libc.a(fclose.o)
                0x0000000000415de8                __unlist_locked_file
 .text.fclose   0x0000000000415de9       0xb3 0x1 /usr/local/popcorn/x86_64/lib/libc.a(fclose.o)
                0x0000000000415de9                fclose
 .text          0x0000000000415e9c        0x0 0x4 /usr/local/popcorn/x86_64/lib/libc.a(fflush.o)
 .text.fflush   0x0000000000415e9c      0x124 0x1 /usr/local/popcorn/x86_64/lib/libc.a(fflush.o)
                0x0000000000415e9c                fflush
                0x0000000000415e9c                fflush_unlocked
 .text          0x0000000000415fc0        0x0 0x4 /usr/local/popcorn/x86_64/lib/libc.a(fopen.o)
 .text.fopen    0x0000000000415fc0       0x90 0x1 /usr/local/popcorn/x86_64/lib/libc.a(fopen.o)
                0x0000000000415fc0                fopen
                0x0000000000415fc0                fopen64
 .text          0x0000000000416050        0x0 0x4 /usr/local/popcorn/x86_64/lib/libc.a(fprintf.o)
 .text.fprintf  0x0000000000416050       0x81 0x1 /usr/local/popcorn/x86_64/lib/libc.a(fprintf.o)
                0x0000000000416050                fprintf
 *fill*         0x00000000004160d1        0x3 
 .text          0x00000000004160d4        0x0 0x4 /usr/local/popcorn/x86_64/lib/libc.a(fscanf.o)
 .text.fscanf   0x00000000004160d4       0x81 0x1 /usr/local/popcorn/x86_64/lib/libc.a(fscanf.o)
                0x00000000004160d4                fscanf
                0x00000000004160d4                __isoc99_fscanf
 *fill*         0x0000000000416155        0x3 
 .text          0x0000000000416158        0x0 0x4 /usr/local/popcorn/x86_64/lib/libc.a(fseek.o)
 .text.__fseeko_unlocked
                0x0000000000416158       0x7c 0x1 /usr/local/popcorn/x86_64/lib/libc.a(fseek.o)
                0x0000000000416158                __fseeko_unlocked
 .text.__fseeko
                0x00000000004161d4       0x60 0x1 /usr/local/popcorn/x86_64/lib/libc.a(fseek.o)
                0x00000000004161d4                fseeko
                0x00000000004161d4                __fseeko
                0x00000000004161d4                fseeko64
 .text.fseek    0x0000000000416234        0x5 0x1 /usr/local/popcorn/x86_64/lib/libc.a(fseek.o)
                0x0000000000416234                fseek
 *fill*         0x0000000000416239        0x3 
 .text          0x000000000041623c        0x0 0x4 /usr/local/popcorn/x86_64/lib/libc.a(getc.o)
 .text.getc     0x000000000041623c       0x76 0x1 /usr/local/popcorn/x86_64/lib/libc.a(getc.o)
                0x000000000041623c                getc
                0x000000000041623c                _IO_getc
 *fill*         0x00000000004162b2        0x2 
 .text          0x00000000004162b4        0x0 0x4 /usr/local/popcorn/x86_64/lib/libc.a(getline.o)
 .text.getline  0x00000000004162b4        0xd 0x1 /usr/local/popcorn/x86_64/lib/libc.a(getline.o)
                0x00000000004162b4                getline
 *fill*         0x00000000004162c1        0x3 
 .text          0x00000000004162c4        0x0 0x4 /usr/local/popcorn/x86_64/lib/libc.a(perror.o)
 .text.perror   0x00000000004162c4       0xb9 0x1 /usr/local/popcorn/x86_64/lib/libc.a(perror.o)
                0x00000000004162c4                perror
 *fill*         0x000000000041637d        0x3 
 .text          0x0000000000416380        0x0 0x4 /usr/local/popcorn/x86_64/lib/libc.a(snprintf.o)
 .text.snprintf
                0x0000000000416380       0x7d 0x1 /usr/local/popcorn/x86_64/lib/libc.a(snprintf.o)
                0x0000000000416380                snprintf
 *fill*         0x00000000004163fd        0x3 
 .text          0x0000000000416400        0x0 0x4 /usr/local/popcorn/x86_64/lib/libc.a(sscanf.o)
 .text.sscanf   0x0000000000416400       0x81 0x1 /usr/local/popcorn/x86_64/lib/libc.a(sscanf.o)
                0x0000000000416400                sscanf
                0x0000000000416400                __isoc99_sscanf
 *fill*         0x0000000000416481        0x3 
 .text          0x0000000000416484        0x0 0x4 /usr/local/popcorn/x86_64/lib/libc.a(stderr.o)
 .text          0x0000000000416484        0x0 0x4 /usr/local/popcorn/x86_64/lib/libc.a(vfscanf.o)
 .text.vfscanf  0x0000000000416484      0xbad 0x1 /usr/local/popcorn/x86_64/lib/libc.a(vfscanf.o)
                0x0000000000416484                __isoc99_vfscanf
                0x0000000000416484                vfscanf
 *fill*         0x0000000000417031        0x3 
 .text          0x0000000000417034        0x0 0x4 /usr/local/popcorn/x86_64/lib/libc.a(vsnprintf.o)
 .text.vsnprintf
                0x0000000000417034       0xc1 0x1 /usr/local/popcorn/x86_64/lib/libc.a(vsnprintf.o)
                0x0000000000417034                vsnprintf
 .text.sn_write
                0x00000000004170f5       0xb7 0x1 /usr/local/popcorn/x86_64/lib/libc.a(vsnprintf.o)
 .text          0x00000000004171ac        0x0 0x4 /usr/local/popcorn/x86_64/lib/libc.a(vsscanf.o)
 .text.vsscanf  0x00000000004171ac       0x63 0x1 /usr/local/popcorn/x86_64/lib/libc.a(vsscanf.o)
                0x00000000004171ac                vsscanf
                0x00000000004171ac                __isoc99_vsscanf
 .text.do_read  0x000000000041720f        0x5 0x1 /usr/local/popcorn/x86_64/lib/libc.a(vsscanf.o)
 .text          0x0000000000417214        0x0 0x4 /usr/local/popcorn/x86_64/lib/libc.a(bsearch.o)
 .text.bsearch  0x0000000000417214       0x6e 0x1 /usr/local/popcorn/x86_64/lib/libc.a(bsearch.o)
                0x0000000000417214                bsearch
 *fill*         0x0000000000417282        0x2 
 .text          0x0000000000417284        0x0 0x4 /usr/local/popcorn/x86_64/lib/libc.a(qsort.o)
 .text.qsort    0x0000000000417284      0x37e 0x1 /usr/local/popcorn/x86_64/lib/libc.a(qsort.o)
                0x0000000000417284                qsort
 .text.sift     0x0000000000417602      0x112 0x1 /usr/local/popcorn/x86_64/lib/libc.a(qsort.o)
 .text.trinkle  0x0000000000417714      0x1f6 0x1 /usr/local/popcorn/x86_64/lib/libc.a(qsort.o)
 .text.cycle    0x000000000041790a       0x8a 0x1 /usr/local/popcorn/x86_64/lib/libc.a(qsort.o)
 .text          0x0000000000417994        0x0 0x4 /usr/local/popcorn/x86_64/lib/libc.a(strtol.o)
 .text.strtoull
                0x0000000000417994        0xc 0x1 /usr/local/popcorn/x86_64/lib/libc.a(strtol.o)
                0x0000000000417994                __strtoull_internal
                0x0000000000417994                strtoull
 .text.strtox   0x00000000004179a0       0xa3 0x1 /usr/local/popcorn/x86_64/lib/libc.a(strtol.o)
 .text.strtoll  0x0000000000417a43        0xf 0x1 /usr/local/popcorn/x86_64/lib/libc.a(strtol.o)
                0x0000000000417a43                __strtoll_internal
                0x0000000000417a43                strtoll
 .text.strtoul  0x0000000000417a52        0xc 0x1 /usr/local/popcorn/x86_64/lib/libc.a(strtol.o)
                0x0000000000417a52                strtoul
                0x0000000000417a52                __strtoul_internal
 .text.strtol   0x0000000000417a5e        0xf 0x1 /usr/local/popcorn/x86_64/lib/libc.a(strtol.o)
                0x0000000000417a5e                __strtol_internal
                0x0000000000417a5e                strtol
 .text.strtoimax
                0x0000000000417a6d        0xf 0x1 /usr/local/popcorn/x86_64/lib/libc.a(strtol.o)
                0x0000000000417a6d                strtoimax
                0x0000000000417a6d                __strtoimax_internal
 .text.strtoumax
                0x0000000000417a7c        0xc 0x1 /usr/local/popcorn/x86_64/lib/libc.a(strtol.o)
                0x0000000000417a7c                strtoumax
                0x0000000000417a7c                __strtoumax_internal
 .text          0x0000000000417a88        0x0 0x4 /usr/local/popcorn/x86_64/lib/libc.a(strchr.o)
 *fill*         0x0000000000417a88        0x8 
 .text.strchr   0x0000000000417a90       0x12 0x10 /usr/local/popcorn/x86_64/lib/libc.a(strchr.o)
                0x0000000000417a90                strchr
 *fill*         0x0000000000417aa2        0x2 
 .text          0x0000000000417aa4        0x0 0x4 /usr/local/popcorn/x86_64/lib/libc.a(strchrnul.o)
 *fill*         0x0000000000417aa4        0xc 
 .text.__strchrnul
                0x0000000000417ab0       0xf8 0x10 /usr/local/popcorn/x86_64/lib/libc.a(strchrnul.o)
                0x0000000000417ab0                __strchrnul
                0x0000000000417ab0                strchrnul
 .text          0x0000000000417ba8        0x0 0x4 /usr/local/popcorn/x86_64/lib/libc.a(strcmp.o)
 *fill*         0x0000000000417ba8        0x8 
 .text.strcmp   0x0000000000417bb0       0x35 0x10 /usr/local/popcorn/x86_64/lib/libc.a(strcmp.o)
                0x0000000000417bb0                strcmp
 *fill*         0x0000000000417be5        0x3 
 .text          0x0000000000417be8        0x0 0x4 /usr/local/popcorn/x86_64/lib/libc.a(strlen.o)
 *fill*         0x0000000000417be8        0x8 
 .text.strlen   0x0000000000417bf0       0x7e 0x10 /usr/local/popcorn/x86_64/lib/libc.a(strlen.o)
                0x0000000000417bf0                strlen
 *fill*         0x0000000000417c6e        0x2 
 .text          0x0000000000417c70        0x0 0x4 /usr/local/popcorn/x86_64/lib/libc.a(strncmp.o)
 .text.strncmp  0x0000000000417c70       0x3f 0x10 /usr/local/popcorn/x86_64/lib/libc.a(strncmp.o)
                0x0000000000417c70                strncmp
 *fill*         0x0000000000417caf        0x1 
 .text          0x0000000000417cb0        0x0 0x4 /usr/local/popcorn/x86_64/lib/libc.a(memmove.o)
 .text.memmove  0x0000000000417cb0       0x25 0x1 /usr/local/popcorn/x86_64/lib/libc.a(memmove.o)
                0x0000000000417cb0                memmove
 *fill*         0x0000000000417cd5        0x3 
 .text          0x0000000000417cd8        0x0 0x4 /usr/local/popcorn/x86_64/lib/libc.a(pthread_attr_get.o)
 .text.pthread_attr_getdetachstate
                0x0000000000417cd8        0x8 0x1 /usr/local/popcorn/x86_64/lib/libc.a(pthread_attr_get.o)
                0x0000000000417cd8                pthread_attr_getdetachstate
 .text.pthread_attr_getguardsize
                0x0000000000417ce0        0xa 0x1 /usr/local/popcorn/x86_64/lib/libc.a(pthread_attr_get.o)
                0x0000000000417ce0                pthread_attr_getguardsize
 .text.pthread_attr_getinheritsched
                0x0000000000417cea        0x8 0x1 /usr/local/popcorn/x86_64/lib/libc.a(pthread_attr_get.o)
                0x0000000000417cea                pthread_attr_getinheritsched
 .text.pthread_attr_getschedparam
                0x0000000000417cf2        0x8 0x1 /usr/local/popcorn/x86_64/lib/libc.a(pthread_attr_get.o)
                0x0000000000417cf2                pthread_attr_getschedparam
 .text.pthread_attr_getschedpolicy
                0x0000000000417cfa        0x8 0x1 /usr/local/popcorn/x86_64/lib/libc.a(pthread_attr_get.o)
                0x0000000000417cfa                pthread_attr_getschedpolicy
 .text.pthread_attr_getscope
                0x0000000000417d02        0x9 0x1 /usr/local/popcorn/x86_64/lib/libc.a(pthread_attr_get.o)
                0x0000000000417d02                pthread_attr_getscope
 .text.pthread_attr_getstack
                0x0000000000417d0b       0x1e 0x1 /usr/local/popcorn/x86_64/lib/libc.a(pthread_attr_get.o)
                0x0000000000417d0b                pthread_attr_getstack
 .text.pthread_attr_getstacksize
                0x0000000000417d29        0x9 0x1 /usr/local/popcorn/x86_64/lib/libc.a(pthread_attr_get.o)
                0x0000000000417d29                pthread_attr_getstacksize
 .text.pthread_barrierattr_getpshared
                0x0000000000417d32        0xd 0x1 /usr/local/popcorn/x86_64/lib/libc.a(pthread_attr_get.o)
                0x0000000000417d32                pthread_barrierattr_getpshared
 .text.pthread_condattr_getclock
                0x0000000000417d3f        0xc 0x1 /usr/local/popcorn/x86_64/lib/libc.a(pthread_attr_get.o)
                0x0000000000417d3f                pthread_condattr_getclock
 .text.pthread_condattr_getpshared
                0x0000000000417d4b        0xa 0x1 /usr/local/popcorn/x86_64/lib/libc.a(pthread_attr_get.o)
                0x0000000000417d4b                pthread_condattr_getpshared
 .text.pthread_mutexattr_getprotocol
                0x0000000000417d55        0x9 0x1 /usr/local/popcorn/x86_64/lib/libc.a(pthread_attr_get.o)
                0x0000000000417d55                pthread_mutexattr_getprotocol
 .text.pthread_mutexattr_getpshared
                0x0000000000417d5e        0xd 0x1 /usr/local/popcorn/x86_64/lib/libc.a(pthread_attr_get.o)
                0x0000000000417d5e                pthread_mutexattr_getpshared
 .text.pthread_mutexattr_getrobust
                0x0000000000417d6b        0xd 0x1 /usr/local/popcorn/x86_64/lib/libc.a(pthread_attr_get.o)
                0x0000000000417d6b                pthread_mutexattr_getrobust
 .text.pthread_mutexattr_gettype
                0x0000000000417d78        0xa 0x1 /usr/local/popcorn/x86_64/lib/libc.a(pthread_attr_get.o)
                0x0000000000417d78                pthread_mutexattr_gettype
 .text.pthread_rwlockattr_getpshared
                0x0000000000417d82        0x7 0x1 /usr/local/popcorn/x86_64/lib/libc.a(pthread_attr_get.o)
                0x0000000000417d82                pthread_rwlockattr_getpshared
 *fill*         0x0000000000417d89        0x3 
 .text          0x0000000000417d8c        0x0 0x4 /usr/local/popcorn/x86_64/lib/libc.a(pthread_getattr_np.o)
 .text.pthread_getattr_np
                0x0000000000417d8c      0x10d 0x1 /usr/local/popcorn/x86_64/lib/libc.a(pthread_getattr_np.o)
                0x0000000000417d8c                pthread_getattr_np
 *fill*         0x0000000000417e99        0x3 
 .text          0x0000000000417e9c        0x0 0x4 /usr/local/popcorn/x86_64/lib/libc.a(pthread_migrate.o)
 .text.pthread_set_migrate_args
                0x0000000000417e9c       0x11 0x1 /usr/local/popcorn/x86_64/lib/libc.a(pthread_migrate.o)
                0x0000000000417e9c                pthread_set_migrate_args
 .text.pthread_get_migrate_args
                0x0000000000417ead       0x11 0x1 /usr/local/popcorn/x86_64/lib/libc.a(pthread_migrate.o)
                0x0000000000417ead                pthread_get_migrate_args
 *fill*         0x0000000000417ebe        0x2 
 .text          0x0000000000417ec0        0x0 0x4 /usr/local/popcorn/x86_64/lib/libc.a(pthread_self.o)
 .text.__pthread_self_internal
                0x0000000000417ec0        0xa 0x1 /usr/local/popcorn/x86_64/lib/libc.a(pthread_self.o)
                0x0000000000417ec0                pthread_self
                0x0000000000417ec0                thrd_current
 *fill*         0x0000000000417eca        0x2 
 .text          0x0000000000417ecc        0x0 0x4 /usr/local/popcorn/x86_64/lib/libc.a(close.o)
 .text.dummy    0x0000000000417ecc        0x3 0x1 /usr/local/popcorn/x86_64/lib/libc.a(close.o)
 .text.close    0x0000000000417ecf       0x3b 0x1 /usr/local/popcorn/x86_64/lib/libc.a(close.o)
                0x0000000000417ecf                close
 *fill*         0x0000000000417f0a        0x2 
 .text          0x0000000000417f0c        0x0 0x4 /usr/local/popcorn/x86_64/lib/libc.a(getpid.o)
 .text.getpid   0x0000000000417f0c        0x8 0x1 /usr/local/popcorn/x86_64/lib/libc.a(getpid.o)
                0x0000000000417f0c                getpid
 .text          0x0000000000417f14        0x0 0x4 /usr/local/popcorn/x86_64/lib/libc.a(lseek.o)
 .text.lseek    0x0000000000417f14       0x15 0x1 /usr/local/popcorn/x86_64/lib/libc.a(lseek.o)
                0x0000000000417f14                lseek
                0x0000000000417f14                lseek64
 *fill*         0x0000000000417f29        0x3 
 .text          0x0000000000417f2c        0x0 0x4 /usr/local/popcorn/x86_64/lib/libc.a(read.o)
 .text.read     0x0000000000417f2c       0x28 0x1 /usr/local/popcorn/x86_64/lib/libc.a(read.o)
                0x0000000000417f2c                read
 .text          0x0000000000417f54        0x0 0x4 /usr/local/popcorn/x86_64/lib/libc.a(abort.o)
 .text.abort    0x0000000000417f54       0x27 0x1 /usr/local/popcorn/x86_64/lib/libc.a(abort.o)
                0x0000000000417f54                abort
 *fill*         0x0000000000417f7b        0x1 
 .text          0x0000000000417f7c        0x0 0x4 /usr/local/popcorn/x86_64/lib/libc.a(floatscan.o)
 *fill*         0x0000000000417f7c        0x4 
 .text.__floatscan
                0x0000000000417f80     0x185f 0x10 /usr/local/popcorn/x86_64/lib/libc.a(floatscan.o)
                0x0000000000417f80                __floatscan
 *fill*         0x00000000004197df        0x1 
 .text.scanexp  0x00000000004197e0      0x20f 0x10 /usr/local/popcorn/x86_64/lib/libc.a(floatscan.o)
 *fill*         0x00000000004199ef        0x1 
 .text          0x00000000004199f0        0x0 0x4 /usr/local/popcorn/x86_64/lib/libc.a(intscan.o)
 .text.__intscan
                0x00000000004199f0      0x6ac 0x10 /usr/local/popcorn/x86_64/lib/libc.a(intscan.o)
                0x00000000004199f0                __intscan
 .text          0x000000000041a09c        0x0 0x4 /usr/local/popcorn/x86_64/lib/libc.a(shgetc.o)
 *fill*         0x000000000041a09c        0x4 
 .text.__shlim  0x000000000041a0a0       0x39 0x10 /usr/local/popcorn/x86_64/lib/libc.a(shgetc.o)
                0x000000000041a0a0                __shlim
 *fill*         0x000000000041a0d9        0x7 
 .text.__shgetc
                0x000000000041a0e0       0xc1 0x10 /usr/local/popcorn/x86_64/lib/libc.a(shgetc.o)
                0x000000000041a0e0                __shgetc
 *fill*         0x000000000041a1a1        0x3 
 .text          0x000000000041a1a4        0x0 0x4 /usr/local/popcorn/x86_64/lib/libc.a(expand_heap.o)
 *fill*         0x000000000041a1a4        0xc 
 .text.__expand_heap
                0x000000000041a1b0      0x151 0x10 /usr/local/popcorn/x86_64/lib/libc.a(expand_heap.o)
                0x000000000041a1b0                __expand_heap
 *fill*         0x000000000041a301        0xf 
 .text.__expand_heap_node
                0x000000000041a310      0x1ff 0x10 /usr/local/popcorn/x86_64/lib/libc.a(expand_heap.o)
                0x000000000041a310                __expand_heap_node
 *fill*         0x000000000041a50f        0x1 
 .text.popcorn_get_arena
                0x000000000041a510       0xfe 0x10 /usr/local/popcorn/x86_64/lib/libc.a(expand_heap.o)
                0x000000000041a510                popcorn_get_arena
 *fill*         0x000000000041a60e        0x2 
 .text          0x000000000041a610        0x0 0x4 /usr/local/popcorn/x86_64/lib/libc.a(copysignl.o)
 .text.copysignl
                0x000000000041a610       0x2a 0x1 /usr/local/popcorn/x86_64/lib/libc.a(copysignl.o)
                0x000000000041a610                copysignl
 *fill*         0x000000000041a63a        0x2 
 .text          0x000000000041a63c        0x0 0x4 /usr/local/popcorn/x86_64/lib/libc.a(scalbn.o)
 .text.scalbn   0x000000000041a63c       0x8c 0x1 /usr/local/popcorn/x86_64/lib/libc.a(scalbn.o)
                0x000000000041a63c                scalbn
 .text          0x000000000041a6c8        0x0 0x4 /usr/local/popcorn/x86_64/lib/libc.a(scalbnl.o)
 .text.scalbnl  0x000000000041a6c8       0x99 0x1 /usr/local/popcorn/x86_64/lib/libc.a(scalbnl.o)
                0x000000000041a6c8                scalbnl
 *fill*         0x000000000041a761        0x3 
 .text          0x000000000041a764        0x0 0x4 /usr/local/popcorn/x86_64/lib/libc.a(fabs.o)
 .text.fabs     0x000000000041a764       0x12 0x1 /usr/local/popcorn/x86_64/lib/libc.a(fabs.o)
                0x000000000041a764                fabs
 *fill*         0x000000000041a776        0x2 
 .text          0x000000000041a778        0x0 0x4 /usr/local/popcorn/x86_64/lib/libc.a(fmodl.o)
 .text.fmodl    0x000000000041a778       0x14 0x1 /usr/local/popcorn/x86_64/lib/libc.a(fmodl.o)
                0x000000000041a778                fmodl
 .text          0x000000000041a78c        0x0 0x4 /usr/local/popcorn/x86_64/lib/libc.a(mbrtowc.o)
 .text.mbrtowc  0x000000000041a78c      0x129 0x1 /usr/local/popcorn/x86_64/lib/libc.a(mbrtowc.o)
                0x000000000041a78c                mbrtowc
 *fill*         0x000000000041a8b5        0x3 
 .text          0x000000000041a8b8        0x0 0x4 /usr/local/popcorn/x86_64/lib/libc.a(mbsinit.o)
 .text.mbsinit  0x000000000041a8b8       0x14 0x1 /usr/local/popcorn/x86_64/lib/libc.a(mbsinit.o)
                0x000000000041a8b8                mbsinit
 .text          0x000000000041a8cc        0x0 0x4 /usr/local/popcorn/x86_64/lib/libc.a(block.o)
 .text.__block_all_sigs
                0x000000000041a8cc       0x18 0x1 /usr/local/popcorn/x86_64/lib/libc.a(block.o)
                0x000000000041a8cc                __block_all_sigs
 .text.__block_app_sigs
                0x000000000041a8e4       0x18 0x1 /usr/local/popcorn/x86_64/lib/libc.a(block.o)
                0x000000000041a8e4                __block_app_sigs
 .text.__restore_sigs
                0x000000000041a8fc       0x18 0x1 /usr/local/popcorn/x86_64/lib/libc.a(block.o)
                0x000000000041a8fc                __restore_sigs
 .text          0x000000000041a914        0x0 0x4 /usr/local/popcorn/x86_64/lib/libc.a(raise.o)
 .text.raise    0x000000000041a914       0x4d 0x1 /usr/local/popcorn/x86_64/lib/libc.a(raise.o)
                0x000000000041a914                raise
 *fill*         0x000000000041a961        0x3 
 .text          0x000000000041a964        0x0 0x4 /usr/local/popcorn/x86_64/lib/libc.a(__fdopen.o)
 .text.__fdopen
                0x000000000041a964      0x179 0x1 /usr/local/popcorn/x86_64/lib/libc.a(__fdopen.o)
                0x000000000041a964                fdopen
                0x000000000041a964                __fdopen
 *fill*         0x000000000041aadd        0x3 
 .text          0x000000000041aae0        0x0 0x4 /usr/local/popcorn/x86_64/lib/libc.a(__fmodeflags.o)
 .text.__fmodeflags
                0x000000000041aae0       0x89 0x1 /usr/local/popcorn/x86_64/lib/libc.a(__fmodeflags.o)
                0x000000000041aae0                __fmodeflags
 *fill*         0x000000000041ab69        0x3 
 .text          0x000000000041ab6c        0x0 0x4 /usr/local/popcorn/x86_64/lib/libc.a(__stdio_read.o)
 .text.__stdio_read
                0x000000000041ab6c       0xaf 0x1 /usr/local/popcorn/x86_64/lib/libc.a(__stdio_read.o)
                0x000000000041ab6c                __stdio_read
 *fill*         0x000000000041ac1b        0x1 
 .text          0x000000000041ac1c        0x0 0x4 /usr/local/popcorn/x86_64/lib/libc.a(__string_read.o)
 .text.__string_read
                0x000000000041ac1c       0x79 0x1 /usr/local/popcorn/x86_64/lib/libc.a(__string_read.o)
                0x000000000041ac1c                __string_read
 *fill*         0x000000000041ac95        0x3 
 .text          0x000000000041ac98        0x0 0x4 /usr/local/popcorn/x86_64/lib/libc.a(__uflow.o)
 .text.__uflow  0x000000000041ac98       0x41 0x1 /usr/local/popcorn/x86_64/lib/libc.a(__uflow.o)
                0x000000000041ac98                __uflow
 *fill*         0x000000000041acd9        0x3 
 .text          0x000000000041acdc        0x0 0x4 /usr/local/popcorn/x86_64/lib/libc.a(fputc.o)
 .text.fputc    0x000000000041acdc       0x9c 0x1 /usr/local/popcorn/x86_64/lib/libc.a(fputc.o)
                0x000000000041acdc                fputc
 .text          0x000000000041ad78        0x0 0x4 /usr/local/popcorn/x86_64/lib/libc.a(getdelim.o)
 .text.getdelim
                0x000000000041ad78      0x273 0x1 /usr/local/popcorn/x86_64/lib/libc.a(getdelim.o)
                0x000000000041ad78                __getdelim
                0x000000000041ad78                getdelim
 *fill*         0x000000000041afeb        0x1 
 .text          0x000000000041afec        0x0 0x4 /usr/local/popcorn/x86_64/lib/libc.a(ofl_add.o)
 .text.__ofl_add
                0x000000000041afec       0x29 0x1 /usr/local/popcorn/x86_64/lib/libc.a(ofl_add.o)
                0x000000000041afec                __ofl_add
 *fill*         0x000000000041b015        0x3 
 .text          0x000000000041b018        0x0 0x4 /usr/local/popcorn/x86_64/lib/libc.a(internal.o)
 .text          0x000000000041b018        0x0 0x4 /usr/local/popcorn/x86_64/lib/libc.a(__overflow.o)
 .text.__overflow
                0x000000000041b018       0x84 0x1 /usr/local/popcorn/x86_64/lib/libc.a(__overflow.o)
                0x000000000041b018                __overflow
 .text          0x000000000041b09c        0x0 0x4 /usr/local/popcorn/x86_64/lib/libc.a(__toread.o)
 .text.__toread
                0x000000000041b09c       0x6e 0x1 /usr/local/popcorn/x86_64/lib/libc.a(__toread.o)
                0x000000000041b09c                __toread
 .text.__toread_needs_stdio_exit
                0x000000000041b10a        0x5 0x1 /usr/local/popcorn/x86_64/lib/libc.a(__toread.o)
                0x000000000041b10a                __toread_needs_stdio_exit
 *(.gnu.warning)

.fini
 *(SORT_NONE(.fini))
                [!provide]                        PROVIDE (__etext = .)
                [!provide]                        PROVIDE (_etext = .)
                [!provide]                        PROVIDE (etext = .)
                0x000000000041c000                . = ALIGN (CONSTANT (MAXPAGESIZE))
                0x000000000041c000                . = SEGMENT_START ("rodata-segment", (ALIGN (CONSTANT (MAXPAGESIZE)) + (. & (CONSTANT (MAXPAGESIZE) - 0x1))))

.rodata         0x000000000041c000     0x3a4c
 *(.rodata .rodata.* .gnu.linkonce.r.*)
 .rodata.basic__str___iter__d_
                0x000000000041c000       0x26 0x1 basic_x86_64.o
                0x000000000041c000                basic__str___iter__d_
 .rodata.basic___func___func2_func2_
                0x000000000041c026        0x6 0x1 basic_x86_64.o
                0x000000000041c026                basic___func___func2_func2_
 .rodata.basic__str_1_local_
                0x000000000041c02c        0x6 0x1 basic_x86_64.o
                0x000000000041c02c                basic__str_1_local_
 .rodata.basic__str_2_remote_
                0x000000000041c032        0x7 0x1 basic_x86_64.o
                0x000000000041c032                basic__str_2_remote_
 .rodata.basic__str_3__iter__d__
                0x000000000041c039       0x31 0x1 basic_x86_64.o
                0x000000000041c039                basic__str_3__iter__d__
 .rodata.basic___func___func1_func1_
                0x000000000041c06a        0x6 0x1 basic_x86_64.o
                0x000000000041c06a                basic___func___func1_func1_
 .rodata.basic__str_4_Thread_id_
                0x000000000041c070       0x60 0x1 basic_x86_64.o
                0x000000000041c070                basic__str_4_Thread_id_
 .rodata.basic__str_5_Migrated_b
                0x000000000041c0d0       0x39 0x1 basic_x86_64.o
                0x000000000041c0d0                basic__str_5_Migrated_b
 .rodata.src_env___libc_start_main__str_
                0x000000000041c109        0x1 0x1 /usr/local/popcorn/x86_64/lib/libc.a(__libc_start_main.o)
                0x000000000041c109                src_env___libc_start_main__str_
 *fill*         0x000000000041c10a        0x6 
 .rodata.src_env___libc_start_main___const___init_libc_pfd_
                0x000000000041c110       0x18 0x10 /usr/local/popcorn/x86_64/lib/libc.a(__libc_start_main.o)
                0x000000000041c110                src_env___libc_start_main___const___init_libc_pfd_
 .rodata.src_env___libc_start_main__str_1__dev_null_
                0x000000000041c128        0xa 0x1 /usr/local/popcorn/x86_64/lib/libc.a(__libc_start_main.o)
                0x000000000041c128                src_env___libc_start_main__str_1__dev_null_
 *fill*         0x000000000041c132        0x6 
 .rodata.stdout
                0x000000000041c138        0x8 0x8 /usr/local/popcorn/x86_64/lib/libc.a(stdout.o)
                0x000000000041c138                stdout
 .rodata.cst4   0x000000000041c140       0x1c 0x4 /usr/local/popcorn/x86_64/lib/libc.a(vfprintf.o)
 *fill*         0x000000000041c15c        0x4 
 .rodata.cst16  0x000000000041c160       0x10 0x10 /usr/local/popcorn/x86_64/lib/libc.a(vfprintf.o)
 .rodata.printf_core
                0x000000000041c170      0x170 0x8 /usr/local/popcorn/x86_64/lib/libc.a(vfprintf.o)
 .rodata.pop_arg
                0x000000000041c2e0       0x90 0x8 /usr/local/popcorn/x86_64/lib/libc.a(vfprintf.o)
 .rodata.src_stdio_vfprintf__str______0X0x_
                0x000000000041c370        0xa 0x1 /usr/local/popcorn/x86_64/lib/libc.a(vfprintf.o)
                0x000000000041c370                src_stdio_vfprintf__str______0X0x_
 .rodata.src_stdio_vfprintf__str_1__null__
                0x000000000041c37a        0x7 0x1 /usr/local/popcorn/x86_64/lib/libc.a(vfprintf.o)
                0x000000000041c37a                src_stdio_vfprintf__str_1__null__
 *fill*         0x000000000041c381        0xf 
 .rodata.src_stdio_vfprintf_c_states
                0x000000000041c390      0x1d0 0x10 /usr/local/popcorn/x86_64/lib/libc.a(vfprintf.o)
 .rodata.src_stdio_vfprintf_c_xdigits
                0x000000000041c560       0x10 0x10 /usr/local/popcorn/x86_64/lib/libc.a(vfprintf.o)
 .rodata.src_stdio_vfprintf__str_3__0X_0X_0X_
                0x000000000041c570       0x13 0x1 /usr/local/popcorn/x86_64/lib/libc.a(vfprintf.o)
                0x000000000041c570                src_stdio_vfprintf__str_3__0X_0X_0X_
 .rodata.src_stdio_vfprintf__str_4_inf_
                0x000000000041c583        0x4 0x1 /usr/local/popcorn/x86_64/lib/libc.a(vfprintf.o)
                0x000000000041c583                src_stdio_vfprintf__str_4_inf_
 .rodata.src_stdio_vfprintf__str_5_INF_
                0x000000000041c587        0x4 0x1 /usr/local/popcorn/x86_64/lib/libc.a(vfprintf.o)
                0x000000000041c587                src_stdio_vfprintf__str_5_INF_
 .rodata.src_stdio_vfprintf__str_6_nan_
                0x000000000041c58b        0x4 0x1 /usr/local/popcorn/x86_64/lib/libc.a(vfprintf.o)
                0x000000000041c58b                src_stdio_vfprintf__str_6_nan_
 .rodata.src_stdio_vfprintf__str_7_NAN_
                0x000000000041c58f        0x4 0x1 /usr/local/popcorn/x86_64/lib/libc.a(vfprintf.o)
                0x000000000041c58f                src_stdio_vfprintf__str_7_NAN_
 .rodata.src_stdio_vfprintf__str_8___
                0x000000000041c593        0x2 0x1 /usr/local/popcorn/x86_64/lib/libc.a(vfprintf.o)
                0x000000000041c593                src_stdio_vfprintf__str_8___
 *fill*         0x000000000041c595        0xb 
 .rodata.src_errno_strerror_c_errid
                0x000000000041c5a0       0x60 0x10 /usr/local/popcorn/x86_64/lib/libc.a(strerror.o)
                                         0x58 (size before relaxing)
 .rodata.src_errno_strerror_c_errmsg
                0x000000000041c600      0x70c 0x10 /usr/local/popcorn/x86_64/lib/libc.a(strerror.o)
 .rodata.cst4   0x000000000041cd0c        0x4 0x4 /usr/local/popcorn/x86_64/lib/libc.a(frexpl.o)
 .rodata.__migrate_shim_internal
                0x000000000041cd10       0x20 0x8 /usr/local/popcorn/x86_64/lib/libmigrate.a(migrate.o)
 .rodata.get_thread_pointer
                0x000000000041cd30       0x20 0x8 /usr/local/popcorn/x86_64/lib/libmigrate.a(migrate.o)
 .rodata.src_migrate__str_Destinatio
                0x000000000041cd50       0x29 0x1 /usr/local/popcorn/x86_64/lib/libmigrate.a(migrate.o)
                0x000000000041cd50                src_migrate__str_Destinatio
 .rodata.src_migrate__str_1_0_____Unsu
                0x000000000041cd79       0x21 0x1 /usr/local/popcorn/x86_64/lib/libmigrate.a(migrate.o)
                0x000000000041cd79                src_migrate__str_1_0_____Unsu
 .rodata.src_migrate__str_2_src_migrat
                0x000000000041cd9a        0xe 0x1 /usr/local/popcorn/x86_64/lib/libmigrate.a(migrate.o)
                0x000000000041cd9a                src_migrate__str_2_src_migrat
 .rodata.src_migrate___func_____migrate_shim_internal___migrate_
                0x000000000041cda8       0x18 0x1 /usr/local/popcorn/x86_64/lib/libmigrate.a(migrate.o)
                0x000000000041cda8                src_migrate___func_____migrate_shim_internal___migrate_
 .rodata.src_migrate__str_3_Could_not_
                0x000000000041cdc0       0x1a 0x1 /usr/local/popcorn/x86_64/lib/libmigrate.a(migrate.o)
                0x000000000041cdc0                src_migrate__str_3_Could_not_
 .rodata.src_migrate__str_4_Could_not_
                0x000000000041cdda       0x1a 0x1 /usr/local/popcorn/x86_64/lib/libmigrate.a(migrate.o)
                0x000000000041cdda                src_migrate__str_4_Could_not_
 .rodata.src_migrate___func___get_thread_pointer_get_thread
                0x000000000041cdf4       0x13 0x1 /usr/local/popcorn/x86_64/lib/libmigrate.a(migrate.o)
                0x000000000041cdf4                src_migrate___func___get_thread_pointer_get_thread
 .rodata.src_mapping__str_POPCORN_TH
                0x000000000041ce07       0x18 0x1 /usr/local/popcorn/x86_64/lib/libmigrate.a(mapping.o)
                0x000000000041ce07                src_mapping__str_POPCORN_TH
 .rodata.src_mapping__str_1_thread_sch
                0x000000000041ce1f       0x14 0x1 /usr/local/popcorn/x86_64/lib/libmigrate.a(mapping.o)
                0x000000000041ce1f                src_mapping__str_1_thread_sch
 .rodata.src_mapping__str_2_r_
                0x000000000041ce33        0x2 0x1 /usr/local/popcorn/x86_64/lib/libmigrate.a(mapping.o)
                0x000000000041ce33                src_mapping__str_2_r_
 .rodata.src_mapping__str_3__lu__lu_
                0x000000000041ce35        0x8 0x1 /usr/local/popcorn/x86_64/lib/libmigrate.a(mapping.o)
                0x000000000041ce35                src_mapping__str_3__lu__lu_
 .rodata.src_mapping__str_4__d_
                0x000000000041ce3d        0x3 0x1 /usr/local/popcorn/x86_64/lib/libmigrate.a(mapping.o)
                0x000000000041ce3d                src_mapping__str_4__d_
 .rodata.src_userspace__str_ST_AARCH64
                0x000000000041ce40        0xf 0x1 /usr/local/popcorn/x86_64/lib/libstack-transform.a(userspace.o)
                0x000000000041ce40                src_userspace__str_ST_AARCH64
 .rodata.src_userspace__str_1__s_aarch64
                0x000000000041ce4f        0xb 0x1 /usr/local/popcorn/x86_64/lib/libstack-transform.a(userspace.o)
                0x000000000041ce4f                src_userspace__str_1__s_aarch64
 .rodata.src_userspace__str_2_ST_POWERPC
                0x000000000041ce5a       0x11 0x1 /usr/local/popcorn/x86_64/lib/libstack-transform.a(userspace.o)
                0x000000000041ce5a                src_userspace__str_2_ST_POWERPC
 .rodata.src_userspace__str_3__s_powerpc
                0x000000000041ce6b        0xd 0x1 /usr/local/popcorn/x86_64/lib/libstack-transform.a(userspace.o)
                0x000000000041ce6b                src_userspace__str_3__s_powerpc
 .rodata.src_userspace__str_4_ST_RISCV64
                0x000000000041ce78        0xf 0x1 /usr/local/popcorn/x86_64/lib/libstack-transform.a(userspace.o)
                0x000000000041ce78                src_userspace__str_4_ST_RISCV64
 .rodata.src_userspace__str_5__s_riscv64
                0x000000000041ce87        0xb 0x1 /usr/local/popcorn/x86_64/lib/libstack-transform.a(userspace.o)
                0x000000000041ce87                src_userspace__str_5__s_riscv64
 .rodata.src_userspace__str_6_ST_X86_64_
                0x000000000041ce92        0xe 0x1 /usr/local/popcorn/x86_64/lib/libstack-transform.a(userspace.o)
                0x000000000041ce92                src_userspace__str_6_ST_X86_64_
 .rodata.src_userspace__str_7__s_x86_64_
                0x000000000041cea0        0xa 0x1 /usr/local/popcorn/x86_64/lib/libstack-transform.a(userspace.o)
                0x000000000041cea0                src_userspace__str_7__s_x86_64_
 .rodata.src_userspace__str_8__proc__d_m
                0x000000000041ceaa        0xe 0x1 /usr/local/popcorn/x86_64/lib/libstack-transform.a(userspace.o)
                0x000000000041ceaa                src_userspace__str_8__proc__d_m
 .rodata.src_userspace__str_9_r_
                0x000000000041ceb8        0x2 0x1 /usr/local/popcorn/x86_64/lib/libstack-transform.a(userspace.o)
                0x000000000041ceb8                src_userspace__str_9_r_
 .rodata.src_userspace__str_10__lx__lx__s
                0x000000000041ceba       0x19 0x1 /usr/local/popcorn/x86_64/lib/libstack-transform.a(userspace.o)
                0x000000000041ceba                src_userspace__str_10__lx__lx__s
 .rodata.src_userspace__str_11__stack__
                0x000000000041ced3        0x8 0x1 /usr/local/popcorn/x86_64/lib/libstack-transform.a(userspace.o)
                0x000000000041ced3                src_userspace__str_11__stack__
 *fill*         0x000000000041cedb        0x5 
 .rodata.src_userspace_switch_table_st_userspace_rewrite_12_
                0x000000000041cee0       0x20 0x8 /usr/local/popcorn/x86_64/lib/libstack-transform.a(userspace.o)
                0x000000000041cee0                src_userspace_switch_table_st_userspace_rewrite_12_
 .rodata.src_init__str__stack_tra
                0x000000000041cf00       0x1f 0x1 /usr/local/popcorn/x86_64/lib/libstack-transform.a(init.o)
                0x000000000041cf00                src_init__str__stack_tra
 .rodata.src_init__str_1__stack_tra
                0x000000000041cf1f       0x18 0x1 /usr/local/popcorn/x86_64/lib/libstack-transform.a(init.o)
                0x000000000041cf1f                src_init__str_1__stack_tra
 .rodata.src_init__str_2__stack_tra
                0x000000000041cf37       0x14 0x1 /usr/local/popcorn/x86_64/lib/libstack-transform.a(init.o)
                0x000000000041cf37                src_init__str_2__stack_tra
 .rodata.src_init__str_3__stack_tra
                0x000000000041cf4b       0x16 0x1 /usr/local/popcorn/x86_64/lib/libstack-transform.a(init.o)
                0x000000000041cf4b                src_init__str_3__stack_tra
 .rodata.src_init__str_4__stack_tra
                0x000000000041cf61       0x16 0x1 /usr/local/popcorn/x86_64/lib/libstack-transform.a(init.o)
                0x000000000041cf61                src_init__str_4__stack_tra
 .rodata.src_init__str_5__stack_tra
                0x000000000041cf77       0x1c 0x1 /usr/local/popcorn/x86_64/lib/libstack-transform.a(init.o)
                0x000000000041cf77                src_init__str_5__stack_tra
 *fill*         0x000000000041cf93        0xd 
 .rodata.cst16  0x000000000041cfa0       0x10 0x10 /usr/local/popcorn/x86_64/lib/libstack-transform.a(rewrite.o)
                                         0x30 (size before relaxing)
 .rodata.src_rewrite__str__src_rewri
                0x000000000041cfb0       0x42 0x1 /usr/local/popcorn/x86_64/lib/libstack-transform.a(rewrite.o)
                0x000000000041cfb0                src_rewrite__str__src_rewri
 .rodata.src_rewrite__str_1__src_rewri
                0x000000000041cff2       0x68 0x1 /usr/local/popcorn/x86_64/lib/libstack-transform.a(rewrite.o)
                0x000000000041cff2                src_rewrite__str_1__src_rewri
 .rodata.src_rewrite__str_2__src_rewri
                0x000000000041d05a       0x54 0x1 /usr/local/popcorn/x86_64/lib/libstack-transform.a(rewrite.o)
                0x000000000041d05a                src_rewrite__str_2__src_rewri
 .rodata.src_rewrite__str_3__src_rewri
                0x000000000041d0ae       0x61 0x1 /usr/local/popcorn/x86_64/lib/libstack-transform.a(rewrite.o)
                0x000000000041d0ae                src_rewrite__str_3__src_rewri
 *fill*         0x000000000041d10f        0x1 
 .rodata.cst16  0x000000000041d110       0x10 0x10 /usr/local/popcorn/x86_64/lib/libstack-transform.a(unwind.o)
 .rodata.src_util__str_aarch64_
                0x000000000041d120        0x8 0x1 /usr/local/popcorn/x86_64/lib/libstack-transform.a(util.o)
                0x000000000041d120                src_util__str_aarch64_
 .rodata.src_util__str_1_powerpc64_
                0x000000000041d128        0xa 0x1 /usr/local/popcorn/x86_64/lib/libstack-transform.a(util.o)
                0x000000000041d128                src_util__str_1_powerpc64_
 .rodata.src_util__str_2_riscv64_
                0x000000000041d132        0x8 0x1 /usr/local/popcorn/x86_64/lib/libstack-transform.a(util.o)
                0x000000000041d132                src_util__str_2_riscv64_
 .rodata.src_util__str_3_x86_64_
                0x000000000041d13a        0x7 0x1 /usr/local/popcorn/x86_64/lib/libstack-transform.a(util.o)
                0x000000000041d13a                src_util__str_3_x86_64_
 .rodata.src_util__str_4_unknown_un
                0x000000000041d141       0x21 0x1 /usr/local/popcorn/x86_64/lib/libstack-transform.a(util.o)
                0x000000000041d141                src_util__str_4_unknown_un
 *fill*         0x000000000041d162        0xe 
 .rodata.src_arch_aarch64_properties_c_callee_saved_aarch64
                0x000000000041d170       0x28 0x10 /usr/local/popcorn/x86_64/lib/libstack-transform.a(properties.o)
 *fill*         0x000000000041d198        0x8 
 .rodata.src_arch_aarch64_properties_c_callee_saved_size_aarch64
                0x000000000041d1a0       0x28 0x10 /usr/local/popcorn/x86_64/lib/libstack-transform.a(properties.o)
 .rodata.properties_aarch64
                0x000000000041d1c8       0x38 0x8 /usr/local/popcorn/x86_64/lib/libstack-transform.a(properties.o)
                0x000000000041d1c8                properties_aarch64
 .rodata.src_arch_aarch64_properties__str__src_arch_
                0x000000000041d200       0x51 0x1 /usr/local/popcorn/x86_64/lib/libstack-transform.a(properties.o)
                0x000000000041d200                src_arch_aarch64_properties__str__src_arch_
 *fill*         0x000000000041d251        0x7 
 .rodata.reg_aarch64
                0x000000000041d258      0x300 0x8 /usr/local/popcorn/x86_64/lib/libstack-transform.a(regs.o)
 .rodata.regs_aarch64
                0x000000000041d558       0xa8 0x8 /usr/local/popcorn/x86_64/lib/libstack-transform.a(regs.o)
                0x000000000041d558                regs_aarch64
 .rodata.src_arch_aarch64_regs__str__src_arch_
                0x000000000041d600       0x4c 0x1 /usr/local/popcorn/x86_64/lib/libstack-transform.a(regs.o)
                0x000000000041d600                src_arch_aarch64_regs__str__src_arch_
 .rodata.src_arch_aarch64_regs__str_1__src_arch_
                0x000000000041d64c       0x4c 0x1 /usr/local/popcorn/x86_64/lib/libstack-transform.a(regs.o)
                0x000000000041d64c                src_arch_aarch64_regs__str_1__src_arch_
 .rodata.is_callee_saved_powerpc64
                0x000000000041d698      0x208 0x8 /usr/local/popcorn/x86_64/lib/libstack-transform.a(properties.o)
 .rodata.callee_reg_size_powerpc64
                0x000000000041d8a0      0x210 0x8 /usr/local/popcorn/x86_64/lib/libstack-transform.a(properties.o)
 .rodata.src_arch_powerpc64_properties_c_callee_saved_powerpc64
                0x000000000041dab0       0x4e 0x10 /usr/local/popcorn/x86_64/lib/libstack-transform.a(properties.o)
 *fill*         0x000000000041dafe        0x2 
 .rodata.src_arch_powerpc64_properties_c_callee_saved_size_powerpc64
                0x000000000041db00       0x4c 0x10 /usr/local/popcorn/x86_64/lib/libstack-transform.a(properties.o)
 *fill*         0x000000000041db4c        0x4 
 .rodata.properties_powerpc64
                0x000000000041db50       0x38 0x8 /usr/local/popcorn/x86_64/lib/libstack-transform.a(properties.o)
                0x000000000041db50                properties_powerpc64
 .rodata.src_arch_powerpc64_properties__str__src_arch_
                0x000000000041db88       0x56 0x1 /usr/local/popcorn/x86_64/lib/libstack-transform.a(properties.o)
                0x000000000041db88                src_arch_powerpc64_properties__str__src_arch_
 *fill*         0x000000000041dbde        0x2 
 .rodata.reg_powerpc64
                0x000000000041dbe0      0x218 0x8 /usr/local/popcorn/x86_64/lib/libstack-transform.a(regs.o)
 .rodata.regs_powerpc64
                0x000000000041ddf8       0xa8 0x8 /usr/local/popcorn/x86_64/lib/libstack-transform.a(regs.o)
                0x000000000041ddf8                regs_powerpc64
 .rodata.src_arch_powerpc64_regs__str__src_arch_
                0x000000000041dea0       0x50 0x1 /usr/local/popcorn/x86_64/lib/libstack-transform.a(regs.o)
                0x000000000041dea0                src_arch_powerpc64_regs__str__src_arch_
 .rodata.src_arch_powerpc64_regs__str_1__src_arch_
                0x000000000041def0       0x50 0x1 /usr/local/popcorn/x86_64/lib/libstack-transform.a(regs.o)
                0x000000000041def0                src_arch_powerpc64_regs__str_1__src_arch_
 .rodata.src_arch_riscv64_properties_c_callee_saved_riscv64
                0x000000000041df40       0x30 0x10 /usr/local/popcorn/x86_64/lib/libstack-transform.a(properties.o)
 .rodata.src_arch_riscv64_properties_c_callee_saved_size_riscv64
                0x000000000041df70       0x30 0x10 /usr/local/popcorn/x86_64/lib/libstack-transform.a(properties.o)
 .rodata.properties_riscv64
                0x000000000041dfa0       0x38 0x8 /usr/local/popcorn/x86_64/lib/libstack-transform.a(properties.o)
                0x000000000041dfa0                properties_riscv64
 .rodata.src_arch_riscv64_properties__str__src_arch_
                0x000000000041dfd8       0x52 0x1 /usr/local/popcorn/x86_64/lib/libstack-transform.a(properties.o)
                0x000000000041dfd8                src_arch_riscv64_properties__str__src_arch_
 *fill*         0x000000000041e02a        0x6 
 .rodata.regs_riscv64
                0x000000000041e030       0xa8 0x8 /usr/local/popcorn/x86_64/lib/libstack-transform.a(regs.o)
                0x000000000041e030                regs_riscv64
 .rodata.src_arch_riscv64_regs__str__src_arch_
                0x000000000041e0d8       0x4c 0x1 /usr/local/popcorn/x86_64/lib/libstack-transform.a(regs.o)
                0x000000000041e0d8                src_arch_riscv64_regs__str__src_arch_
 .rodata.src_arch_riscv64_regs__str_1__src_arch_
                0x000000000041e124       0x4c 0x1 /usr/local/popcorn/x86_64/lib/libstack-transform.a(regs.o)
                0x000000000041e124                src_arch_riscv64_regs__str_1__src_arch_
 .rodata.src_arch_x86_64_properties_c_callee_saved_x86_64
                0x000000000041e170        0xe 0x2 /usr/local/popcorn/x86_64/lib/libstack-transform.a(properties.o)
 .rodata.src_arch_x86_64_properties_c_callee_saved_size_x86_64
                0x000000000041e17e        0xe 0x2 /usr/local/popcorn/x86_64/lib/libstack-transform.a(properties.o)
 *fill*         0x000000000041e18c        0x4 
 .rodata.properties_x86_64
                0x000000000041e190       0x38 0x8 /usr/local/popcorn/x86_64/lib/libstack-transform.a(properties.o)
                0x000000000041e190                properties_x86_64
 .rodata.src_arch_x86_64_properties__str__src_arch_
                0x000000000041e1c8       0x4f 0x1 /usr/local/popcorn/x86_64/lib/libstack-transform.a(properties.o)
                0x000000000041e1c8                src_arch_x86_64_properties__str__src_arch_
 *fill*         0x000000000041e217        0x1 
 .rodata.reg_x86_64
                0x000000000041e218      0x108 0x8 /usr/local/popcorn/x86_64/lib/libstack-transform.a(regs.o)
 .rodata.regs_x86_64
                0x000000000041e320       0xa8 0x8 /usr/local/popcorn/x86_64/lib/libstack-transform.a(regs.o)
                0x000000000041e320                regs_x86_64
 .rodata.src_arch_x86_64_regs__str__src_arch_
                0x000000000041e3c8       0x4b 0x1 /usr/local/popcorn/x86_64/lib/libstack-transform.a(regs.o)
                0x000000000041e3c8                src_arch_x86_64_regs__str__src_arch_
 .rodata.src_arch_x86_64_regs__str_1__src_arch_
                0x000000000041e413       0x4b 0x1 /usr/local/popcorn/x86_64/lib/libstack-transform.a(regs.o)
                0x000000000041e413                src_arch_x86_64_regs__str_1__src_arch_
 .rodata.src_arch_x86_64_regs__str_2__src_arch_
                0x000000000041e45e       0x4a 0x1 /usr/local/popcorn/x86_64/lib/libstack-transform.a(regs.o)
                0x000000000041e45e                src_arch_x86_64_regs__str_2__src_arch_
 .rodata.src_arch_x86_64_regs__str_3__src_arch_
                0x000000000041e4a8       0x4a 0x1 /usr/local/popcorn/x86_64/lib/libstack-transform.a(regs.o)
                0x000000000041e4a8                src_arch_x86_64_regs__str_3__src_arch_
 .rodata.src_arch_x86_64_regs_switch_table_reg_size_x86_64_
                0x000000000041e4f2       0x42 0x2 /usr/local/popcorn/x86_64/lib/libstack-transform.a(regs.o)
                0x000000000041e4f2                src_arch_x86_64_regs_switch_table_reg_size_x86_64_
 *fill*         0x000000000041e534        0x4 
 .rodata.put_val_arch
                0x000000000041e538       0xb0 0x8 /usr/local/popcorn/x86_64/lib/libstack-transform.a(data.o)
 .rodata.points_to_stack
                0x000000000041e5e8       0x28 0x8 /usr/local/popcorn/x86_64/lib/libstack-transform.a(data.o)
 .rodata.src_data__str__src_data_
                0x000000000041e610       0x50 0x1 /usr/local/popcorn/x86_64/lib/libstack-transform.a(data.o)
                0x000000000041e610                src_data__str__src_data_
 .rodata.src_data__str_1__src_data_
                0x000000000041e660       0x3d 0x1 /usr/local/popcorn/x86_64/lib/libstack-transform.a(data.o)
                0x000000000041e660                src_data__str_1__src_data_
 .rodata.src_data__str_2__src_data_
                0x000000000041e69d       0x30 0x1 /usr/local/popcorn/x86_64/lib/libstack-transform.a(data.o)
                0x000000000041e69d                src_data__str_2__src_data_
 .rodata.src_data__str_3__src_data_
                0x000000000041e6cd       0x49 0x1 /usr/local/popcorn/x86_64/lib/libstack-transform.a(data.o)
                0x000000000041e6cd                src_data__str_3__src_data_
 .rodata.src_data__str_4__src_data_
                0x000000000041e716       0x3f 0x1 /usr/local/popcorn/x86_64/lib/libstack-transform.a(data.o)
                0x000000000041e716                src_data__str_4__src_data_
 .rodata.src_data__str_5__src_data_
                0x000000000041e755       0x3d 0x1 /usr/local/popcorn/x86_64/lib/libstack-transform.a(data.o)
                0x000000000041e755                src_data__str_5__src_data_
 .rodata.src_data__str_6__src_data_
                0x000000000041e792       0x3f 0x1 /usr/local/popcorn/x86_64/lib/libstack-transform.a(data.o)
                0x000000000041e792                src_data__str_6__src_data_
 .rodata.src_data__str_7__src_data_
                0x000000000041e7d1       0x37 0x1 /usr/local/popcorn/x86_64/lib/libstack-transform.a(data.o)
                0x000000000041e7d1                src_data__str_7__src_data_
 .rodata.src_data__str_8__src_data_
                0x000000000041e808       0x37 0x1 /usr/local/popcorn/x86_64/lib/libstack-transform.a(data.o)
                0x000000000041e808                src_data__str_8__src_data_
 .rodata.src_data__str_9__src_data_
                0x000000000041e83f       0x3f 0x1 /usr/local/popcorn/x86_64/lib/libstack-transform.a(data.o)
                0x000000000041e83f                src_data__str_9__src_data_
 .rodata.src_data__str_10__src_data_
                0x000000000041e87e       0x3f 0x1 /usr/local/popcorn/x86_64/lib/libstack-transform.a(data.o)
                0x000000000041e87e                src_data__str_10__src_data_
 *fill*         0x000000000041e8bd        0x3 
 .rodata.elf_begin
                0x000000000041e8c0       0x40 0x8 /usr/local/popcorn/x86_64/lib/libelf.a(begin.o)
 .rodata.begin_c__elf_init
                0x000000000041e900       0xe0 0x8 /usr/local/popcorn/x86_64/lib/libelf.a(begin.o)
 .rodata.begin_c_fmag
                0x000000000041e9e0        0x3 0x1 /usr/local/popcorn/x86_64/lib/libelf.a(begin.o)
 .rodata.begin__str__ELF_
                0x000000000041e9e3        0x5 0x1 /usr/local/popcorn/x86_64/lib/libelf.a(begin.o)
                0x000000000041e9e3                begin__str__ELF_
 .rodata.begin__str_1___arch___
                0x000000000041e9e8        0x9 0x1 /usr/local/popcorn/x86_64/lib/libelf.a(begin.o)
                0x000000000041e9e8                begin__str_1___arch___
 .rodata.version__str_LIBELF_SAN
                0x000000000041e9f1       0x15 0x1 /usr/local/popcorn/x86_64/lib/libelf.a(version.o)
                0x000000000041e9f1                version__str_LIBELF_SAN
 *fill*         0x000000000041ea06        0xa 
 .rodata.cst16  0x000000000041ea10       0x10 0x10 /usr/local/popcorn/x86_64/lib/libelf.a(32.xlatetof.o)
                                         0x40 (size before relaxing)
 .rodata.32_xlatetof_c_xlate32_11
                0x000000000041ea20      0x220 0x10 /usr/local/popcorn/x86_64/lib/libelf.a(32.xlatetof.o)
 .rodata._elf_scn_type
                0x000000000041ec40       0x88 0x8 /usr/local/popcorn/x86_64/lib/libelf.a(cook.o)
 .rodata._elf_cook
                0x000000000041ecc8      0x110 0x8 /usr/local/popcorn/x86_64/lib/libelf.a(cook.o)
 .rodata._elf_scn_init
                0x000000000041edd8       0xa0 0x8 /usr/local/popcorn/x86_64/lib/libelf.a(cook.o)
                0x000000000041edd8                _elf_scn_init
 .rodata._elf_data_init
                0x000000000041ee78       0x58 0x8 /usr/local/popcorn/x86_64/lib/libelf.a(cook.o)
                0x000000000041ee78                _elf_data_init
 .rodata.cst16  0x000000000041eed0       0x20 0x10 /usr/local/popcorn/x86_64/lib/libelf.a(64.xlatetof.o)
 .rodata.64_xlatetof_c_xlate64_11
                0x000000000041eef0      0x220 0x10 /usr/local/popcorn/x86_64/lib/libelf.a(64.xlatetof.o)
 .rodata._elf_fmsize
                0x000000000041f110      0x220 0x10 /usr/local/popcorn/x86_64/lib/libelf.a(32.fsize.o)
                0x000000000041f110                _elf_fmsize
 .rodata.src_exit_assert__str_Assertion_
                0x000000000041f330       0x23 0x1 /usr/local/popcorn/x86_64/lib/libc.a(assert.o)
                0x000000000041f330                src_exit_assert__str_Assertion_
 *fill*         0x000000000041f353        0xd 
 .rodata.cst16  0x000000000041f360       0x10 0x10 /usr/local/popcorn/x86_64/lib/libc.a(malloc.o)
 .rodata.src_malloc_malloc_c_bin_tab
                0x000000000041f370       0x3c 0x10 /usr/local/popcorn/x86_64/lib/libc.a(malloc.o)
 *fill*         0x000000000041f3ac        0x4 
 .rodata.src_malloc_popcorn_malloc_c_bin_tab
                0x000000000041f3b0       0x3c 0x10 /usr/local/popcorn/x86_64/lib/libc.a(popcorn_malloc.o)
 .rodata.src_stdio_fopen__str_rwa_
                0x000000000041f3ec        0x4 0x1 /usr/local/popcorn/x86_64/lib/libc.a(fopen.o)
                0x000000000041f3ec                src_stdio_fopen__str_rwa_
 .rodata.stderr
                0x000000000041f3f0        0x8 0x8 /usr/local/popcorn/x86_64/lib/libc.a(stderr.o)
                0x000000000041f3f0                stderr
 .rodata.vfscanf
                0x000000000041f3f8      0x338 0x8 /usr/local/popcorn/x86_64/lib/libc.a(vfscanf.o)
 .rodata.src_stdlib_qsort___const_qsort_p_
                0x000000000041f730       0x10 0x10 /usr/local/popcorn/x86_64/lib/libc.a(qsort.o)
                0x000000000041f730                src_stdlib_qsort___const_qsort_p_
 .rodata.cst16  0x000000000041f740       0x60 0x10 /usr/local/popcorn/x86_64/lib/libc.a(floatscan.o)
 .rodata.cst4   0x000000000041f7a0        0xc 0x4 /usr/local/popcorn/x86_64/lib/libc.a(floatscan.o)
                                         0x14 (size before relaxing)
 *fill*         0x000000000041f7ac        0x4 
 .rodata.cst8   0x000000000041f7b0       0x28 0x8 /usr/local/popcorn/x86_64/lib/libc.a(floatscan.o)
 *fill*         0x000000000041f7d8        0x8 
 .rodata.src_internal_floatscan_c_decfloat_p10s
                0x000000000041f7e0       0x20 0x10 /usr/local/popcorn/x86_64/lib/libc.a(floatscan.o)
 .rodata.src_internal_floatscan_switch_table___floatscan_
                0x000000000041f800        0xc 0x4 /usr/local/popcorn/x86_64/lib/libc.a(floatscan.o)
                0x000000000041f800                src_internal_floatscan_switch_table___floatscan_
 .rodata.src_internal_floatscan_switch_table___floatscan_2_
                0x000000000041f80c        0xc 0x4 /usr/local/popcorn/x86_64/lib/libc.a(floatscan.o)
                0x000000000041f80c                src_internal_floatscan_switch_table___floatscan_2_
 *fill*         0x000000000041f818        0x8 
 .rodata.src_internal_intscan_c_table
                0x000000000041f820      0x101 0x10 /usr/local/popcorn/x86_64/lib/libc.a(intscan.o)
 .rodata.src_internal_intscan__str__________
                0x000000000041f921        0x9 0x1 /usr/local/popcorn/x86_64/lib/libc.a(intscan.o)
                0x000000000041f921                src_internal_intscan__str__________
 *fill*         0x000000000041f92a        0x6 
 .rodata.cst8   0x000000000041f930       0x10 0x8 /usr/local/popcorn/x86_64/lib/libc.a(scalbn.o)
 .rodata.cst16  0x000000000041f940       0x20 0x10 /usr/local/popcorn/x86_64/lib/libc.a(scalbnl.o)
 .rodata.src_signal_block_c_all_mask
                0x000000000041f960        0x8 0x8 /usr/local/popcorn/x86_64/lib/libc.a(block.o)
 .rodata.src_signal_block_c_app_mask
                0x000000000041f968        0x8 0x8 /usr/local/popcorn/x86_64/lib/libc.a(block.o)
 .rodata.src_stdio___fdopen__str_rwa_
                0x000000000041f970        0x4 0x1 /usr/local/popcorn/x86_64/lib/libc.a(__fdopen.o)
                0x000000000041f970                src_stdio___fdopen__str_rwa_
 *fill*         0x000000000041f974        0xc 
 .rodata.__fsmu8
                0x000000000041f980       0xcc 0x10 /usr/local/popcorn/x86_64/lib/libc.a(internal.o)
                0x000000000041f980                __fsmu8

.llvm_stackmaps
                0x000000000041fa50      0xab0
 .llvm_stackmaps
                0x000000000041fa50      0x3a8 0x8 basic_x86_64.o
 .llvm_stackmaps
                0x000000000041fdf8       0x48 0x8 /usr/local/popcorn/x86_64/lib/libc.a(__libc_start_main.o)
 .llvm_stackmaps
                0x000000000041fe40      0x488 0x8 /usr/local/popcorn/x86_64/lib/libmigrate.a(migrate.o)
 .llvm_stackmaps
                0x00000000004202c8      0x238 0x8 /usr/local/popcorn/x86_64/lib/libmigrate.a(mapping.o)

.rodata1
 *(.rodata1)

.eh_frame_hdr
 *(.eh_frame_hdr)
 *(.eh_frame_entry .eh_frame_entry.*)

.eh_frame       0x0000000000420500     0x2f68
 *(.eh_frame)
 .eh_frame      0x0000000000420500       0x88 0x8 basic_x86_64.o
 .eh_frame      0x0000000000420588      0x168 0x8 /usr/local/popcorn/x86_64/lib/libmigrate.a(migrate.o)
                                        0x180 (size before relaxing)
 .eh_frame      0x00000000004206f0       0xc0 0x8 /usr/local/popcorn/x86_64/lib/libmigrate.a(mapping.o)
                                         0xd8 (size before relaxing)
 .eh_frame      0x00000000004207b0      0x110 0x8 /usr/local/popcorn/x86_64/lib/libstack-transform.a(userspace.o)
                                        0x128 (size before relaxing)
 .eh_frame      0x00000000004208c0       0x70 0x8 /usr/local/popcorn/x86_64/lib/libstack-transform.a(init.o)
                                         0x88 (size before relaxing)
 .eh_frame      0x0000000000420930       0xe0 0x8 /usr/local/popcorn/x86_64/lib/libstack-transform.a(rewrite.o)
                                         0xf8 (size before relaxing)
 .eh_frame      0x0000000000420a10      0x170 0x8 /usr/local/popcorn/x86_64/lib/libstack-transform.a(unwind.o)
                                        0x188 (size before relaxing)
 .eh_frame      0x0000000000420b80      0x148 0x8 /usr/local/popcorn/x86_64/lib/libstack-transform.a(util.o)
                                        0x160 (size before relaxing)
 .eh_frame      0x0000000000420cc8       0x40 0x8 /usr/local/popcorn/x86_64/lib/libstack-transform.a(properties.o)
                                         0x58 (size before relaxing)
 .eh_frame      0x0000000000420d08      0x2d8 0x8 /usr/local/popcorn/x86_64/lib/libstack-transform.a(regs.o)
                                        0x2f0 (size before relaxing)
 .eh_frame      0x0000000000420fe0       0x48 0x8 /usr/local/popcorn/x86_64/lib/libstack-transform.a(properties.o)
                                         0x60 (size before relaxing)
 .eh_frame      0x0000000000421028      0x2e8 0x8 /usr/local/popcorn/x86_64/lib/libstack-transform.a(regs.o)
                                        0x300 (size before relaxing)
 .eh_frame      0x0000000000421310       0x40 0x8 /usr/local/popcorn/x86_64/lib/libstack-transform.a(properties.o)
                                         0x58 (size before relaxing)
 .eh_frame      0x0000000000421350      0x160 0x8 /usr/local/popcorn/x86_64/lib/libstack-transform.a(regs.o)
                                        0x178 (size before relaxing)
 .eh_frame      0x00000000004214b0       0x40 0x8 /usr/local/popcorn/x86_64/lib/libstack-transform.a(properties.o)
                                         0x58 (size before relaxing)
 .eh_frame      0x00000000004214f0      0x228 0x8 /usr/local/popcorn/x86_64/lib/libstack-transform.a(regs.o)
                                        0x240 (size before relaxing)
 .eh_frame      0x0000000000421718      0x1d8 0x8 /usr/local/popcorn/x86_64/lib/libstack-transform.a(data.o)
                                        0x1f0 (size before relaxing)
 .eh_frame      0x00000000004218f0       0xb0 0x8 /usr/local/popcorn/x86_64/lib/libelf.a(begin.o)
                                         0xc8 (size before relaxing)
 .eh_frame      0x00000000004219a0       0x40 0x8 /usr/local/popcorn/x86_64/lib/libelf.a(end.o)
                                         0x58 (size before relaxing)
 .eh_frame      0x00000000004219e0       0x38 0x8 /usr/local/popcorn/x86_64/lib/libelf.a(getdata.o)
                                         0x50 (size before relaxing)
 .eh_frame      0x0000000000421a18       0x40 0x8 /usr/local/popcorn/x86_64/lib/libelf.a(getident.o)
                                         0x58 (size before relaxing)
 .eh_frame      0x0000000000421a58       0x20 0x8 /usr/local/popcorn/x86_64/lib/libelf.a(nextscn.o)
                                         0x38 (size before relaxing)
 .eh_frame      0x0000000000421a78       0x40 0x8 /usr/local/popcorn/x86_64/lib/libelf.a(strptr.o)
                                         0x58 (size before relaxing)
 .eh_frame      0x0000000000421ab8       0x28 0x8 /usr/local/popcorn/x86_64/lib/libelf.a(version.o)
                                         0x40 (size before relaxing)
 .eh_frame      0x0000000000421ae0       0xa0 0x8 /usr/local/popcorn/x86_64/lib/libelf.a(32.getehdr.o)
                                         0xb8 (size before relaxing)
 .eh_frame      0x0000000000421b80      0x488 0x8 /usr/local/popcorn/x86_64/lib/libelf.a(32.xlatetof.o)
                                        0x4a0 (size before relaxing)
 .eh_frame      0x0000000000422008       0xc0 0x8 /usr/local/popcorn/x86_64/lib/libelf.a(cook.o)
                                         0xd8 (size before relaxing)
 .eh_frame      0x00000000004220c8       0x60 0x8 /usr/local/popcorn/x86_64/lib/libelf.a(input.o)
                                         0x78 (size before relaxing)
 .eh_frame      0x0000000000422128      0x180 0x8 /usr/local/popcorn/x86_64/lib/libelf.a(x.elfext.o)
                                        0x198 (size before relaxing)
 .eh_frame      0x00000000004222a8      0xc98 0x8 /usr/local/popcorn/x86_64/lib/libelf.a(64.xlatetof.o)
                                        0xcb0 (size before relaxing)
 .eh_frame      0x0000000000422f40       0x48 0x8 /usr/local/popcorn/x86_64/lib/libelf.a(gelfshdr.o)
                                         0x60 (size before relaxing)
 .eh_frame      0x0000000000422f88       0xa0 0x8 /usr/local/popcorn/x86_64/lib/libelf.a(swap64.o)
                                         0xb8 (size before relaxing)
 .eh_frame      0x0000000000423028       0xc8 0x8 /usr/local/popcorn/x86_64/lib/libelf.a(verdef_32_tof.o)
                                         0xe0 (size before relaxing)
 .eh_frame      0x00000000004230f0       0xe0 0x8 /usr/local/popcorn/x86_64/lib/libelf.a(verdef_32_tom.o)
                                         0xf8 (size before relaxing)
 .eh_frame      0x00000000004231d0       0xc8 0x8 /usr/local/popcorn/x86_64/lib/libelf.a(verdef_64_tof.o)
                                         0xe0 (size before relaxing)
 .eh_frame      0x0000000000423298       0xe0 0x8 /usr/local/popcorn/x86_64/lib/libelf.a(verdef_64_tom.o)
                                         0xf8 (size before relaxing)
 .eh_frame      0x0000000000423378       0x28 0x8 /usr/local/popcorn/x86_64/lib/libelf.a(getscn.o)
                                         0x40 (size before relaxing)
 .eh_frame      0x00000000004233a0       0x78 0x8 /usr/local/popcorn/x86_64/lib/libelf.a(newscn.o)
                                         0x90 (size before relaxing)
 .eh_frame      0x0000000000423418       0x50 0x8 /usr/local/popcorn/x86_64/lib/libelf.a(32.fsize.o)
                                         0x68 (size before relaxing)
 *(.eh_frame.*)

.gcc_except_table
 *(.gcc_except_table .gcc_except_table.*)

.gnu_extab
 *(.gnu_extab*)

.exception_ranges
 *(.exception_ranges*)
                0x0000000000424fd0                . = DATA_SEGMENT_ALIGN (CONSTANT (MAXPAGESIZE), CONSTANT (COMMONPAGESIZE))

.eh_frame
 *(.eh_frame)
 *(.eh_frame.*)

.gnu_extab
 *(.gnu_extab)

.gcc_except_table
 *(.gcc_except_table .gcc_except_table.*)

.exception_ranges
 *(.exception_ranges*)

.tdata          0x0000000000424fd0        0x0
                [!provide]                        PROVIDE (__tdata_start = .)
 *(.tdata .tdata.* .gnu.linkonce.td.*)

.tbss           0x0000000000424fd0    0xde0b0
 *(.tbss .tbss.* .gnu.linkonce.tb.*)
 .tbss.src_userspace_c_bounds
                0x0000000000424fd0       0x10 0x8 /usr/local/popcorn/x86_64/lib/libstack-transform.a(userspace.o)
 .tbss.src_rewrite_c_src_ctx
                0x0000000000424fe0     0xb050 0x8 /usr/local/popcorn/x86_64/lib/libstack-transform.a(rewrite.o)
 .tbss.src_rewrite_c_src_regs
                0x0000000000430030    0x62000 0x10 /usr/local/popcorn/x86_64/lib/libstack-transform.a(rewrite.o)
 .tbss.src_rewrite_c_src_callee
                0x0000000000492030     0x2000 0x10 /usr/local/popcorn/x86_64/lib/libstack-transform.a(rewrite.o)
 .tbss.src_rewrite_c_dest_ctx
                0x0000000000494030     0xb050 0x8 /usr/local/popcorn/x86_64/lib/libstack-transform.a(rewrite.o)
 .tbss.src_rewrite_c_dest_regs
                0x000000000049f080    0x62000 0x10 /usr/local/popcorn/x86_64/lib/libstack-transform.a(rewrite.o)
 .tbss.src_rewrite_c_dest_callee
                0x0000000000501080     0x2000 0x10 /usr/local/popcorn/x86_64/lib/libstack-transform.a(rewrite.o)
 *(.tcommon)

.preinit_array  0x0000000000424fd0        0x0
                [!provide]                        PROVIDE (__preinit_array_start = .)
 *(.preinit_array)
                [!provide]                        PROVIDE (__preinit_array_end = .)

.init_array     0x0000000000424fd0       0x28
                0x0000000000424fd0                PROVIDE (__init_array_start = .)
 *(SORT_BY_INIT_PRIORITY(.init_array.*) SORT_BY_INIT_PRIORITY(.ctors.*))
 *(.init_array EXCLUDE_FILE(*crtend?.o *crtend.o *crtbegin?.o *crtbegin.o) .ctors)
 .init_array    0x0000000000424fd0        0x8 0x8 /usr/local/popcorn/x86_64/lib/libmigrate.a(migrate.o)
 .init_array    0x0000000000424fd8        0x8 0x8 /usr/local/popcorn/x86_64/lib/libmigrate.a(mapping.o)
 .init_array    0x0000000000424fe0        0x8 0x8 /usr/local/popcorn/x86_64/lib/libstack-transform.a(init.o)
 .init_array    0x0000000000424fe8        0x8 0x8 /usr/local/popcorn/x86_64/lib/libc.a(malloc.o)
 .init_array    0x0000000000424ff0        0x8 0x8 /usr/local/popcorn/x86_64/lib/libc.a(popcorn_malloc.o)
                0x0000000000424ff8                PROVIDE (__init_array_end = .)

.fini_array     0x0000000000424ff8        0x8
                0x0000000000424ff8                PROVIDE (__fini_array_start = .)
 *(SORT_BY_INIT_PRIORITY(.fini_array.*) SORT_BY_INIT_PRIORITY(.dtors.*))
 *(.fini_array EXCLUDE_FILE(*crtend?.o *crtend.o *crtbegin?.o *crtbegin.o) .dtors)
 .fini_array    0x0000000000424ff8        0x8 0x8 /usr/local/popcorn/x86_64/lib/libmigrate.a(mapping.o)
                0x0000000000425000                PROVIDE (__fini_array_end = .)

.ctors
 *crtbegin.o(.ctors)
 *crtbegin?.o(.ctors)
 *(EXCLUDE_FILE(*crtend?.o *crtend.o) .ctors)
 *(SORT_BY_NAME(.ctors.*))
 *(.ctors)

.dtors
 *crtbegin.o(.dtors)
 *crtbegin?.o(.dtors)
 *(EXCLUDE_FILE(*crtend?.o *crtend.o) .dtors)
 *(SORT_BY_NAME(.dtors.*))
 *(.dtors)

.jcr
 *(.jcr)

.data.rel.ro
 *(.data.rel.ro.local* .gnu.linkonce.d.rel.ro.local.*)
 *(.data.rel.ro .data.rel.ro.* .gnu.linkonce.d.rel.ro.*)

.dynamic
 *(.dynamic)

.got            0x0000000000425000        0x0
 *(.got)
 .got           0x0000000000425000        0x0 0x8 basic_x86_64.o
 *(.igot)
                0x0000000000425000                . = DATA_SEGMENT_RELRO_END (., (SIZEOF (.got.plt) >= 0x18)?0x18:0x0)

.got.plt        0x0000000000425000        0x0
 *(.got.plt)
 .got.plt       0x0000000000425000        0x0 0x8 basic_x86_64.o
 *(.igot.plt)
 .igot.plt      0x0000000000425000        0x0 0x8 basic_x86_64.o

.data           0x0000000000425000      0x1e8
 *(.data .data.* .gnu.linkonce.d.*)
 .data.src_stdio_stdout_c_f
                0x0000000000425000       0xe8 0x8 /usr/local/popcorn/x86_64/lib/libc.a(stdout.o)
 .data.__stdout_used
                0x00000000004250e8        0x8 0x8 /usr/local/popcorn/x86_64/lib/libc.a(stdout.o)
                0x00000000004250e8                __stdout_used
 .data.src_migrate_c_origin_nid
                0x00000000004250f0        0x4 0x4 /usr/local/popcorn/x86_64/lib/libmigrate.a(migrate.o)
 .data          0x00000000004250f4        0x0 0x1 /usr/local/popcorn/x86_64/lib/libmigrate.a(migrate_powerpc64.o)
 .data          0x00000000004250f4        0x0 0x1 /usr/local/popcorn/x86_64/lib/libmigrate.a(migrate_aarch64.o)
 .data          0x00000000004250f4        0x0 0x1 /usr/local/popcorn/x86_64/lib/libmigrate.a(migrate_x86_64.o)
 .data          0x00000000004250f4        0x0 0x1 /usr/local/popcorn/x86_64/lib/libmigrate.a(migrate_riscv64.o)
 .data._elf_sanity_checks
                0x00000000004250f4        0x4 0x4 /usr/local/popcorn/x86_64/lib/libelf.a(data.o)
                0x00000000004250f4                _elf_sanity_checks
 .data.src_stdio_stderr_c_f
                0x00000000004250f8       0xe8 0x8 /usr/local/popcorn/x86_64/lib/libc.a(stderr.o)
 .data.__stderr_used
                0x00000000004251e0        0x8 0x8 /usr/local/popcorn/x86_64/lib/libc.a(stderr.o)
                0x00000000004251e0                __stderr_used

.data1
 *(.data1)
                0x00000000004251e8                _edata = .
                [!provide]                        PROVIDE (edata = .)
                0x00000000004251e8                . = .
                0x00000000004251e8                __bss_start = .

.bss            0x0000000000426000    0x23000
 *(.dynbss)
 *(.bss .bss.* .gnu.linkonce.b.*)
 .bss.ret       0x0000000000426000        0x8 0x8 basic_x86_64.o
                0x0000000000426000                ret
 .bss.tid_main  0x0000000000426008        0x4 0x4 basic_x86_64.o
                0x0000000000426008                tid_main
 *fill*         0x000000000042600c        0x4 
 .bss.__popcorn_stack_base
                0x0000000000426010        0x8 0x8 /usr/local/popcorn/x86_64/lib/libc.a(__libc_start_main.o)
                0x0000000000426010                __popcorn_stack_base
 .bss.__progname
                0x0000000000426018        0x8 0x8 /usr/local/popcorn/x86_64/lib/libc.a(libc.o)
                0x0000000000426018                __progname
                0x0000000000426018                program_invocation_short_name
 .bss.__progname_full
                0x0000000000426020        0x8 0x8 /usr/local/popcorn/x86_64/lib/libc.a(libc.o)
                0x0000000000426020                program_invocation_name
                0x0000000000426020                __progname_full
 *fill*         0x0000000000426028        0x8 
 .bss.src_stdio_stdout_c_buf
                0x0000000000426030      0x408 0x10 /usr/local/popcorn/x86_64/lib/libc.a(stdout.o)
 .bss.__environ
                0x0000000000426438        0x8 0x8 /usr/local/popcorn/x86_64/lib/libc.a(__environ.o)
                0x0000000000426438                _environ
                0x0000000000426438                __environ
                0x0000000000426438                environ
                0x0000000000426438                ___environ
 .bss.src_env___init_tls_c_main_tls
                0x0000000000426440       0x30 0x8 /usr/local/popcorn/x86_64/lib/libc.a(__init_tls.o)
 .bss.src_env___init_tls_c_builtin_tls
                0x0000000000426470      0x1a8 0x10 /usr/local/popcorn/x86_64/lib/libc.a(__init_tls.o)
 .bss.src_stdio___stdio_exit_c_dummy_file
                0x0000000000426618        0x8 0x8 /usr/local/popcorn/x86_64/lib/libc.a(__stdio_exit.o)
                0x0000000000426618                __stdin_used
 .bss.src_stdio_ofl_c_ofl_lock
                0x0000000000426620        0x8 0x4 /usr/local/popcorn/x86_64/lib/libc.a(ofl.o)
 .bss.src_stdio_ofl_c_ofl_head
                0x0000000000426628        0x8 0x8 /usr/local/popcorn/x86_64/lib/libc.a(ofl.o)
 .bss.src_migrate_c_ni
                0x0000000000426630      0x180 0x10 /usr/local/popcorn/x86_64/lib/libmigrate.a(migrate.o)
 .bss           0x00000000004267b0        0x0 0x1 /usr/local/popcorn/x86_64/lib/libmigrate.a(migrate_powerpc64.o)
 .bss           0x00000000004267b0        0x0 0x1 /usr/local/popcorn/x86_64/lib/libmigrate.a(migrate_aarch64.o)
 .bss           0x00000000004267b0        0x0 0x1 /usr/local/popcorn/x86_64/lib/libmigrate.a(migrate_x86_64.o)
 .bss           0x00000000004267b0        0x0 0x1 /usr/local/popcorn/x86_64/lib/libmigrate.a(migrate_riscv64.o)
 .bss.src_mapping_c_default_node
                0x00000000004267b0        0x4 0x4 /usr/local/popcorn/x86_64/lib/libmigrate.a(mapping.o)
 *fill*         0x00000000004267b4        0x4 
 .bss.src_mapping_c_mappings
                0x00000000004267b8        0x8 0x8 /usr/local/popcorn/x86_64/lib/libmigrate.a(mapping.o)
 .bss.src_mapping_c_num_mappings
                0x00000000004267c0        0x8 0x8 /usr/local/popcorn/x86_64/lib/libmigrate.a(mapping.o)
 .bss.aarch64_fn
                0x00000000004267c8        0x8 0x8 /usr/local/popcorn/x86_64/lib/libstack-transform.a(userspace.o)
                0x00000000004267c8                aarch64_fn
 .bss.powerpc64_fn
                0x00000000004267d0        0x8 0x8 /usr/local/popcorn/x86_64/lib/libstack-transform.a(userspace.o)
                0x00000000004267d0                powerpc64_fn
 .bss.riscv64_fn
                0x00000000004267d8        0x8 0x8 /usr/local/popcorn/x86_64/lib/libstack-transform.a(userspace.o)
                0x00000000004267d8                riscv64_fn
 .bss.x86_64_fn
                0x00000000004267e0        0x8 0x8 /usr/local/popcorn/x86_64/lib/libstack-transform.a(userspace.o)
                0x00000000004267e0                x86_64_fn
 .bss.src_userspace_c_aarch64_handle
                0x00000000004267e8        0x8 0x8 /usr/local/popcorn/x86_64/lib/libstack-transform.a(userspace.o)
 .bss.src_userspace_c_alloc_aarch64_fn
                0x00000000004267f0        0x1 0x1 /usr/local/popcorn/x86_64/lib/libstack-transform.a(userspace.o)
 *fill*         0x00000000004267f1        0x7 
 .bss.src_userspace_c_powerpc64_handle
                0x00000000004267f8        0x8 0x8 /usr/local/popcorn/x86_64/lib/libstack-transform.a(userspace.o)
 .bss.src_userspace_c_alloc_powerpc64_fn
                0x0000000000426800        0x1 0x1 /usr/local/popcorn/x86_64/lib/libstack-transform.a(userspace.o)
 *fill*         0x0000000000426801        0x7 
 .bss.src_userspace_c_riscv64_handle
                0x0000000000426808        0x8 0x8 /usr/local/popcorn/x86_64/lib/libstack-transform.a(userspace.o)
 .bss.src_userspace_c_alloc_riscv64_fn
                0x0000000000426810        0x1 0x1 /usr/local/popcorn/x86_64/lib/libstack-transform.a(userspace.o)
 *fill*         0x0000000000426811        0x7 
 .bss.src_userspace_c_x86_64_handle
                0x0000000000426818        0x8 0x8 /usr/local/popcorn/x86_64/lib/libstack-transform.a(userspace.o)
 .bss.src_userspace_c_alloc_x86_64_fn
                0x0000000000426820        0x1 0x1 /usr/local/popcorn/x86_64/lib/libstack-transform.a(userspace.o)
 *fill*         0x0000000000426821        0x3 
 .bss._elf_version
                0x0000000000426824        0x4 0x4 /usr/local/popcorn/x86_64/lib/libelf.a(data.o)
                0x0000000000426824                _elf_version
 .bss._elf_errno
                0x0000000000426828        0x4 0x4 /usr/local/popcorn/x86_64/lib/libelf.a(data.o)
                0x0000000000426828                _elf_errno
 .bss._elf_fill
                0x000000000042682c        0x4 0x4 /usr/local/popcorn/x86_64/lib/libelf.a(data.o)
                0x000000000042682c                _elf_fill
 .bss.src_malloc_lite_malloc_c___simple_malloc_cur
                0x0000000000426830        0x8 0x8 /usr/local/popcorn/x86_64/lib/libc.a(lite_malloc.o)
 .bss.src_malloc_lite_malloc_c___simple_malloc_end
                0x0000000000426838        0x8 0x8 /usr/local/popcorn/x86_64/lib/libc.a(lite_malloc.o)
 .bss.src_malloc_lite_malloc_c___simple_malloc_lock
                0x0000000000426840        0x8 0x4 /usr/local/popcorn/x86_64/lib/libc.a(lite_malloc.o)
 *fill*         0x0000000000426848      0x7b8 
 .bss.src_malloc_malloc_c_mal
                0x0000000000427000     0x1000 0x1000 /usr/local/popcorn/x86_64/lib/libc.a(malloc.o)
 .bss.src_malloc_malloc_c_expand_heap_heap_lock
                0x0000000000428000        0x8 0x4 /usr/local/popcorn/x86_64/lib/libc.a(malloc.o)
 .bss.src_malloc_malloc_c_expand_heap_end
                0x0000000000428008        0x8 0x8 /usr/local/popcorn/x86_64/lib/libc.a(malloc.o)
 .bss.src_malloc_popcorn_malloc_c_expand_heap_heap_lock
                0x0000000000428010      0x100 0x10 /usr/local/popcorn/x86_64/lib/libc.a(popcorn_malloc.o)
 .bss.src_malloc_popcorn_malloc_c_expand_heap_end
                0x0000000000428110      0x100 0x10 /usr/local/popcorn/x86_64/lib/libc.a(popcorn_malloc.o)
 .bss.src_stdio_fflush_c_dummy
                0x0000000000428210        0x8 0x8 /usr/local/popcorn/x86_64/lib/libc.a(fflush.o)
 .bss.src_stdio_stderr_c_buf
                0x0000000000428218        0x8 0x1 /usr/local/popcorn/x86_64/lib/libc.a(stderr.o)
 .bss.src_malloc_expand_heap_c___expand_heap_brk
                0x0000000000428220        0x8 0x8 /usr/local/popcorn/x86_64/lib/libc.a(expand_heap.o)
 .bss.src_malloc_expand_heap_c___expand_heap_mmap_step
                0x0000000000428228        0x4 0x4 /usr/local/popcorn/x86_64/lib/libc.a(expand_heap.o)
 *fill*         0x000000000042822c        0x4 
 .bss.src_malloc_expand_heap_c___expand_heap_node_node_arenas
                0x0000000000428230      0x100 0x10 /usr/local/popcorn/x86_64/lib/libc.a(expand_heap.o)
 .bss.src_malloc_expand_heap_c___expand_heap_node_node_sizes
                0x0000000000428330      0x100 0x10 /usr/local/popcorn/x86_64/lib/libc.a(expand_heap.o)
 .bss.src_malloc_expand_heap_c_arena_start
                0x0000000000428430        0x8 0x8 /usr/local/popcorn/x86_64/lib/libc.a(expand_heap.o)
 .bss.src_malloc_expand_heap_c_set_arena_start_lock
                0x0000000000428438        0x8 0x4 /usr/local/popcorn/x86_64/lib/libc.a(expand_heap.o)
 .bss.src_multibyte_mbrtowc_c_mbrtowc_internal_state
                0x0000000000428440        0x4 0x4 /usr/local/popcorn/x86_64/lib/libc.a(mbrtowc.o)
 *(COMMON)
 *fill*         0x0000000000428444        0x4 
 COMMON         0x0000000000428448       0x80 0x8 /usr/local/popcorn/x86_64/lib/libc.a(libc.o)
                0x0000000000428448                __hwcap
                0x0000000000428450                __libc
                0x00000000004284c0                __sysinfo
 *fill*         0x00000000004284c8      0xb38 
 COMMON         0x0000000000429000    0x20000 0x1000 /usr/local/popcorn/x86_64/lib/libc.a(popcorn_malloc.o)
                0x0000000000429000                mal
                0x0000000000449000                . = ALIGN ((. != 0x0)?0x8:0x1)

.lbss
 *(.dynlbss)
 *(.lbss .lbss.* .gnu.linkonce.lb.*)
 *(LARGE_COMMON)
                0x0000000000449000                . = ALIGN (0x8)
                0x0000000000449000                . = SEGMENT_START ("ldata-segment", .)

.lrodata
 *(.lrodata .lrodata.* .gnu.linkonce.lr.*)

.ldata          0x0000000000449000        0x0
 *(.ldata .ldata.* .gnu.linkonce.l.*)
                0x0000000000449000                . = ALIGN ((. != 0x0)?0x8:0x1)
                0x0000000000449000                . = ALIGN (0x8)
                0x0000000000449000                _end = .
                [!provide]                        PROVIDE (end = .)
                0x0000000000449000                . = DATA_SEGMENT_END (.)

.stab
 *(.stab)

.stabstr
 *(.stabstr)

.stab.excl
 *(.stab.excl)

.stab.exclstr
 *(.stab.exclstr)

.stab.index
 *(.stab.index)

.stab.indexstr
 *(.stab.indexstr)

.comment        0x0000000000000000     0x3b0f
 *(.comment)
 .comment       0x0000000000000000       0x68 0x1 basic_x86_64.o
                                         0x69 (size before relaxing)
 .comment       0x0000000000000068       0x69 0x1 /usr/local/popcorn/x86_64/lib/crt1.o
 .comment       0x00000000000000d1       0x69 0x1 /usr/local/popcorn/x86_64/lib/libc.a(__libc_start_main.o)
 .comment       0x000000000000013a       0x69 0x1 /usr/local/popcorn/x86_64/lib/libc.a(exit.o)
 .comment       0x00000000000001a3       0x69 0x1 /usr/local/popcorn/x86_64/lib/libc.a(libc.o)
 .comment       0x000000000000020c       0x69 0x1 /usr/local/popcorn/x86_64/lib/libc.a(printf.o)
 .comment       0x0000000000000275       0x69 0x1 /usr/local/popcorn/x86_64/lib/libc.a(stdout.o)
 .comment       0x00000000000002de       0x69 0x1 /usr/local/popcorn/x86_64/lib/libc.a(vfprintf.o)
 .comment       0x0000000000000347       0x69 0x1 /usr/local/popcorn/x86_64/lib/libc.a(strnlen.o)
 .comment       0x00000000000003b0       0x69 0x1 /usr/local/popcorn/x86_64/lib/libc.a(gettid.o)
 .comment       0x0000000000000419       0x69 0x1 /usr/local/popcorn/x86_64/lib/libc.a(sleep.o)
 .comment       0x0000000000000482       0x69 0x1 /usr/local/popcorn/x86_64/lib/libc.a(__environ.o)
 .comment       0x00000000000004eb       0x69 0x1 /usr/local/popcorn/x86_64/lib/libc.a(__init_tls.o)
 .comment       0x0000000000000554       0x69 0x1 /usr/local/popcorn/x86_64/lib/libc.a(__errno_location.o)
 .comment       0x00000000000005bd       0x69 0x1 /usr/local/popcorn/x86_64/lib/libc.a(strerror.o)
 .comment       0x0000000000000626       0x69 0x1 /usr/local/popcorn/x86_64/lib/libc.a(_Exit.o)
 .comment       0x000000000000068f       0x69 0x1 /usr/local/popcorn/x86_64/lib/libc.a(__lctrans.o)
 .comment       0x00000000000006f8       0x69 0x1 /usr/local/popcorn/x86_64/lib/libc.a(__fpclassifyl.o)
 .comment       0x0000000000000761       0x69 0x1 /usr/local/popcorn/x86_64/lib/libc.a(__signbitl.o)
 .comment       0x00000000000007ca       0x69 0x1 /usr/local/popcorn/x86_64/lib/libc.a(frexpl.o)
 .comment       0x0000000000000833       0x69 0x1 /usr/local/popcorn/x86_64/lib/libc.a(wctomb.o)
 .comment       0x000000000000089c       0x69 0x1 /usr/local/popcorn/x86_64/lib/libc.a(__lockfile.o)
 .comment       0x0000000000000905       0x69 0x1 /usr/local/popcorn/x86_64/lib/libc.a(__stdio_close.o)
 .comment       0x000000000000096e       0x69 0x1 /usr/local/popcorn/x86_64/lib/libc.a(__stdio_seek.o)
 .comment       0x00000000000009d7       0x69 0x1 /usr/local/popcorn/x86_64/lib/libc.a(__stdout_write.o)
 .comment       0x0000000000000a40       0x69 0x1 /usr/local/popcorn/x86_64/lib/libc.a(fwrite.o)
 .comment       0x0000000000000aa9       0x69 0x1 /usr/local/popcorn/x86_64/lib/libc.a(memchr.o)
 .comment       0x0000000000000b12       0x69 0x1 /usr/local/popcorn/x86_64/lib/libc.a(__wait.o)
 .comment       0x0000000000000b7b       0x69 0x1 /usr/local/popcorn/x86_64/lib/libc.a(nanosleep.o)
 .comment       0x0000000000000be4       0x69 0x1 /usr/local/popcorn/x86_64/lib/libc.a(syscall_ret.o)
 .comment       0x0000000000000c4d       0x69 0x1 /usr/local/popcorn/x86_64/lib/libc.a(wcrtomb.o)
 .comment       0x0000000000000cb6       0x69 0x1 /usr/local/popcorn/x86_64/lib/libc.a(__stdio_write.o)
 .comment       0x0000000000000d1f       0x69 0x1 /usr/local/popcorn/x86_64/lib/libc.a(__towrite.o)
 .comment       0x0000000000000d88       0x69 0x1 /usr/local/popcorn/x86_64/lib/libc.a(__syscall_cp.o)
 .comment       0x0000000000000df1       0x69 0x1 /usr/local/popcorn/x86_64/lib/libc.a(__stdio_exit.o)
 .comment       0x0000000000000e5a       0x69 0x1 /usr/local/popcorn/x86_64/lib/libc.a(ofl.o)
 .comment       0x0000000000000ec3       0x69 0x1 /usr/local/popcorn/x86_64/lib/libc.a(__lock.o)
 .comment       0x0000000000000f2c       0x69 0x1 /usr/local/popcorn/x86_64/lib/libmigrate.a(migrate.o)
 .comment       0x0000000000000f95       0x69 0x1 /usr/local/popcorn/x86_64/lib/libmigrate.a(mapping.o)
 .comment       0x0000000000000ffe       0x69 0x1 /usr/local/popcorn/x86_64/lib/libstack-transform.a(userspace.o)
 .comment       0x0000000000001067       0x69 0x1 /usr/local/popcorn/x86_64/lib/libstack-transform.a(init.o)
 .comment       0x00000000000010d0       0x69 0x1 /usr/local/popcorn/x86_64/lib/libstack-transform.a(rewrite.o)
 .comment       0x0000000000001139       0x69 0x1 /usr/local/popcorn/x86_64/lib/libstack-transform.a(unwind.o)
 .comment       0x00000000000011a2       0x69 0x1 /usr/local/popcorn/x86_64/lib/libstack-transform.a(util.o)
 .comment       0x000000000000120b       0x69 0x1 /usr/local/popcorn/x86_64/lib/libstack-transform.a(properties.o)
 .comment       0x0000000000001274       0x69 0x1 /usr/local/popcorn/x86_64/lib/libstack-transform.a(regs.o)
 .comment       0x00000000000012dd       0x69 0x1 /usr/local/popcorn/x86_64/lib/libstack-transform.a(properties.o)
 .comment       0x0000000000001346       0x69 0x1 /usr/local/popcorn/x86_64/lib/libstack-transform.a(regs.o)
 .comment       0x00000000000013af       0x69 0x1 /usr/local/popcorn/x86_64/lib/libstack-transform.a(properties.o)
 .comment       0x0000000000001418       0x69 0x1 /usr/local/popcorn/x86_64/lib/libstack-transform.a(regs.o)
 .comment       0x0000000000001481       0x69 0x1 /usr/local/popcorn/x86_64/lib/libstack-transform.a(properties.o)
 .comment       0x00000000000014ea       0x69 0x1 /usr/local/popcorn/x86_64/lib/libstack-transform.a(regs.o)
 .comment       0x0000000000001553       0x69 0x1 /usr/local/popcorn/x86_64/lib/libstack-transform.a(data.o)
 .comment       0x00000000000015bc       0x69 0x1 /usr/local/popcorn/x86_64/lib/libelf.a(begin.o)
 .comment       0x0000000000001625       0x69 0x1 /usr/local/popcorn/x86_64/lib/libelf.a(end.o)
 .comment       0x000000000000168e       0x69 0x1 /usr/local/popcorn/x86_64/lib/libelf.a(getdata.o)
 .comment       0x00000000000016f7       0x69 0x1 /usr/local/popcorn/x86_64/lib/libelf.a(getident.o)
 .comment       0x0000000000001760       0x69 0x1 /usr/local/popcorn/x86_64/lib/libelf.a(nextscn.o)
 .comment       0x00000000000017c9       0x69 0x1 /usr/local/popcorn/x86_64/lib/libelf.a(strptr.o)
 .comment       0x0000000000001832       0x69 0x1 /usr/local/popcorn/x86_64/lib/libelf.a(version.o)
 .comment       0x000000000000189b       0x69 0x1 /usr/local/popcorn/x86_64/lib/libelf.a(32.getehdr.o)
 .comment       0x0000000000001904       0x69 0x1 /usr/local/popcorn/x86_64/lib/libelf.a(32.xlatetof.o)
 .comment       0x000000000000196d       0x69 0x1 /usr/local/popcorn/x86_64/lib/libelf.a(cook.o)
 .comment       0x00000000000019d6       0x69 0x1 /usr/local/popcorn/x86_64/lib/libelf.a(data.o)
 .comment       0x0000000000001a3f       0x69 0x1 /usr/local/popcorn/x86_64/lib/libelf.a(input.o)
 .comment       0x0000000000001aa8       0x69 0x1 /usr/local/popcorn/x86_64/lib/libelf.a(x.elfext.o)
 .comment       0x0000000000001b11       0x69 0x1 /usr/local/popcorn/x86_64/lib/libelf.a(64.xlatetof.o)
 .comment       0x0000000000001b7a       0x69 0x1 /usr/local/popcorn/x86_64/lib/libelf.a(gelfshdr.o)
 .comment       0x0000000000001be3       0x69 0x1 /usr/local/popcorn/x86_64/lib/libelf.a(swap64.o)
 .comment       0x0000000000001c4c       0x69 0x1 /usr/local/popcorn/x86_64/lib/libelf.a(verdef_32_tof.o)
 .comment       0x0000000000001cb5       0x69 0x1 /usr/local/popcorn/x86_64/lib/libelf.a(verdef_32_tom.o)
 .comment       0x0000000000001d1e       0x69 0x1 /usr/local/popcorn/x86_64/lib/libelf.a(verdef_64_tof.o)
 .comment       0x0000000000001d87       0x69 0x1 /usr/local/popcorn/x86_64/lib/libelf.a(verdef_64_tom.o)
 .comment       0x0000000000001df0       0x69 0x1 /usr/local/popcorn/x86_64/lib/libelf.a(getscn.o)
 .comment       0x0000000000001e59       0x69 0x1 /usr/local/popcorn/x86_64/lib/libelf.a(newscn.o)
 .comment       0x0000000000001ec2       0x69 0x1 /usr/local/popcorn/x86_64/lib/libelf.a(32.fsize.o)
 .comment       0x0000000000001f2b       0x69 0x1 /usr/local/popcorn/x86_64/lib/libc.a(arch_crash.o)
 .comment       0x0000000000001f94       0x69 0x1 /usr/local/popcorn/x86_64/lib/libc.a(getenv.o)
 .comment       0x0000000000001ffd       0x69 0x1 /usr/local/popcorn/x86_64/lib/libc.a(platform.o)
 .comment       0x0000000000002066       0x69 0x1 /usr/local/popcorn/x86_64/lib/libc.a(assert.o)
 .comment       0x00000000000020cf       0x69 0x1 /usr/local/popcorn/x86_64/lib/libc.a(open.o)
 .comment       0x0000000000002138       0x69 0x1 /usr/local/popcorn/x86_64/lib/libc.a(calloc.o)
 .comment       0x00000000000021a1       0x69 0x1 /usr/local/popcorn/x86_64/lib/libc.a(lite_malloc.o)
 .comment       0x000000000000220a       0x69 0x1 /usr/local/popcorn/x86_64/lib/libc.a(malloc.o)
 .comment       0x0000000000002273       0x69 0x1 /usr/local/popcorn/x86_64/lib/libc.a(popcorn_malloc.o)
 .comment       0x00000000000022dc       0x69 0x1 /usr/local/popcorn/x86_64/lib/libc.a(getrlimit.o)
 .comment       0x0000000000002345       0x69 0x1 /usr/local/popcorn/x86_64/lib/libc.a(madvise.o)
 .comment       0x00000000000023ae       0x69 0x1 /usr/local/popcorn/x86_64/lib/libc.a(mmap.o)
 .comment       0x0000000000002417       0x69 0x1 /usr/local/popcorn/x86_64/lib/libc.a(mremap.o)
 .comment       0x0000000000002480       0x69 0x1 /usr/local/popcorn/x86_64/lib/libc.a(munmap.o)
 .comment       0x00000000000024e9       0x69 0x1 /usr/local/popcorn/x86_64/lib/libc.a(fclose.o)
 .comment       0x0000000000002552       0x69 0x1 /usr/local/popcorn/x86_64/lib/libc.a(fflush.o)
 .comment       0x00000000000025bb       0x69 0x1 /usr/local/popcorn/x86_64/lib/libc.a(fopen.o)
 .comment       0x0000000000002624       0x69 0x1 /usr/local/popcorn/x86_64/lib/libc.a(fprintf.o)
 .comment       0x000000000000268d       0x69 0x1 /usr/local/popcorn/x86_64/lib/libc.a(fscanf.o)
 .comment       0x00000000000026f6       0x69 0x1 /usr/local/popcorn/x86_64/lib/libc.a(fseek.o)
 .comment       0x000000000000275f       0x69 0x1 /usr/local/popcorn/x86_64/lib/libc.a(getc.o)
 .comment       0x00000000000027c8       0x69 0x1 /usr/local/popcorn/x86_64/lib/libc.a(getline.o)
 .comment       0x0000000000002831       0x69 0x1 /usr/local/popcorn/x86_64/lib/libc.a(perror.o)
 .comment       0x000000000000289a       0x69 0x1 /usr/local/popcorn/x86_64/lib/libc.a(snprintf.o)
 .comment       0x0000000000002903       0x69 0x1 /usr/local/popcorn/x86_64/lib/libc.a(sscanf.o)
 .comment       0x000000000000296c       0x69 0x1 /usr/local/popcorn/x86_64/lib/libc.a(stderr.o)
 .comment       0x00000000000029d5       0x69 0x1 /usr/local/popcorn/x86_64/lib/libc.a(vfscanf.o)
 .comment       0x0000000000002a3e       0x69 0x1 /usr/local/popcorn/x86_64/lib/libc.a(vsnprintf.o)
 .comment       0x0000000000002aa7       0x69 0x1 /usr/local/popcorn/x86_64/lib/libc.a(vsscanf.o)
 .comment       0x0000000000002b10       0x69 0x1 /usr/local/popcorn/x86_64/lib/libc.a(bsearch.o)
 .comment       0x0000000000002b79       0x69 0x1 /usr/local/popcorn/x86_64/lib/libc.a(qsort.o)
 .comment       0x0000000000002be2       0x69 0x1 /usr/local/popcorn/x86_64/lib/libc.a(strtol.o)
 .comment       0x0000000000002c4b       0x69 0x1 /usr/local/popcorn/x86_64/lib/libc.a(strchr.o)
 .comment       0x0000000000002cb4       0x69 0x1 /usr/local/popcorn/x86_64/lib/libc.a(strchrnul.o)
 .comment       0x0000000000002d1d       0x69 0x1 /usr/local/popcorn/x86_64/lib/libc.a(strcmp.o)
 .comment       0x0000000000002d86       0x69 0x1 /usr/local/popcorn/x86_64/lib/libc.a(strlen.o)
 .comment       0x0000000000002def       0x69 0x1 /usr/local/popcorn/x86_64/lib/libc.a(strncmp.o)
 .comment       0x0000000000002e58       0x69 0x1 /usr/local/popcorn/x86_64/lib/libc.a(pthread_attr_get.o)
 .comment       0x0000000000002ec1       0x69 0x1 /usr/local/popcorn/x86_64/lib/libc.a(pthread_getattr_np.o)
 .comment       0x0000000000002f2a       0x69 0x1 /usr/local/popcorn/x86_64/lib/libc.a(pthread_migrate.o)
 .comment       0x0000000000002f93       0x69 0x1 /usr/local/popcorn/x86_64/lib/libc.a(pthread_self.o)
 .comment       0x0000000000002ffc       0x69 0x1 /usr/local/popcorn/x86_64/lib/libc.a(close.o)
 .comment       0x0000000000003065       0x69 0x1 /usr/local/popcorn/x86_64/lib/libc.a(getpid.o)
 .comment       0x00000000000030ce       0x69 0x1 /usr/local/popcorn/x86_64/lib/libc.a(lseek.o)
 .comment       0x0000000000003137       0x69 0x1 /usr/local/popcorn/x86_64/lib/libc.a(read.o)
 .comment       0x00000000000031a0       0x69 0x1 /usr/local/popcorn/x86_64/lib/libc.a(abort.o)
 .comment       0x0000000000003209       0x69 0x1 /usr/local/popcorn/x86_64/lib/libc.a(floatscan.o)
 .comment       0x0000000000003272       0x69 0x1 /usr/local/popcorn/x86_64/lib/libc.a(intscan.o)
 .comment       0x00000000000032db       0x69 0x1 /usr/local/popcorn/x86_64/lib/libc.a(shgetc.o)
 .comment       0x0000000000003344       0x69 0x1 /usr/local/popcorn/x86_64/lib/libc.a(expand_heap.o)
 .comment       0x00000000000033ad       0x69 0x1 /usr/local/popcorn/x86_64/lib/libc.a(copysignl.o)
 .comment       0x0000000000003416       0x69 0x1 /usr/local/popcorn/x86_64/lib/libc.a(scalbn.o)
 .comment       0x000000000000347f       0x69 0x1 /usr/local/popcorn/x86_64/lib/libc.a(scalbnl.o)
 .comment       0x00000000000034e8       0x69 0x1 /usr/local/popcorn/x86_64/lib/libc.a(mbrtowc.o)
 .comment       0x0000000000003551       0x69 0x1 /usr/local/popcorn/x86_64/lib/libc.a(mbsinit.o)
 .comment       0x00000000000035ba       0x69 0x1 /usr/local/popcorn/x86_64/lib/libc.a(block.o)
 .comment       0x0000000000003623       0x69 0x1 /usr/local/popcorn/x86_64/lib/libc.a(raise.o)
 .comment       0x000000000000368c       0x69 0x1 /usr/local/popcorn/x86_64/lib/libc.a(__fdopen.o)
 .comment       0x00000000000036f5       0x69 0x1 /usr/local/popcorn/x86_64/lib/libc.a(__fmodeflags.o)
 .comment       0x000000000000375e       0x69 0x1 /usr/local/popcorn/x86_64/lib/libc.a(__stdio_read.o)
 .comment       0x00000000000037c7       0x69 0x1 /usr/local/popcorn/x86_64/lib/libc.a(__string_read.o)
 .comment       0x0000000000003830       0x69 0x1 /usr/local/popcorn/x86_64/lib/libc.a(__uflow.o)
 .comment       0x0000000000003899       0x69 0x1 /usr/local/popcorn/x86_64/lib/libc.a(fputc.o)
 .comment       0x0000000000003902       0x69 0x1 /usr/local/popcorn/x86_64/lib/libc.a(getdelim.o)
 .comment       0x000000000000396b       0x69 0x1 /usr/local/popcorn/x86_64/lib/libc.a(ofl_add.o)
 .comment       0x00000000000039d4       0x69 0x1 /usr/local/popcorn/x86_64/lib/libc.a(internal.o)
 .comment       0x0000000000003a3d       0x69 0x1 /usr/local/popcorn/x86_64/lib/libc.a(__overflow.o)
 .comment       0x0000000000003aa6       0x69 0x1 /usr/local/popcorn/x86_64/lib/libc.a(__toread.o)

.stack_transform.unwind
                0x0000000000000000       0xb4
 .stack_transform.unwind
                0x0000000000000000       0x30 0x4 basic_x86_64.o
 .stack_transform.unwind
                0x0000000000000030       0x18 0x4 /usr/local/popcorn/x86_64/lib/libc.a(__libc_start_main.o)
 .stack_transform.unwind
                0x0000000000000048       0x54 0x4 /usr/local/popcorn/x86_64/lib/libmigrate.a(migrate.o)
 .stack_transform.unwind
                0x000000000000009c       0x18 0x4 /usr/local/popcorn/x86_64/lib/libmigrate.a(mapping.o)

.stack_transform.unwind_arange
                0x0000000000000000      0x100
 .stack_transform.unwind_arange
                0x0000000000000000       0x30 0x8 basic_x86_64.o
 .stack_transform.unwind_arange
                0x0000000000000030       0x10 0x8 /usr/local/popcorn/x86_64/lib/libc.a(__libc_start_main.o)
 .stack_transform.unwind_arange
                0x0000000000000040       0x90 0x8 /usr/local/popcorn/x86_64/lib/libmigrate.a(migrate.o)
 .stack_transform.unwind_arange
                0x00000000000000d0       0x30 0x8 /usr/local/popcorn/x86_64/lib/libmigrate.a(mapping.o)

.gnu.build.attributes
 *(.gnu.build.attributes .gnu.build.attributes.*)

.debug
 *(.debug)

.line
 *(.line)

.debug_srcinfo
 *(.debug_srcinfo)

.debug_sfnames
 *(.debug_sfnames)

.debug_aranges
 *(.debug_aranges)

.debug_pubnames
 *(.debug_pubnames)

.debug_info     0x0000000000000000    0x1bdb9
 *(.debug_info .gnu.linkonce.wi.*)
 .debug_info    0x0000000000000000      0x121 0x1 basic_x86_64.o
 .debug_info    0x0000000000000121       0x93 0x1 /usr/local/popcorn/x86_64/lib/crt1.o
 .debug_info    0x00000000000001b4      0x323 0x1 /usr/local/popcorn/x86_64/lib/libc.a(__libc_start_main.o)
 .debug_info    0x00000000000004d7       0xb0 0x1 /usr/local/popcorn/x86_64/lib/libc.a(exit.o)
 .debug_info    0x0000000000000587      0x1d7 0x1 /usr/local/popcorn/x86_64/lib/libc.a(libc.o)
 .debug_info    0x000000000000075e       0xfa 0x1 /usr/local/popcorn/x86_64/lib/libc.a(printf.o)
 .debug_info    0x0000000000000858      0x337 0x1 /usr/local/popcorn/x86_64/lib/libc.a(stdout.o)
 .debug_info    0x0000000000000b8f     0x119d 0x1 /usr/local/popcorn/x86_64/lib/libc.a(vfprintf.o)
 .debug_info    0x0000000000001d2c       0x95 0x1 /usr/local/popcorn/x86_64/lib/libc.a(strnlen.o)
 .debug_info    0x0000000000001dc1       0xaa 0x1 /usr/local/popcorn/x86_64/lib/libc.a(gettid.o)
 .debug_info    0x0000000000001e6b       0xa0 0x1 /usr/local/popcorn/x86_64/lib/libc.a(sleep.o)
 .debug_info    0x0000000000001f0b       0x45 0x1 /usr/local/popcorn/x86_64/lib/libc.a(__environ.o)
 .debug_info    0x0000000000001f50      0x79d 0x1 /usr/local/popcorn/x86_64/lib/libc.a(__init_tls.o)
 .debug_info    0x00000000000026ed      0x3a8 0x1 /usr/local/popcorn/x86_64/lib/libc.a(__errno_location.o)
 .debug_info    0x0000000000002a95      0x4a0 0x1 /usr/local/popcorn/x86_64/lib/libc.a(strerror.o)
 .debug_info    0x0000000000002f35       0xe4 0x1 /usr/local/popcorn/x86_64/lib/libc.a(_Exit.o)
 .debug_info    0x0000000000003019      0x470 0x1 /usr/local/popcorn/x86_64/lib/libc.a(__lctrans.o)
 .debug_info    0x0000000000003489       0xec 0x1 /usr/local/popcorn/x86_64/lib/libc.a(__fpclassifyl.o)
 .debug_info    0x0000000000003575       0xd3 0x1 /usr/local/popcorn/x86_64/lib/libc.a(__signbitl.o)
 .debug_info    0x0000000000003648       0xf6 0x1 /usr/local/popcorn/x86_64/lib/libc.a(frexpl.o)
 .debug_info    0x000000000000373e       0x81 0x1 /usr/local/popcorn/x86_64/lib/libc.a(wctomb.o)
 .debug_info    0x00000000000037bf      0x7df 0x1 /usr/local/popcorn/x86_64/lib/libc.a(__lockfile.o)
 .debug_info    0x0000000000003f9e      0x385 0x1 /usr/local/popcorn/x86_64/lib/libc.a(__stdio_close.o)
 .debug_info    0x0000000000004323      0x3ad 0x1 /usr/local/popcorn/x86_64/lib/libc.a(__stdio_seek.o)
 .debug_info    0x00000000000046d0      0x3f0 0x1 /usr/local/popcorn/x86_64/lib/libc.a(__stdout_write.o)
 .debug_info    0x0000000000004ac0      0x3df 0x1 /usr/local/popcorn/x86_64/lib/libc.a(fwrite.o)
 .debug_info    0x0000000000004e9f       0xf3 0x1 /usr/local/popcorn/x86_64/lib/libc.a(memchr.o)
 .debug_info    0x0000000000004f92      0x227 0x1 /usr/local/popcorn/x86_64/lib/libc.a(__wait.o)
 .debug_info    0x00000000000051b9       0xaf 0x1 /usr/local/popcorn/x86_64/lib/libc.a(nanosleep.o)
 .debug_info    0x0000000000005268       0x62 0x1 /usr/local/popcorn/x86_64/lib/libc.a(syscall_ret.o)
 .debug_info    0x00000000000052ca      0x467 0x1 /usr/local/popcorn/x86_64/lib/libc.a(wcrtomb.o)
 .debug_info    0x0000000000005731      0x427 0x1 /usr/local/popcorn/x86_64/lib/libc.a(__stdio_write.o)
 .debug_info    0x0000000000005b58      0x314 0x1 /usr/local/popcorn/x86_64/lib/libc.a(__towrite.o)
 .debug_info    0x0000000000005e6c      0x141 0x1 /usr/local/popcorn/x86_64/lib/libc.a(__syscall_cp.o)
 .debug_info    0x0000000000005fad      0x33c 0x1 /usr/local/popcorn/x86_64/lib/libc.a(__stdio_exit.o)
 .debug_info    0x00000000000062e9      0x341 0x1 /usr/local/popcorn/x86_64/lib/libc.a(ofl.o)
 .debug_info    0x000000000000662a      0x23e 0x1 /usr/local/popcorn/x86_64/lib/libc.a(__lock.o)
 .debug_info    0x0000000000006868      0x720 0x1 /usr/local/popcorn/x86_64/lib/libmigrate.a(migrate.o)
 .debug_info    0x0000000000006f88      0x291 0x1 /usr/local/popcorn/x86_64/lib/libmigrate.a(mapping.o)
 .debug_info    0x0000000000007219      0xd10 0x1 /usr/local/popcorn/x86_64/lib/libstack-transform.a(userspace.o)
 .debug_info    0x0000000000007f29      0x865 0x1 /usr/local/popcorn/x86_64/lib/libstack-transform.a(init.o)
 .debug_info    0x000000000000878e      0xf36 0x1 /usr/local/popcorn/x86_64/lib/libstack-transform.a(rewrite.o)
 .debug_info    0x00000000000096c4      0xd50 0x1 /usr/local/popcorn/x86_64/lib/libstack-transform.a(unwind.o)
 .debug_info    0x000000000000a414      0xc3c 0x1 /usr/local/popcorn/x86_64/lib/libstack-transform.a(util.o)
 .debug_info    0x000000000000b050      0x1f1 0x1 /usr/local/popcorn/x86_64/lib/libstack-transform.a(properties.o)
 .debug_info    0x000000000000b241      0x64c 0x1 /usr/local/popcorn/x86_64/lib/libstack-transform.a(regs.o)
 .debug_info    0x000000000000b88d      0x20c 0x1 /usr/local/popcorn/x86_64/lib/libstack-transform.a(properties.o)
 .debug_info    0x000000000000ba99      0x643 0x1 /usr/local/popcorn/x86_64/lib/libstack-transform.a(regs.o)
 .debug_info    0x000000000000c0dc      0x1f1 0x1 /usr/local/popcorn/x86_64/lib/libstack-transform.a(properties.o)
 .debug_info    0x000000000000c2cd      0x62d 0x1 /usr/local/popcorn/x86_64/lib/libstack-transform.a(regs.o)
 .debug_info    0x000000000000c8fa      0x1f1 0x1 /usr/local/popcorn/x86_64/lib/libstack-transform.a(properties.o)
 .debug_info    0x000000000000caeb      0x778 0x1 /usr/local/popcorn/x86_64/lib/libstack-transform.a(regs.o)
 .debug_info    0x000000000000d263      0xf52 0x1 /usr/local/popcorn/x86_64/lib/libstack-transform.a(data.o)
 .debug_info    0x000000000000e1b5      0x1ff 0x1 /usr/local/popcorn/x86_64/lib/libc.a(arch_crash.o)
 .debug_info    0x000000000000e3b4       0xa1 0x1 /usr/local/popcorn/x86_64/lib/libc.a(getenv.o)
 .debug_info    0x000000000000e455      0x25a 0x1 /usr/local/popcorn/x86_64/lib/libc.a(platform.o)
 .debug_info    0x000000000000e6af       0x95 0x1 /usr/local/popcorn/x86_64/lib/libc.a(assert.o)
 .debug_info    0x000000000000e744      0x1bb 0x1 /usr/local/popcorn/x86_64/lib/libc.a(open.o)
 .debug_info    0x000000000000e8ff      0x136 0x1 /usr/local/popcorn/x86_64/lib/libc.a(calloc.o)
 .debug_info    0x000000000000ea35      0x12d 0x1 /usr/local/popcorn/x86_64/lib/libc.a(lite_malloc.o)
 .debug_info    0x000000000000eb62     0x1aca 0x1 /usr/local/popcorn/x86_64/lib/libc.a(malloc.o)
 .debug_info    0x000000000001062c     0x1a06 0x1 /usr/local/popcorn/x86_64/lib/libc.a(popcorn_malloc.o)
 .debug_info    0x0000000000012032      0x1f8 0x1 /usr/local/popcorn/x86_64/lib/libc.a(getrlimit.o)
 .debug_info    0x000000000001222a      0x116 0x1 /usr/local/popcorn/x86_64/lib/libc.a(madvise.o)
 .debug_info    0x0000000000012340      0x1ed 0x1 /usr/local/popcorn/x86_64/lib/libc.a(mmap.o)
 .debug_info    0x000000000001252d      0x211 0x1 /usr/local/popcorn/x86_64/lib/libc.a(mremap.o)
 .debug_info    0x000000000001273e      0x108 0x1 /usr/local/popcorn/x86_64/lib/libc.a(munmap.o)
 .debug_info    0x0000000000012846      0x36f 0x1 /usr/local/popcorn/x86_64/lib/libc.a(fclose.o)
 .debug_info    0x0000000000012bb5      0x35c 0x1 /usr/local/popcorn/x86_64/lib/libc.a(fflush.o)
 .debug_info    0x0000000000012f11      0x46a 0x1 /usr/local/popcorn/x86_64/lib/libc.a(fopen.o)
 .debug_info    0x000000000001337b      0x124 0x1 /usr/local/popcorn/x86_64/lib/libc.a(fprintf.o)
 .debug_info    0x000000000001349f      0x124 0x1 /usr/local/popcorn/x86_64/lib/libc.a(fscanf.o)
 .debug_info    0x00000000000135c3      0x3c7 0x1 /usr/local/popcorn/x86_64/lib/libc.a(fseek.o)
 .debug_info    0x000000000001398a      0x310 0x1 /usr/local/popcorn/x86_64/lib/libc.a(getc.o)
 .debug_info    0x0000000000013c9a       0xd1 0x1 /usr/local/popcorn/x86_64/lib/libc.a(getline.o)
 .debug_info    0x0000000000013d6b      0x334 0x1 /usr/local/popcorn/x86_64/lib/libc.a(perror.o)
 .debug_info    0x000000000001409f      0x134 0x1 /usr/local/popcorn/x86_64/lib/libc.a(snprintf.o)
 .debug_info    0x00000000000141d3      0x109 0x1 /usr/local/popcorn/x86_64/lib/libc.a(sscanf.o)
 .debug_info    0x00000000000142dc      0x336 0x1 /usr/local/popcorn/x86_64/lib/libc.a(stderr.o)
 .debug_info    0x0000000000014612      0x786 0x1 /usr/local/popcorn/x86_64/lib/libc.a(vfscanf.o)
 .debug_info    0x0000000000014d98      0x44f 0x1 /usr/local/popcorn/x86_64/lib/libc.a(vsnprintf.o)
 .debug_info    0x00000000000151e7      0x3b8 0x1 /usr/local/popcorn/x86_64/lib/libc.a(vsscanf.o)
 .debug_info    0x000000000001559f       0xef 0x1 /usr/local/popcorn/x86_64/lib/libc.a(bsearch.o)
 .debug_info    0x000000000001568e      0x67b 0x1 /usr/local/popcorn/x86_64/lib/libc.a(qsort.o)
 .debug_info    0x0000000000015d09      0x5dc 0x1 /usr/local/popcorn/x86_64/lib/libc.a(strtol.o)
 .debug_info    0x00000000000162e5       0x9b 0x1 /usr/local/popcorn/x86_64/lib/libc.a(strchr.o)
 .debug_info    0x0000000000016380       0xcd 0x1 /usr/local/popcorn/x86_64/lib/libc.a(strchrnul.o)
 .debug_info    0x000000000001644d       0x85 0x1 /usr/local/popcorn/x86_64/lib/libc.a(strcmp.o)
 .debug_info    0x00000000000164d2       0xae 0x1 /usr/local/popcorn/x86_64/lib/libc.a(strlen.o)
 .debug_info    0x0000000000016580       0xca 0x1 /usr/local/popcorn/x86_64/lib/libc.a(strncmp.o)
 .debug_info    0x000000000001664a      0x599 0x1 /usr/local/popcorn/x86_64/lib/libc.a(pthread_attr_get.o)
 .debug_info    0x0000000000016be3      0x431 0x1 /usr/local/popcorn/x86_64/lib/libc.a(pthread_getattr_np.o)
 .debug_info    0x0000000000017014      0x3e4 0x1 /usr/local/popcorn/x86_64/lib/libc.a(pthread_migrate.o)
 .debug_info    0x00000000000173f8      0x3af 0x1 /usr/local/popcorn/x86_64/lib/libc.a(pthread_self.o)
 .debug_info    0x00000000000177a7       0x9a 0x1 /usr/local/popcorn/x86_64/lib/libc.a(close.o)
 .debug_info    0x0000000000017841       0xa9 0x1 /usr/local/popcorn/x86_64/lib/libc.a(getpid.o)
 .debug_info    0x00000000000178ea      0x115 0x1 /usr/local/popcorn/x86_64/lib/libc.a(lseek.o)
 .debug_info    0x00000000000179ff       0x9e 0x1 /usr/local/popcorn/x86_64/lib/libc.a(read.o)
 .debug_info    0x0000000000017a9d       0x5d 0x1 /usr/local/popcorn/x86_64/lib/libc.a(abort.o)
 .debug_info    0x0000000000017afa      0x940 0x1 /usr/local/popcorn/x86_64/lib/libc.a(floatscan.o)
 .debug_info    0x000000000001843a      0x3f0 0x1 /usr/local/popcorn/x86_64/lib/libc.a(intscan.o)
 .debug_info    0x000000000001882a      0x340 0x1 /usr/local/popcorn/x86_64/lib/libc.a(shgetc.o)
 .debug_info    0x0000000000018b6a      0x622 0x1 /usr/local/popcorn/x86_64/lib/libc.a(expand_heap.o)
 .debug_info    0x000000000001918c       0xe9 0x1 /usr/local/popcorn/x86_64/lib/libc.a(copysignl.o)
 .debug_info    0x0000000000019275       0xc9 0x1 /usr/local/popcorn/x86_64/lib/libc.a(scalbn.o)
 .debug_info    0x000000000001933e       0xe2 0x1 /usr/local/popcorn/x86_64/lib/libc.a(scalbnl.o)
 .debug_info    0x0000000000019420      0x517 0x1 /usr/local/popcorn/x86_64/lib/libc.a(mbrtowc.o)
 .debug_info    0x0000000000019937       0x9f 0x1 /usr/local/popcorn/x86_64/lib/libc.a(mbsinit.o)
 .debug_info    0x00000000000199d6      0x208 0x1 /usr/local/popcorn/x86_64/lib/libc.a(block.o)
 .debug_info    0x0000000000019bde      0x17c 0x1 /usr/local/popcorn/x86_64/lib/libc.a(raise.o)
 .debug_info    0x0000000000019d5a      0x501 0x1 /usr/local/popcorn/x86_64/lib/libc.a(__fdopen.o)
 .debug_info    0x000000000001a25b       0x7b 0x1 /usr/local/popcorn/x86_64/lib/libc.a(__fmodeflags.o)
 .debug_info    0x000000000001a2d6      0x3f7 0x1 /usr/local/popcorn/x86_64/lib/libc.a(__stdio_read.o)
 .debug_info    0x000000000001a6cd      0x34c 0x1 /usr/local/popcorn/x86_64/lib/libc.a(__string_read.o)
 .debug_info    0x000000000001aa19      0x310 0x1 /usr/local/popcorn/x86_64/lib/libc.a(__uflow.o)
 .debug_info    0x000000000001ad29      0x310 0x1 /usr/local/popcorn/x86_64/lib/libc.a(fputc.o)
 .debug_info    0x000000000001b039      0x3d8 0x1 /usr/local/popcorn/x86_64/lib/libc.a(getdelim.o)
 .debug_info    0x000000000001b411      0x315 0x1 /usr/local/popcorn/x86_64/lib/libc.a(ofl_add.o)
 .debug_info    0x000000000001b726       0x5e 0x1 /usr/local/popcorn/x86_64/lib/libc.a(internal.o)
 .debug_info    0x000000000001b784      0x31f 0x1 /usr/local/popcorn/x86_64/lib/libc.a(__overflow.o)
 .debug_info    0x000000000001baa3      0x316 0x1 /usr/local/popcorn/x86_64/lib/libc.a(__toread.o)

.debug_abbrev   0x0000000000000000     0x72ee
 *(.debug_abbrev)
 .debug_abbrev  0x0000000000000000       0x88 0x1 basic_x86_64.o
 .debug_abbrev  0x0000000000000088       0x5e 0x1 /usr/local/popcorn/x86_64/lib/crt1.o
 .debug_abbrev  0x00000000000000e6      0x1a7 0x1 /usr/local/popcorn/x86_64/lib/libc.a(__libc_start_main.o)
 .debug_abbrev  0x000000000000028d       0x97 0x1 /usr/local/popcorn/x86_64/lib/libc.a(exit.o)
 .debug_abbrev  0x0000000000000324       0x93 0x1 /usr/local/popcorn/x86_64/lib/libc.a(libc.o)
 .debug_abbrev  0x00000000000003b7       0xc6 0x1 /usr/local/popcorn/x86_64/lib/libc.a(printf.o)
 .debug_abbrev  0x000000000000047d       0xc8 0x1 /usr/local/popcorn/x86_64/lib/libc.a(stdout.o)
 .debug_abbrev  0x0000000000000545      0x26c 0x1 /usr/local/popcorn/x86_64/lib/libc.a(vfprintf.o)
 .debug_abbrev  0x00000000000007b1       0x6f 0x1 /usr/local/popcorn/x86_64/lib/libc.a(strnlen.o)
 .debug_abbrev  0x0000000000000820       0x8f 0x1 /usr/local/popcorn/x86_64/lib/libc.a(gettid.o)
 .debug_abbrev  0x00000000000008af       0x7d 0x1 /usr/local/popcorn/x86_64/lib/libc.a(sleep.o)
 .debug_abbrev  0x000000000000092c       0x33 0x1 /usr/local/popcorn/x86_64/lib/libc.a(__environ.o)
 .debug_abbrev  0x000000000000095f      0x1ba 0x1 /usr/local/popcorn/x86_64/lib/libc.a(__init_tls.o)
 .debug_abbrev  0x0000000000000b19      0x123 0x1 /usr/local/popcorn/x86_64/lib/libc.a(__errno_location.o)
 .debug_abbrev  0x0000000000000c3c      0x155 0x1 /usr/local/popcorn/x86_64/lib/libc.a(strerror.o)
 .debug_abbrev  0x0000000000000d91       0xa4 0x1 /usr/local/popcorn/x86_64/lib/libc.a(_Exit.o)
 .debug_abbrev  0x0000000000000e35      0x152 0x1 /usr/local/popcorn/x86_64/lib/libc.a(__lctrans.o)
 .debug_abbrev  0x0000000000000f87       0x95 0x1 /usr/local/popcorn/x86_64/lib/libc.a(__fpclassifyl.o)
 .debug_abbrev  0x000000000000101c       0x88 0x1 /usr/local/popcorn/x86_64/lib/libc.a(__signbitl.o)
 .debug_abbrev  0x00000000000010a4       0x8f 0x1 /usr/local/popcorn/x86_64/lib/libc.a(frexpl.o)
 .debug_abbrev  0x0000000000001133       0x59 0x1 /usr/local/popcorn/x86_64/lib/libc.a(wctomb.o)
 .debug_abbrev  0x000000000000118c      0x1ab 0x1 /usr/local/popcorn/x86_64/lib/libc.a(__lockfile.o)
 .debug_abbrev  0x0000000000001337      0x135 0x1 /usr/local/popcorn/x86_64/lib/libc.a(__stdio_close.o)
 .debug_abbrev  0x000000000000146c      0x120 0x1 /usr/local/popcorn/x86_64/lib/libc.a(__stdio_seek.o)
 .debug_abbrev  0x000000000000158c      0x117 0x1 /usr/local/popcorn/x86_64/lib/libc.a(__stdout_write.o)
 .debug_abbrev  0x00000000000016a3       0xfa 0x1 /usr/local/popcorn/x86_64/lib/libc.a(fwrite.o)
 .debug_abbrev  0x000000000000179d       0x82 0x1 /usr/local/popcorn/x86_64/lib/libc.a(memchr.o)
 .debug_abbrev  0x000000000000181f       0xf1 0x1 /usr/local/popcorn/x86_64/lib/libc.a(__wait.o)
 .debug_abbrev  0x0000000000001910       0x7c 0x1 /usr/local/popcorn/x86_64/lib/libc.a(nanosleep.o)
 .debug_abbrev  0x000000000000198c       0x45 0x1 /usr/local/popcorn/x86_64/lib/libc.a(syscall_ret.o)
 .debug_abbrev  0x00000000000019d1      0x151 0x1 /usr/local/popcorn/x86_64/lib/libc.a(wcrtomb.o)
 .debug_abbrev  0x0000000000001b22      0x14f 0x1 /usr/local/popcorn/x86_64/lib/libc.a(__stdio_write.o)
 .debug_abbrev  0x0000000000001c71       0xdc 0x1 /usr/local/popcorn/x86_64/lib/libc.a(__towrite.o)
 .debug_abbrev  0x0000000000001d4d       0x76 0x1 /usr/local/popcorn/x86_64/lib/libc.a(__syscall_cp.o)
 .debug_abbrev  0x0000000000001dc3       0xf8 0x1 /usr/local/popcorn/x86_64/lib/libc.a(__stdio_exit.o)
 .debug_abbrev  0x0000000000001ebb       0xde 0x1 /usr/local/popcorn/x86_64/lib/libc.a(ofl.o)
 .debug_abbrev  0x0000000000001f99       0xd8 0x1 /usr/local/popcorn/x86_64/lib/libc.a(__lock.o)
 .debug_abbrev  0x0000000000002071      0x1c2 0x1 /usr/local/popcorn/x86_64/lib/libmigrate.a(migrate.o)
 .debug_abbrev  0x0000000000002233       0xdb 0x1 /usr/local/popcorn/x86_64/lib/libmigrate.a(mapping.o)
 .debug_abbrev  0x000000000000230e      0x20a 0x1 /usr/local/popcorn/x86_64/lib/libstack-transform.a(userspace.o)
 .debug_abbrev  0x0000000000002518      0x14e 0x1 /usr/local/popcorn/x86_64/lib/libstack-transform.a(init.o)
 .debug_abbrev  0x0000000000002666      0x24b 0x1 /usr/local/popcorn/x86_64/lib/libstack-transform.a(rewrite.o)
 .debug_abbrev  0x00000000000028b1      0x1e9 0x1 /usr/local/popcorn/x86_64/lib/libstack-transform.a(unwind.o)
 .debug_abbrev  0x0000000000002a9a      0x19c 0x1 /usr/local/popcorn/x86_64/lib/libstack-transform.a(util.o)
 .debug_abbrev  0x0000000000002c36       0xd9 0x1 /usr/local/popcorn/x86_64/lib/libstack-transform.a(properties.o)
 .debug_abbrev  0x0000000000002d0f      0x139 0x1 /usr/local/popcorn/x86_64/lib/libstack-transform.a(regs.o)
 .debug_abbrev  0x0000000000002e48       0xe8 0x1 /usr/local/popcorn/x86_64/lib/libstack-transform.a(properties.o)
 .debug_abbrev  0x0000000000002f30      0x139 0x1 /usr/local/popcorn/x86_64/lib/libstack-transform.a(regs.o)
 .debug_abbrev  0x0000000000003069       0xd9 0x1 /usr/local/popcorn/x86_64/lib/libstack-transform.a(properties.o)
 .debug_abbrev  0x0000000000003142      0x139 0x1 /usr/local/popcorn/x86_64/lib/libstack-transform.a(regs.o)
 .debug_abbrev  0x000000000000327b       0xd9 0x1 /usr/local/popcorn/x86_64/lib/libstack-transform.a(properties.o)
 .debug_abbrev  0x0000000000003354      0x139 0x1 /usr/local/popcorn/x86_64/lib/libstack-transform.a(regs.o)
 .debug_abbrev  0x000000000000348d      0x211 0x1 /usr/local/popcorn/x86_64/lib/libstack-transform.a(data.o)
 .debug_abbrev  0x000000000000369e       0xa4 0x1 /usr/local/popcorn/x86_64/lib/libc.a(arch_crash.o)
 .debug_abbrev  0x0000000000003742       0x83 0x1 /usr/local/popcorn/x86_64/lib/libc.a(getenv.o)
 .debug_abbrev  0x00000000000037c5       0xec 0x1 /usr/local/popcorn/x86_64/lib/libc.a(platform.o)
 .debug_abbrev  0x00000000000038b1       0x54 0x1 /usr/local/popcorn/x86_64/lib/libc.a(assert.o)
 .debug_abbrev  0x0000000000003905      0x114 0x1 /usr/local/popcorn/x86_64/lib/libc.a(open.o)
 .debug_abbrev  0x0000000000003a19       0xa3 0x1 /usr/local/popcorn/x86_64/lib/libc.a(calloc.o)
 .debug_abbrev  0x0000000000003abc       0xa3 0x1 /usr/local/popcorn/x86_64/lib/libc.a(lite_malloc.o)
 .debug_abbrev  0x0000000000003b5f      0x257 0x1 /usr/local/popcorn/x86_64/lib/libc.a(malloc.o)
 .debug_abbrev  0x0000000000003db6      0x26b 0x1 /usr/local/popcorn/x86_64/lib/libc.a(popcorn_malloc.o)
 .debug_abbrev  0x0000000000004021      0x105 0x1 /usr/local/popcorn/x86_64/lib/libc.a(getrlimit.o)
 .debug_abbrev  0x0000000000004126       0xae 0x1 /usr/local/popcorn/x86_64/lib/libc.a(madvise.o)
 .debug_abbrev  0x00000000000041d4       0xc7 0x1 /usr/local/popcorn/x86_64/lib/libc.a(mmap.o)
 .debug_abbrev  0x000000000000429b      0x112 0x1 /usr/local/popcorn/x86_64/lib/libc.a(mremap.o)
 .debug_abbrev  0x00000000000043ad       0xc1 0x1 /usr/local/popcorn/x86_64/lib/libc.a(munmap.o)
 .debug_abbrev  0x000000000000446e      0x110 0x1 /usr/local/popcorn/x86_64/lib/libc.a(fclose.o)
 .debug_abbrev  0x000000000000457e       0xf7 0x1 /usr/local/popcorn/x86_64/lib/libc.a(fflush.o)
 .debug_abbrev  0x0000000000004675      0x134 0x1 /usr/local/popcorn/x86_64/lib/libc.a(fopen.o)
 .debug_abbrev  0x00000000000047a9       0xdc 0x1 /usr/local/popcorn/x86_64/lib/libc.a(fprintf.o)
 .debug_abbrev  0x0000000000004885       0xdc 0x1 /usr/local/popcorn/x86_64/lib/libc.a(fscanf.o)
 .debug_abbrev  0x0000000000004961       0xe5 0x1 /usr/local/popcorn/x86_64/lib/libc.a(fseek.o)
 .debug_abbrev  0x0000000000004a46       0xd8 0x1 /usr/local/popcorn/x86_64/lib/libc.a(getc.o)
 .debug_abbrev  0x0000000000004b1e       0x76 0x1 /usr/local/popcorn/x86_64/lib/libc.a(getline.o)
 .debug_abbrev  0x0000000000004b94       0xd6 0x1 /usr/local/popcorn/x86_64/lib/libc.a(perror.o)
 .debug_abbrev  0x0000000000004c6a       0xc6 0x1 /usr/local/popcorn/x86_64/lib/libc.a(snprintf.o)
 .debug_abbrev  0x0000000000004d30       0xc6 0x1 /usr/local/popcorn/x86_64/lib/libc.a(sscanf.o)
 .debug_abbrev  0x0000000000004df6       0xbf 0x1 /usr/local/popcorn/x86_64/lib/libc.a(stderr.o)
 .debug_abbrev  0x0000000000004eb5      0x1cc 0x1 /usr/local/popcorn/x86_64/lib/libc.a(vfscanf.o)
 .debug_abbrev  0x0000000000005081      0x124 0x1 /usr/local/popcorn/x86_64/lib/libc.a(vsnprintf.o)
 .debug_abbrev  0x00000000000051a5      0x108 0x1 /usr/local/popcorn/x86_64/lib/libc.a(vsscanf.o)
 .debug_abbrev  0x00000000000052ad       0x82 0x1 /usr/local/popcorn/x86_64/lib/libc.a(bsearch.o)
 .debug_abbrev  0x000000000000532f      0x190 0x1 /usr/local/popcorn/x86_64/lib/libc.a(qsort.o)
 .debug_abbrev  0x00000000000054bf      0x144 0x1 /usr/local/popcorn/x86_64/lib/libc.a(strtol.o)
 .debug_abbrev  0x0000000000005603       0x62 0x1 /usr/local/popcorn/x86_64/lib/libc.a(strchr.o)
 .debug_abbrev  0x0000000000005665       0x74 0x1 /usr/local/popcorn/x86_64/lib/libc.a(strchrnul.o)
 .debug_abbrev  0x00000000000056d9       0x62 0x1 /usr/local/popcorn/x86_64/lib/libc.a(strcmp.o)
 .debug_abbrev  0x000000000000573b       0x83 0x1 /usr/local/popcorn/x86_64/lib/libc.a(strlen.o)
 .debug_abbrev  0x00000000000057be       0x83 0x1 /usr/local/popcorn/x86_64/lib/libc.a(strncmp.o)
 .debug_abbrev  0x0000000000005841       0xf4 0x1 /usr/local/popcorn/x86_64/lib/libc.a(pthread_attr_get.o)
 .debug_abbrev  0x0000000000005935      0x11f 0x1 /usr/local/popcorn/x86_64/lib/libc.a(pthread_getattr_np.o)
 .debug_abbrev  0x0000000000005a54      0x145 0x1 /usr/local/popcorn/x86_64/lib/libc.a(pthread_migrate.o)
 .debug_abbrev  0x0000000000005b99      0x11f 0x1 /usr/local/popcorn/x86_64/lib/libc.a(pthread_self.o)
 .debug_abbrev  0x0000000000005cb8       0x69 0x1 /usr/local/popcorn/x86_64/lib/libc.a(close.o)
 .debug_abbrev  0x0000000000005d21       0x8f 0x1 /usr/local/popcorn/x86_64/lib/libc.a(getpid.o)
 .debug_abbrev  0x0000000000005db0       0xa9 0x1 /usr/local/popcorn/x86_64/lib/libc.a(lseek.o)
 .debug_abbrev  0x0000000000005e59       0x57 0x1 /usr/local/popcorn/x86_64/lib/libc.a(read.o)
 .debug_abbrev  0x0000000000005eb0       0x4a 0x1 /usr/local/popcorn/x86_64/lib/libc.a(abort.o)
 .debug_abbrev  0x0000000000005efa      0x1ca 0x1 /usr/local/popcorn/x86_64/lib/libc.a(floatscan.o)
 .debug_abbrev  0x00000000000060c4      0x147 0x1 /usr/local/popcorn/x86_64/lib/libc.a(intscan.o)
 .debug_abbrev  0x000000000000620b       0xfc 0x1 /usr/local/popcorn/x86_64/lib/libc.a(shgetc.o)
 .debug_abbrev  0x0000000000006307      0x13f 0x1 /usr/local/popcorn/x86_64/lib/libc.a(expand_heap.o)
 .debug_abbrev  0x0000000000006446       0x97 0x1 /usr/local/popcorn/x86_64/lib/libc.a(copysignl.o)
 .debug_abbrev  0x00000000000064dd       0x7b 0x1 /usr/local/popcorn/x86_64/lib/libc.a(scalbn.o)
 .debug_abbrev  0x0000000000006558       0x88 0x1 /usr/local/popcorn/x86_64/lib/libc.a(scalbnl.o)
 .debug_abbrev  0x00000000000065e0      0x17c 0x1 /usr/local/popcorn/x86_64/lib/libc.a(mbrtowc.o)
 .debug_abbrev  0x000000000000675c       0x7c 0x1 /usr/local/popcorn/x86_64/lib/libc.a(mbsinit.o)
 .debug_abbrev  0x00000000000067d8       0xe0 0x1 /usr/local/popcorn/x86_64/lib/libc.a(block.o)
 .debug_abbrev  0x00000000000068b8       0xef 0x1 /usr/local/popcorn/x86_64/lib/libc.a(raise.o)
 .debug_abbrev  0x00000000000069a7      0x136 0x1 /usr/local/popcorn/x86_64/lib/libc.a(__fdopen.o)
 .debug_abbrev  0x0000000000006add       0x62 0x1 /usr/local/popcorn/x86_64/lib/libc.a(__fmodeflags.o)
 .debug_abbrev  0x0000000000006b3f      0x15a 0x1 /usr/local/popcorn/x86_64/lib/libc.a(__stdio_read.o)
 .debug_abbrev  0x0000000000006c99       0xd8 0x1 /usr/local/popcorn/x86_64/lib/libc.a(__string_read.o)
 .debug_abbrev  0x0000000000006d71       0xd8 0x1 /usr/local/popcorn/x86_64/lib/libc.a(__uflow.o)
 .debug_abbrev  0x0000000000006e49       0xc9 0x1 /usr/local/popcorn/x86_64/lib/libc.a(fputc.o)
 .debug_abbrev  0x0000000000006f12       0xf5 0x1 /usr/local/popcorn/x86_64/lib/libc.a(getdelim.o)
 .debug_abbrev  0x0000000000007007       0xd8 0x1 /usr/local/popcorn/x86_64/lib/libc.a(ofl_add.o)
 .debug_abbrev  0x00000000000070df       0x5b 0x1 /usr/local/popcorn/x86_64/lib/libc.a(internal.o)
 .debug_abbrev  0x000000000000713a       0xd8 0x1 /usr/local/popcorn/x86_64/lib/libc.a(__overflow.o)
 .debug_abbrev  0x0000000000007212       0xdc 0x1 /usr/local/popcorn/x86_64/lib/libc.a(__toread.o)

.debug_line     0x0000000000000000     0xea99
 *(.debug_line .debug_line.* .debug_line_end)
 .debug_line    0x0000000000000000      0x124 0x1 basic_x86_64.o
 .debug_line    0x0000000000000124       0x49 0x1 /usr/local/popcorn/x86_64/lib/crt1.o
 .debug_line    0x000000000000016d      0x24b 0x1 /usr/local/popcorn/x86_64/lib/libc.a(__libc_start_main.o)
 .debug_line    0x00000000000003b8       0xb4 0x1 /usr/local/popcorn/x86_64/lib/libc.a(exit.o)
 .debug_line    0x000000000000046c       0x6d 0x1 /usr/local/popcorn/x86_64/lib/libc.a(libc.o)
 .debug_line    0x00000000000004d9       0x76 0x1 /usr/local/popcorn/x86_64/lib/libc.a(printf.o)
 .debug_line    0x000000000000054f       0x7c 0x1 /usr/local/popcorn/x86_64/lib/libc.a(stdout.o)
 .debug_line    0x00000000000005cb     0x1396 0x1 /usr/local/popcorn/x86_64/lib/libc.a(vfprintf.o)
 .debug_line    0x0000000000001961       0x71 0x1 /usr/local/popcorn/x86_64/lib/libc.a(strnlen.o)
 .debug_line    0x00000000000019d2       0x86 0x1 /usr/local/popcorn/x86_64/lib/libc.a(memset.o)
 .debug_line    0x0000000000001a58       0x8e 0x1 /usr/local/popcorn/x86_64/lib/libc.a(gettid.o)
 .debug_line    0x0000000000001ae6       0x7b 0x1 /usr/local/popcorn/x86_64/lib/libc.a(sleep.o)
 .debug_line    0x0000000000001b61       0x35 0x1 /usr/local/popcorn/x86_64/lib/libc.a(__environ.o)
 .debug_line    0x0000000000001b96      0x293 0x1 /usr/local/popcorn/x86_64/lib/libc.a(__init_tls.o)
 .debug_line    0x0000000000001e29       0xdf 0x1 /usr/local/popcorn/x86_64/lib/libc.a(__errno_location.o)
 .debug_line    0x0000000000001f08      0x13f 0x1 /usr/local/popcorn/x86_64/lib/libc.a(strerror.o)
 .debug_line    0x0000000000002047       0x72 0x1 /usr/local/popcorn/x86_64/lib/libc.a(_Exit.o)
 .debug_line    0x00000000000020b9      0x11c 0x1 /usr/local/popcorn/x86_64/lib/libc.a(__lctrans.o)
 .debug_line    0x00000000000021d5       0xbb 0x1 /usr/local/popcorn/x86_64/lib/libc.a(__fpclassifyl.o)
 .debug_line    0x0000000000002290       0x88 0x1 /usr/local/popcorn/x86_64/lib/libc.a(__signbitl.o)
 .debug_line    0x0000000000002318       0xbe 0x1 /usr/local/popcorn/x86_64/lib/libc.a(frexpl.o)
 .debug_line    0x00000000000023d6       0x81 0x1 /usr/local/popcorn/x86_64/lib/libc.a(wctomb.o)
 .debug_line    0x0000000000002457      0x18f 0x1 /usr/local/popcorn/x86_64/lib/libc.a(__lockfile.o)
 .debug_line    0x00000000000025e6       0xd9 0x1 /usr/local/popcorn/x86_64/lib/libc.a(__stdio_close.o)
 .debug_line    0x00000000000026bf       0xc5 0x1 /usr/local/popcorn/x86_64/lib/libc.a(__stdio_seek.o)
 .debug_line    0x0000000000002784      0x100 0x1 /usr/local/popcorn/x86_64/lib/libc.a(__stdout_write.o)
 .debug_line    0x0000000000002884      0x157 0x1 /usr/local/popcorn/x86_64/lib/libc.a(fwrite.o)
 .debug_line    0x00000000000029db       0xd9 0x1 /usr/local/popcorn/x86_64/lib/libc.a(memchr.o)
 .debug_line    0x0000000000002ab4       0x61 0x1 /usr/local/popcorn/x86_64/lib/libc.a(memcpy.o)
 .debug_line    0x0000000000002b15      0x100 0x1 /usr/local/popcorn/x86_64/lib/libc.a(__wait.o)
 .debug_line    0x0000000000002c15       0x6c 0x1 /usr/local/popcorn/x86_64/lib/libc.a(__set_thread_area.o)
 .debug_line    0x0000000000002c81       0x6a 0x1 /usr/local/popcorn/x86_64/lib/libc.a(nanosleep.o)
 .debug_line    0x0000000000002ceb       0x64 0x1 /usr/local/popcorn/x86_64/lib/libc.a(syscall_ret.o)
 .debug_line    0x0000000000002d4f      0x192 0x1 /usr/local/popcorn/x86_64/lib/libc.a(wcrtomb.o)
 .debug_line    0x0000000000002ee1      0x16c 0x1 /usr/local/popcorn/x86_64/lib/libc.a(__stdio_write.o)
 .debug_line    0x000000000000304d       0xe1 0x1 /usr/local/popcorn/x86_64/lib/libc.a(__towrite.o)
 .debug_line    0x000000000000312e       0x89 0x1 /usr/local/popcorn/x86_64/lib/libc.a(__syscall_cp.o)
 .debug_line    0x00000000000031b7       0x59 0x1 /usr/local/popcorn/x86_64/lib/libc.a(syscall.o)
 .debug_line    0x0000000000003210      0x10a 0x1 /usr/local/popcorn/x86_64/lib/libc.a(__stdio_exit.o)
 .debug_line    0x000000000000331a       0xaa 0x1 /usr/local/popcorn/x86_64/lib/libc.a(ofl.o)
 .debug_line    0x00000000000033c4      0x11f 0x1 /usr/local/popcorn/x86_64/lib/libc.a(__lock.o)
 .debug_line    0x00000000000034e3      0x550 0x1 /usr/local/popcorn/x86_64/lib/libmigrate.a(migrate.o)
 .debug_line    0x0000000000003a33      0x319 0x1 /usr/local/popcorn/x86_64/lib/libmigrate.a(mapping.o)
 .debug_line    0x0000000000003d4c      0x58c 0x1 /usr/local/popcorn/x86_64/lib/libstack-transform.a(userspace.o)
 .debug_line    0x00000000000042d8      0x346 0x1 /usr/local/popcorn/x86_64/lib/libstack-transform.a(init.o)
 .debug_line    0x000000000000461e      0x763 0x1 /usr/local/popcorn/x86_64/lib/libstack-transform.a(rewrite.o)
 .debug_line    0x0000000000004d81      0x49b 0x1 /usr/local/popcorn/x86_64/lib/libstack-transform.a(unwind.o)
 .debug_line    0x000000000000521c      0x536 0x1 /usr/local/popcorn/x86_64/lib/libstack-transform.a(util.o)
 .debug_line    0x0000000000005752      0x103 0x1 /usr/local/popcorn/x86_64/lib/libstack-transform.a(properties.o)
 .debug_line    0x0000000000005855      0x530 0x1 /usr/local/popcorn/x86_64/lib/libstack-transform.a(regs.o)
 .debug_line    0x0000000000005d85      0x114 0x1 /usr/local/popcorn/x86_64/lib/libstack-transform.a(properties.o)
 .debug_line    0x0000000000005e99      0x4b9 0x1 /usr/local/popcorn/x86_64/lib/libstack-transform.a(regs.o)
 .debug_line    0x0000000000006352      0x103 0x1 /usr/local/popcorn/x86_64/lib/libstack-transform.a(properties.o)
 .debug_line    0x0000000000006455      0x2a8 0x1 /usr/local/popcorn/x86_64/lib/libstack-transform.a(regs.o)
 .debug_line    0x00000000000066fd       0xf4 0x1 /usr/local/popcorn/x86_64/lib/libstack-transform.a(properties.o)
 .debug_line    0x00000000000067f1      0x3d2 0x1 /usr/local/popcorn/x86_64/lib/libstack-transform.a(regs.o)
 .debug_line    0x0000000000006bc3      0x876 0x1 /usr/local/popcorn/x86_64/lib/libstack-transform.a(data.o)
 .debug_line    0x0000000000007439       0xb6 0x1 /usr/local/popcorn/x86_64/lib/libc.a(arch_crash.o)
 .debug_line    0x00000000000074ef       0xb7 0x1 /usr/local/popcorn/x86_64/lib/libc.a(getenv.o)
 .debug_line    0x00000000000075a6      0x11c 0x1 /usr/local/popcorn/x86_64/lib/libc.a(platform.o)
 .debug_line    0x00000000000076c2       0x4f 0x1 /usr/local/popcorn/x86_64/lib/libc.a(assert.o)
 .debug_line    0x0000000000007711       0xcf 0x1 /usr/local/popcorn/x86_64/lib/libc.a(open.o)
 .debug_line    0x00000000000077e0      0x10e 0x1 /usr/local/popcorn/x86_64/lib/libc.a(calloc.o)
 .debug_line    0x00000000000078ee      0x111 0x1 /usr/local/popcorn/x86_64/lib/libc.a(lite_malloc.o)
 .debug_line    0x00000000000079ff      0xfa8 0x1 /usr/local/popcorn/x86_64/lib/libc.a(malloc.o)
 .debug_line    0x00000000000089a7      0xf03 0x1 /usr/local/popcorn/x86_64/lib/libc.a(popcorn_malloc.o)
 .debug_line    0x00000000000098aa       0xf8 0x1 /usr/local/popcorn/x86_64/lib/libc.a(getrlimit.o)
 .debug_line    0x00000000000099a2       0x96 0x1 /usr/local/popcorn/x86_64/lib/libc.a(madvise.o)
 .debug_line    0x0000000000009a38       0xf9 0x1 /usr/local/popcorn/x86_64/lib/libc.a(mmap.o)
 .debug_line    0x0000000000009b31       0xe3 0x1 /usr/local/popcorn/x86_64/lib/libc.a(mremap.o)
 .debug_line    0x0000000000009c14       0xa8 0x1 /usr/local/popcorn/x86_64/lib/libc.a(munmap.o)
 .debug_line    0x0000000000009cbc      0x10c 0x1 /usr/local/popcorn/x86_64/lib/libc.a(fclose.o)
 .debug_line    0x0000000000009dc8      0x14f 0x1 /usr/local/popcorn/x86_64/lib/libc.a(fflush.o)
 .debug_line    0x0000000000009f17      0x105 0x1 /usr/local/popcorn/x86_64/lib/libc.a(fopen.o)
 .debug_line    0x000000000000a01c       0x72 0x1 /usr/local/popcorn/x86_64/lib/libc.a(fprintf.o)
 .debug_line    0x000000000000a08e       0x71 0x1 /usr/local/popcorn/x86_64/lib/libc.a(fscanf.o)
 .debug_line    0x000000000000a0ff      0x11e 0x1 /usr/local/popcorn/x86_64/lib/libc.a(fseek.o)
 .debug_line    0x000000000000a21d       0xaa 0x1 /usr/local/popcorn/x86_64/lib/libc.a(getc.o)
 .debug_line    0x000000000000a2c7       0x69 0x1 /usr/local/popcorn/x86_64/lib/libc.a(getline.o)
 .debug_line    0x000000000000a330       0xcf 0x1 /usr/local/popcorn/x86_64/lib/libc.a(perror.o)
 .debug_line    0x000000000000a3ff       0x73 0x1 /usr/local/popcorn/x86_64/lib/libc.a(snprintf.o)
 .debug_line    0x000000000000a472       0x71 0x1 /usr/local/popcorn/x86_64/lib/libc.a(sscanf.o)
 .debug_line    0x000000000000a4e3       0x7c 0x1 /usr/local/popcorn/x86_64/lib/libc.a(stderr.o)
 .debug_line    0x000000000000a55f      0x709 0x1 /usr/local/popcorn/x86_64/lib/libc.a(vfscanf.o)
 .debug_line    0x000000000000ac68      0x134 0x1 /usr/local/popcorn/x86_64/lib/libc.a(vsnprintf.o)
 .debug_line    0x000000000000ad9c       0xb7 0x1 /usr/local/popcorn/x86_64/lib/libc.a(vsscanf.o)
 .debug_line    0x000000000000ae53       0xb1 0x1 /usr/local/popcorn/x86_64/lib/libc.a(bsearch.o)
 .debug_line    0x000000000000af04      0x4f5 0x1 /usr/local/popcorn/x86_64/lib/libc.a(qsort.o)
 .debug_line    0x000000000000b3f9      0x16c 0x1 /usr/local/popcorn/x86_64/lib/libc.a(strtol.o)
 .debug_line    0x000000000000b565       0x59 0x1 /usr/local/popcorn/x86_64/lib/libc.a(strchr.o)
 .debug_line    0x000000000000b5be       0xd9 0x1 /usr/local/popcorn/x86_64/lib/libc.a(strchrnul.o)
 .debug_line    0x000000000000b697       0x6e 0x1 /usr/local/popcorn/x86_64/lib/libc.a(strcmp.o)
 .debug_line    0x000000000000b705       0xb8 0x1 /usr/local/popcorn/x86_64/lib/libc.a(strlen.o)
 .debug_line    0x000000000000b7bd       0xaf 0x1 /usr/local/popcorn/x86_64/lib/libc.a(strncmp.o)
 .debug_line    0x000000000000b86c       0x5a 0x1 /usr/local/popcorn/x86_64/lib/libc.a(memmove.o)
 .debug_line    0x000000000000b8c6      0x284 0x1 /usr/local/popcorn/x86_64/lib/libc.a(pthread_attr_get.o)
 .debug_line    0x000000000000bb4a      0x123 0x1 /usr/local/popcorn/x86_64/lib/libc.a(pthread_getattr_np.o)
 .debug_line    0x000000000000bc6d      0x104 0x1 /usr/local/popcorn/x86_64/lib/libc.a(pthread_migrate.o)
 .debug_line    0x000000000000bd71       0xd6 0x1 /usr/local/popcorn/x86_64/lib/libc.a(pthread_self.o)
 .debug_line    0x000000000000be47       0x6e 0x1 /usr/local/popcorn/x86_64/lib/libc.a(close.o)
 .debug_line    0x000000000000beb5       0x8e 0x1 /usr/local/popcorn/x86_64/lib/libc.a(getpid.o)
 .debug_line    0x000000000000bf43       0x96 0x1 /usr/local/popcorn/x86_64/lib/libc.a(lseek.o)
 .debug_line    0x000000000000bfd9       0x67 0x1 /usr/local/popcorn/x86_64/lib/libc.a(read.o)
 .debug_line    0x000000000000c040       0x74 0x1 /usr/local/popcorn/x86_64/lib/libc.a(abort.o)
 .debug_line    0x000000000000c0b4      0xf6d 0x1 /usr/local/popcorn/x86_64/lib/libc.a(floatscan.o)
 .debug_line    0x000000000000d021      0x48c 0x1 /usr/local/popcorn/x86_64/lib/libc.a(intscan.o)
 .debug_line    0x000000000000d4ad      0x177 0x1 /usr/local/popcorn/x86_64/lib/libc.a(shgetc.o)
 .debug_line    0x000000000000d624      0x3c0 0x1 /usr/local/popcorn/x86_64/lib/libc.a(expand_heap.o)
 .debug_line    0x000000000000d9e4       0x91 0x1 /usr/local/popcorn/x86_64/lib/libc.a(copysignl.o)
 .debug_line    0x000000000000da75       0xb6 0x1 /usr/local/popcorn/x86_64/lib/libc.a(scalbn.o)
 .debug_line    0x000000000000db2b       0xe5 0x1 /usr/local/popcorn/x86_64/lib/libc.a(scalbnl.o)
 .debug_line    0x000000000000dc10       0x4f 0x1 /usr/local/popcorn/x86_64/lib/libc.a(fabs.o)
 .debug_line    0x000000000000dc5f       0x52 0x1 /usr/local/popcorn/x86_64/lib/libc.a(fmodl.o)
 .debug_line    0x000000000000dcb1      0x1c0 0x1 /usr/local/popcorn/x86_64/lib/libc.a(mbrtowc.o)
 .debug_line    0x000000000000de71       0x79 0x1 /usr/local/popcorn/x86_64/lib/libc.a(mbsinit.o)
 .debug_line    0x000000000000deea       0xb1 0x1 /usr/local/popcorn/x86_64/lib/libc.a(block.o)
 .debug_line    0x000000000000df9b       0xa3 0x1 /usr/local/popcorn/x86_64/lib/libc.a(raise.o)
 .debug_line    0x000000000000e03e      0x1a9 0x1 /usr/local/popcorn/x86_64/lib/libc.a(__fdopen.o)
 .debug_line    0x000000000000e1e7       0x8b 0x1 /usr/local/popcorn/x86_64/lib/libc.a(__fmodeflags.o)
 .debug_line    0x000000000000e272      0x131 0x1 /usr/local/popcorn/x86_64/lib/libc.a(__stdio_read.o)
 .debug_line    0x000000000000e3a3       0xc7 0x1 /usr/local/popcorn/x86_64/lib/libc.a(__string_read.o)
 .debug_line    0x000000000000e46a       0xac 0x1 /usr/local/popcorn/x86_64/lib/libc.a(__uflow.o)
 .debug_line    0x000000000000e516       0xac 0x1 /usr/local/popcorn/x86_64/lib/libc.a(fputc.o)
 .debug_line    0x000000000000e5c2      0x1fa 0x1 /usr/local/popcorn/x86_64/lib/libc.a(getdelim.o)
 .debug_line    0x000000000000e7bc       0xaa 0x1 /usr/local/popcorn/x86_64/lib/libc.a(ofl_add.o)
 .debug_line    0x000000000000e866       0x59 0x1 /usr/local/popcorn/x86_64/lib/libc.a(internal.o)
 .debug_line    0x000000000000e8bf       0xed 0x1 /usr/local/popcorn/x86_64/lib/libc.a(__overflow.o)
 .debug_line    0x000000000000e9ac       0xed 0x1 /usr/local/popcorn/x86_64/lib/libc.a(__toread.o)

.debug_frame    0x0000000000000000     0x2a00
 *(.debug_frame)
 .debug_frame   0x0000000000000000       0x38 0x8 /usr/local/popcorn/x86_64/lib/crt1.o
 .debug_frame   0x0000000000000038       0xe8 0x8 /usr/local/popcorn/x86_64/lib/libc.a(__libc_start_main.o)
 .debug_frame   0x0000000000000120       0x80 0x8 /usr/local/popcorn/x86_64/lib/libc.a(exit.o)
 .debug_frame   0x00000000000001a0       0x38 0x8 /usr/local/popcorn/x86_64/lib/libc.a(printf.o)
 .debug_frame   0x00000000000001d8      0x130 0x8 /usr/local/popcorn/x86_64/lib/libc.a(vfprintf.o)
 .debug_frame   0x0000000000000308       0x48 0x8 /usr/local/popcorn/x86_64/lib/libc.a(strnlen.o)
 .debug_frame   0x0000000000000350       0x40 0x8 /usr/local/popcorn/x86_64/lib/libc.a(memset.o)
 .debug_frame   0x0000000000000390       0x30 0x8 /usr/local/popcorn/x86_64/lib/libc.a(gettid.o)
 .debug_frame   0x00000000000003c0       0x38 0x8 /usr/local/popcorn/x86_64/lib/libc.a(sleep.o)
 .debug_frame   0x00000000000003f8       0xa8 0x8 /usr/local/popcorn/x86_64/lib/libc.a(__init_tls.o)
 .debug_frame   0x00000000000004a0       0x30 0x8 /usr/local/popcorn/x86_64/lib/libc.a(__errno_location.o)
 .debug_frame   0x00000000000004d0       0x48 0x8 /usr/local/popcorn/x86_64/lib/libc.a(strerror.o)
 .debug_frame   0x0000000000000518       0x30 0x8 /usr/local/popcorn/x86_64/lib/libc.a(_Exit.o)
 .debug_frame   0x0000000000000548       0x60 0x8 /usr/local/popcorn/x86_64/lib/libc.a(__lctrans.o)
 .debug_frame   0x00000000000005a8       0x30 0x8 /usr/local/popcorn/x86_64/lib/libc.a(__fpclassifyl.o)
 .debug_frame   0x00000000000005d8       0x30 0x8 /usr/local/popcorn/x86_64/lib/libc.a(__signbitl.o)
 .debug_frame   0x0000000000000608       0x40 0x8 /usr/local/popcorn/x86_64/lib/libc.a(frexpl.o)
 .debug_frame   0x0000000000000648       0x38 0x8 /usr/local/popcorn/x86_64/lib/libc.a(wctomb.o)
 .debug_frame   0x0000000000000680       0x70 0x8 /usr/local/popcorn/x86_64/lib/libc.a(__lockfile.o)
 .debug_frame   0x00000000000006f0       0x50 0x8 /usr/local/popcorn/x86_64/lib/libc.a(__stdio_close.o)
 .debug_frame   0x0000000000000740       0x30 0x8 /usr/local/popcorn/x86_64/lib/libc.a(__stdio_seek.o)
 .debug_frame   0x0000000000000770       0x38 0x8 /usr/local/popcorn/x86_64/lib/libc.a(__stdout_write.o)
 .debug_frame   0x00000000000007a8       0xb0 0x8 /usr/local/popcorn/x86_64/lib/libc.a(fwrite.o)
 .debug_frame   0x0000000000000858       0x30 0x8 /usr/local/popcorn/x86_64/lib/libc.a(memchr.o)
 .debug_frame   0x0000000000000888       0x40 0x8 /usr/local/popcorn/x86_64/lib/libc.a(memcpy.o)
 .debug_frame   0x00000000000008c8       0x40 0x8 /usr/local/popcorn/x86_64/lib/libc.a(__wait.o)
 .debug_frame   0x0000000000000908       0x30 0x8 /usr/local/popcorn/x86_64/lib/libc.a(__set_thread_area.o)
 .debug_frame   0x0000000000000938       0x38 0x8 /usr/local/popcorn/x86_64/lib/libc.a(nanosleep.o)
 .debug_frame   0x0000000000000970       0x38 0x8 /usr/local/popcorn/x86_64/lib/libc.a(syscall_ret.o)
 .debug_frame   0x00000000000009a8       0x40 0x8 /usr/local/popcorn/x86_64/lib/libc.a(wcrtomb.o)
 .debug_frame   0x00000000000009e8       0x70 0x8 /usr/local/popcorn/x86_64/lib/libc.a(__stdio_write.o)
 .debug_frame   0x0000000000000a58       0x48 0x8 /usr/local/popcorn/x86_64/lib/libc.a(__towrite.o)
 .debug_frame   0x0000000000000aa0       0x50 0x8 /usr/local/popcorn/x86_64/lib/libc.a(__syscall_cp.o)
 .debug_frame   0x0000000000000af0       0x48 0x8 /usr/local/popcorn/x86_64/lib/libc.a(syscall.o)
 .debug_frame   0x0000000000000b38       0x60 0x8 /usr/local/popcorn/x86_64/lib/libc.a(__stdio_exit.o)
 .debug_frame   0x0000000000000b98       0x50 0x8 /usr/local/popcorn/x86_64/lib/libc.a(ofl.o)
 .debug_frame   0x0000000000000be8       0x60 0x8 /usr/local/popcorn/x86_64/lib/libc.a(__lock.o)
 .debug_frame   0x0000000000000c48       0xa0 0x8 /usr/local/popcorn/x86_64/lib/libc.a(arch_crash.o)
 .debug_frame   0x0000000000000ce8       0x60 0x8 /usr/local/popcorn/x86_64/lib/libc.a(getenv.o)
 .debug_frame   0x0000000000000d48       0x88 0x8 /usr/local/popcorn/x86_64/lib/libc.a(platform.o)
 .debug_frame   0x0000000000000dd0       0x38 0x8 /usr/local/popcorn/x86_64/lib/libc.a(assert.o)
 .debug_frame   0x0000000000000e08       0x48 0x8 /usr/local/popcorn/x86_64/lib/libc.a(open.o)
 .debug_frame   0x0000000000000e50       0xa8 0x8 /usr/local/popcorn/x86_64/lib/libc.a(calloc.o)
 .debug_frame   0x0000000000000ef8       0x50 0x8 /usr/local/popcorn/x86_64/lib/libc.a(lite_malloc.o)
 .debug_frame   0x0000000000000f48      0x200 0x8 /usr/local/popcorn/x86_64/lib/libc.a(malloc.o)
 .debug_frame   0x0000000000001148      0x298 0x8 /usr/local/popcorn/x86_64/lib/libc.a(popcorn_malloc.o)
 .debug_frame   0x00000000000013e0       0x50 0x8 /usr/local/popcorn/x86_64/lib/libc.a(getrlimit.o)
 .debug_frame   0x0000000000001430       0x30 0x8 /usr/local/popcorn/x86_64/lib/libc.a(madvise.o)
 .debug_frame   0x0000000000001460       0x88 0x8 /usr/local/popcorn/x86_64/lib/libc.a(mmap.o)
 .debug_frame   0x00000000000014e8       0x78 0x8 /usr/local/popcorn/x86_64/lib/libc.a(mremap.o)
 .debug_frame   0x0000000000001560       0x60 0x8 /usr/local/popcorn/x86_64/lib/libc.a(munmap.o)
 .debug_frame   0x00000000000015c0       0x78 0x8 /usr/local/popcorn/x86_64/lib/libc.a(fclose.o)
 .debug_frame   0x0000000000001638       0x58 0x8 /usr/local/popcorn/x86_64/lib/libc.a(fflush.o)
 .debug_frame   0x0000000000001690       0x50 0x8 /usr/local/popcorn/x86_64/lib/libc.a(fopen.o)
 .debug_frame   0x00000000000016e0       0x38 0x8 /usr/local/popcorn/x86_64/lib/libc.a(fprintf.o)
 .debug_frame   0x0000000000001718       0x38 0x8 /usr/local/popcorn/x86_64/lib/libc.a(fscanf.o)
 .debug_frame   0x0000000000001750       0xb0 0x8 /usr/local/popcorn/x86_64/lib/libc.a(fseek.o)
 .debug_frame   0x0000000000001800       0x48 0x8 /usr/local/popcorn/x86_64/lib/libc.a(getc.o)
 .debug_frame   0x0000000000001848       0x30 0x8 /usr/local/popcorn/x86_64/lib/libc.a(getline.o)
 .debug_frame   0x0000000000001878       0x58 0x8 /usr/local/popcorn/x86_64/lib/libc.a(perror.o)
 .debug_frame   0x00000000000018d0       0x38 0x8 /usr/local/popcorn/x86_64/lib/libc.a(snprintf.o)
 .debug_frame   0x0000000000001908       0x38 0x8 /usr/local/popcorn/x86_64/lib/libc.a(sscanf.o)
 .debug_frame   0x0000000000001940       0x70 0x8 /usr/local/popcorn/x86_64/lib/libc.a(vfscanf.o)
 .debug_frame   0x00000000000019b0       0xb8 0x8 /usr/local/popcorn/x86_64/lib/libc.a(vsnprintf.o)
 .debug_frame   0x0000000000001a68       0x70 0x8 /usr/local/popcorn/x86_64/lib/libc.a(vsscanf.o)
 .debug_frame   0x0000000000001ad8       0x68 0x8 /usr/local/popcorn/x86_64/lib/libc.a(bsearch.o)
 .debug_frame   0x0000000000001b40      0x168 0x8 /usr/local/popcorn/x86_64/lib/libc.a(qsort.o)
 .debug_frame   0x0000000000001ca8       0xf0 0x8 /usr/local/popcorn/x86_64/lib/libc.a(strtol.o)
 .debug_frame   0x0000000000001d98       0x38 0x8 /usr/local/popcorn/x86_64/lib/libc.a(strchr.o)
 .debug_frame   0x0000000000001dd0       0x40 0x8 /usr/local/popcorn/x86_64/lib/libc.a(strchrnul.o)
 .debug_frame   0x0000000000001e10       0x30 0x8 /usr/local/popcorn/x86_64/lib/libc.a(strcmp.o)
 .debug_frame   0x0000000000001e40       0x30 0x8 /usr/local/popcorn/x86_64/lib/libc.a(strlen.o)
 .debug_frame   0x0000000000001e70       0x30 0x8 /usr/local/popcorn/x86_64/lib/libc.a(strncmp.o)
 .debug_frame   0x0000000000001ea0       0x40 0x8 /usr/local/popcorn/x86_64/lib/libc.a(memmove.o)
 .debug_frame   0x0000000000001ee0      0x198 0x8 /usr/local/popcorn/x86_64/lib/libc.a(pthread_attr_get.o)
 .debug_frame   0x0000000000002078       0x58 0x8 /usr/local/popcorn/x86_64/lib/libc.a(pthread_getattr_np.o)
 .debug_frame   0x00000000000020d0       0x48 0x8 /usr/local/popcorn/x86_64/lib/libc.a(pthread_migrate.o)
 .debug_frame   0x0000000000002118       0x30 0x8 /usr/local/popcorn/x86_64/lib/libc.a(pthread_self.o)
 .debug_frame   0x0000000000002148       0x58 0x8 /usr/local/popcorn/x86_64/lib/libc.a(close.o)
 .debug_frame   0x00000000000021a0       0x30 0x8 /usr/local/popcorn/x86_64/lib/libc.a(getpid.o)
 .debug_frame   0x00000000000021d0       0x30 0x8 /usr/local/popcorn/x86_64/lib/libc.a(lseek.o)
 .debug_frame   0x0000000000002200       0x38 0x8 /usr/local/popcorn/x86_64/lib/libc.a(read.o)
 .debug_frame   0x0000000000002238       0x38 0x8 /usr/local/popcorn/x86_64/lib/libc.a(abort.o)
 .debug_frame   0x0000000000002270       0xc0 0x8 /usr/local/popcorn/x86_64/lib/libc.a(floatscan.o)
 .debug_frame   0x0000000000002330       0x70 0x8 /usr/local/popcorn/x86_64/lib/libc.a(intscan.o)
 .debug_frame   0x00000000000023a0       0x58 0x8 /usr/local/popcorn/x86_64/lib/libc.a(shgetc.o)
 .debug_frame   0x00000000000023f8       0xc0 0x8 /usr/local/popcorn/x86_64/lib/libc.a(expand_heap.o)
 .debug_frame   0x00000000000024b8       0x30 0x8 /usr/local/popcorn/x86_64/lib/libc.a(copysignl.o)
 .debug_frame   0x00000000000024e8       0x30 0x8 /usr/local/popcorn/x86_64/lib/libc.a(scalbn.o)
 .debug_frame   0x0000000000002518       0x30 0x8 /usr/local/popcorn/x86_64/lib/libc.a(scalbnl.o)
 .debug_frame   0x0000000000002548       0x38 0x8 /usr/local/popcorn/x86_64/lib/libc.a(fabs.o)
 .debug_frame   0x0000000000002580       0x30 0x8 /usr/local/popcorn/x86_64/lib/libc.a(fmodl.o)
 .debug_frame   0x00000000000025b0       0x40 0x8 /usr/local/popcorn/x86_64/lib/libc.a(mbrtowc.o)
 .debug_frame   0x00000000000025f0       0x30 0x8 /usr/local/popcorn/x86_64/lib/libc.a(mbsinit.o)
 .debug_frame   0x0000000000002620       0x60 0x8 /usr/local/popcorn/x86_64/lib/libc.a(block.o)
 .debug_frame   0x0000000000002680       0x48 0x8 /usr/local/popcorn/x86_64/lib/libc.a(raise.o)
 .debug_frame   0x00000000000026c8       0x50 0x8 /usr/local/popcorn/x86_64/lib/libc.a(__fdopen.o)
 .debug_frame   0x0000000000002718       0x50 0x8 /usr/local/popcorn/x86_64/lib/libc.a(__fmodeflags.o)
 .debug_frame   0x0000000000002768       0x50 0x8 /usr/local/popcorn/x86_64/lib/libc.a(__stdio_read.o)
 .debug_frame   0x00000000000027b8       0x68 0x8 /usr/local/popcorn/x86_64/lib/libc.a(__string_read.o)
 .debug_frame   0x0000000000002820       0x40 0x8 /usr/local/popcorn/x86_64/lib/libc.a(__uflow.o)
 .debug_frame   0x0000000000002860       0x50 0x8 /usr/local/popcorn/x86_64/lib/libc.a(fputc.o)
 .debug_frame   0x00000000000028b0       0x70 0x8 /usr/local/popcorn/x86_64/lib/libc.a(getdelim.o)
 .debug_frame   0x0000000000002920       0x38 0x8 /usr/local/popcorn/x86_64/lib/libc.a(ofl_add.o)
 .debug_frame   0x0000000000002958       0x48 0x8 /usr/local/popcorn/x86_64/lib/libc.a(__overflow.o)
 .debug_frame   0x00000000000029a0       0x60 0x8 /usr/local/popcorn/x86_64/lib/libc.a(__toread.o)

.debug_str      0x0000000000000000     0x3412
 *(.debug_str)
 .debug_str     0x0000000000000000       0xd3 0x1 basic_x86_64.o
                                         0xf9 (size before relaxing)
 .debug_str     0x00000000000000d3       0x4f 0x1 /usr/local/popcorn/x86_64/lib/crt1.o
                                         0xd5 (size before relaxing)
 .debug_str     0x0000000000000122       0xd5 0x1 /usr/local/popcorn/x86_64/lib/libc.a(__libc_start_main.o)
                                        0x1ce (size before relaxing)
 .debug_str     0x00000000000001f7       0x24 0x1 /usr/local/popcorn/x86_64/lib/libc.a(exit.o)
                                         0xf4 (size before relaxing)
 .debug_str     0x000000000000021b       0xe7 0x1 /usr/local/popcorn/x86_64/lib/libc.a(libc.o)
                                        0x1e0 (size before relaxing)
 .debug_str     0x0000000000000302       0x6b 0x1 /usr/local/popcorn/x86_64/lib/libc.a(printf.o)
                                        0x14e (size before relaxing)
 .debug_str     0x000000000000036d       0xe7 0x1 /usr/local/popcorn/x86_64/lib/libc.a(stdout.o)
                                        0x24e (size before relaxing)
 .debug_str     0x0000000000000454      0x13d 0x1 /usr/local/popcorn/x86_64/lib/libc.a(vfprintf.o)
                                        0x430 (size before relaxing)
 .debug_str     0x0000000000000591       0x1d 0x1 /usr/local/popcorn/x86_64/lib/libc.a(strnlen.o)
                                         0xe4 (size before relaxing)
 .debug_str     0x00000000000005ae       0x2c 0x1 /usr/local/popcorn/x86_64/lib/libc.a(gettid.o)
                                         0xf4 (size before relaxing)
 .debug_str     0x00000000000005da       0x3a 0x1 /usr/local/popcorn/x86_64/lib/libc.a(sleep.o)
                                         0xfc (size before relaxing)
 .debug_str     0x0000000000000614       0x1e 0x1 /usr/local/popcorn/x86_64/lib/libc.a(__environ.o)
                                         0xc6 (size before relaxing)
 .debug_str     0x0000000000000632      0x268 0x1 /usr/local/popcorn/x86_64/lib/libc.a(__init_tls.o)
                                        0x44d (size before relaxing)
 .debug_str     0x000000000000089a       0x3d 0x1 /usr/local/popcorn/x86_64/lib/libc.a(__errno_location.o)
                                        0x2fa (size before relaxing)
 .debug_str     0x00000000000008d7       0x38 0x1 /usr/local/popcorn/x86_64/lib/libc.a(strerror.o)
                                        0x31c (size before relaxing)
 .debug_str     0x000000000000090f       0x17 0x1 /usr/local/popcorn/x86_64/lib/libc.a(_Exit.o)
                                         0xf0 (size before relaxing)
 .debug_str     0x0000000000000926       0x32 0x1 /usr/local/popcorn/x86_64/lib/libc.a(__lctrans.o)
                                        0x316 (size before relaxing)
 .debug_str     0x0000000000000958       0x3c 0x1 /usr/local/popcorn/x86_64/lib/libc.a(__fpclassifyl.o)
                                        0x128 (size before relaxing)
 .debug_str     0x0000000000000994       0x21 0x1 /usr/local/popcorn/x86_64/lib/libc.a(__signbitl.o)
                                        0x11c (size before relaxing)
 .debug_str     0x00000000000009b5       0x19 0x1 /usr/local/popcorn/x86_64/lib/libc.a(frexpl.o)
                                        0x119 (size before relaxing)
 .debug_str     0x00000000000009ce       0x1e 0x1 /usr/local/popcorn/x86_64/lib/libc.a(wctomb.o)
                                         0xd7 (size before relaxing)
 .debug_str     0x00000000000009ec       0x4f 0x1 /usr/local/popcorn/x86_64/lib/libc.a(__lockfile.o)
                                        0x450 (size before relaxing)
 .debug_str     0x0000000000000a3b       0x28 0x1 /usr/local/popcorn/x86_64/lib/libc.a(__stdio_close.o)
                                        0x268 (size before relaxing)
 .debug_str     0x0000000000000a63       0x2d 0x1 /usr/local/popcorn/x86_64/lib/libc.a(__stdio_seek.o)
                                        0x26d (size before relaxing)
 .debug_str     0x0000000000000a90       0x58 0x1 /usr/local/popcorn/x86_64/lib/libc.a(__stdout_write.o)
                                        0x2ab (size before relaxing)
 .debug_str     0x0000000000000ae8       0x2a 0x1 /usr/local/popcorn/x86_64/lib/libc.a(fwrite.o)
                                        0x271 (size before relaxing)
 .debug_str     0x0000000000000b12       0x1b 0x1 /usr/local/popcorn/x86_64/lib/libc.a(memchr.o)
                                        0x101 (size before relaxing)
 .debug_str     0x0000000000000b2d       0x3f 0x1 /usr/local/popcorn/x86_64/lib/libc.a(__wait.o)
                                        0x12f (size before relaxing)
 .debug_str     0x0000000000000b6c       0x27 0x1 /usr/local/popcorn/x86_64/lib/libc.a(nanosleep.o)
                                         0xf6 (size before relaxing)
 .debug_str     0x0000000000000b93       0x2b 0x1 /usr/local/popcorn/x86_64/lib/libc.a(syscall_ret.o)
                                         0xeb (size before relaxing)
 .debug_str     0x0000000000000bbe       0x40 0x1 /usr/local/popcorn/x86_64/lib/libc.a(wcrtomb.o)
                                        0x341 (size before relaxing)
 .debug_str     0x0000000000000bfe       0x57 0x1 /usr/local/popcorn/x86_64/lib/libc.a(__stdio_write.o)
                                        0x2a3 (size before relaxing)
 .debug_str     0x0000000000000c55       0x3b 0x1 /usr/local/popcorn/x86_64/lib/libc.a(__towrite.o)
                                        0x261 (size before relaxing)
 .debug_str     0x0000000000000c90       0x3d 0x1 /usr/local/popcorn/x86_64/lib/libc.a(__syscall_cp.o)
                                         0xf5 (size before relaxing)
 .debug_str     0x0000000000000ccd       0x3c 0x1 /usr/local/popcorn/x86_64/lib/libc.a(__stdio_exit.o)
                                        0x262 (size before relaxing)
 .debug_str     0x0000000000000d09       0x31 0x1 /usr/local/popcorn/x86_64/lib/libc.a(ofl.o)
                                        0x25e (size before relaxing)
 .debug_str     0x0000000000000d3a       0x2b 0x1 /usr/local/popcorn/x86_64/lib/libc.a(__lock.o)
                                        0x12c (size before relaxing)
 .debug_str     0x0000000000000d65      0x2b3 0x1 /usr/local/popcorn/x86_64/lib/libmigrate.a(migrate.o)
                                        0x3e0 (size before relaxing)
 .debug_str     0x0000000000001018       0x95 0x1 /usr/local/popcorn/x86_64/lib/libmigrate.a(mapping.o)
                                        0x1b1 (size before relaxing)
 .debug_str     0x00000000000010ad      0x552 0x1 /usr/local/popcorn/x86_64/lib/libstack-transform.a(userspace.o)
                                        0x7df (size before relaxing)
 .debug_str     0x00000000000015ff       0xee 0x1 /usr/local/popcorn/x86_64/lib/libstack-transform.a(init.o)
                                        0x606 (size before relaxing)
 .debug_str     0x00000000000016ed      0x23d 0x1 /usr/local/popcorn/x86_64/lib/libstack-transform.a(rewrite.o)
                                        0x7ca (size before relaxing)
 .debug_str     0x000000000000192a      0x12b 0x1 /usr/local/popcorn/x86_64/lib/libstack-transform.a(unwind.o)
                                        0x719 (size before relaxing)
 .debug_str     0x0000000000001a55      0x257 0x1 /usr/local/popcorn/x86_64/lib/libstack-transform.a(util.o)
                                        0x798 (size before relaxing)
 .debug_str     0x0000000000001cac       0x8c 0x1 /usr/local/popcorn/x86_64/lib/libstack-transform.a(properties.o)
                                        0x239 (size before relaxing)
 .debug_str     0x0000000000001d38      0x10e 0x1 /usr/local/popcorn/x86_64/lib/libstack-transform.a(regs.o)
                                        0x379 (size before relaxing)
 .debug_str     0x0000000000001e46       0xa2 0x1 /usr/local/popcorn/x86_64/lib/libstack-transform.a(properties.o)
                                        0x251 (size before relaxing)
 .debug_str     0x0000000000001ee8      0x113 0x1 /usr/local/popcorn/x86_64/lib/libstack-transform.a(regs.o)
                                        0x396 (size before relaxing)
 .debug_str     0x0000000000001ffb       0x8c 0x1 /usr/local/popcorn/x86_64/lib/libstack-transform.a(properties.o)
                                        0x239 (size before relaxing)
 .debug_str     0x0000000000002087       0xf9 0x1 /usr/local/popcorn/x86_64/lib/libstack-transform.a(regs.o)
                                        0x367 (size before relaxing)
 .debug_str     0x0000000000002180       0x86 0x1 /usr/local/popcorn/x86_64/lib/libstack-transform.a(properties.o)
                                        0x232 (size before relaxing)
 .debug_str     0x0000000000002206       0xec 0x1 /usr/local/popcorn/x86_64/lib/libstack-transform.a(regs.o)
                                        0x3e7 (size before relaxing)
 .debug_str     0x00000000000022f2      0x13c 0x1 /usr/local/popcorn/x86_64/lib/libstack-transform.a(data.o)
                                        0x770 (size before relaxing)
 .debug_str     0x000000000000242e       0x60 0x1 /usr/local/popcorn/x86_64/lib/libc.a(arch_crash.o)
                                        0x11a (size before relaxing)
 .debug_str     0x000000000000248e       0x18 0x1 /usr/local/popcorn/x86_64/lib/libc.a(getenv.o)
                                         0xe2 (size before relaxing)
 .debug_str     0x00000000000024a6       0x53 0x1 /usr/local/popcorn/x86_64/lib/libc.a(platform.o)
                                        0x1b0 (size before relaxing)
 .debug_str     0x00000000000024f9       0x2a 0x1 /usr/local/popcorn/x86_64/lib/libc.a(assert.o)
                                         0xe0 (size before relaxing)
 .debug_str     0x0000000000002523       0x21 0x1 /usr/local/popcorn/x86_64/lib/libc.a(open.o)
                                        0x195 (size before relaxing)
 .debug_str     0x0000000000002544       0x36 0x1 /usr/local/popcorn/x86_64/lib/libc.a(calloc.o)
                                        0x105 (size before relaxing)
 .debug_str     0x000000000000257a       0x29 0x1 /usr/local/popcorn/x86_64/lib/libc.a(lite_malloc.o)
                                        0x12d (size before relaxing)
 .debug_str     0x00000000000025a3      0x123 0x1 /usr/local/popcorn/x86_64/lib/libc.a(malloc.o)
                                        0x2fb (size before relaxing)
 .debug_str     0x00000000000026c6       0xa9 0x1 /usr/local/popcorn/x86_64/lib/libc.a(popcorn_malloc.o)
                                        0x37e (size before relaxing)
 .debug_str     0x000000000000276f       0x2f 0x1 /usr/local/popcorn/x86_64/lib/libc.a(getrlimit.o)
                                        0x16d (size before relaxing)
 .debug_str     0x000000000000279e       0x24 0x1 /usr/local/popcorn/x86_64/lib/libc.a(madvise.o)
                                        0x110 (size before relaxing)
 .debug_str     0x00000000000027c2       0x1c 0x1 /usr/local/popcorn/x86_64/lib/libc.a(mmap.o)
                                        0x135 (size before relaxing)
 .debug_str     0x00000000000027de       0x48 0x1 /usr/local/popcorn/x86_64/lib/libc.a(mremap.o)
                                        0x1b9 (size before relaxing)
 .debug_str     0x0000000000002826       0x1b 0x1 /usr/local/popcorn/x86_64/lib/libc.a(munmap.o)
                                        0x10b (size before relaxing)
 .debug_str     0x0000000000002841       0x1f 0x1 /usr/local/popcorn/x86_64/lib/libc.a(fclose.o)
                                        0x260 (size before relaxing)
 .debug_str     0x0000000000002860       0x1a 0x1 /usr/local/popcorn/x86_64/lib/libc.a(fflush.o)
                                        0x256 (size before relaxing)
 .debug_str     0x000000000000287a       0x18 0x1 /usr/local/popcorn/x86_64/lib/libc.a(fopen.o)
                                        0x26c (size before relaxing)
 .debug_str     0x0000000000002892       0x14 0x1 /usr/local/popcorn/x86_64/lib/libc.a(fprintf.o)
                                        0x160 (size before relaxing)
 .debug_str     0x00000000000028a6       0x13 0x1 /usr/local/popcorn/x86_64/lib/libc.a(fscanf.o)
                                        0x15e (size before relaxing)
 .debug_str     0x00000000000028b9       0x33 0x1 /usr/local/popcorn/x86_64/lib/libc.a(fseek.o)
                                        0x275 (size before relaxing)
 .debug_str     0x00000000000028ec       0x11 0x1 /usr/local/popcorn/x86_64/lib/libc.a(getc.o)
                                        0x23e (size before relaxing)
 .debug_str     0x00000000000028fd       0x1c 0x1 /usr/local/popcorn/x86_64/lib/libc.a(getline.o)
                                        0x102 (size before relaxing)
 .debug_str     0x0000000000002919       0x21 0x1 /usr/local/popcorn/x86_64/lib/libc.a(perror.o)
                                        0x259 (size before relaxing)
 .debug_str     0x000000000000293a       0x15 0x1 /usr/local/popcorn/x86_64/lib/libc.a(snprintf.o)
                                        0x16f (size before relaxing)
 .debug_str     0x000000000000294f       0x13 0x1 /usr/local/popcorn/x86_64/lib/libc.a(sscanf.o)
                                        0x150 (size before relaxing)
 .debug_str     0x0000000000002962       0x28 0x1 /usr/local/popcorn/x86_64/lib/libc.a(stderr.o)
                                        0x24e (size before relaxing)
 .debug_str     0x000000000000298a       0x90 0x1 /usr/local/popcorn/x86_64/lib/libc.a(vfscanf.o)
                                        0x3d9 (size before relaxing)
 .debug_str     0x0000000000002a1a       0x29 0x1 /usr/local/popcorn/x86_64/lib/libc.a(vsnprintf.o)
                                        0x2a8 (size before relaxing)
 .debug_str     0x0000000000002a43       0x24 0x1 /usr/local/popcorn/x86_64/lib/libc.a(vsscanf.o)
                                        0x299 (size before relaxing)
 .debug_str     0x0000000000002a67       0x26 0x1 /usr/local/popcorn/x86_64/lib/libc.a(bsearch.o)
                                        0x102 (size before relaxing)
 .debug_str     0x0000000000002a8d       0x75 0x1 /usr/local/popcorn/x86_64/lib/libc.a(qsort.o)
                                        0x1a9 (size before relaxing)
 .debug_str     0x0000000000002b02       0x4f 0x1 /usr/local/popcorn/x86_64/lib/libc.a(strtol.o)
                                        0x2c0 (size before relaxing)
 .debug_str     0x0000000000002b51       0x1b 0x1 /usr/local/popcorn/x86_64/lib/libc.a(strchr.o)
                                         0xdb (size before relaxing)
 .debug_str     0x0000000000002b6c       0x23 0x1 /usr/local/popcorn/x86_64/lib/libc.a(strchrnul.o)
                                        0x108 (size before relaxing)
 .debug_str     0x0000000000002b8f       0x1b 0x1 /usr/local/popcorn/x86_64/lib/libc.a(strcmp.o)
                                         0xd9 (size before relaxing)
 .debug_str     0x0000000000002baa       0x1b 0x1 /usr/local/popcorn/x86_64/lib/libc.a(strlen.o)
                                         0xec (size before relaxing)
 .debug_str     0x0000000000002bc5       0x20 0x1 /usr/local/popcorn/x86_64/lib/libc.a(strncmp.o)
                                         0xfc (size before relaxing)
 .debug_str     0x0000000000002be5      0x2ae 0x1 /usr/local/popcorn/x86_64/lib/libc.a(pthread_attr_get.o)
                                        0x419 (size before relaxing)
 .debug_str     0x0000000000002e93       0x33 0x1 /usr/local/popcorn/x86_64/lib/libc.a(pthread_getattr_np.o)
                                        0x322 (size before relaxing)
 .debug_str     0x0000000000002ec6       0x4f 0x1 /usr/local/popcorn/x86_64/lib/libc.a(pthread_migrate.o)
                                        0x320 (size before relaxing)
 .debug_str     0x0000000000002f15       0x32 0x1 /usr/local/popcorn/x86_64/lib/libc.a(pthread_self.o)
                                        0x308 (size before relaxing)
 .debug_str     0x0000000000002f47       0x13 0x1 /usr/local/popcorn/x86_64/lib/libc.a(close.o)
                                         0xd4 (size before relaxing)
 .debug_str     0x0000000000002f5a       0x1b 0x1 /usr/local/popcorn/x86_64/lib/libc.a(getpid.o)
                                         0xf4 (size before relaxing)
 .debug_str     0x0000000000002f75       0x19 0x1 /usr/local/popcorn/x86_64/lib/libc.a(lseek.o)
                                        0x10c (size before relaxing)
 .debug_str     0x0000000000002f8e       0x12 0x1 /usr/local/popcorn/x86_64/lib/libc.a(read.o)
                                         0xf5 (size before relaxing)
 .debug_str     0x0000000000002fa0       0x17 0x1 /usr/local/popcorn/x86_64/lib/libc.a(abort.o)
                                         0xc2 (size before relaxing)
 .debug_str     0x0000000000002fb7       0xab 0x1 /usr/local/popcorn/x86_64/lib/libc.a(floatscan.o)
                                        0x33e (size before relaxing)
 .debug_str     0x0000000000003062       0x31 0x1 /usr/local/popcorn/x86_64/lib/libc.a(intscan.o)
                                        0x296 (size before relaxing)
 .debug_str     0x0000000000003093       0x29 0x1 /usr/local/popcorn/x86_64/lib/libc.a(shgetc.o)
                                        0x255 (size before relaxing)
 .debug_str     0x00000000000030bc       0x97 0x1 /usr/local/popcorn/x86_64/lib/libc.a(expand_heap.o)
                                        0x211 (size before relaxing)
 .debug_str     0x0000000000003153       0x22 0x1 /usr/local/popcorn/x86_64/lib/libc.a(copysignl.o)
                                        0x11c (size before relaxing)
 .debug_str     0x0000000000003175       0x22 0x1 /usr/local/popcorn/x86_64/lib/libc.a(scalbn.o)
                                         0xf7 (size before relaxing)
 .debug_str     0x0000000000003197       0x1b 0x1 /usr/local/popcorn/x86_64/lib/libc.a(scalbnl.o)
                                        0x118 (size before relaxing)
 .debug_str     0x00000000000031b2       0x3a 0x1 /usr/local/popcorn/x86_64/lib/libc.a(mbrtowc.o)
                                        0x37f (size before relaxing)
 .debug_str     0x00000000000031ec       0x20 0x1 /usr/local/popcorn/x86_64/lib/libc.a(mbsinit.o)
                                        0x101 (size before relaxing)
 .debug_str     0x000000000000320c       0x56 0x1 /usr/local/popcorn/x86_64/lib/libc.a(block.o)
                                        0x14d (size before relaxing)
 .debug_str     0x0000000000003262       0x2f 0x1 /usr/local/popcorn/x86_64/lib/libc.a(raise.o)
                                        0x138 (size before relaxing)
 .debug_str     0x0000000000003291       0x1e 0x1 /usr/local/popcorn/x86_64/lib/libc.a(__fdopen.o)
                                        0x2a6 (size before relaxing)
 .debug_str     0x00000000000032af       0x26 0x1 /usr/local/popcorn/x86_64/lib/libc.a(__fmodeflags.o)
                                         0xdd (size before relaxing)
 .debug_str     0x00000000000032d5       0x26 0x1 /usr/local/popcorn/x86_64/lib/libc.a(__stdio_read.o)
                                        0x291 (size before relaxing)
 .debug_str     0x00000000000032fb       0x28 0x1 /usr/local/popcorn/x86_64/lib/libc.a(__string_read.o)
                                        0x25c (size before relaxing)
 .debug_str     0x0000000000003323       0x1c 0x1 /usr/local/popcorn/x86_64/lib/libc.a(__uflow.o)
                                        0x244 (size before relaxing)
 .debug_str     0x000000000000333f       0x18 0x1 /usr/local/popcorn/x86_64/lib/libc.a(fputc.o)
                                        0x240 (size before relaxing)
 .debug_str     0x0000000000003357       0x22 0x1 /usr/local/popcorn/x86_64/lib/libc.a(getdelim.o)
                                        0x276 (size before relaxing)
 .debug_str     0x0000000000003379       0x1e 0x1 /usr/local/popcorn/x86_64/lib/libc.a(ofl_add.o)
                                        0x249 (size before relaxing)
 .debug_str     0x0000000000003397       0x21 0x1 /usr/local/popcorn/x86_64/lib/libc.a(internal.o)
                                         0xee (size before relaxing)
 .debug_str     0x00000000000033b8       0x22 0x1 /usr/local/popcorn/x86_64/lib/libc.a(__overflow.o)
                                        0x24d (size before relaxing)
 .debug_str     0x00000000000033da       0x38 0x1 /usr/local/popcorn/x86_64/lib/libc.a(__toread.o)
                                        0x25e (size before relaxing)

.debug_loc      0x0000000000000000    0x1cd57
 *(.debug_loc)
 .debug_loc     0x0000000000000000       0x69 0x1 /usr/local/popcorn/x86_64/lib/crt1.o
 .debug_loc     0x0000000000000069      0x391 0x1 /usr/local/popcorn/x86_64/lib/libc.a(__libc_start_main.o)
 .debug_loc     0x00000000000003fa       0x6c 0x1 /usr/local/popcorn/x86_64/lib/libc.a(exit.o)
 .debug_loc     0x0000000000000466       0x6c 0x1 /usr/local/popcorn/x86_64/lib/libc.a(printf.o)
 .debug_loc     0x00000000000004d2     0x36e9 0x1 /usr/local/popcorn/x86_64/lib/libc.a(vfprintf.o)
 .debug_loc     0x0000000000003bbb       0x8f 0x1 /usr/local/popcorn/x86_64/lib/libc.a(strnlen.o)
 .debug_loc     0x0000000000003c4a       0x47 0x1 /usr/local/popcorn/x86_64/lib/libc.a(sleep.o)
 .debug_loc     0x0000000000003c91      0x4d0 0x1 /usr/local/popcorn/x86_64/lib/libc.a(__init_tls.o)
 .debug_loc     0x0000000000004161       0x23 0x1 /usr/local/popcorn/x86_64/lib/libc.a(__errno_location.o)
 .debug_loc     0x0000000000004184      0x16c 0x1 /usr/local/popcorn/x86_64/lib/libc.a(strerror.o)
 .debug_loc     0x00000000000042f0       0x46 0x1 /usr/local/popcorn/x86_64/lib/libc.a(_Exit.o)
 .debug_loc     0x0000000000004336       0xc2 0x1 /usr/local/popcorn/x86_64/lib/libc.a(__lctrans.o)
 .debug_loc     0x00000000000043f8       0x49 0x1 /usr/local/popcorn/x86_64/lib/libc.a(__fpclassifyl.o)
 .debug_loc     0x0000000000004441       0xf7 0x1 /usr/local/popcorn/x86_64/lib/libc.a(frexpl.o)
 .debug_loc     0x0000000000004538       0x6c 0x1 /usr/local/popcorn/x86_64/lib/libc.a(wctomb.o)
 .debug_loc     0x00000000000045a4      0x369 0x1 /usr/local/popcorn/x86_64/lib/libc.a(__lockfile.o)
 .debug_loc     0x000000000000490d       0x9f 0x1 /usr/local/popcorn/x86_64/lib/libc.a(__stdio_close.o)
 .debug_loc     0x00000000000049ac       0xf5 0x1 /usr/local/popcorn/x86_64/lib/libc.a(__stdio_seek.o)
 .debug_loc     0x0000000000004aa1      0x157 0x1 /usr/local/popcorn/x86_64/lib/libc.a(__stdout_write.o)
 .debug_loc     0x0000000000004bf8      0x2da 0x1 /usr/local/popcorn/x86_64/lib/libc.a(fwrite.o)
 .debug_loc     0x0000000000004ed2      0x144 0x1 /usr/local/popcorn/x86_64/lib/libc.a(memchr.o)
 .debug_loc     0x0000000000005016      0x337 0x1 /usr/local/popcorn/x86_64/lib/libc.a(__wait.o)
 .debug_loc     0x000000000000534d       0x6c 0x1 /usr/local/popcorn/x86_64/lib/libc.a(nanosleep.o)
 .debug_loc     0x00000000000053b9       0x36 0x1 /usr/local/popcorn/x86_64/lib/libc.a(syscall_ret.o)
 .debug_loc     0x00000000000053ef      0x1db 0x1 /usr/local/popcorn/x86_64/lib/libc.a(wcrtomb.o)
 .debug_loc     0x00000000000055ca      0x32e 0x1 /usr/local/popcorn/x86_64/lib/libc.a(__stdio_write.o)
 .debug_loc     0x00000000000058f8      0x1a4 0x1 /usr/local/popcorn/x86_64/lib/libc.a(__syscall_cp.o)
 .debug_loc     0x0000000000005a9c       0x6c 0x1 /usr/local/popcorn/x86_64/lib/libc.a(__stdio_exit.o)
 .debug_loc     0x0000000000005b08      0x2b9 0x1 /usr/local/popcorn/x86_64/lib/libc.a(__lock.o)
 .debug_loc     0x0000000000005dc1      0x872 0x1 /usr/local/popcorn/x86_64/lib/libstack-transform.a(userspace.o)
 .debug_loc     0x0000000000006633       0xe8 0x1 /usr/local/popcorn/x86_64/lib/libstack-transform.a(init.o)
 .debug_loc     0x000000000000671b      0xd53 0x1 /usr/local/popcorn/x86_64/lib/libstack-transform.a(rewrite.o)
 .debug_loc     0x000000000000746e      0x913 0x1 /usr/local/popcorn/x86_64/lib/libstack-transform.a(unwind.o)
 .debug_loc     0x0000000000007d81      0x883 0x1 /usr/local/popcorn/x86_64/lib/libstack-transform.a(util.o)
 .debug_loc     0x0000000000008604       0x46 0x1 /usr/local/popcorn/x86_64/lib/libstack-transform.a(properties.o)
 .debug_loc     0x000000000000864a      0xcc7 0x1 /usr/local/popcorn/x86_64/lib/libstack-transform.a(regs.o)
 .debug_loc     0x0000000000009311       0x8f 0x1 /usr/local/popcorn/x86_64/lib/libstack-transform.a(properties.o)
 .debug_loc     0x00000000000093a0      0xcf0 0x1 /usr/local/popcorn/x86_64/lib/libstack-transform.a(regs.o)
 .debug_loc     0x000000000000a090       0x46 0x1 /usr/local/popcorn/x86_64/lib/libstack-transform.a(properties.o)
 .debug_loc     0x000000000000a0d6      0x36d 0x1 /usr/local/popcorn/x86_64/lib/libstack-transform.a(regs.o)
 .debug_loc     0x000000000000a443       0x46 0x1 /usr/local/popcorn/x86_64/lib/libstack-transform.a(properties.o)
 .debug_loc     0x000000000000a489      0x8bc 0x1 /usr/local/popcorn/x86_64/lib/libstack-transform.a(regs.o)
 .debug_loc     0x000000000000ad45     0x1576 0x1 /usr/local/popcorn/x86_64/lib/libstack-transform.a(data.o)
 .debug_loc     0x000000000000c2bb      0x144 0x1 /usr/local/popcorn/x86_64/lib/libc.a(arch_crash.o)
 .debug_loc     0x000000000000c3ff       0x7f 0x1 /usr/local/popcorn/x86_64/lib/libc.a(getenv.o)
 .debug_loc     0x000000000000c47e      0x255 0x1 /usr/local/popcorn/x86_64/lib/libc.a(platform.o)
 .debug_loc     0x000000000000c6d3       0xd8 0x1 /usr/local/popcorn/x86_64/lib/libc.a(assert.o)
 .debug_loc     0x000000000000c7ab      0x146 0x1 /usr/local/popcorn/x86_64/lib/libc.a(open.o)
 .debug_loc     0x000000000000c8f1      0x21f 0x1 /usr/local/popcorn/x86_64/lib/libc.a(calloc.o)
 .debug_loc     0x000000000000cb10      0x1be 0x1 /usr/local/popcorn/x86_64/lib/libc.a(lite_malloc.o)
 .debug_loc     0x000000000000ccce     0x31f9 0x1 /usr/local/popcorn/x86_64/lib/libc.a(malloc.o)
 .debug_loc     0x000000000000fec7     0x33c1 0x1 /usr/local/popcorn/x86_64/lib/libc.a(popcorn_malloc.o)
 .debug_loc     0x0000000000013288      0x20c 0x1 /usr/local/popcorn/x86_64/lib/libc.a(getrlimit.o)
 .debug_loc     0x0000000000013494       0xf5 0x1 /usr/local/popcorn/x86_64/lib/libc.a(madvise.o)
 .debug_loc     0x0000000000013589      0x3ce 0x1 /usr/local/popcorn/x86_64/lib/libc.a(mmap.o)
 .debug_loc     0x0000000000013957      0x215 0x1 /usr/local/popcorn/x86_64/lib/libc.a(mremap.o)
 .debug_loc     0x0000000000013b6c       0xfb 0x1 /usr/local/popcorn/x86_64/lib/libc.a(munmap.o)
 .debug_loc     0x0000000000013c67       0xb2 0x1 /usr/local/popcorn/x86_64/lib/libc.a(fclose.o)
 .debug_loc     0x0000000000013d19      0x111 0x1 /usr/local/popcorn/x86_64/lib/libc.a(fflush.o)
 .debug_loc     0x0000000000013e2a      0x277 0x1 /usr/local/popcorn/x86_64/lib/libc.a(fopen.o)
 .debug_loc     0x00000000000140a1       0x69 0x1 /usr/local/popcorn/x86_64/lib/libc.a(fprintf.o)
 .debug_loc     0x000000000001410a       0x69 0x1 /usr/local/popcorn/x86_64/lib/libc.a(fscanf.o)
 .debug_loc     0x0000000000014173      0x209 0x1 /usr/local/popcorn/x86_64/lib/libc.a(fseek.o)
 .debug_loc     0x000000000001437c       0x6c 0x1 /usr/local/popcorn/x86_64/lib/libc.a(getc.o)
 .debug_loc     0x00000000000143e8       0x7c 0x1 /usr/local/popcorn/x86_64/lib/libc.a(getline.o)
 .debug_loc     0x0000000000014464       0x9f 0x1 /usr/local/popcorn/x86_64/lib/libc.a(perror.o)
 .debug_loc     0x0000000000014503       0x8c 0x1 /usr/local/popcorn/x86_64/lib/libc.a(snprintf.o)
 .debug_loc     0x000000000001458f       0x69 0x1 /usr/local/popcorn/x86_64/lib/libc.a(sscanf.o)
 .debug_loc     0x00000000000145f8     0x108c 0x1 /usr/local/popcorn/x86_64/lib/libc.a(vfscanf.o)
 .debug_loc     0x0000000000015684      0x1e5 0x1 /usr/local/popcorn/x86_64/lib/libc.a(vsnprintf.o)
 .debug_loc     0x0000000000015869      0x155 0x1 /usr/local/popcorn/x86_64/lib/libc.a(vsscanf.o)
 .debug_loc     0x00000000000159be      0x1b4 0x1 /usr/local/popcorn/x86_64/lib/libc.a(bsearch.o)
 .debug_loc     0x0000000000015b72      0xfa3 0x1 /usr/local/popcorn/x86_64/lib/libc.a(qsort.o)
 .debug_loc     0x0000000000016b15      0x4b0 0x1 /usr/local/popcorn/x86_64/lib/libc.a(strtol.o)
 .debug_loc     0x0000000000016fc5       0x7c 0x1 /usr/local/popcorn/x86_64/lib/libc.a(strchr.o)
 .debug_loc     0x0000000000017041      0x111 0x1 /usr/local/popcorn/x86_64/lib/libc.a(strchrnul.o)
 .debug_loc     0x0000000000017152       0x23 0x1 /usr/local/popcorn/x86_64/lib/libc.a(strcmp.o)
 .debug_loc     0x0000000000017175      0x108 0x1 /usr/local/popcorn/x86_64/lib/libc.a(strlen.o)
 .debug_loc     0x000000000001727d      0x102 0x1 /usr/local/popcorn/x86_64/lib/libc.a(strncmp.o)
 .debug_loc     0x000000000001737f       0xc8 0x1 /usr/local/popcorn/x86_64/lib/libc.a(pthread_getattr_np.o)
 .debug_loc     0x0000000000017447       0x46 0x1 /usr/local/popcorn/x86_64/lib/libc.a(pthread_migrate.o)
 .debug_loc     0x000000000001748d       0x23 0x1 /usr/local/popcorn/x86_64/lib/libc.a(pthread_self.o)
 .debug_loc     0x00000000000174b0       0x8f 0x1 /usr/local/popcorn/x86_64/lib/libc.a(close.o)
 .debug_loc     0x000000000001753f       0xf5 0x1 /usr/local/popcorn/x86_64/lib/libc.a(lseek.o)
 .debug_loc     0x0000000000017634       0x8f 0x1 /usr/local/popcorn/x86_64/lib/libc.a(read.o)
 .debug_loc     0x00000000000176c3     0x31b1 0x1 /usr/local/popcorn/x86_64/lib/libc.a(floatscan.o)
 .debug_loc     0x000000000001a874      0x772 0x1 /usr/local/popcorn/x86_64/lib/libc.a(intscan.o)
 .debug_loc     0x000000000001afe6       0x7f 0x1 /usr/local/popcorn/x86_64/lib/libc.a(shgetc.o)
 .debug_loc     0x000000000001b065      0x959 0x1 /usr/local/popcorn/x86_64/lib/libc.a(expand_heap.o)
 .debug_loc     0x000000000001b9be       0x26 0x1 /usr/local/popcorn/x86_64/lib/libc.a(copysignl.o)
 .debug_loc     0x000000000001b9e4      0x14e 0x1 /usr/local/popcorn/x86_64/lib/libc.a(scalbn.o)
 .debug_loc     0x000000000001bb32      0x131 0x1 /usr/local/popcorn/x86_64/lib/libc.a(scalbnl.o)
 .debug_loc     0x000000000001bc63      0x2d0 0x1 /usr/local/popcorn/x86_64/lib/libc.a(mbrtowc.o)
 .debug_loc     0x000000000001bf33       0xe8 0x1 /usr/local/popcorn/x86_64/lib/libc.a(block.o)
 .debug_loc     0x000000000001c01b       0xe5 0x1 /usr/local/popcorn/x86_64/lib/libc.a(raise.o)
 .debug_loc     0x000000000001c100      0x30e 0x1 /usr/local/popcorn/x86_64/lib/libc.a(__fdopen.o)
 .debug_loc     0x000000000001c40e       0xb8 0x1 /usr/local/popcorn/x86_64/lib/libc.a(__fmodeflags.o)
 .debug_loc     0x000000000001c4c6      0x154 0x1 /usr/local/popcorn/x86_64/lib/libc.a(__stdio_read.o)
 .debug_loc     0x000000000001c61a      0x131 0x1 /usr/local/popcorn/x86_64/lib/libc.a(__string_read.o)
 .debug_loc     0x000000000001c74b       0x5a 0x1 /usr/local/popcorn/x86_64/lib/libc.a(__uflow.o)
 .debug_loc     0x000000000001c7a5       0x92 0x1 /usr/local/popcorn/x86_64/lib/libc.a(fputc.o)
 .debug_loc     0x000000000001c837      0x39f 0x1 /usr/local/popcorn/x86_64/lib/libc.a(getdelim.o)
 .debug_loc     0x000000000001cbd6       0x59 0x1 /usr/local/popcorn/x86_64/lib/libc.a(ofl_add.o)
 .debug_loc     0x000000000001cc2f       0xf2 0x1 /usr/local/popcorn/x86_64/lib/libc.a(__overflow.o)
 .debug_loc     0x000000000001cd21       0x36 0x1 /usr/local/popcorn/x86_64/lib/libc.a(__toread.o)

.debug_macinfo  0x0000000000000000       0x79
 *(.debug_macinfo)
 .debug_macinfo
                0x0000000000000000        0x1 0x1 basic_x86_64.o
 .debug_macinfo
                0x0000000000000001        0x1 0x1 /usr/local/popcorn/x86_64/lib/crt1.o
 .debug_macinfo
                0x0000000000000002        0x1 0x1 /usr/local/popcorn/x86_64/lib/libc.a(__libc_start_main.o)
 .debug_macinfo
                0x0000000000000003        0x1 0x1 /usr/local/popcorn/x86_64/lib/libc.a(exit.o)
 .debug_macinfo
                0x0000000000000004        0x1 0x1 /usr/local/popcorn/x86_64/lib/libc.a(libc.o)
 .debug_macinfo
                0x0000000000000005        0x1 0x1 /usr/local/popcorn/x86_64/lib/libc.a(printf.o)
 .debug_macinfo
                0x0000000000000006        0x1 0x1 /usr/local/popcorn/x86_64/lib/libc.a(stdout.o)
 .debug_macinfo
                0x0000000000000007        0x1 0x1 /usr/local/popcorn/x86_64/lib/libc.a(vfprintf.o)
 .debug_macinfo
                0x0000000000000008        0x1 0x1 /usr/local/popcorn/x86_64/lib/libc.a(strnlen.o)
 .debug_macinfo
                0x0000000000000009        0x1 0x1 /usr/local/popcorn/x86_64/lib/libc.a(gettid.o)
 .debug_macinfo
                0x000000000000000a        0x1 0x1 /usr/local/popcorn/x86_64/lib/libc.a(sleep.o)
 .debug_macinfo
                0x000000000000000b        0x1 0x1 /usr/local/popcorn/x86_64/lib/libc.a(__environ.o)
 .debug_macinfo
                0x000000000000000c        0x1 0x1 /usr/local/popcorn/x86_64/lib/libc.a(__init_tls.o)
 .debug_macinfo
                0x000000000000000d        0x1 0x1 /usr/local/popcorn/x86_64/lib/libc.a(__errno_location.o)
 .debug_macinfo
                0x000000000000000e        0x1 0x1 /usr/local/popcorn/x86_64/lib/libc.a(strerror.o)
 .debug_macinfo
                0x000000000000000f        0x1 0x1 /usr/local/popcorn/x86_64/lib/libc.a(_Exit.o)
 .debug_macinfo
                0x0000000000000010        0x1 0x1 /usr/local/popcorn/x86_64/lib/libc.a(__lctrans.o)
 .debug_macinfo
                0x0000000000000011        0x1 0x1 /usr/local/popcorn/x86_64/lib/libc.a(__fpclassifyl.o)
 .debug_macinfo
                0x0000000000000012        0x1 0x1 /usr/local/popcorn/x86_64/lib/libc.a(__signbitl.o)
 .debug_macinfo
                0x0000000000000013        0x1 0x1 /usr/local/popcorn/x86_64/lib/libc.a(frexpl.o)
 .debug_macinfo
                0x0000000000000014        0x1 0x1 /usr/local/popcorn/x86_64/lib/libc.a(wctomb.o)
 .debug_macinfo
                0x0000000000000015        0x1 0x1 /usr/local/popcorn/x86_64/lib/libc.a(__lockfile.o)
 .debug_macinfo
                0x0000000000000016        0x1 0x1 /usr/local/popcorn/x86_64/lib/libc.a(__stdio_close.o)
 .debug_macinfo
                0x0000000000000017        0x1 0x1 /usr/local/popcorn/x86_64/lib/libc.a(__stdio_seek.o)
 .debug_macinfo
                0x0000000000000018        0x1 0x1 /usr/local/popcorn/x86_64/lib/libc.a(__stdout_write.o)
 .debug_macinfo
                0x0000000000000019        0x1 0x1 /usr/local/popcorn/x86_64/lib/libc.a(fwrite.o)
 .debug_macinfo
                0x000000000000001a        0x1 0x1 /usr/local/popcorn/x86_64/lib/libc.a(memchr.o)
 .debug_macinfo
                0x000000000000001b        0x1 0x1 /usr/local/popcorn/x86_64/lib/libc.a(__wait.o)
 .debug_macinfo
                0x000000000000001c        0x1 0x1 /usr/local/popcorn/x86_64/lib/libc.a(nanosleep.o)
 .debug_macinfo
                0x000000000000001d        0x1 0x1 /usr/local/popcorn/x86_64/lib/libc.a(syscall_ret.o)
 .debug_macinfo
                0x000000000000001e        0x1 0x1 /usr/local/popcorn/x86_64/lib/libc.a(wcrtomb.o)
 .debug_macinfo
                0x000000000000001f        0x1 0x1 /usr/local/popcorn/x86_64/lib/libc.a(__stdio_write.o)
 .debug_macinfo
                0x0000000000000020        0x1 0x1 /usr/local/popcorn/x86_64/lib/libc.a(__towrite.o)
 .debug_macinfo
                0x0000000000000021        0x1 0x1 /usr/local/popcorn/x86_64/lib/libc.a(__syscall_cp.o)
 .debug_macinfo
                0x0000000000000022        0x1 0x1 /usr/local/popcorn/x86_64/lib/libc.a(__stdio_exit.o)
 .debug_macinfo
                0x0000000000000023        0x1 0x1 /usr/local/popcorn/x86_64/lib/libc.a(ofl.o)
 .debug_macinfo
                0x0000000000000024        0x1 0x1 /usr/local/popcorn/x86_64/lib/libc.a(__lock.o)
 .debug_macinfo
                0x0000000000000025        0x1 0x1 /usr/local/popcorn/x86_64/lib/libmigrate.a(migrate.o)
 .debug_macinfo
                0x0000000000000026        0x1 0x1 /usr/local/popcorn/x86_64/lib/libmigrate.a(mapping.o)
 .debug_macinfo
                0x0000000000000027        0x1 0x1 /usr/local/popcorn/x86_64/lib/libstack-transform.a(userspace.o)
 .debug_macinfo
                0x0000000000000028        0x1 0x1 /usr/local/popcorn/x86_64/lib/libstack-transform.a(init.o)
 .debug_macinfo
                0x0000000000000029        0x1 0x1 /usr/local/popcorn/x86_64/lib/libstack-transform.a(rewrite.o)
 .debug_macinfo
                0x000000000000002a        0x1 0x1 /usr/local/popcorn/x86_64/lib/libstack-transform.a(unwind.o)
 .debug_macinfo
                0x000000000000002b        0x1 0x1 /usr/local/popcorn/x86_64/lib/libstack-transform.a(util.o)
 .debug_macinfo
                0x000000000000002c        0x1 0x1 /usr/local/popcorn/x86_64/lib/libstack-transform.a(properties.o)
 .debug_macinfo
                0x000000000000002d        0x1 0x1 /usr/local/popcorn/x86_64/lib/libstack-transform.a(regs.o)
 .debug_macinfo
                0x000000000000002e        0x1 0x1 /usr/local/popcorn/x86_64/lib/libstack-transform.a(properties.o)
 .debug_macinfo
                0x000000000000002f        0x1 0x1 /usr/local/popcorn/x86_64/lib/libstack-transform.a(regs.o)
 .debug_macinfo
                0x0000000000000030        0x1 0x1 /usr/local/popcorn/x86_64/lib/libstack-transform.a(properties.o)
 .debug_macinfo
                0x0000000000000031        0x1 0x1 /usr/local/popcorn/x86_64/lib/libstack-transform.a(regs.o)
 .debug_macinfo
                0x0000000000000032        0x1 0x1 /usr/local/popcorn/x86_64/lib/libstack-transform.a(properties.o)
 .debug_macinfo
                0x0000000000000033        0x1 0x1 /usr/local/popcorn/x86_64/lib/libstack-transform.a(regs.o)
 .debug_macinfo
                0x0000000000000034        0x1 0x1 /usr/local/popcorn/x86_64/lib/libstack-transform.a(data.o)
 .debug_macinfo
                0x0000000000000035        0x1 0x1 /usr/local/popcorn/x86_64/lib/libc.a(arch_crash.o)
 .debug_macinfo
                0x0000000000000036        0x1 0x1 /usr/local/popcorn/x86_64/lib/libc.a(getenv.o)
 .debug_macinfo
                0x0000000000000037        0x1 0x1 /usr/local/popcorn/x86_64/lib/libc.a(platform.o)
 .debug_macinfo
                0x0000000000000038        0x1 0x1 /usr/local/popcorn/x86_64/lib/libc.a(assert.o)
 .debug_macinfo
                0x0000000000000039        0x1 0x1 /usr/local/popcorn/x86_64/lib/libc.a(open.o)
 .debug_macinfo
                0x000000000000003a        0x1 0x1 /usr/local/popcorn/x86_64/lib/libc.a(calloc.o)
 .debug_macinfo
                0x000000000000003b        0x1 0x1 /usr/local/popcorn/x86_64/lib/libc.a(lite_malloc.o)
 .debug_macinfo
                0x000000000000003c        0x1 0x1 /usr/local/popcorn/x86_64/lib/libc.a(malloc.o)
 .debug_macinfo
                0x000000000000003d        0x1 0x1 /usr/local/popcorn/x86_64/lib/libc.a(popcorn_malloc.o)
 .debug_macinfo
                0x000000000000003e        0x1 0x1 /usr/local/popcorn/x86_64/lib/libc.a(getrlimit.o)
 .debug_macinfo
                0x000000000000003f        0x1 0x1 /usr/local/popcorn/x86_64/lib/libc.a(madvise.o)
 .debug_macinfo
                0x0000000000000040        0x1 0x1 /usr/local/popcorn/x86_64/lib/libc.a(mmap.o)
 .debug_macinfo
                0x0000000000000041        0x1 0x1 /usr/local/popcorn/x86_64/lib/libc.a(mremap.o)
 .debug_macinfo
                0x0000000000000042        0x1 0x1 /usr/local/popcorn/x86_64/lib/libc.a(munmap.o)
 .debug_macinfo
                0x0000000000000043        0x1 0x1 /usr/local/popcorn/x86_64/lib/libc.a(fclose.o)
 .debug_macinfo
                0x0000000000000044        0x1 0x1 /usr/local/popcorn/x86_64/lib/libc.a(fflush.o)
 .debug_macinfo
                0x0000000000000045        0x1 0x1 /usr/local/popcorn/x86_64/lib/libc.a(fopen.o)
 .debug_macinfo
                0x0000000000000046        0x1 0x1 /usr/local/popcorn/x86_64/lib/libc.a(fprintf.o)
 .debug_macinfo
                0x0000000000000047        0x1 0x1 /usr/local/popcorn/x86_64/lib/libc.a(fscanf.o)
 .debug_macinfo
                0x0000000000000048        0x1 0x1 /usr/local/popcorn/x86_64/lib/libc.a(fseek.o)
 .debug_macinfo
                0x0000000000000049        0x1 0x1 /usr/local/popcorn/x86_64/lib/libc.a(getc.o)
 .debug_macinfo
                0x000000000000004a        0x1 0x1 /usr/local/popcorn/x86_64/lib/libc.a(getline.o)
 .debug_macinfo
                0x000000000000004b        0x1 0x1 /usr/local/popcorn/x86_64/lib/libc.a(perror.o)
 .debug_macinfo
                0x000000000000004c        0x1 0x1 /usr/local/popcorn/x86_64/lib/libc.a(snprintf.o)
 .debug_macinfo
                0x000000000000004d        0x1 0x1 /usr/local/popcorn/x86_64/lib/libc.a(sscanf.o)
 .debug_macinfo
                0x000000000000004e        0x1 0x1 /usr/local/popcorn/x86_64/lib/libc.a(stderr.o)
 .debug_macinfo
                0x000000000000004f        0x1 0x1 /usr/local/popcorn/x86_64/lib/libc.a(vfscanf.o)
 .debug_macinfo
                0x0000000000000050        0x1 0x1 /usr/local/popcorn/x86_64/lib/libc.a(vsnprintf.o)
 .debug_macinfo
                0x0000000000000051        0x1 0x1 /usr/local/popcorn/x86_64/lib/libc.a(vsscanf.o)
 .debug_macinfo
                0x0000000000000052        0x1 0x1 /usr/local/popcorn/x86_64/lib/libc.a(bsearch.o)
 .debug_macinfo
                0x0000000000000053        0x1 0x1 /usr/local/popcorn/x86_64/lib/libc.a(qsort.o)
 .debug_macinfo
                0x0000000000000054        0x1 0x1 /usr/local/popcorn/x86_64/lib/libc.a(strtol.o)
 .debug_macinfo
                0x0000000000000055        0x1 0x1 /usr/local/popcorn/x86_64/lib/libc.a(strchr.o)
 .debug_macinfo
                0x0000000000000056        0x1 0x1 /usr/local/popcorn/x86_64/lib/libc.a(strchrnul.o)
 .debug_macinfo
                0x0000000000000057        0x1 0x1 /usr/local/popcorn/x86_64/lib/libc.a(strcmp.o)
 .debug_macinfo
                0x0000000000000058        0x1 0x1 /usr/local/popcorn/x86_64/lib/libc.a(strlen.o)
 .debug_macinfo
                0x0000000000000059        0x1 0x1 /usr/local/popcorn/x86_64/lib/libc.a(strncmp.o)
 .debug_macinfo
                0x000000000000005a        0x1 0x1 /usr/local/popcorn/x86_64/lib/libc.a(pthread_attr_get.o)
 .debug_macinfo
                0x000000000000005b        0x1 0x1 /usr/local/popcorn/x86_64/lib/libc.a(pthread_getattr_np.o)
 .debug_macinfo
                0x000000000000005c        0x1 0x1 /usr/local/popcorn/x86_64/lib/libc.a(pthread_migrate.o)
 .debug_macinfo
                0x000000000000005d        0x1 0x1 /usr/local/popcorn/x86_64/lib/libc.a(pthread_self.o)
 .debug_macinfo
                0x000000000000005e        0x1 0x1 /usr/local/popcorn/x86_64/lib/libc.a(close.o)
 .debug_macinfo
                0x000000000000005f        0x1 0x1 /usr/local/popcorn/x86_64/lib/libc.a(getpid.o)
 .debug_macinfo
                0x0000000000000060        0x1 0x1 /usr/local/popcorn/x86_64/lib/libc.a(lseek.o)
 .debug_macinfo
                0x0000000000000061        0x1 0x1 /usr/local/popcorn/x86_64/lib/libc.a(read.o)
 .debug_macinfo
                0x0000000000000062        0x1 0x1 /usr/local/popcorn/x86_64/lib/libc.a(abort.o)
 .debug_macinfo
                0x0000000000000063        0x1 0x1 /usr/local/popcorn/x86_64/lib/libc.a(floatscan.o)
 .debug_macinfo
                0x0000000000000064        0x1 0x1 /usr/local/popcorn/x86_64/lib/libc.a(intscan.o)
 .debug_macinfo
                0x0000000000000065        0x1 0x1 /usr/local/popcorn/x86_64/lib/libc.a(shgetc.o)
 .debug_macinfo
                0x0000000000000066        0x1 0x1 /usr/local/popcorn/x86_64/lib/libc.a(expand_heap.o)
 .debug_macinfo
                0x0000000000000067        0x1 0x1 /usr/local/popcorn/x86_64/lib/libc.a(copysignl.o)
 .debug_macinfo
                0x0000000000000068        0x1 0x1 /usr/local/popcorn/x86_64/lib/libc.a(scalbn.o)
 .debug_macinfo
                0x0000000000000069        0x1 0x1 /usr/local/popcorn/x86_64/lib/libc.a(scalbnl.o)
 .debug_macinfo
                0x000000000000006a        0x1 0x1 /usr/local/popcorn/x86_64/lib/libc.a(mbrtowc.o)
 .debug_macinfo
                0x000000000000006b        0x1 0x1 /usr/local/popcorn/x86_64/lib/libc.a(mbsinit.o)
 .debug_macinfo
                0x000000000000006c        0x1 0x1 /usr/local/popcorn/x86_64/lib/libc.a(block.o)
 .debug_macinfo
                0x000000000000006d        0x1 0x1 /usr/local/popcorn/x86_64/lib/libc.a(raise.o)
 .debug_macinfo
                0x000000000000006e        0x1 0x1 /usr/local/popcorn/x86_64/lib/libc.a(__fdopen.o)
 .debug_macinfo
                0x000000000000006f        0x1 0x1 /usr/local/popcorn/x86_64/lib/libc.a(__fmodeflags.o)
 .debug_macinfo
                0x0000000000000070        0x1 0x1 /usr/local/popcorn/x86_64/lib/libc.a(__stdio_read.o)
 .debug_macinfo
                0x0000000000000071        0x1 0x1 /usr/local/popcorn/x86_64/lib/libc.a(__string_read.o)
 .debug_macinfo
                0x0000000000000072        0x1 0x1 /usr/local/popcorn/x86_64/lib/libc.a(__uflow.o)
 .debug_macinfo
                0x0000000000000073        0x1 0x1 /usr/local/popcorn/x86_64/lib/libc.a(fputc.o)
 .debug_macinfo
                0x0000000000000074        0x1 0x1 /usr/local/popcorn/x86_64/lib/libc.a(getdelim.o)
 .debug_macinfo
                0x0000000000000075        0x1 0x1 /usr/local/popcorn/x86_64/lib/libc.a(ofl_add.o)
 .debug_macinfo
                0x0000000000000076        0x1 0x1 /usr/local/popcorn/x86_64/lib/libc.a(internal.o)
 .debug_macinfo
                0x0000000000000077        0x1 0x1 /usr/local/popcorn/x86_64/lib/libc.a(__overflow.o)
 .debug_macinfo
                0x0000000000000078        0x1 0x1 /usr/local/popcorn/x86_64/lib/libc.a(__toread.o)

.debug_weaknames
 *(.debug_weaknames)

.debug_funcnames
 *(.debug_funcnames)

.debug_typenames
 *(.debug_typenames)

.debug_varnames
 *(.debug_varnames)

.debug_pubtypes
 *(.debug_pubtypes)

.debug_ranges   0x0000000000000000     0x3050
 *(.debug_ranges)
 .debug_ranges  0x0000000000000000       0x40 0x1 basic_x86_64.o
 .debug_ranges  0x0000000000000040       0x90 0x1 /usr/local/popcorn/x86_64/lib/libc.a(__libc_start_main.o)
 .debug_ranges  0x00000000000000d0       0x40 0x1 /usr/local/popcorn/x86_64/lib/libc.a(exit.o)
 .debug_ranges  0x0000000000000110      0x520 0x1 /usr/local/popcorn/x86_64/lib/libc.a(vfprintf.o)
 .debug_ranges  0x0000000000000630       0x40 0x1 /usr/local/popcorn/x86_64/lib/libc.a(__init_tls.o)
 .debug_ranges  0x0000000000000670       0x30 0x1 /usr/local/popcorn/x86_64/lib/libc.a(strerror.o)
 .debug_ranges  0x00000000000006a0       0x40 0x1 /usr/local/popcorn/x86_64/lib/libc.a(__lctrans.o)
 .debug_ranges  0x00000000000006e0       0x60 0x1 /usr/local/popcorn/x86_64/lib/libc.a(__lockfile.o)
 .debug_ranges  0x0000000000000740       0x30 0x1 /usr/local/popcorn/x86_64/lib/libc.a(__stdio_close.o)
 .debug_ranges  0x0000000000000770       0x30 0x1 /usr/local/popcorn/x86_64/lib/libc.a(fwrite.o)
 .debug_ranges  0x00000000000007a0       0x30 0x1 /usr/local/popcorn/x86_64/lib/libc.a(__stdio_write.o)
 .debug_ranges  0x00000000000007d0       0x30 0x1 /usr/local/popcorn/x86_64/lib/libc.a(__towrite.o)
 .debug_ranges  0x0000000000000800       0x30 0x1 /usr/local/popcorn/x86_64/lib/libc.a(__syscall_cp.o)
 .debug_ranges  0x0000000000000830       0x30 0x1 /usr/local/popcorn/x86_64/lib/libc.a(__stdio_exit.o)
 .debug_ranges  0x0000000000000860       0x30 0x1 /usr/local/popcorn/x86_64/lib/libc.a(ofl.o)
 .debug_ranges  0x0000000000000890       0x60 0x1 /usr/local/popcorn/x86_64/lib/libc.a(__lock.o)
 .debug_ranges  0x00000000000008f0       0xc0 0x1 /usr/local/popcorn/x86_64/lib/libmigrate.a(migrate.o)
 .debug_ranges  0x00000000000009b0       0x70 0x1 /usr/local/popcorn/x86_64/lib/libmigrate.a(mapping.o)
 .debug_ranges  0x0000000000000a20      0x140 0x1 /usr/local/popcorn/x86_64/lib/libstack-transform.a(userspace.o)
 .debug_ranges  0x0000000000000b60       0x50 0x1 /usr/local/popcorn/x86_64/lib/libstack-transform.a(init.o)
 .debug_ranges  0x0000000000000bb0      0x180 0x1 /usr/local/popcorn/x86_64/lib/libstack-transform.a(rewrite.o)
 .debug_ranges  0x0000000000000d30      0x180 0x1 /usr/local/popcorn/x86_64/lib/libstack-transform.a(unwind.o)
 .debug_ranges  0x0000000000000eb0       0xe0 0x1 /usr/local/popcorn/x86_64/lib/libstack-transform.a(util.o)
 .debug_ranges  0x0000000000000f90       0x40 0x1 /usr/local/popcorn/x86_64/lib/libstack-transform.a(properties.o)
 .debug_ranges  0x0000000000000fd0      0x120 0x1 /usr/local/popcorn/x86_64/lib/libstack-transform.a(regs.o)
 .debug_ranges  0x00000000000010f0       0x40 0x1 /usr/local/popcorn/x86_64/lib/libstack-transform.a(properties.o)
 .debug_ranges  0x0000000000001130      0x120 0x1 /usr/local/popcorn/x86_64/lib/libstack-transform.a(regs.o)
 .debug_ranges  0x0000000000001250       0x40 0x1 /usr/local/popcorn/x86_64/lib/libstack-transform.a(properties.o)
 .debug_ranges  0x0000000000001290      0x120 0x1 /usr/local/popcorn/x86_64/lib/libstack-transform.a(regs.o)
 .debug_ranges  0x00000000000013b0       0x40 0x1 /usr/local/popcorn/x86_64/lib/libstack-transform.a(properties.o)
 .debug_ranges  0x00000000000013f0      0x120 0x1 /usr/local/popcorn/x86_64/lib/libstack-transform.a(regs.o)
 .debug_ranges  0x0000000000001510      0x560 0x1 /usr/local/popcorn/x86_64/lib/libstack-transform.a(data.o)
 .debug_ranges  0x0000000000001a70       0x60 0x1 /usr/local/popcorn/x86_64/lib/libc.a(arch_crash.o)
 .debug_ranges  0x0000000000001ad0       0x30 0x1 /usr/local/popcorn/x86_64/lib/libc.a(getenv.o)
 .debug_ranges  0x0000000000001b00       0x40 0x1 /usr/local/popcorn/x86_64/lib/libc.a(platform.o)
 .debug_ranges  0x0000000000001b40       0x70 0x1 /usr/local/popcorn/x86_64/lib/libc.a(calloc.o)
 .debug_ranges  0x0000000000001bb0       0x40 0x1 /usr/local/popcorn/x86_64/lib/libc.a(lite_malloc.o)
 .debug_ranges  0x0000000000001bf0      0x560 0x1 /usr/local/popcorn/x86_64/lib/libc.a(malloc.o)
 .debug_ranges  0x0000000000002150      0x530 0x1 /usr/local/popcorn/x86_64/lib/libc.a(popcorn_malloc.o)
 .debug_ranges  0x0000000000002680       0x30 0x1 /usr/local/popcorn/x86_64/lib/libc.a(mmap.o)
 .debug_ranges  0x00000000000026b0       0x30 0x1 /usr/local/popcorn/x86_64/lib/libc.a(mremap.o)
 .debug_ranges  0x00000000000026e0       0x30 0x1 /usr/local/popcorn/x86_64/lib/libc.a(munmap.o)
 .debug_ranges  0x0000000000002710       0x30 0x1 /usr/local/popcorn/x86_64/lib/libc.a(fclose.o)
 .debug_ranges  0x0000000000002740       0x30 0x1 /usr/local/popcorn/x86_64/lib/libc.a(fflush.o)
 .debug_ranges  0x0000000000002770       0x40 0x1 /usr/local/popcorn/x86_64/lib/libc.a(fseek.o)
 .debug_ranges  0x00000000000027b0       0xd0 0x1 /usr/local/popcorn/x86_64/lib/libc.a(vfscanf.o)
 .debug_ranges  0x0000000000002880       0x30 0x1 /usr/local/popcorn/x86_64/lib/libc.a(vsnprintf.o)
 .debug_ranges  0x00000000000028b0       0x30 0x1 /usr/local/popcorn/x86_64/lib/libc.a(vsscanf.o)
 .debug_ranges  0x00000000000028e0       0xb0 0x1 /usr/local/popcorn/x86_64/lib/libc.a(qsort.o)
 .debug_ranges  0x0000000000002990       0x80 0x1 /usr/local/popcorn/x86_64/lib/libc.a(strtol.o)
 .debug_ranges  0x0000000000002a10      0x110 0x1 /usr/local/popcorn/x86_64/lib/libc.a(pthread_attr_get.o)
 .debug_ranges  0x0000000000002b20       0x30 0x1 /usr/local/popcorn/x86_64/lib/libc.a(pthread_migrate.o)
 .debug_ranges  0x0000000000002b50       0x30 0x1 /usr/local/popcorn/x86_64/lib/libc.a(close.o)
 .debug_ranges  0x0000000000002b80      0x320 0x1 /usr/local/popcorn/x86_64/lib/libc.a(floatscan.o)
 .debug_ranges  0x0000000000002ea0       0x70 0x1 /usr/local/popcorn/x86_64/lib/libc.a(intscan.o)
 .debug_ranges  0x0000000000002f10       0x30 0x1 /usr/local/popcorn/x86_64/lib/libc.a(shgetc.o)
 .debug_ranges  0x0000000000002f40       0xa0 0x1 /usr/local/popcorn/x86_64/lib/libc.a(expand_heap.o)
 .debug_ranges  0x0000000000002fe0       0x40 0x1 /usr/local/popcorn/x86_64/lib/libc.a(block.o)
 .debug_ranges  0x0000000000003020       0x30 0x1 /usr/local/popcorn/x86_64/lib/libc.a(__toread.o)

.debug_macro
 *(.debug_macro)

.debug_addr
 *(.debug_addr)

.gnu.attributes
 *(.gnu.attributes)

/DISCARD/
 *(.note.GNU-stack)
 *(.gnu_debuglink)
 *(.gnu.lto_*)
OUTPUT(build_x86-64/basic_x86-64 elf64-x86-64)
